 Resampler

 Timestamp is 4c39c3fb (Sun Jul 11 21:15:39 2010)

 Preferred load address is 10000000

 Start         Length     Name                   Class
 0001:00000000 00021d98H .text                   CODE
 0001:00021da0 00001c13H .text$x                 CODE
 0001:000239c0 000000fbH .text$yc                CODE
 0001:00023ac0 000000aaH .text$yd                CODE
 0002:00000000 0000060cH .idata$5                DATA
 0002:0000060c 00000004H .CRT$XCA                DATA
 0002:00000610 00000010H .CRT$XCU                DATA
 0002:00000620 00000004H .CRT$XCZ                DATA
 0002:00000624 00000004H .CRT$XIA                DATA
 0002:00000628 00000004H .CRT$XIAA               DATA
 0002:0000062c 00000004H .CRT$XIC                DATA
 0002:00000630 00000004H .CRT$XIZ                DATA
 0002:00000640 000033f0H .rdata                  DATA
 0002:00003a30 00000069H .rdata$debug            DATA
 0002:00003a9c 00000f80H .rdata$r                DATA
 0002:00004a20 0000021cH .rdata$sxdata           DATA
 0002:00004c3c 00000004H .rtc$IAA                DATA
 0002:00004c40 00000004H .rtc$IZZ                DATA
 0002:00004c44 00000004H .rtc$TAA                DATA
 0002:00004c48 00000004H .rtc$TZZ                DATA
 0002:00004c50 00002774H .xdata$x                DATA
 0002:000073c4 00000064H .idata$2                DATA
 0002:00007428 00000014H .idata$3                DATA
 0002:0000743c 0000060cH .idata$4                DATA
 0002:00007a48 000044aaH .idata$6                DATA
 0002:0000bf00 0000008bH .edata                  DATA
 0003:00000000 00000710H .data                   DATA
 0003:00000710 000004acH .bss                    DATA

  Address         Publics by Value              Rva+Base       Lib:Object

 0000:00000000       __except_list              00000000     <absolute>
 0000:00000087       ___safe_se_handler_count   00000087     <absolute>
 0000:00009876       __fltused                  00009876     <absolute>
 0000:00009876       __ldused                   00009876     <absolute>
 0000:00000000       ___ImageBase               10000000     <linker-defined>
 0001:00000000       ?resamplePoint@GaussianResampler@@EAENUIndexPair@@NN@Z 10001000 f   GaussianResampler.obj
 0001:00000110       ?size@?$vector@NV?$allocator@N@std@@@std@@QBEIXZ 10001110 f i GaussianResampler.obj
 0001:00000130       ??A?$vector@NV?$allocator@N@std@@@std@@QBEABNI@Z 10001130 f i GaussianResampler.obj
 0001:00000150       ??0_Iterator_base@std@@QAE@XZ 10001150 f i Interpolator.obj
 0001:00000160       ??0bad_alloc@std@@QAE@PBD@Z 10001160 f i Interpolator.obj
 0001:00000180       ??1bad_alloc@std@@UAE@XZ   10001180 f i Interpolator.obj
 0001:00000190       ??_Gbad_alloc@std@@UAEPAXI@Z 10001190 f i Interpolator.obj
 0001:00000190       ??_Ebad_alloc@std@@UAEPAXI@Z 10001190 f i  CIL library: CIL module
 0001:000001c0       ??0logic_error@std@@QAE@ABV?$basic_string@DU?$char_traits@D@std@@V?$allocator@D@2@@1@@Z 100011c0 f i Interpolator.obj
 0001:00000220       ??1logic_error@std@@UAE@XZ 10001220 f i Interpolator.obj
 0001:00000240       ?what@logic_error@std@@UBEPBDXZ 10001240 f i Interpolator.obj
 0001:00000250       ??_Glogic_error@std@@UAEPAXI@Z 10001250 f i Interpolator.obj
 0001:00000250       ??_Elogic_error@std@@UAEPAXI@Z 10001250 f i  CIL library: CIL module
 0001:00000280       ??0length_error@std@@QAE@ABV?$basic_string@DU?$char_traits@D@std@@V?$allocator@D@2@@1@@Z 10001280 f i Interpolator.obj
 0001:000002e0       ??1length_error@std@@UAE@XZ 100012e0 f i Interpolator.obj
 0001:00000300       ??_Glength_error@std@@UAEPAXI@Z 10001300 f i Interpolator.obj
 0001:00000300       ??_Elength_error@std@@UAEPAXI@Z 10001300 f i  CIL library: CIL module
 0001:00000330       ??0logic_error@std@@QAE@ABV01@@Z 10001330 f i Interpolator.obj
 0001:00000390       ?getSettingFullWidthHalfMax@ResamplerOptions@@SANXZ 10001390 f i Interpolator.obj
 0001:00000420       ?getSettingFullWidthHalfMaxKey@ResamplerOptions@@SA?AV?$basic_string@DU?$char_traits@D@std@@V?$allocator@D@2@@std@@XZ 10001420 f i Interpolator.obj
 0001:00000440       ??0Interpolator@@QAE@ABV?$vector@NV?$allocator@N@std@@@std@@0N@Z 10001440 f   Interpolator.obj
 0001:00000460       ?canExtrapolate@Interpolator@@AAE_NNNN@Z 10001460 f i Interpolator.obj
 0001:000004d0       ?constructorInputsAreValid@Interpolator@@AAE_NAAV?$basic_string@DU?$char_traits@D@std@@V?$allocator@D@2@@std@@@Z 100014d0 f   Interpolator.obj
 0001:00000570       ?hasDuplicateValues@Interpolator@@CA_NABV?$vector@NV?$allocator@N@std@@@std@@@Z 10001570 f   Interpolator.obj
 0001:00000610       ?run@Interpolator@@QAE_NABV?$vector@NV?$allocator@N@std@@@std@@0AAV23@AAV?$vector@HV?$allocator@H@std@@@3@AAV?$basic_string@DU?$char_traits@D@std@@V?$allocator@D@2@@3@@Z 10001610 f   Interpolator.obj
 0001:000008a0       ?getSourceIndices@Interpolator@@AAE_NNAAUIndexPair@@AAV?$basic_string@DU?$char_traits@D@std@@V?$allocator@D@2@@std@@@Z 100018a0 f   Interpolator.obj
 0001:00000d30       ?canUseSinglePoint@Interpolator@@AAE_NNN@Z 10001d30 f i Interpolator.obj
 0001:00000d60       ?noResamplingNecessary@Interpolator@@QAE_NABV?$vector@NV?$allocator@N@std@@@std@@@Z 10001d60 f   Interpolator.obj
 0001:00000e80       ??C?$Service@VConfigurationSettings@@@@QBEPAVConfigurationSettings@@XZ 10001e80 f i Interpolator.obj
 0001:00000e90       ?reserve@?$vector@NV?$allocator@N@std@@@std@@QAEXI@Z 10001e90 f i Interpolator.obj
 0001:00000f40       ?begin@?$vector@NV?$allocator@N@std@@@std@@QBE?AV?$_Vector_const_iterator@NV?$allocator@N@std@@@2@XZ 10001f40 f i Interpolator.obj
 0001:00000f60       ?end@?$vector@NV?$allocator@N@std@@@std@@QBE?AV?$_Vector_const_iterator@NV?$allocator@N@std@@@2@XZ 10001f60 f i Interpolator.obj
 0001:00000f80       ?push_back@?$vector@NV?$allocator@N@std@@@std@@QAEXABN@Z 10001f80 f i Interpolator.obj
 0001:00000fe0       ?clear@?$vector@NV?$allocator@N@std@@@std@@QAEXXZ 10001fe0 f i Interpolator.obj
 0001:00001030       ??0?$_Vector_const_iterator@NV?$allocator@N@std@@@std@@QAE@XZ 10002030 f i Interpolator.obj
 0001:00001040       ??D?$_Vector_const_iterator@NV?$allocator@N@std@@@std@@QBEABNXZ 10002040 f i Interpolator.obj
 0001:00001070       ??E?$_Vector_const_iterator@NV?$allocator@N@std@@@std@@QAEAAV01@XZ 10002070 f i Interpolator.obj
 0001:000010a0       ??9?$_Vector_const_iterator@NV?$allocator@N@std@@@std@@QBE_NABV01@@Z 100020a0 f i Interpolator.obj
 0001:000010c0       ?reserve@?$vector@HV?$allocator@H@std@@@std@@QAEXI@Z 100020c0 f i Interpolator.obj
 0001:00001170       ?size@?$vector@HV?$allocator@H@std@@@std@@QBEIXZ 10002170 f i Interpolator.obj
 0001:00001190       ?push_back@?$vector@HV?$allocator@H@std@@@std@@QAEXABH@Z 10002190 f i Interpolator.obj
 0001:000011f0       ?clear@?$vector@HV?$allocator@H@std@@@std@@QAEXXZ 100021f0 f i Interpolator.obj
 0001:00001240       ??0?$_Ranit@NHPBNABN@std@@QAE@XZ 10002240 f i Interpolator.obj
 0001:00001250       ?capacity@?$vector@NV?$allocator@N@std@@@std@@QBEIXZ 10002250 f i Interpolator.obj
 0001:00001270       ?begin@?$vector@NV?$allocator@N@std@@@std@@QAE?AV?$_Vector_iterator@NV?$allocator@N@std@@@2@XZ 10002270 f i Interpolator.obj
 0001:00001290       ?end@?$vector@NV?$allocator@N@std@@@std@@QAE?AV?$_Vector_iterator@NV?$allocator@N@std@@@2@XZ 10002290 f i Interpolator.obj
 0001:000012b0       ?max_size@?$vector@NV?$allocator@N@std@@@std@@QBEIXZ 100022b0 f i Interpolator.obj
 0001:000012c0       ?insert@?$vector@NV?$allocator@N@std@@@std@@QAE?AV?$_Vector_iterator@NV?$allocator@N@std@@@2@V32@ABN@Z 100022c0 f i Interpolator.obj
 0001:00001350       ?erase@?$vector@NV?$allocator@N@std@@@std@@QAE?AV?$_Vector_iterator@NV?$allocator@N@std@@@2@V32@0@Z 10002350 f i Interpolator.obj
 0001:000013b0       ?_Destroy@?$vector@NV?$allocator@N@std@@@std@@IAEXPAN0@Z 100023b0 f i Interpolator.obj
 0001:000013c0       ?_Ufill@?$vector@NV?$allocator@N@std@@@std@@IAEPANPANIABN@Z 100023c0 f i Interpolator.obj
 0001:000013e0       ?_Xlen@?$vector@NV?$allocator@N@std@@@std@@KAXXZ 100023e0 f i Interpolator.obj
 0001:00001460       ?deallocate@?$allocator@N@std@@QAEXPANI@Z 10002460 f i Interpolator.obj
 0001:00001470       ?allocate@?$allocator@N@std@@QAEPANI@Z 10002470 f i Interpolator.obj
 0001:000014d0       ??0?$_Vector_const_iterator@NV?$allocator@N@std@@@std@@QAE@PANPBU_Container_base@1@@Z 100024d0 f i Interpolator.obj
 0001:00001500       ??8?$_Vector_const_iterator@NV?$allocator@N@std@@@std@@QBE_NABV01@@Z 10002500 f i Interpolator.obj
 0001:00001520       ?capacity@?$vector@HV?$allocator@H@std@@@std@@QBEIXZ 10002520 f i Interpolator.obj
 0001:00001540       ?begin@?$vector@HV?$allocator@H@std@@@std@@QAE?AV?$_Vector_iterator@HV?$allocator@H@std@@@2@XZ 10002540 f i Interpolator.obj
 0001:00001560       ?end@?$vector@HV?$allocator@H@std@@@std@@QAE?AV?$_Vector_iterator@HV?$allocator@H@std@@@2@XZ 10002560 f i Interpolator.obj
 0001:00001580       ?max_size@?$vector@HV?$allocator@H@std@@@std@@QBEIXZ 10002580 f i Interpolator.obj
 0001:00001590       ?insert@?$vector@HV?$allocator@H@std@@@std@@QAE?AV?$_Vector_iterator@HV?$allocator@H@std@@@2@V32@ABH@Z 10002590 f i Interpolator.obj
 0001:00001620       ?erase@?$vector@HV?$allocator@H@std@@@std@@QAE?AV?$_Vector_iterator@HV?$allocator@H@std@@@2@V32@0@Z 10002620 f i Interpolator.obj
 0001:00001680       ?_Destroy@?$vector@HV?$allocator@H@std@@@std@@IAEXPAH0@Z 10002680 f i Interpolator.obj
 0001:00001690       ?_Ufill@?$vector@HV?$allocator@H@std@@@std@@IAEPAHPAHIABH@Z 10002690 f i Interpolator.obj
 0001:000016c0       ?_Xlen@?$vector@HV?$allocator@H@std@@@std@@KAXXZ 100026c0 f i Interpolator.obj
 0001:00001740       ?deallocate@?$allocator@H@std@@QAEXPAHI@Z 10002740 f i Interpolator.obj
 0001:00001750       ?allocate@?$allocator@H@std@@QAEPAHI@Z 10002750 f i Interpolator.obj
 0001:000017b0       ??0length_error@std@@QAE@ABV01@@Z 100027b0 f i Interpolator.obj
 0001:000017d0       ?_Insert_n@?$vector@NV?$allocator@N@std@@@std@@IAEXV?$_Vector_iterator@NV?$allocator@N@std@@@2@IABN@Z 100027d0 f i Interpolator.obj
 0001:000019b0       ?max_size@?$allocator@N@std@@QBEIXZ 100029b0 f i Interpolator.obj
 0001:000019c0       ?_Insert_n@?$vector@HV?$allocator@H@std@@@std@@IAEXV?$_Vector_iterator@HV?$allocator@H@std@@@2@IABH@Z 100029c0 f i Interpolator.obj
 0001:00001ba0       ?max_size@?$allocator@H@std@@QBEIXZ 10002ba0 f i Interpolator.obj
 0001:00001bb0       ??0?$_Vector_iterator@NV?$allocator@N@std@@@std@@QAE@PANPBU_Container_base@1@@Z 10002bb0 f i Interpolator.obj
 0001:00001be0       ??H?$_Vector_iterator@NV?$allocator@N@std@@@std@@QBE?AV01@H@Z 10002be0 f i Interpolator.obj
 0001:00001c20       ??G?$_Vector_iterator@NV?$allocator@N@std@@@std@@QBEHABV?$_Vector_const_iterator@NV?$allocator@N@std@@@1@@Z 10002c20 f i Interpolator.obj
 0001:00001c40       ??0?$_Vector_iterator@HV?$allocator@H@std@@@std@@QAE@PAHPBU_Container_base@1@@Z 10002c40 f i Interpolator.obj
 0001:00001c70       ??H?$_Vector_iterator@HV?$allocator@H@std@@@std@@QBE?AV01@H@Z 10002c70 f i Interpolator.obj
 0001:00001cb0       ??G?$_Vector_iterator@HV?$allocator@H@std@@@std@@QBEHABV?$_Vector_const_iterator@HV?$allocator@H@std@@@1@@Z 10002cb0 f i Interpolator.obj
 0001:00001cd0       ??9?$_Vector_const_iterator@HV?$allocator@H@std@@@std@@QBE_NABV01@@Z 10002cd0 f i Interpolator.obj
 0001:00001cf0       ??G?$_Vector_const_iterator@NV?$allocator@N@std@@@std@@QBEHABV01@@Z 10002cf0 f i Interpolator.obj
 0001:00001d10       ??Y?$_Vector_iterator@NV?$allocator@N@std@@@std@@QAEAAV01@H@Z 10002d10 f i Interpolator.obj
 0001:00001d50       ??Y?$_Vector_iterator@HV?$allocator@H@std@@@std@@QAEAAV01@H@Z 10002d50 f i Interpolator.obj
 0001:00001d90       ??0?$_Vector_const_iterator@HV?$allocator@H@std@@@std@@QAE@PAHPBU_Container_base@1@@Z 10002d90 f i Interpolator.obj
 0001:00001dc0       ??G?$_Vector_const_iterator@HV?$allocator@H@std@@@std@@QBEHABV01@@Z 10002dc0 f i Interpolator.obj
 0001:00001de0       ??8?$_Vector_const_iterator@HV?$allocator@H@std@@@std@@QBE_NABV01@@Z 10002de0 f i Interpolator.obj
 0001:00001e00       ??0?$_Ranit@HHPBHABH@std@@QAE@XZ 10002e00 f i Interpolator.obj
 0001:00001e10       ??Y?$_Vector_const_iterator@NV?$allocator@N@std@@@std@@QAEAAV01@H@Z 10002e10 f i Interpolator.obj
 0001:00001e50       ??Y?$_Vector_const_iterator@HV?$allocator@H@std@@@std@@QAEAAV01@H@Z 10002e50 f i Interpolator.obj
 0001:00001e90       ??$dv_cast_with_verification@N@@YANABVDataVariant@@ABN@Z 10002e90 f i Interpolator.obj
 0001:00001f90       ??$_Umove@V?$_Vector_iterator@NV?$allocator@N@std@@@std@@@?$vector@NV?$allocator@N@std@@@std@@IAEPANV?$_Vector_iterator@NV?$allocator@N@std@@@1@0PAN@Z 10002f90 f i Interpolator.obj
 0001:00001fc0       ??$_Umove@V?$_Vector_iterator@HV?$allocator@H@std@@@std@@@?$vector@HV?$allocator@H@std@@@std@@IAEPAHV?$_Vector_iterator@HV?$allocator@H@std@@@1@0PAH@Z 10002fc0 f i Interpolator.obj
 0001:00001ff0       ??$unchecked_copy@PANPAN@stdext@@YAPANPAN00@Z 10002ff0 f i Interpolator.obj
 0001:00002020       ??$_Destroy_range@NV?$allocator@N@std@@@std@@YAXPAN0AAV?$allocator@N@0@@Z 10003020 f i Interpolator.obj
 0001:00002030       ??$unchecked_uninitialized_fill_n@PANINV?$allocator@N@std@@@stdext@@YAXPANIABNAAV?$allocator@N@std@@@Z 10003030 f i Interpolator.obj
 0001:00002050       ??$_Allocate@N@std@@YAPANIPAN@Z 10003050 f i Interpolator.obj
 0001:000020a0       ??$unchecked_copy@PAHPAH@stdext@@YAPAHPAH00@Z 100030a0 f i Interpolator.obj
 0001:000020d0       ??$_Destroy_range@HV?$allocator@H@std@@@std@@YAXPAH0AAV?$allocator@H@0@@Z 100030d0 f i Interpolator.obj
 0001:000020e0       ??$unchecked_uninitialized_fill_n@PAHIHV?$allocator@H@std@@@stdext@@YAXPAHIABHAAV?$allocator@H@std@@@Z 100030e0 f i Interpolator.obj
 0001:00002100       ??$_Allocate@H@std@@YAPAHIPAH@Z 10003100 f i Interpolator.obj
 0001:00002150       ??$_Umove@PAN@?$vector@NV?$allocator@N@std@@@std@@IAEPANPAN00@Z 10003150 f i Interpolator.obj
 0001:00002180       ??$fill@PANN@std@@YAXPAN0ABN@Z 10003180 f i Interpolator.obj
 0001:000021a0       ??$_Unchecked_move_backward@PANPAN@stdext@@YAPANPAN00@Z 100031a0 f i Interpolator.obj
 0001:000021d0       ??$_Umove@PAH@?$vector@HV?$allocator@H@std@@@std@@IAEPAHPAH00@Z 100031d0 f i Interpolator.obj
 0001:00002200       ??$fill@PAHH@std@@YAXPAH0ABH@Z 10003200 f i Interpolator.obj
 0001:00002210       ??$_Unchecked_move_backward@PAHPAH@stdext@@YAPAHPAH00@Z 10003210 f i Interpolator.obj
 0001:00002240       ??0bad_alloc@std@@QAE@ABV01@@Z 10003240 f i Interpolator.obj
 0001:00002260       ??$getValue@N@DataVariant@@QBE_NAAN@Z 10003260 f i Interpolator.obj
 0001:000022a0       ??$getPointerToValue@N@DataVariant@@QBEPBNXZ 100032a0 f i Interpolator.obj
 0001:000022d0       ??$_Unchecked_uninitialized_move@V?$_Vector_iterator@NV?$allocator@N@std@@@std@@PANV?$allocator@N@2@@stdext@@YAPANV?$_Vector_iterator@NV?$allocator@N@std@@@std@@0PANAAV?$allocator@N@2@@Z 100032d0 f i Interpolator.obj
 0001:00002300       ??$_Unchecked_uninitialized_move@V?$_Vector_iterator@HV?$allocator@H@std@@@std@@PAHV?$allocator@H@2@@stdext@@YAPAHV?$_Vector_iterator@HV?$allocator@H@std@@@std@@0PAHAAV?$allocator@H@2@@Z 10003300 f i Interpolator.obj
 0001:00002330       ??$_Checked_base@PAN@std@@YAPANAAPAN@Z 10003330 f i Interpolator.obj
 0001:00002340       ??$_Iter_random@PANPAN@std@@YA?AUrandom_access_iterator_tag@0@ABQAN0@Z 10003340 f i Interpolator.obj
 0001:00002350       ??$_Ptr_cat@PANPAN@std@@YA?AU_Scalar_ptr_iterator_tag@0@AAPAN0@Z 10003350 f i Interpolator.obj
 0001:00002360       ??$_Copy_opt@PANPANUrandom_access_iterator_tag@std@@@std@@YAPANPAN00Urandom_access_iterator_tag@0@U_Scalar_ptr_iterator_tag@0@U_Range_checked_iterator_tag@0@@Z 10003360 f i Interpolator.obj
 0001:00002380       ??$_Destroy_range@NV?$allocator@N@std@@@std@@YAXPAN0AAV?$allocator@N@0@U_Scalar_ptr_iterator_tag@0@@Z 10003380 f i Interpolator.obj
 0001:00002390       ??$_Uninit_fill_n@PANINV?$allocator@N@std@@@std@@YAXPANIABNAAV?$allocator@N@0@U_Scalar_ptr_iterator_tag@0@U_Range_checked_iterator_tag@0@@Z 10003390 f i Interpolator.obj
 0001:000023b0       ??$_Checked_base@PAH@std@@YAPAHAAPAH@Z 100033b0 f i Interpolator.obj
 0001:000023c0       ??$_Iter_random@PAHPAH@std@@YA?AUrandom_access_iterator_tag@0@ABQAH0@Z 100033c0 f i Interpolator.obj
 0001:000023d0       ??$_Ptr_cat@PAHPAH@std@@YA?AU_Scalar_ptr_iterator_tag@0@AAPAH0@Z 100033d0 f i Interpolator.obj
 0001:000023e0       ??$_Copy_opt@PAHPAHUrandom_access_iterator_tag@std@@@std@@YAPAHPAH00Urandom_access_iterator_tag@0@U_Scalar_ptr_iterator_tag@0@U_Range_checked_iterator_tag@0@@Z 100033e0 f i Interpolator.obj
 0001:00002400       ??$_Destroy_range@HV?$allocator@H@std@@@std@@YAXPAH0AAV?$allocator@H@0@U_Scalar_ptr_iterator_tag@0@@Z 10003400 f i Interpolator.obj
 0001:00002410       ??$_Uninit_fill_n@PAHIHV?$allocator@H@std@@@std@@YAXPAHIABHAAV?$allocator@H@0@U_Scalar_ptr_iterator_tag@0@U_Range_checked_iterator_tag@0@@Z 10003410 f i Interpolator.obj
 0001:00002430       ??$_Unchecked_uninitialized_move@PANPANV?$allocator@N@std@@@stdext@@YAPANPAN00AAV?$allocator@N@std@@@Z 10003430 f i Interpolator.obj
 0001:00002460       ??$_Fill@PANN@std@@YAXPAN0ABN@Z 10003460 f i Interpolator.obj
 0001:00002480       ??$_Move_cat@PAN@std@@YA?AU_Undefined_move_tag@0@ABQAN@Z 10003480 f i Interpolator.obj
 0001:00002490       ??$_Move_backward_opt@PANPANUrandom_access_iterator_tag@std@@U_Undefined_move_tag@2@@std@@YAPANPAN00Urandom_access_iterator_tag@0@U_Undefined_move_tag@0@U_Range_checked_iterator_tag@0@@Z 10003490 f i Interpolator.obj
 0001:000024c0       ??$_Unchecked_uninitialized_move@PAHPAHV?$allocator@H@std@@@stdext@@YAPAHPAH00AAV?$allocator@H@std@@@Z 100034c0 f i Interpolator.obj
 0001:000024f0       ??$_Fill@PAHH@std@@YAXPAH0ABH@Z 100034f0 f i Interpolator.obj
 0001:00002500       ??$_Move_cat@PAH@std@@YA?AU_Undefined_move_tag@0@ABQAH@Z 10003500 f i Interpolator.obj
 0001:00002510       ??$_Move_backward_opt@PAHPAHUrandom_access_iterator_tag@std@@U_Undefined_move_tag@2@@std@@YAPAHPAH00Urandom_access_iterator_tag@0@U_Undefined_move_tag@0@U_Range_checked_iterator_tag@0@@Z 10003510 f i Interpolator.obj
 0001:00002540       ??$getPointerToValue@N@DataVariant@@QAEPANXZ 10003540 f i Interpolator.obj
 0001:00002570       ??$_Checked_base@V?$_Vector_iterator@NV?$allocator@N@std@@@std@@@std@@YAPANAAV?$_Vector_iterator@NV?$allocator@N@std@@@0@@Z 10003570 f i Interpolator.obj
 0001:00002580       ??$_Uninit_move@PANPANV?$allocator@N@std@@U_Undefined_move_tag@2@@std@@YAPANPAN00AAV?$allocator@N@0@U_Undefined_move_tag@0@U_Range_checked_iterator_tag@0@@Z 10003580 f i Interpolator.obj
 0001:000025b0       ??$_Checked_base@V?$_Vector_iterator@HV?$allocator@H@std@@@std@@@std@@YAPAHAAV?$_Vector_iterator@HV?$allocator@H@std@@@0@@Z 100035b0 f i Interpolator.obj
 0001:000025c0       ??$_Uninit_move@PAHPAHV?$allocator@H@std@@U_Undefined_move_tag@2@@std@@YAPAHPAH00AAV?$allocator@H@0@U_Undefined_move_tag@0@U_Range_checked_iterator_tag@0@@Z 100035c0 f i Interpolator.obj
 0001:000025f0       ??$_Checked_base@PAN@std@@YAPANAAPANU_Unchanged_checked_iterator_base_type_tag@0@@Z 100035f0 f i Interpolator.obj
 0001:00002600       ??$unchecked_fill_n@PANIN@stdext@@YAXPANIABN@Z 10003600 f i Interpolator.obj
 0001:00002620       ??$_Checked_base@PAH@std@@YAPAHAAPAHU_Unchanged_checked_iterator_base_type_tag@0@@Z 10003620 f i Interpolator.obj
 0001:00002630       ??$unchecked_fill_n@PAHIH@stdext@@YAXPAHIABH@Z 10003630 f i Interpolator.obj
 0001:00002650       ??$_Copy_backward_opt@PANPANUrandom_access_iterator_tag@std@@@std@@YAPANPAN00Urandom_access_iterator_tag@0@U_Scalar_ptr_iterator_tag@0@U_Range_checked_iterator_tag@0@@Z 10003650 f i Interpolator.obj
 0001:00002670       ??$_Copy_backward_opt@PAHPAHUrandom_access_iterator_tag@std@@@std@@YAPAHPAH00Urandom_access_iterator_tag@0@U_Scalar_ptr_iterator_tag@0@U_Range_checked_iterator_tag@0@@Z 10003670 f i Interpolator.obj
 0001:00002690       ??$_Checked_base@V?$_Vector_iterator@NV?$allocator@N@std@@@std@@U_Different_checked_iterator_base_type_tag@2@@std@@YAPANAAV?$_Vector_iterator@NV?$allocator@N@std@@@0@U_Different_checked_iterator_base_type_tag@0@@Z 10003690 f i Interpolator.obj
 0001:000026a0       ??$unchecked_uninitialized_copy@PANPANV?$allocator@N@std@@@stdext@@YAPANPAN00AAV?$allocator@N@std@@@Z 100036a0 f i Interpolator.obj
 0001:000026d0       ??$_Checked_base@V?$_Vector_iterator@HV?$allocator@H@std@@@std@@U_Different_checked_iterator_base_type_tag@2@@std@@YAPAHAAV?$_Vector_iterator@HV?$allocator@H@std@@@0@U_Different_checked_iterator_base_type_tag@0@@Z 100036d0 f i Interpolator.obj
 0001:000026e0       ??$unchecked_uninitialized_copy@PAHPAHV?$allocator@H@std@@@stdext@@YAPAHPAH00AAV?$allocator@H@std@@@Z 100036e0 f i Interpolator.obj
 0001:00002710       ??$_Iter_cat@PAN@std@@YA?AUrandom_access_iterator_tag@0@ABQAN@Z 10003710 f i Interpolator.obj
 0001:00002720       ??$_Fill_n@PANIN@std@@YAXPANIABNUrandom_access_iterator_tag@0@U_Range_checked_iterator_tag@0@@Z 10003720 f i Interpolator.obj
 0001:00002740       ??$_Iter_cat@PAH@std@@YA?AUrandom_access_iterator_tag@0@ABQAH@Z 10003740 f i Interpolator.obj
 0001:00002750       ??$_Fill_n@PAHIH@std@@YAXPAHIABHUrandom_access_iterator_tag@0@U_Range_checked_iterator_tag@0@@Z 10003750 f i Interpolator.obj
 0001:00002770       ?_Checked_iterator_base@?$_Vector_iterator@NV?$allocator@N@std@@@std@@QBEPANXZ 10003770 f i Interpolator.obj
 0001:00002780       ?_Checked_iterator_base@?$_Vector_iterator@HV?$allocator@H@std@@@std@@QBEPAHXZ 10003780 f i Interpolator.obj
 0001:00002790       ??$_Uninit_copy@PANPANV?$allocator@N@std@@@std@@YAPANPAN00AAV?$allocator@N@0@U_Scalar_ptr_iterator_tag@0@U_Range_checked_iterator_tag@0@@Z 10003790 f i Interpolator.obj
 0001:000027b0       ??$_Uninit_copy@PAHPAHV?$allocator@H@std@@@std@@YAPAHPAH00AAV?$allocator@H@0@U_Scalar_ptr_iterator_tag@0@U_Range_checked_iterator_tag@0@@Z 100037b0 f i Interpolator.obj
 0001:000027d0       ??$_Fill_n@PANIN@std@@YAXPANIABNU_Range_checked_iterator_tag@0@@Z 100037d0 f i Interpolator.obj
 0001:000027f0       ??$_Fill_n@PAHIH@std@@YAXPAHIABHU_Range_checked_iterator_tag@0@@Z 100037f0 f i Interpolator.obj
 0001:00002810       ??0LinearInterpolator@@QAE@ABV?$vector@NV?$allocator@N@std@@@std@@0N@Z 10003810 f   LinearInterpolator.obj
 0001:00002830       ?resamplePoint@LinearInterpolator@@EAENUIndexPair@@NN@Z 10003830 f   LinearInterpolator.obj
 0001:00002960       ??2@YAPAXIPAX@Z            10003960 f i ModuleManager.obj
 0001:00002970       ??3@YAXPAX0@Z              10003970 f i ModuleManager.obj
 0001:00002980       ??RFactoryPtrComparator@@QAE_NU?$pair@V?$basic_string@DU?$char_traits@D@std@@V?$allocator@D@2@@std@@PAVPlugInFactory@@@std@@0@Z 10003980 f i ModuleManager.obj
 0001:00002ad0       ??1?$pair@V?$basic_string@DU?$char_traits@D@std@@V?$allocator@D@2@@std@@PAVPlugInFactory@@@std@@QAE@XZ 10003ad0 f i ModuleManager.obj
 0001:00002ae0       ?setService@ModuleManager@@QAEXPAVExternal@@@Z 10003ae0 f i ModuleManager.obj
 0001:00002af0       ?factories@SpectralResampler@@YAAAV?$vector@U?$pair@V?$basic_string@DU?$char_traits@D@std@@V?$allocator@D@2@@std@@PAVPlugInFactory@@@std@@V?$allocator@U?$pair@V?$basic_string@DU?$char_traits@D@std@@V?$allocator@D@2@@std@@PAVPlugInFactory@@@std@@@2@@std@@XZ 10003af0 f   ModuleManager.obj
 0001:00002b50       ?addFactory@SpectralResampler@@YAXPAVPlugInFactory@@@Z 10003b50 f   ModuleManager.obj
 0001:00002cb0       ?getPlugIn@SpectralResampler@@YAPAVPlugIn@@I@Z 10003cb0 f   ModuleManager.obj
 0001:00002d80       _opticks_get_module_descriptor 10003d80 f   ModuleManager.obj
 0001:00002d90       _SpectralResamplerInstantiatePlugIn 10003d90 f   ModuleManager.obj
 0001:00002dc0       ?getTotalPlugIns@ModuleManager@@SAIXZ 10003dc0 f   ModuleManager.obj
 0001:00002dd0       ?getPlugIn@ModuleManager@@QAEPAVPlugIn@@I@Z 10003dd0 f   ModuleManager.obj
 0001:00002de0       ??1?$vector@V?$basic_string@DU?$char_traits@D@std@@V?$allocator@D@2@@std@@V?$allocator@V?$basic_string@DU?$char_traits@D@std@@V?$allocator@D@2@@std@@@2@@std@@QAE@XZ 10003de0 f i ModuleManager.obj
 0001:00002df0       ?begin@?$vector@V?$basic_string@DU?$char_traits@D@std@@V?$allocator@D@2@@std@@V?$allocator@V?$basic_string@DU?$char_traits@D@std@@V?$allocator@D@2@@std@@@2@@std@@QAE?AV?$_Vector_iterator@V?$basic_string@DU?$char_traits@D@std@@V?$allocator@D@2@@std@@V?$allocator@V?$basic_string@DU?$char_traits@D@std@@V?$allocator@D@2@@std@@@2@@2@XZ 10003df0 f i ModuleManager.obj
 0001:00002e10       ?end@?$vector@V?$basic_string@DU?$char_traits@D@std@@V?$allocator@D@2@@std@@V?$allocator@V?$basic_string@DU?$char_traits@D@std@@V?$allocator@D@2@@std@@@2@@std@@QAE?AV?$_Vector_iterator@V?$basic_string@DU?$char_traits@D@std@@V?$allocator@D@2@@std@@V?$allocator@V?$basic_string@DU?$char_traits@D@std@@V?$allocator@D@2@@std@@@2@@2@XZ 10003e10 f i ModuleManager.obj
 0001:00002e30       ??0?$vector@U?$pair@V?$basic_string@DU?$char_traits@D@std@@V?$allocator@D@2@@std@@PAVPlugInFactory@@@std@@V?$allocator@U?$pair@V?$basic_string@DU?$char_traits@D@std@@V?$allocator@D@2@@std@@PAVPlugInFactory@@@std@@@2@@std@@QAE@XZ 10003e30 f i ModuleManager.obj
 0001:00002e50       ??1?$vector@U?$pair@V?$basic_string@DU?$char_traits@D@std@@V?$allocator@D@2@@std@@PAVPlugInFactory@@@std@@V?$allocator@U?$pair@V?$basic_string@DU?$char_traits@D@std@@V?$allocator@D@2@@std@@PAVPlugInFactory@@@std@@@2@@std@@QAE@XZ 10003e50 f i ModuleManager.obj
 0001:00002e60       ?begin@?$vector@U?$pair@V?$basic_string@DU?$char_traits@D@std@@V?$allocator@D@2@@std@@PAVPlugInFactory@@@std@@V?$allocator@U?$pair@V?$basic_string@DU?$char_traits@D@std@@V?$allocator@D@2@@std@@PAVPlugInFactory@@@std@@@2@@std@@QAE?AV?$_Vector_iterator@U?$pair@V?$basic_string@DU?$char_traits@D@std@@V?$allocator@D@2@@std@@PAVPlugInFactory@@@std@@V?$allocator@U?$pair@V?$basic_string@DU?$char_traits@D@std@@V?$allocator@D@2@@std@@PAVPlugInFactory@@@std@@@2@@2@XZ 10003e60 f i ModuleManager.obj
 0001:00002e80       ?end@?$vector@U?$pair@V?$basic_string@DU?$char_traits@D@std@@V?$allocator@D@2@@std@@PAVPlugInFactory@@@std@@V?$allocator@U?$pair@V?$basic_string@DU?$char_traits@D@std@@V?$allocator@D@2@@std@@PAVPlugInFactory@@@std@@@2@@std@@QAE?AV?$_Vector_iterator@U?$pair@V?$basic_string@DU?$char_traits@D@std@@V?$allocator@D@2@@std@@PAVPlugInFactory@@@std@@V?$allocator@U?$pair@V?$basic_string@DU?$char_traits@D@std@@V?$allocator@D@2@@std@@PAVPlugInFactory@@@std@@@2@@2@XZ 10003e80 f i ModuleManager.obj
 0001:00002ea0       ?size@?$vector@U?$pair@V?$basic_string@DU?$char_traits@D@std@@V?$allocator@D@2@@std@@PAVPlugInFactory@@@std@@V?$allocator@U?$pair@V?$basic_string@DU?$char_traits@D@std@@V?$allocator@D@2@@std@@PAVPlugInFactory@@@std@@@2@@std@@QBEIXZ 10003ea0 f i ModuleManager.obj
 0001:00002ec0       ??A?$vector@U?$pair@V?$basic_string@DU?$char_traits@D@std@@V?$allocator@D@2@@std@@PAVPlugInFactory@@@std@@V?$allocator@U?$pair@V?$basic_string@DU?$char_traits@D@std@@V?$allocator@D@2@@std@@PAVPlugInFactory@@@std@@@2@@std@@QAEAAU?$pair@V?$basic_string@DU?$char_traits@D@std@@V?$allocator@D@2@@std@@PAVPlugInFactory@@@1@I@Z 10003ec0 f i ModuleManager.obj
 0001:00002ef0       ?push_back@?$vector@U?$pair@V?$basic_string@DU?$char_traits@D@std@@V?$allocator@D@2@@std@@PAVPlugInFactory@@@std@@V?$allocator@U?$pair@V?$basic_string@DU?$char_traits@D@std@@V?$allocator@D@2@@std@@PAVPlugInFactory@@@std@@@2@@std@@QAEXABU?$pair@V?$basic_string@DU?$char_traits@D@std@@V?$allocator@D@2@@std@@PAVPlugInFactory@@@2@@Z 10003ef0 f i ModuleManager.obj
 0001:00002f70       ??D?$_Vector_iterator@V?$basic_string@DU?$char_traits@D@std@@V?$allocator@D@2@@std@@V?$allocator@V?$basic_string@DU?$char_traits@D@std@@V?$allocator@D@2@@std@@@2@@std@@QBEAAV?$basic_string@DU?$char_traits@D@std@@V?$allocator@D@2@@1@XZ 10003f70 f i ModuleManager.obj
 0001:00002fa0       ??E?$_Vector_iterator@V?$basic_string@DU?$char_traits@D@std@@V?$allocator@D@2@@std@@V?$allocator@V?$basic_string@DU?$char_traits@D@std@@V?$allocator@D@2@@std@@@2@@std@@QAEAAV01@XZ 10003fa0 f i ModuleManager.obj
 0001:00002fd0       ??9?$_Vector_const_iterator@V?$basic_string@DU?$char_traits@D@std@@V?$allocator@D@2@@std@@V?$allocator@V?$basic_string@DU?$char_traits@D@std@@V?$allocator@D@2@@std@@@2@@std@@QBE_NABV01@@Z 10003fd0 f i ModuleManager.obj
 0001:00002ff0       ?_Destroy@?$vector@V?$basic_string@DU?$char_traits@D@std@@V?$allocator@D@2@@std@@V?$allocator@V?$basic_string@DU?$char_traits@D@std@@V?$allocator@D@2@@std@@@2@@std@@IAEXPAV?$basic_string@DU?$char_traits@D@std@@V?$allocator@D@2@@2@0@Z 10003ff0 f i ModuleManager.obj
 0001:00003020       ?_Tidy@?$vector@V?$basic_string@DU?$char_traits@D@std@@V?$allocator@D@2@@std@@V?$allocator@V?$basic_string@DU?$char_traits@D@std@@V?$allocator@D@2@@std@@@2@@std@@IAEXXZ 10004020 f i ModuleManager.obj
 0001:00003070       ?deallocate@?$allocator@V?$basic_string@DU?$char_traits@D@std@@V?$allocator@D@2@@std@@@std@@QAEXPAV?$basic_string@DU?$char_traits@D@std@@V?$allocator@D@2@@2@I@Z 10004070 f i ModuleManager.obj
 0001:00003080       ?capacity@?$vector@U?$pair@V?$basic_string@DU?$char_traits@D@std@@V?$allocator@D@2@@std@@PAVPlugInFactory@@@std@@V?$allocator@U?$pair@V?$basic_string@DU?$char_traits@D@std@@V?$allocator@D@2@@std@@PAVPlugInFactory@@@std@@@2@@std@@QBEIXZ 10004080 f i ModuleManager.obj
 0001:000030a0       ?insert@?$vector@U?$pair@V?$basic_string@DU?$char_traits@D@std@@V?$allocator@D@2@@std@@PAVPlugInFactory@@@std@@V?$allocator@U?$pair@V?$basic_string@DU?$char_traits@D@std@@V?$allocator@D@2@@std@@PAVPlugInFactory@@@std@@@2@@std@@QAE?AV?$_Vector_iterator@U?$pair@V?$basic_string@DU?$char_traits@D@std@@V?$allocator@D@2@@std@@PAVPlugInFactory@@@std@@V?$allocator@U?$pair@V?$basic_string@DU?$char_traits@D@std@@V?$allocator@D@2@@std@@PAVPlugInFactory@@@std@@@2@@2@V32@ABU?$pair@V?$basic_string@DU?$char_traits@D@std@@V?$allocator@D@2@@std@@PAVPlugInFactory@@@2@@Z 100040a0 f i ModuleManager.obj
 0001:00003130       ?_Buy@?$vector@U?$pair@V?$basic_string@DU?$char_traits@D@std@@V?$allocator@D@2@@std@@PAVPlugInFactory@@@std@@V?$allocator@U?$pair@V?$basic_string@DU?$char_traits@D@std@@V?$allocator@D@2@@std@@PAVPlugInFactory@@@std@@@2@@std@@IAE_NI@Z 10004130 f i ModuleManager.obj
 0001:00003160       ?_Tidy@?$vector@U?$pair@V?$basic_string@DU?$char_traits@D@std@@V?$allocator@D@2@@std@@PAVPlugInFactory@@@std@@V?$allocator@U?$pair@V?$basic_string@DU?$char_traits@D@std@@V?$allocator@D@2@@std@@PAVPlugInFactory@@@std@@@2@@std@@IAEXXZ 10004160 f i ModuleManager.obj
 0001:000031c0       ?_Ufill@?$vector@U?$pair@V?$basic_string@DU?$char_traits@D@std@@V?$allocator@D@2@@std@@PAVPlugInFactory@@@std@@V?$allocator@U?$pair@V?$basic_string@DU?$char_traits@D@std@@V?$allocator@D@2@@std@@PAVPlugInFactory@@@std@@@2@@std@@IAEPAU?$pair@V?$basic_string@DU?$char_traits@D@std@@V?$allocator@D@2@@std@@PAVPlugInFactory@@@2@PAU32@IABU32@@Z 100041c0 f i ModuleManager.obj
 0001:000031f0       ??0?$_Vector_val@U?$pair@V?$basic_string@DU?$char_traits@D@std@@V?$allocator@D@2@@std@@PAVPlugInFactory@@@std@@V?$allocator@U?$pair@V?$basic_string@DU?$char_traits@D@std@@V?$allocator@D@2@@std@@PAVPlugInFactory@@@std@@@2@@std@@IAE@V?$allocator@U?$pair@V?$basic_string@DU?$char_traits@D@std@@V?$allocator@D@2@@std@@PAVPlugInFactory@@@std@@@1@@Z 100041f0 f i ModuleManager.obj
 0001:00003200       ??0?$allocator@U?$pair@V?$basic_string@DU?$char_traits@D@std@@V?$allocator@D@2@@std@@PAVPlugInFactory@@@std@@@std@@QAE@XZ 10004200 f i ModuleManager.obj
 0001:00003210       ??0?$_Vector_iterator@V?$basic_string@DU?$char_traits@D@std@@V?$allocator@D@2@@std@@V?$allocator@V?$basic_string@DU?$char_traits@D@std@@V?$allocator@D@2@@std@@@2@@std@@QAE@PAV?$basic_string@DU?$char_traits@D@std@@V?$allocator@D@2@@1@PBU_Container_base@1@@Z 10004210 f i ModuleManager.obj
 0001:00003240       ??D?$_Vector_const_iterator@V?$basic_string@DU?$char_traits@D@std@@V?$allocator@D@2@@std@@V?$allocator@V?$basic_string@DU?$char_traits@D@std@@V?$allocator@D@2@@std@@@2@@std@@QBEABV?$basic_string@DU?$char_traits@D@std@@V?$allocator@D@2@@1@XZ 10004240 f i ModuleManager.obj
 0001:00003270       ??E?$_Vector_const_iterator@V?$basic_string@DU?$char_traits@D@std@@V?$allocator@D@2@@std@@V?$allocator@V?$basic_string@DU?$char_traits@D@std@@V?$allocator@D@2@@std@@@2@@std@@QAEAAV01@XZ 10004270 f i ModuleManager.obj
 0001:000032a0       ??8?$_Vector_const_iterator@V?$basic_string@DU?$char_traits@D@std@@V?$allocator@D@2@@std@@V?$allocator@V?$basic_string@DU?$char_traits@D@std@@V?$allocator@D@2@@std@@@2@@std@@QBE_NABV01@@Z 100042a0 f i ModuleManager.obj
 0001:000032c0       ??0?$_Vector_iterator@U?$pair@V?$basic_string@DU?$char_traits@D@std@@V?$allocator@D@2@@std@@PAVPlugInFactory@@@std@@V?$allocator@U?$pair@V?$basic_string@DU?$char_traits@D@std@@V?$allocator@D@2@@std@@PAVPlugInFactory@@@std@@@2@@std@@QAE@PAU?$pair@V?$basic_string@DU?$char_traits@D@std@@V?$allocator@D@2@@std@@PAVPlugInFactory@@@1@PBU_Container_base@1@@Z 100042c0 f i ModuleManager.obj
 0001:000032f0       ?max_size@?$vector@U?$pair@V?$basic_string@DU?$char_traits@D@std@@V?$allocator@D@2@@std@@PAVPlugInFactory@@@std@@V?$allocator@U?$pair@V?$basic_string@DU?$char_traits@D@std@@V?$allocator@D@2@@std@@PAVPlugInFactory@@@std@@@2@@std@@QBEIXZ 100042f0 f i ModuleManager.obj
 0001:00003300       ?_Destroy@?$vector@U?$pair@V?$basic_string@DU?$char_traits@D@std@@V?$allocator@D@2@@std@@PAVPlugInFactory@@@std@@V?$allocator@U?$pair@V?$basic_string@DU?$char_traits@D@std@@V?$allocator@D@2@@std@@PAVPlugInFactory@@@std@@@2@@std@@IAEXPAU?$pair@V?$basic_string@DU?$char_traits@D@std@@V?$allocator@D@2@@std@@PAVPlugInFactory@@@2@0@Z 10004300 f i ModuleManager.obj
 0001:00003320       ?_Insert_n@?$vector@U?$pair@V?$basic_string@DU?$char_traits@D@std@@V?$allocator@D@2@@std@@PAVPlugInFactory@@@std@@V?$allocator@U?$pair@V?$basic_string@DU?$char_traits@D@std@@V?$allocator@D@2@@std@@PAVPlugInFactory@@@std@@@2@@std@@IAEXV?$_Vector_iterator@U?$pair@V?$basic_string@DU?$char_traits@D@std@@V?$allocator@D@2@@std@@PAVPlugInFactory@@@std@@V?$allocator@U?$pair@V?$basic_string@DU?$char_traits@D@std@@V?$allocator@D@2@@std@@PAVPlugInFactory@@@std@@@2@@2@IABU?$pair@V?$basic_string@DU?$char_traits@D@std@@V?$allocator@D@2@@std@@PAVPlugInFactory@@@2@@Z 10004320 f i ModuleManager.obj
 0001:000035a0       ?_Xlen@?$vector@U?$pair@V?$basic_string@DU?$char_traits@D@std@@V?$allocator@D@2@@std@@PAVPlugInFactory@@@std@@V?$allocator@U?$pair@V?$basic_string@DU?$char_traits@D@std@@V?$allocator@D@2@@std@@PAVPlugInFactory@@@std@@@2@@std@@KAXXZ 100045a0 f i ModuleManager.obj
 0001:00003620       ??0?$allocator@U?$pair@V?$basic_string@DU?$char_traits@D@std@@V?$allocator@D@2@@std@@PAVPlugInFactory@@@std@@@std@@QAE@ABV01@@Z 10004620 f i ModuleManager.obj
 0001:00003630       ?deallocate@?$allocator@U?$pair@V?$basic_string@DU?$char_traits@D@std@@V?$allocator@D@2@@std@@PAVPlugInFactory@@@std@@@std@@QAEXPAU?$pair@V?$basic_string@DU?$char_traits@D@std@@V?$allocator@D@2@@std@@PAVPlugInFactory@@@2@I@Z 10004630 f i ModuleManager.obj
 0001:00003640       ?allocate@?$allocator@U?$pair@V?$basic_string@DU?$char_traits@D@std@@V?$allocator@D@2@@std@@PAVPlugInFactory@@@std@@@std@@QAEPAU?$pair@V?$basic_string@DU?$char_traits@D@std@@V?$allocator@D@2@@std@@PAVPlugInFactory@@@2@I@Z 10004640 f i ModuleManager.obj
 0001:000036a0       ??0?$_Vector_const_iterator@V?$basic_string@DU?$char_traits@D@std@@V?$allocator@D@2@@std@@V?$allocator@V?$basic_string@DU?$char_traits@D@std@@V?$allocator@D@2@@std@@@2@@std@@QAE@PAV?$basic_string@DU?$char_traits@D@std@@V?$allocator@D@2@@1@PBU_Container_base@1@@Z 100046a0 f i ModuleManager.obj
 0001:000036d0       ??H?$_Vector_iterator@U?$pair@V?$basic_string@DU?$char_traits@D@std@@V?$allocator@D@2@@std@@PAVPlugInFactory@@@std@@V?$allocator@U?$pair@V?$basic_string@DU?$char_traits@D@std@@V?$allocator@D@2@@std@@PAVPlugInFactory@@@std@@@2@@std@@QBE?AV01@H@Z 100046d0 f i ModuleManager.obj
 0001:00003710       ??G?$_Vector_iterator@U?$pair@V?$basic_string@DU?$char_traits@D@std@@V?$allocator@D@2@@std@@PAVPlugInFactory@@@std@@V?$allocator@U?$pair@V?$basic_string@DU?$char_traits@D@std@@V?$allocator@D@2@@std@@PAVPlugInFactory@@@std@@@2@@std@@QBEHABV?$_Vector_const_iterator@U?$pair@V?$basic_string@DU?$char_traits@D@std@@V?$allocator@D@2@@std@@PAVPlugInFactory@@@std@@V?$allocator@U?$pair@V?$basic_string@DU?$char_traits@D@std@@V?$allocator@D@2@@std@@PAVPlugInFactory@@@std@@@2@@1@@Z 10004710 f i ModuleManager.obj
 0001:00003730       ??0?$_Vector_const_iterator@U?$pair@V?$basic_string@DU?$char_traits@D@std@@V?$allocator@D@2@@std@@PAVPlugInFactory@@@std@@V?$allocator@U?$pair@V?$basic_string@DU?$char_traits@D@std@@V?$allocator@D@2@@std@@PAVPlugInFactory@@@std@@@2@@std@@QAE@PAU?$pair@V?$basic_string@DU?$char_traits@D@std@@V?$allocator@D@2@@std@@PAVPlugInFactory@@@1@PBU_Container_base@1@@Z 10004730 f i ModuleManager.obj
 0001:00003760       ??0?$pair@V?$basic_string@DU?$char_traits@D@std@@V?$allocator@D@2@@std@@PAVPlugInFactory@@@std@@QAE@ABU01@@Z 10004760 f i ModuleManager.obj
 0001:00003780       ??0?$_Ranit@V?$basic_string@DU?$char_traits@D@std@@V?$allocator@D@2@@std@@HPBV12@ABV12@@std@@QAE@XZ 10004780 f i ModuleManager.obj
 0001:00003790       ??0?$_Ranit@U?$pair@V?$basic_string@DU?$char_traits@D@std@@V?$allocator@D@2@@std@@PAVPlugInFactory@@@std@@HPBU12@ABU12@@std@@QAE@XZ 10004790 f i ModuleManager.obj
 0001:000037a0       ?max_size@?$allocator@U?$pair@V?$basic_string@DU?$char_traits@D@std@@V?$allocator@D@2@@std@@PAVPlugInFactory@@@std@@@std@@QBEIXZ 100047a0 f i ModuleManager.obj
 0001:000037b0       ??Y?$_Vector_iterator@U?$pair@V?$basic_string@DU?$char_traits@D@std@@V?$allocator@D@2@@std@@PAVPlugInFactory@@@std@@V?$allocator@U?$pair@V?$basic_string@DU?$char_traits@D@std@@V?$allocator@D@2@@std@@PAVPlugInFactory@@@std@@@2@@std@@QAEAAV01@H@Z 100047b0 f i ModuleManager.obj
 0001:000037e0       ??G?$_Vector_const_iterator@U?$pair@V?$basic_string@DU?$char_traits@D@std@@V?$allocator@D@2@@std@@PAVPlugInFactory@@@std@@V?$allocator@U?$pair@V?$basic_string@DU?$char_traits@D@std@@V?$allocator@D@2@@std@@PAVPlugInFactory@@@std@@@2@@std@@QBEHABV01@@Z 100047e0 f i ModuleManager.obj
 0001:00003800       ??Y?$_Vector_const_iterator@U?$pair@V?$basic_string@DU?$char_traits@D@std@@V?$allocator@D@2@@std@@PAVPlugInFactory@@@std@@V?$allocator@U?$pair@V?$basic_string@DU?$char_traits@D@std@@V?$allocator@D@2@@std@@PAVPlugInFactory@@@std@@@2@@std@@QAEAAV01@H@Z 10004800 f i ModuleManager.obj
 0001:00003830       ??$count@V?$_String_iterator@DU?$char_traits@D@std@@V?$allocator@D@2@@std@@D@std@@YAHV?$_String_iterator@DU?$char_traits@D@std@@V?$allocator@D@2@@0@0ABD@Z 10004830 f i ModuleManager.obj
 0001:00003860       ??$make_pair@V?$basic_string@DU?$char_traits@D@std@@V?$allocator@D@2@@std@@PAVPlugInFactory@@@std@@YA?AU?$pair@V?$basic_string@DU?$char_traits@D@std@@V?$allocator@D@2@@std@@PAVPlugInFactory@@@0@V?$basic_string@DU?$char_traits@D@std@@V?$allocator@D@2@@0@PAVPlugInFactory@@@Z 10004860 f i ModuleManager.obj
 0001:000038d0       ??$sort@V?$_Vector_iterator@U?$pair@V?$basic_string@DU?$char_traits@D@std@@V?$allocator@D@2@@std@@PAVPlugInFactory@@@std@@V?$allocator@U?$pair@V?$basic_string@DU?$char_traits@D@std@@V?$allocator@D@2@@std@@PAVPlugInFactory@@@std@@@2@@std@@UFactoryPtrComparator@@@std@@YAXV?$_Vector_iterator@U?$pair@V?$basic_string@DU?$char_traits@D@std@@V?$allocator@D@2@@std@@PAVPlugInFactory@@@std@@V?$allocator@U?$pair@V?$basic_string@DU?$char_traits@D@std@@V?$allocator@D@2@@std@@PAVPlugInFactory@@@std@@@2@@0@0UFactoryPtrComparator@@@Z 100048d0 f i ModuleManager.obj
 0001:00003910       ??$_Destroy_range@V?$basic_string@DU?$char_traits@D@std@@V?$allocator@D@2@@std@@V?$allocator@V?$basic_string@DU?$char_traits@D@std@@V?$allocator@D@2@@std@@@2@@std@@YAXPAV?$basic_string@DU?$char_traits@D@std@@V?$allocator@D@2@@0@0AAV?$allocator@V?$basic_string@DU?$char_traits@D@std@@V?$allocator@D@2@@std@@@0@@Z 10004910 f i ModuleManager.obj
 0001:00003940       ??$unchecked_uninitialized_fill_n@PAU?$pair@V?$basic_string@DU?$char_traits@D@std@@V?$allocator@D@2@@std@@PAVPlugInFactory@@@std@@IU12@V?$allocator@U?$pair@V?$basic_string@DU?$char_traits@D@std@@V?$allocator@D@2@@std@@PAVPlugInFactory@@@std@@@2@@stdext@@YAXPAU?$pair@V?$basic_string@DU?$char_traits@D@std@@V?$allocator@D@2@@std@@PAVPlugInFactory@@@std@@IABU12@AAV?$allocator@U?$pair@V?$basic_string@DU?$char_traits@D@std@@V?$allocator@D@2@@std@@PAVPlugInFactory@@@std@@@2@@Z 10004940 f i ModuleManager.obj
 0001:00003960       ??$_Destroy_range@U?$pair@V?$basic_string@DU?$char_traits@D@std@@V?$allocator@D@2@@std@@PAVPlugInFactory@@@std@@V?$allocator@U?$pair@V?$basic_string@DU?$char_traits@D@std@@V?$allocator@D@2@@std@@PAVPlugInFactory@@@std@@@2@@std@@YAXPAU?$pair@V?$basic_string@DU?$char_traits@D@std@@V?$allocator@D@2@@std@@PAVPlugInFactory@@@0@0AAV?$allocator@U?$pair@V?$basic_string@DU?$char_traits@D@std@@V?$allocator@D@2@@std@@PAVPlugInFactory@@@std@@@0@@Z 10004960 f i ModuleManager.obj
 0001:00003980       ??$_Umove@PAU?$pair@V?$basic_string@DU?$char_traits@D@std@@V?$allocator@D@2@@std@@PAVPlugInFactory@@@std@@@?$vector@U?$pair@V?$basic_string@DU?$char_traits@D@std@@V?$allocator@D@2@@std@@PAVPlugInFactory@@@std@@V?$allocator@U?$pair@V?$basic_string@DU?$char_traits@D@std@@V?$allocator@D@2@@std@@PAVPlugInFactory@@@std@@@2@@std@@IAEPAU?$pair@V?$basic_string@DU?$char_traits@D@std@@V?$allocator@D@2@@std@@PAVPlugInFactory@@@1@PAU21@00@Z 10004980 f i ModuleManager.obj
 0001:000039b0       ??$fill@PAU?$pair@V?$basic_string@DU?$char_traits@D@std@@V?$allocator@D@2@@std@@PAVPlugInFactory@@@std@@U12@@std@@YAXPAU?$pair@V?$basic_string@DU?$char_traits@D@std@@V?$allocator@D@2@@std@@PAVPlugInFactory@@@0@0ABU10@@Z 100049b0 f i ModuleManager.obj
 0001:000039d0       ??$_Unchecked_move_backward@PAU?$pair@V?$basic_string@DU?$char_traits@D@std@@V?$allocator@D@2@@std@@PAVPlugInFactory@@@std@@PAU12@@stdext@@YAPAU?$pair@V?$basic_string@DU?$char_traits@D@std@@V?$allocator@D@2@@std@@PAVPlugInFactory@@@std@@PAU12@00@Z 100049d0 f i ModuleManager.obj
 0001:00003a10       ??$_Allocate@U?$pair@V?$basic_string@DU?$char_traits@D@std@@V?$allocator@D@2@@std@@PAVPlugInFactory@@@std@@@std@@YAPAU?$pair@V?$basic_string@DU?$char_traits@D@std@@V?$allocator@D@2@@std@@PAVPlugInFactory@@@0@IPAU10@@Z 10004a10 f i ModuleManager.obj
 0001:00003a60       ??0?$pair@V?$basic_string@DU?$char_traits@D@std@@V?$allocator@D@2@@std@@PAVPlugInFactory@@@std@@QAE@ABV?$basic_string@DU?$char_traits@D@std@@V?$allocator@D@2@@1@ABQAVPlugInFactory@@@Z 10004a60 f i ModuleManager.obj
 0001:00003a80       ??$_Checked_base@V?$_String_iterator@DU?$char_traits@D@std@@V?$allocator@D@2@@std@@@std@@YAPADAAV?$_String_iterator@DU?$char_traits@D@std@@V?$allocator@D@2@@0@@Z 10004a80 f i ModuleManager.obj
 0001:00003a90       ??$_Count@PADD@std@@YAHPAD0ABD@Z 10004a90 f i ModuleManager.obj
 0001:00003ac0       ??$_Checked_base@V?$_Vector_iterator@U?$pair@V?$basic_string@DU?$char_traits@D@std@@V?$allocator@D@2@@std@@PAVPlugInFactory@@@std@@V?$allocator@U?$pair@V?$basic_string@DU?$char_traits@D@std@@V?$allocator@D@2@@std@@PAVPlugInFactory@@@std@@@2@@std@@@std@@YAPAU?$pair@V?$basic_string@DU?$char_traits@D@std@@V?$allocator@D@2@@std@@PAVPlugInFactory@@@0@AAV?$_Vector_iterator@U?$pair@V?$basic_string@DU?$char_traits@D@std@@V?$allocator@D@2@@std@@PAVPlugInFactory@@@std@@V?$allocator@U?$pair@V?$basic_string@DU?$char_traits@D@std@@V?$allocator@D@2@@std@@PAVPlugInFactory@@@std@@@2@@0@@Z 10004ac0 f i ModuleManager.obj
 0001:00003ad0       ??$_Sort@PAU?$pair@V?$basic_string@DU?$char_traits@D@std@@V?$allocator@D@2@@std@@PAVPlugInFactory@@@std@@HUFactoryPtrComparator@@@std@@YAXPAU?$pair@V?$basic_string@DU?$char_traits@D@std@@V?$allocator@D@2@@std@@PAVPlugInFactory@@@0@0HUFactoryPtrComparator@@@Z 10004ad0 f i ModuleManager.obj
 0001:00003bc0       ??$_Ptr_cat@PAV?$basic_string@DU?$char_traits@D@std@@V?$allocator@D@2@@std@@PAV12@@std@@YA?AU_Nonscalar_ptr_iterator_tag@0@AAPAV?$basic_string@DU?$char_traits@D@std@@V?$allocator@D@2@@0@0@Z 10004bc0 f i ModuleManager.obj
 0001:00003bd0       ??$_Destroy_range@V?$basic_string@DU?$char_traits@D@std@@V?$allocator@D@2@@std@@V?$allocator@V?$basic_string@DU?$char_traits@D@std@@V?$allocator@D@2@@std@@@2@@std@@YAXPAV?$basic_string@DU?$char_traits@D@std@@V?$allocator@D@2@@0@0AAV?$allocator@V?$basic_string@DU?$char_traits@D@std@@V?$allocator@D@2@@std@@@0@U_Nonscalar_ptr_iterator_tag@0@@Z 10004bd0 f i ModuleManager.obj
 0001:00003c00       ??$_Ptr_cat@PAU?$pair@V?$basic_string@DU?$char_traits@D@std@@V?$allocator@D@2@@std@@PAVPlugInFactory@@@std@@PAU12@@std@@YA?AU_Nonscalar_ptr_iterator_tag@0@AAPAU?$pair@V?$basic_string@DU?$char_traits@D@std@@V?$allocator@D@2@@std@@PAVPlugInFactory@@@0@0@Z 10004c00 f i ModuleManager.obj
 0001:00003c10       ??$_Uninit_fill_n@PAU?$pair@V?$basic_string@DU?$char_traits@D@std@@V?$allocator@D@2@@std@@PAVPlugInFactory@@@std@@IU12@V?$allocator@U?$pair@V?$basic_string@DU?$char_traits@D@std@@V?$allocator@D@2@@std@@PAVPlugInFactory@@@std@@@2@@std@@YAXPAU?$pair@V?$basic_string@DU?$char_traits@D@std@@V?$allocator@D@2@@std@@PAVPlugInFactory@@@0@IABU10@AAV?$allocator@U?$pair@V?$basic_string@DU?$char_traits@D@std@@V?$allocator@D@2@@std@@PAVPlugInFactory@@@std@@@0@U_Nonscalar_ptr_iterator_tag@0@U_Range_checked_iterator_tag@0@@Z 10004c10 f i ModuleManager.obj
 0001:00003cb0       ??$_Destroy_range@U?$pair@V?$basic_string@DU?$char_traits@D@std@@V?$allocator@D@2@@std@@PAVPlugInFactory@@@std@@V?$allocator@U?$pair@V?$basic_string@DU?$char_traits@D@std@@V?$allocator@D@2@@std@@PAVPlugInFactory@@@std@@@2@@std@@YAXPAU?$pair@V?$basic_string@DU?$char_traits@D@std@@V?$allocator@D@2@@std@@PAVPlugInFactory@@@0@0AAV?$allocator@U?$pair@V?$basic_string@DU?$char_traits@D@std@@V?$allocator@D@2@@std@@PAVPlugInFactory@@@std@@@0@U_Nonscalar_ptr_iterator_tag@0@@Z 10004cb0 f i ModuleManager.obj
 0001:00003cd0       ??$_Unchecked_uninitialized_move@PAU?$pair@V?$basic_string@DU?$char_traits@D@std@@V?$allocator@D@2@@std@@PAVPlugInFactory@@@std@@PAU12@V?$allocator@U?$pair@V?$basic_string@DU?$char_traits@D@std@@V?$allocator@D@2@@std@@PAVPlugInFactory@@@std@@@2@@stdext@@YAPAU?$pair@V?$basic_string@DU?$char_traits@D@std@@V?$allocator@D@2@@std@@PAVPlugInFactory@@@std@@PAU12@00AAV?$allocator@U?$pair@V?$basic_string@DU?$char_traits@D@std@@V?$allocator@D@2@@std@@PAVPlugInFactory@@@std@@@2@@Z 10004cd0 f i ModuleManager.obj
 0001:00003d00       ??$_Checked_base@PAU?$pair@V?$basic_string@DU?$char_traits@D@std@@V?$allocator@D@2@@std@@PAVPlugInFactory@@@std@@@std@@YAPAU?$pair@V?$basic_string@DU?$char_traits@D@std@@V?$allocator@D@2@@std@@PAVPlugInFactory@@@0@AAPAU10@@Z 10004d00 f i ModuleManager.obj
 0001:00003d10       ??$_Fill@PAU?$pair@V?$basic_string@DU?$char_traits@D@std@@V?$allocator@D@2@@std@@PAVPlugInFactory@@@std@@U12@@std@@YAXPAU?$pair@V?$basic_string@DU?$char_traits@D@std@@V?$allocator@D@2@@std@@PAVPlugInFactory@@@0@0ABU10@@Z 10004d10 f i ModuleManager.obj
 0001:00003d30       ??$_Iter_random@PAU?$pair@V?$basic_string@DU?$char_traits@D@std@@V?$allocator@D@2@@std@@PAVPlugInFactory@@@std@@PAU12@@std@@YA?AUrandom_access_iterator_tag@0@ABQAU?$pair@V?$basic_string@DU?$char_traits@D@std@@V?$allocator@D@2@@std@@PAVPlugInFactory@@@0@0@Z 10004d30 f i ModuleManager.obj
 0001:00003d40       ??$_Move_cat@PAU?$pair@V?$basic_string@DU?$char_traits@D@std@@V?$allocator@D@2@@std@@PAVPlugInFactory@@@std@@@std@@YA?AU_Undefined_move_tag@0@ABQAU?$pair@V?$basic_string@DU?$char_traits@D@std@@V?$allocator@D@2@@std@@PAVPlugInFactory@@@0@@Z 10004d40 f i ModuleManager.obj
 0001:00003d50       ??$_Move_backward_opt@PAU?$pair@V?$basic_string@DU?$char_traits@D@std@@V?$allocator@D@2@@std@@PAVPlugInFactory@@@std@@PAU12@Urandom_access_iterator_tag@2@U_Undefined_move_tag@2@@std@@YAPAU?$pair@V?$basic_string@DU?$char_traits@D@std@@V?$allocator@D@2@@std@@PAVPlugInFactory@@@0@PAU10@00Urandom_access_iterator_tag@0@U_Undefined_move_tag@0@U_Range_checked_iterator_tag@0@@Z 10004d50 f i ModuleManager.obj
 0001:00003d90       ??4?$pair@V?$basic_string@DU?$char_traits@D@std@@V?$allocator@D@2@@std@@PAVPlugInFactory@@@std@@QAEAAU01@ABU01@@Z 10004d90 f i ModuleManager.obj
 0001:00003db0       ?destroy@?$allocator@V?$basic_string@DU?$char_traits@D@std@@V?$allocator@D@2@@std@@@std@@QAEXPAV?$basic_string@DU?$char_traits@D@std@@V?$allocator@D@2@@2@@Z 10004db0 f i ModuleManager.obj
 0001:00003dc0       ?construct@?$allocator@U?$pair@V?$basic_string@DU?$char_traits@D@std@@V?$allocator@D@2@@std@@PAVPlugInFactory@@@std@@@std@@QAEXPAU?$pair@V?$basic_string@DU?$char_traits@D@std@@V?$allocator@D@2@@std@@PAVPlugInFactory@@@2@ABU32@@Z 10004dc0 f i ModuleManager.obj
 0001:00003e10       ?destroy@?$allocator@U?$pair@V?$basic_string@DU?$char_traits@D@std@@V?$allocator@D@2@@std@@PAVPlugInFactory@@@std@@@std@@QAEXPAU?$pair@V?$basic_string@DU?$char_traits@D@std@@V?$allocator@D@2@@std@@PAVPlugInFactory@@@2@@Z 10004e10 f i ModuleManager.obj
 0001:00003e20       ??$_Checked_base@V?$_String_iterator@DU?$char_traits@D@std@@V?$allocator@D@2@@std@@U_Different_checked_iterator_base_type_tag@2@@std@@YAPADAAV?$_String_iterator@DU?$char_traits@D@std@@V?$allocator@D@2@@0@U_Different_checked_iterator_base_type_tag@0@@Z 10004e20 f i ModuleManager.obj
 0001:00003e30       ??$_Checked_base@V?$_Vector_iterator@U?$pair@V?$basic_string@DU?$char_traits@D@std@@V?$allocator@D@2@@std@@PAVPlugInFactory@@@std@@V?$allocator@U?$pair@V?$basic_string@DU?$char_traits@D@std@@V?$allocator@D@2@@std@@PAVPlugInFactory@@@std@@@2@@std@@U_Different_checked_iterator_base_type_tag@2@@std@@YAPAU?$pair@V?$basic_string@DU?$char_traits@D@std@@V?$allocator@D@2@@std@@PAVPlugInFactory@@@0@AAV?$_Vector_iterator@U?$pair@V?$basic_string@DU?$char_traits@D@std@@V?$allocator@D@2@@std@@PAVPlugInFactory@@@std@@V?$allocator@U?$pair@V?$basic_string@DU?$char_traits@D@std@@V?$allocator@D@2@@std@@PAVPlugInFactory@@@std@@@2@@0@U_Different_checked_iterator_base_type_tag@0@@Z 10004e30 f i ModuleManager.obj
 0001:00003e40       ??$_Unguarded_partition@PAU?$pair@V?$basic_string@DU?$char_traits@D@std@@V?$allocator@D@2@@std@@PAVPlugInFactory@@@std@@UFactoryPtrComparator@@@std@@YA?AU?$pair@PAU?$pair@V?$basic_string@DU?$char_traits@D@std@@V?$allocator@D@2@@std@@PAVPlugInFactory@@@std@@PAU12@@0@PAU?$pair@V?$basic_string@DU?$char_traits@D@std@@V?$allocator@D@2@@std@@PAVPlugInFactory@@@0@0UFactoryPtrComparator@@@Z 10004e40 f i ModuleManager.obj
 0001:000042a0       ??$make_heap@PAU?$pair@V?$basic_string@DU?$char_traits@D@std@@V?$allocator@D@2@@std@@PAVPlugInFactory@@@std@@UFactoryPtrComparator@@@std@@YAXPAU?$pair@V?$basic_string@DU?$char_traits@D@std@@V?$allocator@D@2@@std@@PAVPlugInFactory@@@0@0UFactoryPtrComparator@@@Z 100052a0 f i ModuleManager.obj
 0001:000042c0       ??$sort_heap@PAU?$pair@V?$basic_string@DU?$char_traits@D@std@@V?$allocator@D@2@@std@@PAVPlugInFactory@@@std@@UFactoryPtrComparator@@@std@@YAXPAU?$pair@V?$basic_string@DU?$char_traits@D@std@@V?$allocator@D@2@@std@@PAVPlugInFactory@@@0@0UFactoryPtrComparator@@@Z 100052c0 f i ModuleManager.obj
 0001:000042e0       ??$_Insertion_sort@PAU?$pair@V?$basic_string@DU?$char_traits@D@std@@V?$allocator@D@2@@std@@PAVPlugInFactory@@@std@@UFactoryPtrComparator@@@std@@YAXPAU?$pair@V?$basic_string@DU?$char_traits@D@std@@V?$allocator@D@2@@std@@PAVPlugInFactory@@@0@0UFactoryPtrComparator@@@Z 100052e0 f i ModuleManager.obj
 0001:00004420       ??$_Uninit_move@PAU?$pair@V?$basic_string@DU?$char_traits@D@std@@V?$allocator@D@2@@std@@PAVPlugInFactory@@@std@@PAU12@V?$allocator@U?$pair@V?$basic_string@DU?$char_traits@D@std@@V?$allocator@D@2@@std@@PAVPlugInFactory@@@std@@@2@U_Undefined_move_tag@2@@std@@YAPAU?$pair@V?$basic_string@DU?$char_traits@D@std@@V?$allocator@D@2@@std@@PAVPlugInFactory@@@0@PAU10@00AAV?$allocator@U?$pair@V?$basic_string@DU?$char_traits@D@std@@V?$allocator@D@2@@std@@PAVPlugInFactory@@@std@@@0@U_Undefined_move_tag@0@U_Range_checked_iterator_tag@0@@Z 10005420 f i ModuleManager.obj
 0001:00004450       ??$_Checked_base@PAU?$pair@V?$basic_string@DU?$char_traits@D@std@@V?$allocator@D@2@@std@@PAVPlugInFactory@@@std@@@std@@YAPAU?$pair@V?$basic_string@DU?$char_traits@D@std@@V?$allocator@D@2@@std@@PAVPlugInFactory@@@0@AAPAU10@U_Unchanged_checked_iterator_base_type_tag@0@@Z 10005450 f i ModuleManager.obj
 0001:00004460       ??$_Copy_backward_opt@PAU?$pair@V?$basic_string@DU?$char_traits@D@std@@V?$allocator@D@2@@std@@PAVPlugInFactory@@@std@@PAU12@@std@@YAPAU?$pair@V?$basic_string@DU?$char_traits@D@std@@V?$allocator@D@2@@std@@PAVPlugInFactory@@@0@PAU10@00Urandom_access_iterator_tag@0@U_Nonscalar_ptr_iterator_tag@0@U_Range_checked_iterator_tag@0@@Z 10005460 f i ModuleManager.obj
 0001:000044a0       ??$_Destroy@V?$basic_string@DU?$char_traits@D@std@@V?$allocator@D@2@@std@@@std@@YAXPAV?$basic_string@DU?$char_traits@D@std@@V?$allocator@D@2@@0@@Z 100054a0 f i ModuleManager.obj
 0001:000044b0       ??$_Construct@U?$pair@V?$basic_string@DU?$char_traits@D@std@@V?$allocator@D@2@@std@@PAVPlugInFactory@@@std@@U12@@std@@YAXPAU?$pair@V?$basic_string@DU?$char_traits@D@std@@V?$allocator@D@2@@std@@PAVPlugInFactory@@@0@ABU10@@Z 100054b0 f i ModuleManager.obj
 0001:00004500       ??$_Destroy@U?$pair@V?$basic_string@DU?$char_traits@D@std@@V?$allocator@D@2@@std@@PAVPlugInFactory@@@std@@@std@@YAXPAU?$pair@V?$basic_string@DU?$char_traits@D@std@@V?$allocator@D@2@@std@@PAVPlugInFactory@@@0@@Z 10005500 f i ModuleManager.obj
 0001:00004510       ??_G?$basic_string@DU?$char_traits@D@std@@V?$allocator@D@2@@std@@QAEPAXI@Z 10005510 f i ModuleManager.obj
 0001:00004530       ??_G?$pair@V?$basic_string@DU?$char_traits@D@std@@V?$allocator@D@2@@std@@PAVPlugInFactory@@@std@@QAEPAXI@Z 10005530 f i ModuleManager.obj
 0001:00004540       ?_Checked_iterator_base@?$_String_iterator@DU?$char_traits@D@std@@V?$allocator@D@2@@std@@QBEPADXZ 10005540 f i ModuleManager.obj
 0001:00004550       ?_Checked_iterator_base@?$_Vector_iterator@U?$pair@V?$basic_string@DU?$char_traits@D@std@@V?$allocator@D@2@@std@@PAVPlugInFactory@@@std@@V?$allocator@U?$pair@V?$basic_string@DU?$char_traits@D@std@@V?$allocator@D@2@@std@@PAVPlugInFactory@@@std@@@2@@std@@QBEPAU?$pair@V?$basic_string@DU?$char_traits@D@std@@V?$allocator@D@2@@std@@PAVPlugInFactory@@@2@XZ 10005550 f i ModuleManager.obj
 0001:00004560       ??0?$pair@PAU?$pair@V?$basic_string@DU?$char_traits@D@std@@V?$allocator@D@2@@std@@PAVPlugInFactory@@@std@@PAU12@@std@@QAE@ABQAU?$pair@V?$basic_string@DU?$char_traits@D@std@@V?$allocator@D@2@@std@@PAVPlugInFactory@@@1@0@Z 10005560 f i ModuleManager.obj
 0001:00004570       ??$_Median@PAU?$pair@V?$basic_string@DU?$char_traits@D@std@@V?$allocator@D@2@@std@@PAVPlugInFactory@@@std@@UFactoryPtrComparator@@@std@@YAXPAU?$pair@V?$basic_string@DU?$char_traits@D@std@@V?$allocator@D@2@@std@@PAVPlugInFactory@@@0@00UFactoryPtrComparator@@@Z 10005570 f i ModuleManager.obj
 0001:00004620       ??$iter_swap@PAU?$pair@V?$basic_string@DU?$char_traits@D@std@@V?$allocator@D@2@@std@@PAVPlugInFactory@@@std@@PAU12@@std@@YAXPAU?$pair@V?$basic_string@DU?$char_traits@D@std@@V?$allocator@D@2@@std@@PAVPlugInFactory@@@0@0@Z 10005620 f i ModuleManager.obj
 0001:00004640       ??$_Dist_type@PAU?$pair@V?$basic_string@DU?$char_traits@D@std@@V?$allocator@D@2@@std@@PAVPlugInFactory@@@std@@@std@@YAPAHPAU?$pair@V?$basic_string@DU?$char_traits@D@std@@V?$allocator@D@2@@std@@PAVPlugInFactory@@@0@@Z 10005640 f i ModuleManager.obj
 0001:00004650       ??$_Val_type@PAU?$pair@V?$basic_string@DU?$char_traits@D@std@@V?$allocator@D@2@@std@@PAVPlugInFactory@@@std@@@std@@YAPAU?$pair@V?$basic_string@DU?$char_traits@D@std@@V?$allocator@D@2@@std@@PAVPlugInFactory@@@0@PAU10@@Z 10005650 f i ModuleManager.obj
 0001:00004660       ??$_Make_heap@PAU?$pair@V?$basic_string@DU?$char_traits@D@std@@V?$allocator@D@2@@std@@PAVPlugInFactory@@@std@@HU12@UFactoryPtrComparator@@@std@@YAXPAU?$pair@V?$basic_string@DU?$char_traits@D@std@@V?$allocator@D@2@@std@@PAVPlugInFactory@@@0@0UFactoryPtrComparator@@PAH0@Z 10005660 f i ModuleManager.obj
 0001:000046c0       ??$_Sort_heap@PAU?$pair@V?$basic_string@DU?$char_traits@D@std@@V?$allocator@D@2@@std@@PAVPlugInFactory@@@std@@UFactoryPtrComparator@@@std@@YAXPAU?$pair@V?$basic_string@DU?$char_traits@D@std@@V?$allocator@D@2@@std@@PAVPlugInFactory@@@0@0UFactoryPtrComparator@@@Z 100056c0 f i ModuleManager.obj
 0001:00004730       ??$rotate@PAU?$pair@V?$basic_string@DU?$char_traits@D@std@@V?$allocator@D@2@@std@@PAVPlugInFactory@@@std@@@std@@YAXPAU?$pair@V?$basic_string@DU?$char_traits@D@std@@V?$allocator@D@2@@std@@PAVPlugInFactory@@@0@00@Z 10005730 f i ModuleManager.obj
 0001:00004750       ??$swap@DU?$char_traits@D@std@@V?$allocator@D@2@@std@@YAXAAV?$basic_string@DU?$char_traits@D@std@@V?$allocator@D@2@@0@0@Z 10005750 f i ModuleManager.obj
 0001:00004760       ??$unchecked_uninitialized_copy@PAU?$pair@V?$basic_string@DU?$char_traits@D@std@@V?$allocator@D@2@@std@@PAVPlugInFactory@@@std@@PAU12@V?$allocator@U?$pair@V?$basic_string@DU?$char_traits@D@std@@V?$allocator@D@2@@std@@PAVPlugInFactory@@@std@@@2@@stdext@@YAPAU?$pair@V?$basic_string@DU?$char_traits@D@std@@V?$allocator@D@2@@std@@PAVPlugInFactory@@@std@@PAU12@00AAV?$allocator@U?$pair@V?$basic_string@DU?$char_traits@D@std@@V?$allocator@D@2@@std@@PAVPlugInFactory@@@std@@@2@@Z 10005760 f i ModuleManager.obj
 0001:00004790       ??$_Copy_backward_opt@PAU?$pair@V?$basic_string@DU?$char_traits@D@std@@V?$allocator@D@2@@std@@PAVPlugInFactory@@@std@@PAU12@Uforward_iterator_tag@2@@std@@YAPAU?$pair@V?$basic_string@DU?$char_traits@D@std@@V?$allocator@D@2@@std@@PAVPlugInFactory@@@0@PAU10@00Uforward_iterator_tag@0@U_Nonscalar_ptr_iterator_tag@0@U_Range_checked_iterator_tag@0@@Z 10005790 f i ModuleManager.obj
 0001:000047c0       ??$_Med3@PAU?$pair@V?$basic_string@DU?$char_traits@D@std@@V?$allocator@D@2@@std@@PAVPlugInFactory@@@std@@UFactoryPtrComparator@@@std@@YAXPAU?$pair@V?$basic_string@DU?$char_traits@D@std@@V?$allocator@D@2@@std@@PAVPlugInFactory@@@0@00UFactoryPtrComparator@@@Z 100057c0 f i ModuleManager.obj
 0001:00004910       ??$swap@V?$basic_string@DU?$char_traits@D@std@@V?$allocator@D@2@@std@@PAVPlugInFactory@@@std@@YAXAAU?$pair@V?$basic_string@DU?$char_traits@D@std@@V?$allocator@D@2@@std@@PAVPlugInFactory@@@0@0@Z 10005910 f i ModuleManager.obj
 0001:00004930       ??$_Adjust_heap@PAU?$pair@V?$basic_string@DU?$char_traits@D@std@@V?$allocator@D@2@@std@@PAVPlugInFactory@@@std@@HU12@UFactoryPtrComparator@@@std@@YAXPAU?$pair@V?$basic_string@DU?$char_traits@D@std@@V?$allocator@D@2@@std@@PAVPlugInFactory@@@0@HHU10@UFactoryPtrComparator@@@Z 10005930 f i ModuleManager.obj
 0001:00004a90       ??$pop_heap@PAU?$pair@V?$basic_string@DU?$char_traits@D@std@@V?$allocator@D@2@@std@@PAVPlugInFactory@@@std@@UFactoryPtrComparator@@@std@@YAXPAU?$pair@V?$basic_string@DU?$char_traits@D@std@@V?$allocator@D@2@@std@@PAVPlugInFactory@@@0@0UFactoryPtrComparator@@@Z 10005a90 f i ModuleManager.obj
 0001:00004ae0       ??$_Iter_cat@PAU?$pair@V?$basic_string@DU?$char_traits@D@std@@V?$allocator@D@2@@std@@PAVPlugInFactory@@@std@@@std@@YA?AUrandom_access_iterator_tag@0@ABQAU?$pair@V?$basic_string@DU?$char_traits@D@std@@V?$allocator@D@2@@std@@PAVPlugInFactory@@@0@@Z 10005ae0 f i ModuleManager.obj
 0001:00004af0       ??$_Rotate@PAU?$pair@V?$basic_string@DU?$char_traits@D@std@@V?$allocator@D@2@@std@@PAVPlugInFactory@@@std@@@std@@YAXPAU?$pair@V?$basic_string@DU?$char_traits@D@std@@V?$allocator@D@2@@std@@PAVPlugInFactory@@@0@00Urandom_access_iterator_tag@0@@Z 10005af0 f i ModuleManager.obj
 0001:00004b00       ??$_Uninit_copy@PAU?$pair@V?$basic_string@DU?$char_traits@D@std@@V?$allocator@D@2@@std@@PAVPlugInFactory@@@std@@PAU12@V?$allocator@U?$pair@V?$basic_string@DU?$char_traits@D@std@@V?$allocator@D@2@@std@@PAVPlugInFactory@@@std@@@2@@std@@YAPAU?$pair@V?$basic_string@DU?$char_traits@D@std@@V?$allocator@D@2@@std@@PAVPlugInFactory@@@0@PAU10@00AAV?$allocator@U?$pair@V?$basic_string@DU?$char_traits@D@std@@V?$allocator@D@2@@std@@PAVPlugInFactory@@@std@@@0@U_Nonscalar_ptr_iterator_tag@0@U_Range_checked_iterator_tag@0@@Z 10005b00 f i ModuleManager.obj
 0001:00004ba0       ?swap@?$pair@V?$basic_string@DU?$char_traits@D@std@@V?$allocator@D@2@@std@@PAVPlugInFactory@@@std@@QAEXAAU12@@Z 10005ba0 f i ModuleManager.obj
 0001:00004bc0       ??$_Push_heap@PAU?$pair@V?$basic_string@DU?$char_traits@D@std@@V?$allocator@D@2@@std@@PAVPlugInFactory@@@std@@HU12@UFactoryPtrComparator@@@std@@YAXPAU?$pair@V?$basic_string@DU?$char_traits@D@std@@V?$allocator@D@2@@std@@PAVPlugInFactory@@@0@HHU10@UFactoryPtrComparator@@@Z 10005bc0 f i ModuleManager.obj
 0001:00004cc0       ??$_Pop_heap_0@PAU?$pair@V?$basic_string@DU?$char_traits@D@std@@V?$allocator@D@2@@std@@PAVPlugInFactory@@@std@@U12@UFactoryPtrComparator@@@std@@YAXPAU?$pair@V?$basic_string@DU?$char_traits@D@std@@V?$allocator@D@2@@std@@PAVPlugInFactory@@@0@0UFactoryPtrComparator@@0@Z 10005cc0 f i ModuleManager.obj
 0001:00004d00       ??$_Rotate@PAU?$pair@V?$basic_string@DU?$char_traits@D@std@@V?$allocator@D@2@@std@@PAVPlugInFactory@@@std@@HU12@@std@@YAXPAU?$pair@V?$basic_string@DU?$char_traits@D@std@@V?$allocator@D@2@@std@@PAVPlugInFactory@@@0@00PAH0@Z 10005d00 f i ModuleManager.obj
 0001:00004e40       ??$swap@PAVPlugInFactory@@@std@@YAXAAPAVPlugInFactory@@0@Z 10005e40 f i ModuleManager.obj
 0001:00004e50       ??$_Pop_heap@PAU?$pair@V?$basic_string@DU?$char_traits@D@std@@V?$allocator@D@2@@std@@PAVPlugInFactory@@@std@@HU12@UFactoryPtrComparator@@@std@@YAXPAU?$pair@V?$basic_string@DU?$char_traits@D@std@@V?$allocator@D@2@@std@@PAVPlugInFactory@@@0@00U10@UFactoryPtrComparator@@PAH@Z 10005e50 f i ModuleManager.obj
 0001:00004ee0       ??0out_of_range@std@@QAE@ABV?$basic_string@DU?$char_traits@D@std@@V?$allocator@D@2@@1@@Z 10005ee0 f i ResamplerImp.obj
 0001:00004f40       ??1out_of_range@std@@UAE@XZ 10005f40 f i ResamplerImp.obj
 0001:00004f60       ??_Gout_of_range@std@@UAEPAXI@Z 10005f60 f i ResamplerImp.obj
 0001:00004f60       ??_Eout_of_range@std@@UAEPAXI@Z 10005f60 f i  CIL library: CIL module
 0001:00004f90       ??0out_of_range@std@@QAE@ABV01@@Z 10005f90 f i ResamplerImp.obj
 0001:00004fb0       ??0GaussianResampler@@QAE@ABV?$vector@NV?$allocator@N@std@@@std@@0N@Z 10005fb0 f i ResamplerImp.obj
 0001:00004fd0       ??0PlugInFactory@@QAE@XZ   10005fd0 f i ResamplerImp.obj
 0001:00004fe0       ??0BasicPlugInFactory@@QAE@ABV?$basic_string@DU?$char_traits@D@std@@V?$allocator@D@2@@std@@@Z 10005fe0 f i ResamplerImp.obj
 0001:00005060       ?getPlugInNames@BasicPlugInFactory@@UAE?AV?$vector@V?$basic_string@DU?$char_traits@D@std@@V?$allocator@D@2@@std@@V?$allocator@V?$basic_string@DU?$char_traits@D@std@@V?$allocator@D@2@@std@@@2@@std@@XZ 10006060 f i ResamplerImp.obj
 0001:00005080       ?addPlugInName@BasicPlugInFactory@@AAEXV?$basic_string@DU?$char_traits@D@std@@V?$allocator@D@2@@std@@@Z 10006080 f i ResamplerImp.obj
 0001:000050e0       ??1Testable@@MAE@XZ        100060e0 f i ResamplerImp.obj
 0001:000050f0       ??_ETestable@@MAEPAXI@Z    100060f0 f i  CIL library: CIL module
 0001:000050f0       ??_GTestable@@MAEPAXI@Z    100060f0 f i ResamplerImp.obj
 0001:00005110       ??MTriplet@ResamplerImp@@QBE_NABU01@@Z 10006110 f i ResamplerImp.obj
 0001:00005130       ?LinearMethod@ResamplerOptions@@SA?AV?$basic_string@DU?$char_traits@D@std@@V?$allocator@D@2@@std@@XZ 10006130 f i ResamplerImp.obj
 0001:00005150       ?CubicSplineMethod@ResamplerOptions@@SA?AV?$basic_string@DU?$char_traits@D@std@@V?$allocator@D@2@@std@@XZ 10006150 f i ResamplerImp.obj
 0001:00005170       ?GaussianMethod@ResamplerOptions@@SA?AV?$basic_string@DU?$char_traits@D@std@@V?$allocator@D@2@@std@@XZ 10006170 f i ResamplerImp.obj
 0001:00005190       ?getSettingResamplerMethod@ResamplerOptions@@SA?AV?$basic_string@DU?$char_traits@D@std@@V?$allocator@D@2@@std@@XZ 10006190 f i ResamplerImp.obj
 0001:00005240       ?getSettingResamplerMethodKey@ResamplerOptions@@SA?AV?$basic_string@DU?$char_traits@D@std@@V?$allocator@D@2@@std@@XZ 10006240 f i ResamplerImp.obj
 0001:00005260       ?getSettingDropOutWindow@ResamplerOptions@@SANXZ 10006260 f i ResamplerImp.obj
 0001:000052f0       ?getSettingDropOutWindowKey@ResamplerOptions@@SA?AV?$basic_string@DU?$char_traits@D@std@@V?$allocator@D@2@@std@@XZ 100062f0 f i ResamplerImp.obj
 0001:00005310       ??0ResamplerImpPlugInFactory@SpectralResampler@@QAE@ABV?$basic_string@DU?$char_traits@D@std@@V?$allocator@D@2@@std@@@Z 10006310 f i ResamplerImp.obj
 0001:00005370       ?createPlugIn@ResamplerImpPlugInFactory@SpectralResampler@@UAEPAVPlugIn@@ABV?$basic_string@DU?$char_traits@D@std@@V?$allocator@D@2@@std@@@Z 10006370 f i ResamplerImp.obj
 0001:000053d0       ??1BasicPlugInFactory@@QAE@XZ 100063d0 f i ResamplerImp.obj
 0001:000053e0       ??1ResamplerImpPlugInFactory@SpectralResampler@@QAE@XZ 100063e0 f i ResamplerImp.obj
 0001:000053f0       ??0ResamplerImp@@QAE@XZ    100063f0 f   ResamplerImp.obj
 0001:00005600       ??_EResamplerImp@@UAEPAXI@Z 10006600 f i  CIL library: CIL module
 0001:00005600       ??_GResamplerImp@@UAEPAXI@Z 10006600 f i ResamplerImp.obj
 0001:00005650       ??0Resampler@@QAE@XZ       10006650 f i ResamplerImp.obj
 0001:00005660       ??0Testable@@QAE@XZ        10006660 f i ResamplerImp.obj
 0001:00005670       ??1ResamplerImp@@UAE@XZ    10006670 f   ResamplerImp.obj
 0001:000056a0       ?runOperationalTests@ResamplerImp@@UAE_NPAVProgress@@AAV?$basic_ostream@DU?$char_traits@D@std@@@std@@@Z 100066a0 f   ResamplerImp.obj
 0001:000056b0       ?runAllTests@ResamplerImp@@UAE_NPAVProgress@@AAV?$basic_ostream@DU?$char_traits@D@std@@@std@@@Z 100066b0 f   ResamplerImp.obj
 0001:00005e30       ?runTest1@ResamplerImp@@AAE_NAAV?$basic_ostream@DU?$char_traits@D@std@@@std@@@Z 10006e30 f   ResamplerImp.obj
 0001:000067d0       ?runTest2@ResamplerImp@@AAE_NAAV?$basic_ostream@DU?$char_traits@D@std@@@std@@@Z 100077d0 f   ResamplerImp.obj
 0001:000072d0       ?runTest3@ResamplerImp@@AAE_NAAV?$basic_ostream@DU?$char_traits@D@std@@@std@@@Z 100082d0 f   ResamplerImp.obj
 0001:00007db0       ?runTest4@ResamplerImp@@AAE_NAAV?$basic_ostream@DU?$char_traits@D@std@@@std@@@Z 10008db0 f   ResamplerImp.obj
 0001:00008920       ?runTest5@ResamplerImp@@AAE_NAAV?$basic_ostream@DU?$char_traits@D@std@@@std@@@Z 10009920 f   ResamplerImp.obj
 0001:000090c0       ?runTest6@ResamplerImp@@AAE_NAAV?$basic_ostream@DU?$char_traits@D@std@@@std@@@Z 1000a0c0 f   ResamplerImp.obj
 0001:000095f0       ?runTest7@ResamplerImp@@AAE_NAAV?$basic_ostream@DU?$char_traits@D@std@@@std@@@Z 1000a5f0 f   ResamplerImp.obj
 0001:0000a0f0       ?runTest8@ResamplerImp@@AAE_NAAV?$basic_ostream@DU?$char_traits@D@std@@@std@@@Z 1000b0f0 f   ResamplerImp.obj
 0001:0000a830       ?runTest9@ResamplerImp@@AAE_NAAV?$basic_ostream@DU?$char_traits@D@std@@@std@@@Z 1000b830 f   ResamplerImp.obj
 0001:0000af10       ?runTest10@ResamplerImp@@AAE_NAAV?$basic_ostream@DU?$char_traits@D@std@@@std@@@Z 1000bf10 f   ResamplerImp.obj
 0001:0000b8b0       ?runTest11@ResamplerImp@@AAE_NAAV?$basic_ostream@DU?$char_traits@D@std@@@std@@@Z 1000c8b0 f   ResamplerImp.obj
 0001:0000c3a0       ?runTest12@ResamplerImp@@AAE_NAAV?$basic_ostream@DU?$char_traits@D@std@@@std@@@Z 1000d3a0 f   ResamplerImp.obj
 0001:0000cd40       ?runTest13@ResamplerImp@@AAE_NAAV?$basic_ostream@DU?$char_traits@D@std@@@std@@@Z 1000dd40 f   ResamplerImp.obj
 0001:0000d710       ?runTest14@ResamplerImp@@AAE_NAAV?$basic_ostream@DU?$char_traits@D@std@@@std@@@Z 1000e710 f   ResamplerImp.obj
 0001:0000e110       ?runTest15@ResamplerImp@@AAE_NAAV?$basic_ostream@DU?$char_traits@D@std@@@std@@@Z 1000f110 f   ResamplerImp.obj
 0001:0000eb20       ?runTest16@ResamplerImp@@AAE_NAAV?$basic_ostream@DU?$char_traits@D@std@@@std@@@Z 1000fb20 f   ResamplerImp.obj
 0001:0000f610       ?runPositiveTest@ResamplerImp@@AAE_NABV?$basic_string@DU?$char_traits@D@std@@V?$allocator@D@2@@std@@AAV?$basic_ostream@DU?$char_traits@D@std@@@3@ABV?$vector@NV?$allocator@N@std@@@3@ABV?$vector@HV?$allocator@H@std@@@3@2AAV53@222AAV63@AAV23@0ABN@Z 10010610 f   ResamplerImp.obj
 0001:0000f890       ?runNegativeTest@ResamplerImp@@AAE_NABV?$basic_string@DU?$char_traits@D@std@@V?$allocator@D@2@@std@@AAV?$basic_ostream@DU?$char_traits@D@std@@@3@0ABV?$vector@NV?$allocator@N@std@@@3@AAV53@222AAV?$vector@HV?$allocator@H@std@@@3@AAV23@0@Z 10010890 f   ResamplerImp.obj
 0001:0000f9e0       ?execute@ResamplerImp@@UAE_NABV?$vector@NV?$allocator@N@std@@@std@@AAV23@000AAV?$vector@HV?$allocator@H@std@@@3@AAV?$basic_string@DU?$char_traits@D@std@@V?$allocator@D@2@@3@@Z 100109e0 f   ResamplerImp.obj
 0001:0000fa60       ?execute@ResamplerImp@@QAE_NABV?$vector@NV?$allocator@N@std@@@std@@AAV23@000AAV?$vector@HV?$allocator@H@std@@@3@AAV?$basic_string@DU?$char_traits@D@std@@V?$allocator@D@2@@3@ABV53@@Z 10010a60 f   ResamplerImp.obj
 0001:0000ff80       ?sortInputData@ResamplerImp@@AAE_NABV?$vector@NV?$allocator@N@std@@@std@@000AAV23@111AAV?$vector@HV?$allocator@H@std@@@3@AAV?$basic_string@DU?$char_traits@D@std@@V?$allocator@D@2@@3@@Z 10010f80 f   ResamplerImp.obj
 0001:00010660       ?sortOutputData@ResamplerImp@@AAEXABV?$vector@HV?$allocator@H@std@@@std@@AAV23@AAV?$vector@NV?$allocator@N@std@@@3@@Z 10011660 f   ResamplerImp.obj
 0001:00010950       ??0?$vector@V?$basic_string@DU?$char_traits@D@std@@V?$allocator@D@2@@std@@V?$allocator@V?$basic_string@DU?$char_traits@D@std@@V?$allocator@D@2@@std@@@2@@std@@QAE@XZ 10011950 f i ResamplerImp.obj
 0001:00010960       ??0?$vector@V?$basic_string@DU?$char_traits@D@std@@V?$allocator@D@2@@std@@V?$allocator@V?$basic_string@DU?$char_traits@D@std@@V?$allocator@D@2@@std@@@2@@std@@QAE@ABV01@@Z 10011960 f i ResamplerImp.obj
 0001:00010a60       ?push_back@?$vector@V?$basic_string@DU?$char_traits@D@std@@V?$allocator@D@2@@std@@V?$allocator@V?$basic_string@DU?$char_traits@D@std@@V?$allocator@D@2@@std@@@2@@std@@QAEXABV?$basic_string@DU?$char_traits@D@std@@V?$allocator@D@2@@2@@Z 10011a60 f i ResamplerImp.obj
 0001:00010b10       ??0?$vector@NV?$allocator@N@std@@@std@@QAE@XZ 10011b10 f i ResamplerImp.obj
 0001:00010b20       ??1?$vector@NV?$allocator@N@std@@@std@@QAE@XZ 10011b20 f i ResamplerImp.obj
 0001:00010b50       ?at@?$vector@NV?$allocator@N@std@@@std@@QAEAANI@Z 10011b50 f i ResamplerImp.obj
 0001:00010bb0       ??A?$vector@NV?$allocator@N@std@@@std@@QAEAANI@Z 10011bb0 f i ResamplerImp.obj
 0001:00010bd0       ??0?$EnumWrapper@W4ReportingLevelEnum@@@@QAE@ABW4ReportingLevelEnum@@@Z 10011bd0 f i ResamplerImp.obj
 0001:00010be0       ??0?$vector@HV?$allocator@H@std@@@std@@QAE@XZ 10011be0 f i ResamplerImp.obj
 0001:00010bf0       ??1?$vector@HV?$allocator@H@std@@@std@@QAE@XZ 10011bf0 f i ResamplerImp.obj
 0001:00010c20       ??A?$vector@HV?$allocator@H@std@@@std@@QBEABHI@Z 10011c20 f i ResamplerImp.obj
 0001:00010c40       ??A?$vector@HV?$allocator@H@std@@@std@@QAEAAHI@Z 10011c40 f i ResamplerImp.obj
 0001:00010c60       ??0?$auto_ptr@VInterpolator@@@std@@QAE@PAVInterpolator@@@Z 10011c60 f i ResamplerImp.obj
 0001:00010c70       ??4?$auto_ptr@VInterpolator@@@std@@QAEAAV01@U?$auto_ptr_ref@VInterpolator@@@1@@Z 10011c70 f i ResamplerImp.obj
 0001:00010ca0       ??1?$auto_ptr@VInterpolator@@@std@@QAE@XZ 10011ca0 f i ResamplerImp.obj
 0001:00010cb0       ??C?$auto_ptr@VInterpolator@@@std@@QBEPAVInterpolator@@XZ 10011cb0 f i ResamplerImp.obj
 0001:00010cc0       ?get@?$auto_ptr@VInterpolator@@@std@@QBEPAVInterpolator@@XZ 10011cc0 f i ResamplerImp.obj
 0001:00010cd0       ??0?$vector@U?$pair@NN@std@@V?$allocator@U?$pair@NN@std@@@2@@std@@QAE@XZ 10011cd0 f i ResamplerImp.obj
 0001:00010ce0       ??1?$vector@U?$pair@NN@std@@V?$allocator@U?$pair@NN@std@@@2@@std@@QAE@XZ 10011ce0 f i ResamplerImp.obj
 0001:00010d10       ?reserve@?$vector@U?$pair@NN@std@@V?$allocator@U?$pair@NN@std@@@2@@std@@QAEXI@Z 10011d10 f i ResamplerImp.obj
 0001:00010e10       ?begin@?$vector@U?$pair@NN@std@@V?$allocator@U?$pair@NN@std@@@2@@std@@QAE?AV?$_Vector_iterator@U?$pair@NN@std@@V?$allocator@U?$pair@NN@std@@@2@@2@XZ 10011e10 f i ResamplerImp.obj
 0001:00010e30       ?end@?$vector@U?$pair@NN@std@@V?$allocator@U?$pair@NN@std@@@2@@std@@QAE?AV?$_Vector_iterator@U?$pair@NN@std@@V?$allocator@U?$pair@NN@std@@@2@@2@XZ 10011e30 f i ResamplerImp.obj
 0001:00010e50       ?push_back@?$vector@U?$pair@NN@std@@V?$allocator@U?$pair@NN@std@@@2@@std@@QAEXABU?$pair@NN@2@@Z 10011e50 f i ResamplerImp.obj
 0001:00010ed0       ??0?$pair@NN@std@@QAE@XZ   10011ed0 f i ResamplerImp.obj
 0001:00010ee0       ??C?$_Vector_const_iterator@U?$pair@NN@std@@V?$allocator@U?$pair@NN@std@@@2@@std@@QBEPBU?$pair@NN@1@XZ 10011ee0 f i ResamplerImp.obj
 0001:00010f10       ??E?$_Vector_const_iterator@U?$pair@NN@std@@V?$allocator@U?$pair@NN@std@@@2@@std@@QAEAAV01@XZ 10011f10 f i ResamplerImp.obj
 0001:00010f40       ??9?$_Vector_const_iterator@U?$pair@NN@std@@V?$allocator@U?$pair@NN@std@@@2@@std@@QBE_NABV01@@Z 10011f40 f i ResamplerImp.obj
 0001:00010f60       ??0?$vector@UTriplet@ResamplerImp@@V?$allocator@UTriplet@ResamplerImp@@@std@@@std@@QAE@XZ 10011f60 f i ResamplerImp.obj
 0001:00010f70       ??1?$vector@UTriplet@ResamplerImp@@V?$allocator@UTriplet@ResamplerImp@@@std@@@std@@QAE@XZ 10011f70 f i ResamplerImp.obj
 0001:00010fa0       ?reserve@?$vector@UTriplet@ResamplerImp@@V?$allocator@UTriplet@ResamplerImp@@@std@@@std@@QAEXI@Z 10011fa0 f i ResamplerImp.obj
 0001:000110c0       ?begin@?$vector@UTriplet@ResamplerImp@@V?$allocator@UTriplet@ResamplerImp@@@std@@@std@@QAE?AV?$_Vector_iterator@UTriplet@ResamplerImp@@V?$allocator@UTriplet@ResamplerImp@@@std@@@2@XZ 100120c0 f i ResamplerImp.obj
 0001:000110e0       ?end@?$vector@UTriplet@ResamplerImp@@V?$allocator@UTriplet@ResamplerImp@@@std@@@std@@QAE?AV?$_Vector_iterator@UTriplet@ResamplerImp@@V?$allocator@UTriplet@ResamplerImp@@@std@@@2@XZ 100120e0 f i ResamplerImp.obj
 0001:00011100       ?push_back@?$vector@UTriplet@ResamplerImp@@V?$allocator@UTriplet@ResamplerImp@@@std@@@std@@QAEXABUTriplet@ResamplerImp@@@Z 10012100 f i ResamplerImp.obj
 0001:000111a0       ??C?$_Vector_const_iterator@UTriplet@ResamplerImp@@V?$allocator@UTriplet@ResamplerImp@@@std@@@std@@QBEPBUTriplet@ResamplerImp@@XZ 100121a0 f i ResamplerImp.obj
 0001:000111d0       ??E?$_Vector_const_iterator@UTriplet@ResamplerImp@@V?$allocator@UTriplet@ResamplerImp@@@std@@@std@@QAEAAV01@XZ 100121d0 f i ResamplerImp.obj
 0001:00011200       ??9?$_Vector_const_iterator@UTriplet@ResamplerImp@@V?$allocator@UTriplet@ResamplerImp@@@std@@@std@@QBE_NABV01@@Z 10012200 f i ResamplerImp.obj
 0001:00011220       ??0?$vector@U?$pair@HN@std@@V?$allocator@U?$pair@HN@std@@@2@@std@@QAE@XZ 10012220 f i ResamplerImp.obj
 0001:00011230       ??1?$vector@U?$pair@HN@std@@V?$allocator@U?$pair@HN@std@@@2@@std@@QAE@XZ 10012230 f i ResamplerImp.obj
 0001:00011260       ?reserve@?$vector@U?$pair@HN@std@@V?$allocator@U?$pair@HN@std@@@2@@std@@QAEXI@Z 10012260 f i ResamplerImp.obj
 0001:00011360       ?begin@?$vector@U?$pair@HN@std@@V?$allocator@U?$pair@HN@std@@@2@@std@@QAE?AV?$_Vector_iterator@U?$pair@HN@std@@V?$allocator@U?$pair@HN@std@@@2@@2@XZ 10012360 f i ResamplerImp.obj
 0001:00011380       ?end@?$vector@U?$pair@HN@std@@V?$allocator@U?$pair@HN@std@@@2@@std@@QAE?AV?$_Vector_iterator@U?$pair@HN@std@@V?$allocator@U?$pair@HN@std@@@2@@2@XZ 10012380 f i ResamplerImp.obj
 0001:000113a0       ??A?$vector@U?$pair@HN@std@@V?$allocator@U?$pair@HN@std@@@2@@std@@QAEAAU?$pair@HN@1@I@Z 100123a0 f i ResamplerImp.obj
 0001:000113d0       ?push_back@?$vector@U?$pair@HN@std@@V?$allocator@U?$pair@HN@std@@@2@@std@@QAEXABU?$pair@HN@2@@Z 100123d0 f i ResamplerImp.obj
 0001:00011450       ??0?$pair@HN@std@@QAE@XZ   10012450 f i ResamplerImp.obj
 0001:00011460       ?capacity@?$vector@V?$basic_string@DU?$char_traits@D@std@@V?$allocator@D@2@@std@@V?$allocator@V?$basic_string@DU?$char_traits@D@std@@V?$allocator@D@2@@std@@@2@@std@@QBEIXZ 10012460 f i ResamplerImp.obj
 0001:00011490       ?begin@?$vector@V?$basic_string@DU?$char_traits@D@std@@V?$allocator@D@2@@std@@V?$allocator@V?$basic_string@DU?$char_traits@D@std@@V?$allocator@D@2@@std@@@2@@std@@QBE?AV?$_Vector_const_iterator@V?$basic_string@DU?$char_traits@D@std@@V?$allocator@D@2@@std@@V?$allocator@V?$basic_string@DU?$char_traits@D@std@@V?$allocator@D@2@@std@@@2@@2@XZ 10012490 f i ResamplerImp.obj
 0001:000114b0       ?end@?$vector@V?$basic_string@DU?$char_traits@D@std@@V?$allocator@D@2@@std@@V?$allocator@V?$basic_string@DU?$char_traits@D@std@@V?$allocator@D@2@@std@@@2@@std@@QBE?AV?$_Vector_const_iterator@V?$basic_string@DU?$char_traits@D@std@@V?$allocator@D@2@@std@@V?$allocator@V?$basic_string@DU?$char_traits@D@std@@V?$allocator@D@2@@std@@@2@@2@XZ 100124b0 f i ResamplerImp.obj
 0001:000114d0       ?size@?$vector@V?$basic_string@DU?$char_traits@D@std@@V?$allocator@D@2@@std@@V?$allocator@V?$basic_string@DU?$char_traits@D@std@@V?$allocator@D@2@@std@@@2@@std@@QBEIXZ 100124d0 f i ResamplerImp.obj
 0001:00011500       ?insert@?$vector@V?$basic_string@DU?$char_traits@D@std@@V?$allocator@D@2@@std@@V?$allocator@V?$basic_string@DU?$char_traits@D@std@@V?$allocator@D@2@@std@@@2@@std@@QAE?AV?$_Vector_iterator@V?$basic_string@DU?$char_traits@D@std@@V?$allocator@D@2@@std@@V?$allocator@V?$basic_string@DU?$char_traits@D@std@@V?$allocator@D@2@@std@@@2@@2@V32@ABV?$basic_string@DU?$char_traits@D@std@@V?$allocator@D@2@@2@@Z 10012500 f i ResamplerImp.obj
 0001:000115c0       ?_Buy@?$vector@V?$basic_string@DU?$char_traits@D@std@@V?$allocator@D@2@@std@@V?$allocator@V?$basic_string@DU?$char_traits@D@std@@V?$allocator@D@2@@std@@@2@@std@@IAE_NI@Z 100125c0 f i ResamplerImp.obj
 0001:000115f0       ?_Ufill@?$vector@V?$basic_string@DU?$char_traits@D@std@@V?$allocator@D@2@@std@@V?$allocator@V?$basic_string@DU?$char_traits@D@std@@V?$allocator@D@2@@std@@@2@@std@@IAEPAV?$basic_string@DU?$char_traits@D@std@@V?$allocator@D@2@@2@PAV32@IABV32@@Z 100125f0 f i ResamplerImp.obj
 0001:00011620       ??0?$_Vector_val@V?$basic_string@DU?$char_traits@D@std@@V?$allocator@D@2@@std@@V?$allocator@V?$basic_string@DU?$char_traits@D@std@@V?$allocator@D@2@@std@@@2@@std@@IAE@V?$allocator@V?$basic_string@DU?$char_traits@D@std@@V?$allocator@D@2@@std@@@1@@Z 10012620 f i ResamplerImp.obj
 0001:00011630       ??0?$allocator@V?$basic_string@DU?$char_traits@D@std@@V?$allocator@D@2@@std@@@std@@QAE@XZ 10012630 f i ResamplerImp.obj
 0001:00011640       ??0?$allocator@V?$basic_string@DU?$char_traits@D@std@@V?$allocator@D@2@@std@@@std@@QAE@ABV01@@Z 10012640 f i ResamplerImp.obj
 0001:00011650       ?_Buy@?$vector@NV?$allocator@N@std@@@std@@IAE_NI@Z 10012650 f i ResamplerImp.obj
 0001:00011680       ?_Tidy@?$vector@NV?$allocator@N@std@@@std@@IAEXXZ 10012680 f i ResamplerImp.obj
 0001:000116b0       ?_Xran@?$vector@NV?$allocator@N@std@@@std@@KAXXZ 100126b0 f i ResamplerImp.obj
 0001:00011730       ??0?$_Vector_val@NV?$allocator@N@std@@@std@@IAE@V?$allocator@N@1@@Z 10012730 f i ResamplerImp.obj
 0001:00011740       ??0?$allocator@N@std@@QAE@XZ 10012740 f i ResamplerImp.obj
 0001:00011750       ?_Buy@?$vector@HV?$allocator@H@std@@@std@@IAE_NI@Z 10012750 f i ResamplerImp.obj
 0001:00011780       ?_Tidy@?$vector@HV?$allocator@H@std@@@std@@IAEXXZ 10012780 f i ResamplerImp.obj
 0001:000117b0       ??0?$_Vector_val@HV?$allocator@H@std@@@std@@IAE@V?$allocator@H@1@@Z 100127b0 f i ResamplerImp.obj
 0001:000117c0       ??0?$allocator@H@std@@QAE@XZ 100127c0 f i ResamplerImp.obj
 0001:000117d0       ??D?$auto_ptr@VInterpolator@@@std@@QBEAAVInterpolator@@XZ 100127d0 f i ResamplerImp.obj
 0001:000117e0       ?reset@?$auto_ptr@VInterpolator@@@std@@QAEXPAVInterpolator@@@Z 100127e0 f i ResamplerImp.obj
 0001:00011800       ?capacity@?$vector@U?$pair@NN@std@@V?$allocator@U?$pair@NN@std@@@2@@std@@QBEIXZ 10012800 f i ResamplerImp.obj
 0001:00011820       ?size@?$vector@U?$pair@NN@std@@V?$allocator@U?$pair@NN@std@@@2@@std@@QBEIXZ 10012820 f i ResamplerImp.obj
 0001:00011840       ?max_size@?$vector@U?$pair@NN@std@@V?$allocator@U?$pair@NN@std@@@2@@std@@QBEIXZ 10012840 f i ResamplerImp.obj
 0001:00011850       ?insert@?$vector@U?$pair@NN@std@@V?$allocator@U?$pair@NN@std@@@2@@std@@QAE?AV?$_Vector_iterator@U?$pair@NN@std@@V?$allocator@U?$pair@NN@std@@@2@@2@V32@ABU?$pair@NN@2@@Z 10012850 f i ResamplerImp.obj
 0001:000118e0       ?_Buy@?$vector@U?$pair@NN@std@@V?$allocator@U?$pair@NN@std@@@2@@std@@IAE_NI@Z 100128e0 f i ResamplerImp.obj
 0001:00011910       ?_Destroy@?$vector@U?$pair@NN@std@@V?$allocator@U?$pair@NN@std@@@2@@std@@IAEXPAU?$pair@NN@2@0@Z 10012910 f i ResamplerImp.obj
 0001:00011920       ?_Tidy@?$vector@U?$pair@NN@std@@V?$allocator@U?$pair@NN@std@@@2@@std@@IAEXXZ 10012920 f i ResamplerImp.obj
 0001:00011950       ?_Ufill@?$vector@U?$pair@NN@std@@V?$allocator@U?$pair@NN@std@@@2@@std@@IAEPAU?$pair@NN@2@PAU32@IABU32@@Z 10012950 f i ResamplerImp.obj
 0001:00011980       ?_Xlen@?$vector@U?$pair@NN@std@@V?$allocator@U?$pair@NN@std@@@2@@std@@KAXXZ 10012980 f i ResamplerImp.obj
 0001:00011a00       ??0?$_Vector_val@U?$pair@NN@std@@V?$allocator@U?$pair@NN@std@@@2@@std@@IAE@V?$allocator@U?$pair@NN@std@@@1@@Z 10012a00 f i ResamplerImp.obj
 0001:00011a10       ??0?$allocator@U?$pair@NN@std@@@std@@QAE@XZ 10012a10 f i ResamplerImp.obj
 0001:00011a20       ?deallocate@?$allocator@U?$pair@NN@std@@@std@@QAEXPAU?$pair@NN@2@I@Z 10012a20 f i ResamplerImp.obj
 0001:00011a30       ?allocate@?$allocator@U?$pair@NN@std@@@std@@QAEPAU?$pair@NN@2@I@Z 10012a30 f i ResamplerImp.obj
 0001:00011a90       ??0?$_Vector_iterator@U?$pair@NN@std@@V?$allocator@U?$pair@NN@std@@@2@@std@@QAE@PAU?$pair@NN@1@PBU_Container_base@1@@Z 10012a90 f i ResamplerImp.obj
 0001:00011ac0       ??D?$_Vector_const_iterator@U?$pair@NN@std@@V?$allocator@U?$pair@NN@std@@@2@@std@@QBEABU?$pair@NN@1@XZ 10012ac0 f i ResamplerImp.obj
 0001:00011af0       ??8?$_Vector_const_iterator@U?$pair@NN@std@@V?$allocator@U?$pair@NN@std@@@2@@std@@QBE_NABV01@@Z 10012af0 f i ResamplerImp.obj
 0001:00011b10       ?capacity@?$vector@UTriplet@ResamplerImp@@V?$allocator@UTriplet@ResamplerImp@@@std@@@std@@QBEIXZ 10012b10 f i ResamplerImp.obj
 0001:00011b30       ?size@?$vector@UTriplet@ResamplerImp@@V?$allocator@UTriplet@ResamplerImp@@@std@@@std@@QBEIXZ 10012b30 f i ResamplerImp.obj
 0001:00011b50       ?max_size@?$vector@UTriplet@ResamplerImp@@V?$allocator@UTriplet@ResamplerImp@@@std@@@std@@QBEIXZ 10012b50 f i ResamplerImp.obj
 0001:00011b60       ?insert@?$vector@UTriplet@ResamplerImp@@V?$allocator@UTriplet@ResamplerImp@@@std@@@std@@QAE?AV?$_Vector_iterator@UTriplet@ResamplerImp@@V?$allocator@UTriplet@ResamplerImp@@@std@@@2@V32@ABUTriplet@ResamplerImp@@@Z 10012b60 f i ResamplerImp.obj
 0001:00011c10       ?_Buy@?$vector@UTriplet@ResamplerImp@@V?$allocator@UTriplet@ResamplerImp@@@std@@@std@@IAE_NI@Z 10012c10 f i ResamplerImp.obj
 0001:00011c40       ?_Destroy@?$vector@UTriplet@ResamplerImp@@V?$allocator@UTriplet@ResamplerImp@@@std@@@std@@IAEXPAUTriplet@ResamplerImp@@0@Z 10012c40 f i ResamplerImp.obj
 0001:00011c50       ?_Tidy@?$vector@UTriplet@ResamplerImp@@V?$allocator@UTriplet@ResamplerImp@@@std@@@std@@IAEXXZ 10012c50 f i ResamplerImp.obj
 0001:00011c80       ?_Ufill@?$vector@UTriplet@ResamplerImp@@V?$allocator@UTriplet@ResamplerImp@@@std@@@std@@IAEPAUTriplet@ResamplerImp@@PAU34@IABU34@@Z 10012c80 f i ResamplerImp.obj
 0001:00011ca0       ?_Xlen@?$vector@UTriplet@ResamplerImp@@V?$allocator@UTriplet@ResamplerImp@@@std@@@std@@KAXXZ 10012ca0 f i ResamplerImp.obj
 0001:00011d20       ??0?$_Vector_val@UTriplet@ResamplerImp@@V?$allocator@UTriplet@ResamplerImp@@@std@@@std@@IAE@V?$allocator@UTriplet@ResamplerImp@@@1@@Z 10012d20 f i ResamplerImp.obj
 0001:00011d30       ??0?$allocator@UTriplet@ResamplerImp@@@std@@QAE@XZ 10012d30 f i ResamplerImp.obj
 0001:00011d40       ?deallocate@?$allocator@UTriplet@ResamplerImp@@@std@@QAEXPAUTriplet@ResamplerImp@@I@Z 10012d40 f i ResamplerImp.obj
 0001:00011d50       ?allocate@?$allocator@UTriplet@ResamplerImp@@@std@@QAEPAUTriplet@ResamplerImp@@I@Z 10012d50 f i ResamplerImp.obj
 0001:00011db0       ??0?$_Vector_iterator@UTriplet@ResamplerImp@@V?$allocator@UTriplet@ResamplerImp@@@std@@@std@@QAE@PAUTriplet@ResamplerImp@@PBU_Container_base@1@@Z 10012db0 f i ResamplerImp.obj
 0001:00011de0       ??D?$_Vector_const_iterator@UTriplet@ResamplerImp@@V?$allocator@UTriplet@ResamplerImp@@@std@@@std@@QBEABUTriplet@ResamplerImp@@XZ 10012de0 f i ResamplerImp.obj
 0001:00011e10       ??8?$_Vector_const_iterator@UTriplet@ResamplerImp@@V?$allocator@UTriplet@ResamplerImp@@@std@@@std@@QBE_NABV01@@Z 10012e10 f i ResamplerImp.obj
 0001:00011e30       ?capacity@?$vector@U?$pair@HN@std@@V?$allocator@U?$pair@HN@std@@@2@@std@@QBEIXZ 10012e30 f i ResamplerImp.obj
 0001:00011e50       ?size@?$vector@U?$pair@HN@std@@V?$allocator@U?$pair@HN@std@@@2@@std@@QBEIXZ 10012e50 f i ResamplerImp.obj
 0001:00011e70       ?max_size@?$vector@U?$pair@HN@std@@V?$allocator@U?$pair@HN@std@@@2@@std@@QBEIXZ 10012e70 f i ResamplerImp.obj
 0001:00011e80       ?insert@?$vector@U?$pair@HN@std@@V?$allocator@U?$pair@HN@std@@@2@@std@@QAE?AV?$_Vector_iterator@U?$pair@HN@std@@V?$allocator@U?$pair@HN@std@@@2@@2@V32@ABU?$pair@HN@2@@Z 10012e80 f i ResamplerImp.obj
 0001:00011f10       ?_Buy@?$vector@U?$pair@HN@std@@V?$allocator@U?$pair@HN@std@@@2@@std@@IAE_NI@Z 10012f10 f i ResamplerImp.obj
 0001:00011f40       ?_Destroy@?$vector@U?$pair@HN@std@@V?$allocator@U?$pair@HN@std@@@2@@std@@IAEXPAU?$pair@HN@2@0@Z 10012f40 f i ResamplerImp.obj
 0001:00011f50       ?_Tidy@?$vector@U?$pair@HN@std@@V?$allocator@U?$pair@HN@std@@@2@@std@@IAEXXZ 10012f50 f i ResamplerImp.obj
 0001:00011f80       ?_Ufill@?$vector@U?$pair@HN@std@@V?$allocator@U?$pair@HN@std@@@2@@std@@IAEPAU?$pair@HN@2@PAU32@IABU32@@Z 10012f80 f i ResamplerImp.obj
 0001:00011fb0       ?_Xlen@?$vector@U?$pair@HN@std@@V?$allocator@U?$pair@HN@std@@@2@@std@@KAXXZ 10012fb0 f i ResamplerImp.obj
 0001:00012030       ??0?$_Vector_val@U?$pair@HN@std@@V?$allocator@U?$pair@HN@std@@@2@@std@@IAE@V?$allocator@U?$pair@HN@std@@@1@@Z 10013030 f i ResamplerImp.obj
 0001:00012040       ??0?$allocator@U?$pair@HN@std@@@std@@QAE@XZ 10013040 f i ResamplerImp.obj
 0001:00012050       ?deallocate@?$allocator@U?$pair@HN@std@@@std@@QAEXPAU?$pair@HN@2@I@Z 10013050 f i ResamplerImp.obj
 0001:00012060       ?allocate@?$allocator@U?$pair@HN@std@@@std@@QAEPAU?$pair@HN@2@I@Z 10013060 f i ResamplerImp.obj
 0001:000120c0       ??0?$_Vector_iterator@U?$pair@HN@std@@V?$allocator@U?$pair@HN@std@@@2@@std@@QAE@PAU?$pair@HN@1@PBU_Container_base@1@@Z 100130c0 f i ResamplerImp.obj
 0001:000120f0       ??0sentry@?$basic_ostream@DU?$char_traits@D@std@@@std@@QAE@AAV12@@Z 100130f0 f i ResamplerImp.obj
 0001:00012170       ??1sentry@?$basic_ostream@DU?$char_traits@D@std@@@std@@QAE@XZ 10013170 f i ResamplerImp.obj
 0001:000121e0       ??Bsentry@?$basic_ostream@DU?$char_traits@D@std@@@std@@QBE_NXZ 100131e0 f i ResamplerImp.obj
 0001:000121f0       ??D?$_Vector_iterator@NV?$allocator@N@std@@@std@@QBEAANXZ 100131f0 f i ResamplerImp.obj
 0001:00012220       ?max_size@?$vector@V?$basic_string@DU?$char_traits@D@std@@V?$allocator@D@2@@std@@V?$allocator@V?$basic_string@DU?$char_traits@D@std@@V?$allocator@D@2@@std@@@2@@std@@QBEIXZ 10013220 f i ResamplerImp.obj
 0001:00012230       ?_Insert_n@?$vector@V?$basic_string@DU?$char_traits@D@std@@V?$allocator@D@2@@std@@V?$allocator@V?$basic_string@DU?$char_traits@D@std@@V?$allocator@D@2@@std@@@2@@std@@IAEXV?$_Vector_iterator@V?$basic_string@DU?$char_traits@D@std@@V?$allocator@D@2@@std@@V?$allocator@V?$basic_string@DU?$char_traits@D@std@@V?$allocator@D@2@@std@@@2@@2@IABV?$basic_string@DU?$char_traits@D@std@@V?$allocator@D@2@@2@@Z 10013230 f i ResamplerImp.obj
 0001:00012510       ?_Xlen@?$vector@V?$basic_string@DU?$char_traits@D@std@@V?$allocator@D@2@@std@@V?$allocator@V?$basic_string@DU?$char_traits@D@std@@V?$allocator@D@2@@std@@@2@@std@@KAXXZ 10013510 f i ResamplerImp.obj
 0001:00012590       ?allocate@?$allocator@V?$basic_string@DU?$char_traits@D@std@@V?$allocator@D@2@@std@@@std@@QAEPAV?$basic_string@DU?$char_traits@D@std@@V?$allocator@D@2@@2@I@Z 10013590 f i ResamplerImp.obj
 0001:000125f0       ??0?$allocator@N@std@@QAE@ABV01@@Z 100135f0 f i ResamplerImp.obj
 0001:00012600       ??0?$allocator@H@std@@QAE@ABV01@@Z 10013600 f i ResamplerImp.obj
 0001:00012610       ?_Insert_n@?$vector@U?$pair@NN@std@@V?$allocator@U?$pair@NN@std@@@2@@std@@IAEXV?$_Vector_iterator@U?$pair@NN@std@@V?$allocator@U?$pair@NN@std@@@2@@2@IABU?$pair@NN@2@@Z 10013610 f i ResamplerImp.obj
 0001:00012850       ??0?$allocator@U?$pair@NN@std@@@std@@QAE@ABV01@@Z 10013850 f i ResamplerImp.obj
 0001:00012860       ?max_size@?$allocator@U?$pair@NN@std@@@std@@QBEIXZ 10013860 f i ResamplerImp.obj
 0001:00012870       ??H?$_Vector_iterator@U?$pair@NN@std@@V?$allocator@U?$pair@NN@std@@@2@@std@@QBE?AV01@H@Z 10013870 f i ResamplerImp.obj
 0001:000128b0       ??G?$_Vector_iterator@U?$pair@NN@std@@V?$allocator@U?$pair@NN@std@@@2@@std@@QBEHABV?$_Vector_const_iterator@U?$pair@NN@std@@V?$allocator@U?$pair@NN@std@@@2@@1@@Z 100138b0 f i ResamplerImp.obj
 0001:000128d0       ??0?$_Vector_const_iterator@U?$pair@NN@std@@V?$allocator@U?$pair@NN@std@@@2@@std@@QAE@PAU?$pair@NN@1@PBU_Container_base@1@@Z 100138d0 f i ResamplerImp.obj
 0001:00012900       ?_Insert_n@?$vector@UTriplet@ResamplerImp@@V?$allocator@UTriplet@ResamplerImp@@@std@@@std@@IAEXV?$_Vector_iterator@UTriplet@ResamplerImp@@V?$allocator@UTriplet@ResamplerImp@@@std@@@2@IABUTriplet@ResamplerImp@@@Z 10013900 f i ResamplerImp.obj
 0001:00012bb0       ??0?$allocator@UTriplet@ResamplerImp@@@std@@QAE@ABV01@@Z 10013bb0 f i ResamplerImp.obj
 0001:00012bc0       ?max_size@?$allocator@UTriplet@ResamplerImp@@@std@@QBEIXZ 10013bc0 f i ResamplerImp.obj
 0001:00012bd0       ??H?$_Vector_iterator@UTriplet@ResamplerImp@@V?$allocator@UTriplet@ResamplerImp@@@std@@@std@@QBE?AV01@H@Z 10013bd0 f i ResamplerImp.obj
 0001:00012c10       ??G?$_Vector_iterator@UTriplet@ResamplerImp@@V?$allocator@UTriplet@ResamplerImp@@@std@@@std@@QBEHABV?$_Vector_const_iterator@UTriplet@ResamplerImp@@V?$allocator@UTriplet@ResamplerImp@@@std@@@1@@Z 10013c10 f i ResamplerImp.obj
 0001:00012c40       ??0?$_Vector_const_iterator@UTriplet@ResamplerImp@@V?$allocator@UTriplet@ResamplerImp@@@std@@@std@@QAE@PAUTriplet@ResamplerImp@@PBU_Container_base@1@@Z 10013c40 f i ResamplerImp.obj
 0001:00012c70       ?_Insert_n@?$vector@U?$pair@HN@std@@V?$allocator@U?$pair@HN@std@@@2@@std@@IAEXV?$_Vector_iterator@U?$pair@HN@std@@V?$allocator@U?$pair@HN@std@@@2@@2@IABU?$pair@HN@2@@Z 10013c70 f i ResamplerImp.obj
 0001:00012eb0       ??0?$allocator@U?$pair@HN@std@@@std@@QAE@ABV01@@Z 10013eb0 f i ResamplerImp.obj
 0001:00012ec0       ?max_size@?$allocator@U?$pair@HN@std@@@std@@QBEIXZ 10013ec0 f i ResamplerImp.obj
 0001:00012ed0       ??H?$_Vector_iterator@U?$pair@HN@std@@V?$allocator@U?$pair@HN@std@@@2@@std@@QBE?AV01@H@Z 10013ed0 f i ResamplerImp.obj
 0001:00012f10       ??G?$_Vector_iterator@U?$pair@HN@std@@V?$allocator@U?$pair@HN@std@@@2@@std@@QBEHABV?$_Vector_const_iterator@U?$pair@HN@std@@V?$allocator@U?$pair@HN@std@@@2@@1@@Z 10013f10 f i ResamplerImp.obj
 0001:00012f30       ??0?$_Vector_const_iterator@U?$pair@HN@std@@V?$allocator@U?$pair@HN@std@@@2@@std@@QAE@PAU?$pair@HN@1@PBU_Container_base@1@@Z 10013f30 f i ResamplerImp.obj
 0001:00012f60       ??0_Sentry_base@?$basic_ostream@DU?$char_traits@D@std@@@std@@QAE@AAV12@@Z 10013f60 f i ResamplerImp.obj
 0001:00012f90       ??1_Sentry_base@?$basic_ostream@DU?$char_traits@D@std@@@std@@QAE@XZ 10013f90 f i ResamplerImp.obj
 0001:00012fb0       ??H?$_Vector_iterator@V?$basic_string@DU?$char_traits@D@std@@V?$allocator@D@2@@std@@V?$allocator@V?$basic_string@DU?$char_traits@D@std@@V?$allocator@D@2@@std@@@2@@std@@QBE?AV01@H@Z 10013fb0 f i ResamplerImp.obj
 0001:00012ff0       ??G?$_Vector_iterator@V?$basic_string@DU?$char_traits@D@std@@V?$allocator@D@2@@std@@V?$allocator@V?$basic_string@DU?$char_traits@D@std@@V?$allocator@D@2@@std@@@2@@std@@QBEHABV?$_Vector_const_iterator@V?$basic_string@DU?$char_traits@D@std@@V?$allocator@D@2@@std@@V?$allocator@V?$basic_string@DU?$char_traits@D@std@@V?$allocator@D@2@@std@@@2@@1@@Z 10013ff0 f i ResamplerImp.obj
 0001:00013020       ??0?$_Ranit@U?$pair@NN@std@@HPBU12@ABU12@@std@@QAE@XZ 10014020 f i ResamplerImp.obj
 0001:00013030       ??0?$_Ranit@UTriplet@ResamplerImp@@HPBU12@ABU12@@std@@QAE@XZ 10014030 f i ResamplerImp.obj
 0001:00013040       ??0?$_Ranit@U?$pair@HN@std@@HPBU12@ABU12@@std@@QAE@XZ 10014040 f i ResamplerImp.obj
 0001:00013050       ?max_size@?$allocator@V?$basic_string@DU?$char_traits@D@std@@V?$allocator@D@2@@std@@@std@@QBEIXZ 10014050 f i ResamplerImp.obj
 0001:00013060       ??Y?$_Vector_iterator@U?$pair@NN@std@@V?$allocator@U?$pair@NN@std@@@2@@std@@QAEAAV01@H@Z 10014060 f i ResamplerImp.obj
 0001:00013090       ??G?$_Vector_const_iterator@U?$pair@NN@std@@V?$allocator@U?$pair@NN@std@@@2@@std@@QBEHABV01@@Z 10014090 f i ResamplerImp.obj
 0001:000130b0       ??Y?$_Vector_iterator@UTriplet@ResamplerImp@@V?$allocator@UTriplet@ResamplerImp@@@std@@@std@@QAEAAV01@H@Z 100140b0 f i ResamplerImp.obj
 0001:000130f0       ??G?$_Vector_const_iterator@UTriplet@ResamplerImp@@V?$allocator@UTriplet@ResamplerImp@@@std@@@std@@QBEHABV01@@Z 100140f0 f i ResamplerImp.obj
 0001:00013120       ??Y?$_Vector_iterator@U?$pair@HN@std@@V?$allocator@U?$pair@HN@std@@@2@@std@@QAEAAV01@H@Z 10014120 f i ResamplerImp.obj
 0001:00013150       ??G?$_Vector_const_iterator@U?$pair@HN@std@@V?$allocator@U?$pair@HN@std@@@2@@std@@QBEHABV01@@Z 10014150 f i ResamplerImp.obj
 0001:00013170       ??G?$_Vector_const_iterator@V?$basic_string@DU?$char_traits@D@std@@V?$allocator@D@2@@std@@V?$allocator@V?$basic_string@DU?$char_traits@D@std@@V?$allocator@D@2@@std@@@2@@std@@QBEHABV01@@Z 10014170 f i ResamplerImp.obj
 0001:000131a0       ??Y?$_Vector_iterator@V?$basic_string@DU?$char_traits@D@std@@V?$allocator@D@2@@std@@V?$allocator@V?$basic_string@DU?$char_traits@D@std@@V?$allocator@D@2@@std@@@2@@std@@QAEAAV01@H@Z 100141a0 f i ResamplerImp.obj
 0001:000131e0       ??Y?$_Vector_const_iterator@U?$pair@NN@std@@V?$allocator@U?$pair@NN@std@@@2@@std@@QAEAAV01@H@Z 100141e0 f i ResamplerImp.obj
 0001:00013210       ??Y?$_Vector_const_iterator@UTriplet@ResamplerImp@@V?$allocator@UTriplet@ResamplerImp@@@std@@@std@@QAEAAV01@H@Z 10014210 f i ResamplerImp.obj
 0001:00013250       ??Y?$_Vector_const_iterator@U?$pair@HN@std@@V?$allocator@U?$pair@HN@std@@@2@@std@@QAEAAV01@H@Z 10014250 f i ResamplerImp.obj
 0001:00013280       ??Y?$_Vector_const_iterator@V?$basic_string@DU?$char_traits@D@std@@V?$allocator@D@2@@std@@V?$allocator@V?$basic_string@DU?$char_traits@D@std@@V?$allocator@D@2@@std@@@2@@std@@QAEAAV01@H@Z 10014280 f i ResamplerImp.obj
 0001:000132c0       ??$dv_cast_with_verification@V?$basic_string@DU?$char_traits@D@std@@V?$allocator@D@2@@std@@@@YA?AV?$basic_string@DU?$char_traits@D@std@@V?$allocator@D@2@@std@@ABVDataVariant@@ABV01@@Z 100142c0 f i ResamplerImp.obj
 0001:000133f0       ??$?6U?$char_traits@D@std@@@std@@YAAAV?$basic_ostream@DU?$char_traits@D@std@@@0@AAV10@PBD@Z 100143f0 f i ResamplerImp.obj
 0001:000135b0       ??$?BVInterpolator@@@?$auto_ptr@VInterpolator@@@std@@QAE?AU?$auto_ptr_ref@VInterpolator@@@1@XZ 100145b0 f i ResamplerImp.obj
 0001:000135c0       ??$back_inserter@V?$vector@NV?$allocator@N@std@@@std@@@std@@YA?AV?$back_insert_iterator@V?$vector@NV?$allocator@N@std@@@std@@@0@AAV?$vector@NV?$allocator@N@std@@@0@@Z 100145c0 f i ResamplerImp.obj
 0001:000135d0       ??$copy@V?$_Vector_const_iterator@NV?$allocator@N@std@@@std@@V?$back_insert_iterator@V?$vector@NV?$allocator@N@std@@@std@@@2@@std@@YA?AV?$back_insert_iterator@V?$vector@NV?$allocator@N@std@@@std@@@0@V?$_Vector_const_iterator@NV?$allocator@N@std@@@0@0V10@@Z 100145d0 f i ResamplerImp.obj
 0001:00013610       ??$sort@V?$_Vector_iterator@U?$pair@NN@std@@V?$allocator@U?$pair@NN@std@@@2@@std@@@std@@YAXV?$_Vector_iterator@U?$pair@NN@std@@V?$allocator@U?$pair@NN@std@@@2@@0@0@Z 10014610 f i ResamplerImp.obj
 0001:00013650       ??$sort@V?$_Vector_iterator@UTriplet@ResamplerImp@@V?$allocator@UTriplet@ResamplerImp@@@std@@@std@@@std@@YAXV?$_Vector_iterator@UTriplet@ResamplerImp@@V?$allocator@UTriplet@ResamplerImp@@@std@@@0@0@Z 10014650 f i ResamplerImp.obj
 0001:000136a0       ??$sort@V?$_Vector_iterator@U?$pair@HN@std@@V?$allocator@U?$pair@HN@std@@@2@@std@@@std@@YAXV?$_Vector_iterator@U?$pair@HN@std@@V?$allocator@U?$pair@HN@std@@@2@@0@0@Z 100146a0 f i ResamplerImp.obj
 0001:000136e0       ??$_Ucopy@V?$_Vector_const_iterator@V?$basic_string@DU?$char_traits@D@std@@V?$allocator@D@2@@std@@V?$allocator@V?$basic_string@DU?$char_traits@D@std@@V?$allocator@D@2@@std@@@2@@std@@@?$vector@V?$basic_string@DU?$char_traits@D@std@@V?$allocator@D@2@@std@@V?$allocator@V?$basic_string@DU?$char_traits@D@std@@V?$allocator@D@2@@std@@@2@@std@@IAEPAV?$basic_string@DU?$char_traits@D@std@@V?$allocator@D@2@@1@V?$_Vector_const_iterator@V?$basic_string@DU?$char_traits@D@std@@V?$allocator@D@2@@std@@V?$allocator@V?$basic_string@DU?$char_traits@D@std@@V?$allocator@D@2@@std@@@2@@1@0PAV21@@Z 100146e0 f i ResamplerImp.obj
 0001:00013710       ??$_Umove@V?$_Vector_iterator@U?$pair@NN@std@@V?$allocator@U?$pair@NN@std@@@2@@std@@@?$vector@U?$pair@NN@std@@V?$allocator@U?$pair@NN@std@@@2@@std@@IAEPAU?$pair@NN@1@V?$_Vector_iterator@U?$pair@NN@std@@V?$allocator@U?$pair@NN@std@@@2@@1@0PAU21@@Z 10014710 f i ResamplerImp.obj
 0001:00013740       ??$_Umove@V?$_Vector_iterator@UTriplet@ResamplerImp@@V?$allocator@UTriplet@ResamplerImp@@@std@@@std@@@?$vector@UTriplet@ResamplerImp@@V?$allocator@UTriplet@ResamplerImp@@@std@@@std@@IAEPAUTriplet@ResamplerImp@@V?$_Vector_iterator@UTriplet@ResamplerImp@@V?$allocator@UTriplet@ResamplerImp@@@std@@@1@0PAU23@@Z 10014740 f i ResamplerImp.obj
 0001:00013770       ??$_Umove@V?$_Vector_iterator@U?$pair@HN@std@@V?$allocator@U?$pair@HN@std@@@2@@std@@@?$vector@U?$pair@HN@std@@V?$allocator@U?$pair@HN@std@@@2@@std@@IAEPAU?$pair@HN@1@V?$_Vector_iterator@U?$pair@HN@std@@V?$allocator@U?$pair@HN@std@@@2@@1@0PAU21@@Z 10014770 f i ResamplerImp.obj
 0001:000137a0       ??$unchecked_uninitialized_fill_n@PAV?$basic_string@DU?$char_traits@D@std@@V?$allocator@D@2@@std@@IV12@V?$allocator@V?$basic_string@DU?$char_traits@D@std@@V?$allocator@D@2@@std@@@2@@stdext@@YAXPAV?$basic_string@DU?$char_traits@D@std@@V?$allocator@D@2@@std@@IABV12@AAV?$allocator@V?$basic_string@DU?$char_traits@D@std@@V?$allocator@D@2@@std@@@2@@Z 100147a0 f i ResamplerImp.obj
 0001:000137c0       ??$_Destroy_range@U?$pair@NN@std@@V?$allocator@U?$pair@NN@std@@@2@@std@@YAXPAU?$pair@NN@0@0AAV?$allocator@U?$pair@NN@std@@@0@@Z 100147c0 f i ResamplerImp.obj
 0001:000137d0       ??$unchecked_uninitialized_fill_n@PAU?$pair@NN@std@@IU12@V?$allocator@U?$pair@NN@std@@@2@@stdext@@YAXPAU?$pair@NN@std@@IABU12@AAV?$allocator@U?$pair@NN@std@@@2@@Z 100147d0 f i ResamplerImp.obj
 0001:000137f0       ??$_Allocate@U?$pair@NN@std@@@std@@YAPAU?$pair@NN@0@IPAU10@@Z 100147f0 f i ResamplerImp.obj
 0001:00013840       ??$_Destroy_range@UTriplet@ResamplerImp@@V?$allocator@UTriplet@ResamplerImp@@@std@@@std@@YAXPAUTriplet@ResamplerImp@@0AAV?$allocator@UTriplet@ResamplerImp@@@0@@Z 10014840 f i ResamplerImp.obj
 0001:00013850       ??$unchecked_uninitialized_fill_n@PAUTriplet@ResamplerImp@@IU12@V?$allocator@UTriplet@ResamplerImp@@@std@@@stdext@@YAXPAUTriplet@ResamplerImp@@IABU12@AAV?$allocator@UTriplet@ResamplerImp@@@std@@@Z 10014850 f i ResamplerImp.obj
 0001:00013870       ??$_Allocate@UTriplet@ResamplerImp@@@std@@YAPAUTriplet@ResamplerImp@@IPAU12@@Z 10014870 f i ResamplerImp.obj
 0001:000138d0       ??$_Destroy_range@U?$pair@HN@std@@V?$allocator@U?$pair@HN@std@@@2@@std@@YAXPAU?$pair@HN@0@0AAV?$allocator@U?$pair@HN@std@@@0@@Z 100148d0 f i ResamplerImp.obj
 0001:000138e0       ??$unchecked_uninitialized_fill_n@PAU?$pair@HN@std@@IU12@V?$allocator@U?$pair@HN@std@@@2@@stdext@@YAXPAU?$pair@HN@std@@IABU12@AAV?$allocator@U?$pair@HN@std@@@2@@Z 100148e0 f i ResamplerImp.obj
 0001:00013900       ??$_Allocate@U?$pair@HN@std@@@std@@YAPAU?$pair@HN@0@IPAU10@@Z 10014900 f i ResamplerImp.obj
 0001:00013950       ??$_Umove@PAV?$basic_string@DU?$char_traits@D@std@@V?$allocator@D@2@@std@@@?$vector@V?$basic_string@DU?$char_traits@D@std@@V?$allocator@D@2@@std@@V?$allocator@V?$basic_string@DU?$char_traits@D@std@@V?$allocator@D@2@@std@@@2@@std@@IAEPAV?$basic_string@DU?$char_traits@D@std@@V?$allocator@D@2@@1@PAV21@00@Z 10014950 f i ResamplerImp.obj
 0001:00013980       ??$fill@PAV?$basic_string@DU?$char_traits@D@std@@V?$allocator@D@2@@std@@V12@@std@@YAXPAV?$basic_string@DU?$char_traits@D@std@@V?$allocator@D@2@@0@0ABV10@@Z 10014980 f i ResamplerImp.obj
 0001:000139a0       ??$_Unchecked_move_backward@PAV?$basic_string@DU?$char_traits@D@std@@V?$allocator@D@2@@std@@PAV12@@stdext@@YAPAV?$basic_string@DU?$char_traits@D@std@@V?$allocator@D@2@@std@@PAV12@00@Z 100149a0 f i ResamplerImp.obj
 0001:000139d0       ??$_Allocate@V?$basic_string@DU?$char_traits@D@std@@V?$allocator@D@2@@std@@@std@@YAPAV?$basic_string@DU?$char_traits@D@std@@V?$allocator@D@2@@0@IPAV10@@Z 100149d0 f i ResamplerImp.obj
 0001:00013a30       ??$_Umove@PAU?$pair@NN@std@@@?$vector@U?$pair@NN@std@@V?$allocator@U?$pair@NN@std@@@2@@std@@IAEPAU?$pair@NN@1@PAU21@00@Z 10014a30 f i ResamplerImp.obj
 0001:00013a60       ??$fill@PAU?$pair@NN@std@@U12@@std@@YAXPAU?$pair@NN@0@0ABU10@@Z 10014a60 f i ResamplerImp.obj
 0001:00013a90       ??$_Unchecked_move_backward@PAU?$pair@NN@std@@PAU12@@stdext@@YAPAU?$pair@NN@std@@PAU12@00@Z 10014a90 f i ResamplerImp.obj
 0001:00013ad0       ??$_Umove@PAUTriplet@ResamplerImp@@@?$vector@UTriplet@ResamplerImp@@V?$allocator@UTriplet@ResamplerImp@@@std@@@std@@IAEPAUTriplet@ResamplerImp@@PAU23@00@Z 10014ad0 f i ResamplerImp.obj
 0001:00013b00       ??$fill@PAUTriplet@ResamplerImp@@U12@@std@@YAXPAUTriplet@ResamplerImp@@0ABU12@@Z 10014b00 f i ResamplerImp.obj
 0001:00013b30       ??$_Unchecked_move_backward@PAUTriplet@ResamplerImp@@PAU12@@stdext@@YAPAUTriplet@ResamplerImp@@PAU12@00@Z 10014b30 f i ResamplerImp.obj
 0001:00013b60       ??$_Umove@PAU?$pair@HN@std@@@?$vector@U?$pair@HN@std@@V?$allocator@U?$pair@HN@std@@@2@@std@@IAEPAU?$pair@HN@1@PAU21@00@Z 10014b60 f i ResamplerImp.obj
 0001:00013b90       ??$fill@PAU?$pair@HN@std@@U12@@std@@YAXPAU?$pair@HN@0@0ABU10@@Z 10014b90 f i ResamplerImp.obj
 0001:00013bc0       ??$_Unchecked_move_backward@PAU?$pair@HN@std@@PAU12@@stdext@@YAPAU?$pair@HN@std@@PAU12@00@Z 10014bc0 f i ResamplerImp.obj
 0001:00013c00       ??0?$auto_ptr_ref@VInterpolator@@@std@@QAE@PAX@Z 10014c00 f i ResamplerImp.obj
 0001:00013c10       ??0?$back_insert_iterator@V?$vector@NV?$allocator@N@std@@@std@@@std@@QAE@AAV?$vector@NV?$allocator@N@std@@@1@@Z 10014c10 f i ResamplerImp.obj
 0001:00013c20       ??0_Outit@std@@QAE@XZ      10014c20 f i ResamplerImp.obj
 0001:00013c30       ??0?$iterator@Uoutput_iterator_tag@std@@XXXX@std@@QAE@XZ 10014c30 f i ResamplerImp.obj
 0001:00013c40       ??$getValue@V?$basic_string@DU?$char_traits@D@std@@V?$allocator@D@2@@std@@@DataVariant@@QBE_NAAV?$basic_string@DU?$char_traits@D@std@@V?$allocator@D@2@@std@@@Z 10014c40 f i ResamplerImp.obj
 0001:00013c80       ??$getPointerToValue@V?$basic_string@DU?$char_traits@D@std@@V?$allocator@D@2@@std@@@DataVariant@@QBEPBV?$basic_string@DU?$char_traits@D@std@@V?$allocator@D@2@@std@@XZ 10014c80 f i ResamplerImp.obj
 0001:00013cb0       ??$_Checked_base@V?$_Vector_const_iterator@NV?$allocator@N@std@@@std@@@std@@YAPBNAAV?$_Vector_const_iterator@NV?$allocator@N@std@@@0@@Z 10014cb0 f i ResamplerImp.obj
 0001:00013cc0       ??$_Iter_random@V?$_Vector_const_iterator@NV?$allocator@N@std@@@std@@V?$back_insert_iterator@V?$vector@NV?$allocator@N@std@@@std@@@2@@std@@YA?AUforward_iterator_tag@0@ABV?$_Vector_const_iterator@NV?$allocator@N@std@@@0@ABV?$back_insert_iterator@V?$vector@NV?$allocator@N@std@@@std@@@0@@Z 10014cc0 f i ResamplerImp.obj
 0001:00013cd0       ??$_Ptr_cat@V?$_Vector_const_iterator@NV?$allocator@N@std@@@std@@V?$back_insert_iterator@V?$vector@NV?$allocator@N@std@@@std@@@2@@std@@YA?AU_Nonscalar_ptr_iterator_tag@0@AAV?$_Vector_const_iterator@NV?$allocator@N@std@@@0@AAV?$back_insert_iterator@V?$vector@NV?$allocator@N@std@@@std@@@0@@Z 10014cd0 f i ResamplerImp.obj
 0001:00013ce0       ??$_Copy_opt@PBNV?$back_insert_iterator@V?$vector@NV?$allocator@N@std@@@std@@@std@@Uforward_iterator_tag@2@@std@@YA?AV?$back_insert_iterator@V?$vector@NV?$allocator@N@std@@@std@@@0@PBN0V10@Uforward_iterator_tag@0@U_Nonscalar_ptr_iterator_tag@0@U_Range_checked_iterator_tag@0@@Z 10014ce0 f i ResamplerImp.obj
 0001:00013d60       ??$_Checked_base@V?$_Vector_iterator@U?$pair@NN@std@@V?$allocator@U?$pair@NN@std@@@2@@std@@@std@@YAPAU?$pair@NN@0@AAV?$_Vector_iterator@U?$pair@NN@std@@V?$allocator@U?$pair@NN@std@@@2@@0@@Z 10014d60 f i ResamplerImp.obj
 0001:00013d70       ??$_Sort@PAU?$pair@NN@std@@H@std@@YAXPAU?$pair@NN@0@0H@Z 10014d70 f i ResamplerImp.obj
 0001:00013e40       ??$_Checked_base@V?$_Vector_iterator@UTriplet@ResamplerImp@@V?$allocator@UTriplet@ResamplerImp@@@std@@@std@@@std@@YAPAUTriplet@ResamplerImp@@AAV?$_Vector_iterator@UTriplet@ResamplerImp@@V?$allocator@UTriplet@ResamplerImp@@@std@@@0@@Z 10014e40 f i ResamplerImp.obj
 0001:00013e50       ??$_Sort@PAUTriplet@ResamplerImp@@H@std@@YAXPAUTriplet@ResamplerImp@@0H@Z 10014e50 f i ResamplerImp.obj
 0001:00013f80       ??$_Checked_base@V?$_Vector_iterator@U?$pair@HN@std@@V?$allocator@U?$pair@HN@std@@@2@@std@@@std@@YAPAU?$pair@HN@0@AAV?$_Vector_iterator@U?$pair@HN@std@@V?$allocator@U?$pair@HN@std@@@2@@0@@Z 10014f80 f i ResamplerImp.obj
 0001:00013f90       ??$_Sort@PAU?$pair@HN@std@@H@std@@YAXPAU?$pair@HN@0@0H@Z 10014f90 f i ResamplerImp.obj
 0001:00014060       ??$unchecked_uninitialized_copy@V?$_Vector_const_iterator@V?$basic_string@DU?$char_traits@D@std@@V?$allocator@D@2@@std@@V?$allocator@V?$basic_string@DU?$char_traits@D@std@@V?$allocator@D@2@@std@@@2@@std@@PAV?$basic_string@DU?$char_traits@D@std@@V?$allocator@D@2@@2@V?$allocator@V?$basic_string@DU?$char_traits@D@std@@V?$allocator@D@2@@std@@@2@@stdext@@YAPAV?$basic_string@DU?$char_traits@D@std@@V?$allocator@D@2@@std@@V?$_Vector_const_iterator@V?$basic_string@DU?$char_traits@D@std@@V?$allocator@D@2@@std@@V?$allocator@V?$basic_string@DU?$char_traits@D@std@@V?$allocator@D@2@@std@@@2@@2@0PAV12@AAV?$allocator@V?$basic_string@DU?$char_traits@D@std@@V?$allocator@D@2@@std@@@2@@Z 10015060 f i ResamplerImp.obj
 0001:00014090       ??$_Checked_base@PAV?$basic_string@DU?$char_traits@D@std@@V?$allocator@D@2@@std@@@std@@YAPAV?$basic_string@DU?$char_traits@D@std@@V?$allocator@D@2@@0@AAPAV10@@Z 10015090 f i ResamplerImp.obj
 0001:000140a0       ??$_Iter_random@PAV?$basic_string@DU?$char_traits@D@std@@V?$allocator@D@2@@std@@PAV12@@std@@YA?AUrandom_access_iterator_tag@0@ABQAV?$basic_string@DU?$char_traits@D@std@@V?$allocator@D@2@@0@0@Z 100150a0 f i ResamplerImp.obj
 0001:000140b0       ??$_Unchecked_uninitialized_move@V?$_Vector_iterator@U?$pair@NN@std@@V?$allocator@U?$pair@NN@std@@@2@@std@@PAU?$pair@NN@2@V?$allocator@U?$pair@NN@std@@@2@@stdext@@YAPAU?$pair@NN@std@@V?$_Vector_iterator@U?$pair@NN@std@@V?$allocator@U?$pair@NN@std@@@2@@2@0PAU12@AAV?$allocator@U?$pair@NN@std@@@2@@Z 100150b0 f i ResamplerImp.obj
 0001:000140e0       ??$_Unchecked_uninitialized_move@V?$_Vector_iterator@UTriplet@ResamplerImp@@V?$allocator@UTriplet@ResamplerImp@@@std@@@std@@PAUTriplet@ResamplerImp@@V?$allocator@UTriplet@ResamplerImp@@@2@@stdext@@YAPAUTriplet@ResamplerImp@@V?$_Vector_iterator@UTriplet@ResamplerImp@@V?$allocator@UTriplet@ResamplerImp@@@std@@@std@@0PAU12@AAV?$allocator@UTriplet@ResamplerImp@@@4@@Z 100150e0 f i ResamplerImp.obj
 0001:00014110       ??$_Unchecked_uninitialized_move@V?$_Vector_iterator@U?$pair@HN@std@@V?$allocator@U?$pair@HN@std@@@2@@std@@PAU?$pair@HN@2@V?$allocator@U?$pair@HN@std@@@2@@stdext@@YAPAU?$pair@HN@std@@V?$_Vector_iterator@U?$pair@HN@std@@V?$allocator@U?$pair@HN@std@@@2@@2@0PAU12@AAV?$allocator@U?$pair@HN@std@@@2@@Z 10015110 f i ResamplerImp.obj
 0001:00014140       ??$_Uninit_fill_n@PAV?$basic_string@DU?$char_traits@D@std@@V?$allocator@D@2@@std@@IV12@V?$allocator@V?$basic_string@DU?$char_traits@D@std@@V?$allocator@D@2@@std@@@2@@std@@YAXPAV?$basic_string@DU?$char_traits@D@std@@V?$allocator@D@2@@0@IABV10@AAV?$allocator@V?$basic_string@DU?$char_traits@D@std@@V?$allocator@D@2@@std@@@0@U_Nonscalar_ptr_iterator_tag@0@U_Range_checked_iterator_tag@0@@Z 10015140 f i ResamplerImp.obj
 0001:000141d0       ??$_Ptr_cat@PAU?$pair@NN@std@@PAU12@@std@@YA?AU_Nonscalar_ptr_iterator_tag@0@AAPAU?$pair@NN@0@0@Z 100151d0 f i ResamplerImp.obj
 0001:000141e0       ??$_Destroy_range@U?$pair@NN@std@@V?$allocator@U?$pair@NN@std@@@2@@std@@YAXPAU?$pair@NN@0@0AAV?$allocator@U?$pair@NN@std@@@0@U_Nonscalar_ptr_iterator_tag@0@@Z 100151e0 f i ResamplerImp.obj
 0001:000141f0       ??$_Uninit_fill_n@PAU?$pair@NN@std@@IU12@V?$allocator@U?$pair@NN@std@@@2@@std@@YAXPAU?$pair@NN@0@IABU10@AAV?$allocator@U?$pair@NN@std@@@0@U_Nonscalar_ptr_iterator_tag@0@U_Range_checked_iterator_tag@0@@Z 100151f0 f i ResamplerImp.obj
 0001:00014220       ??$_Ptr_cat@PAUTriplet@ResamplerImp@@PAU12@@std@@YA?AU_Nonscalar_ptr_iterator_tag@0@AAPAUTriplet@ResamplerImp@@0@Z 10015220 f i ResamplerImp.obj
 0001:00014230       ??$_Destroy_range@UTriplet@ResamplerImp@@V?$allocator@UTriplet@ResamplerImp@@@std@@@std@@YAXPAUTriplet@ResamplerImp@@0AAV?$allocator@UTriplet@ResamplerImp@@@0@U_Nonscalar_ptr_iterator_tag@0@@Z 10015230 f i ResamplerImp.obj
 0001:00014240       ??$_Uninit_fill_n@PAUTriplet@ResamplerImp@@IU12@V?$allocator@UTriplet@ResamplerImp@@@std@@@std@@YAXPAUTriplet@ResamplerImp@@IABU12@AAV?$allocator@UTriplet@ResamplerImp@@@0@U_Nonscalar_ptr_iterator_tag@0@U_Range_checked_iterator_tag@0@@Z 10015240 f i ResamplerImp.obj
 0001:00014280       ??$_Ptr_cat@PAU?$pair@HN@std@@PAU12@@std@@YA?AU_Nonscalar_ptr_iterator_tag@0@AAPAU?$pair@HN@0@0@Z 10015280 f i ResamplerImp.obj
 0001:00014290       ??$_Destroy_range@U?$pair@HN@std@@V?$allocator@U?$pair@HN@std@@@2@@std@@YAXPAU?$pair@HN@0@0AAV?$allocator@U?$pair@HN@std@@@0@U_Nonscalar_ptr_iterator_tag@0@@Z 10015290 f i ResamplerImp.obj
 0001:000142a0       ??$_Uninit_fill_n@PAU?$pair@HN@std@@IU12@V?$allocator@U?$pair@HN@std@@@2@@std@@YAXPAU?$pair@HN@0@IABU10@AAV?$allocator@U?$pair@HN@std@@@0@U_Nonscalar_ptr_iterator_tag@0@U_Range_checked_iterator_tag@0@@Z 100152a0 f i ResamplerImp.obj
 0001:000142d0       ??$_Unchecked_uninitialized_move@PAV?$basic_string@DU?$char_traits@D@std@@V?$allocator@D@2@@std@@PAV12@V?$allocator@V?$basic_string@DU?$char_traits@D@std@@V?$allocator@D@2@@std@@@2@@stdext@@YAPAV?$basic_string@DU?$char_traits@D@std@@V?$allocator@D@2@@std@@PAV12@00AAV?$allocator@V?$basic_string@DU?$char_traits@D@std@@V?$allocator@D@2@@std@@@2@@Z 100152d0 f i ResamplerImp.obj
 0001:00014300       ??$_Fill@PAV?$basic_string@DU?$char_traits@D@std@@V?$allocator@D@2@@std@@V12@@std@@YAXPAV?$basic_string@DU?$char_traits@D@std@@V?$allocator@D@2@@0@0ABV10@@Z 10015300 f i ResamplerImp.obj
 0001:00014320       ??$_Move_cat@PAV?$basic_string@DU?$char_traits@D@std@@V?$allocator@D@2@@std@@@std@@YA?AU_Swap_move_tag@0@ABQAV?$basic_string@DU?$char_traits@D@std@@V?$allocator@D@2@@0@@Z 10015320 f i ResamplerImp.obj
 0001:00014330       ??$_Move_backward_opt@PAV?$basic_string@DU?$char_traits@D@std@@V?$allocator@D@2@@std@@PAV12@@std@@YAPAV?$basic_string@DU?$char_traits@D@std@@V?$allocator@D@2@@0@PAV10@00Urandom_access_iterator_tag@0@U_Swap_move_tag@0@U_Range_checked_iterator_tag@0@@Z 10015330 f i ResamplerImp.obj
 0001:00014380       ??$_Unchecked_uninitialized_move@PAU?$pair@NN@std@@PAU12@V?$allocator@U?$pair@NN@std@@@2@@stdext@@YAPAU?$pair@NN@std@@PAU12@00AAV?$allocator@U?$pair@NN@std@@@2@@Z 10015380 f i ResamplerImp.obj
 0001:000143a0       ??$_Checked_base@PAU?$pair@NN@std@@@std@@YAPAU?$pair@NN@0@AAPAU10@@Z 100153a0 f i ResamplerImp.obj
 0001:000143b0       ??$_Fill@PAU?$pair@NN@std@@U12@@std@@YAXPAU?$pair@NN@0@0ABU10@@Z 100153b0 f i ResamplerImp.obj
 0001:000143e0       ??$_Iter_random@PAU?$pair@NN@std@@PAU12@@std@@YA?AUrandom_access_iterator_tag@0@ABQAU?$pair@NN@0@0@Z 100153e0 f i ResamplerImp.obj
 0001:000143f0       ??$_Move_cat@PAU?$pair@NN@std@@@std@@YA?AU_Undefined_move_tag@0@ABQAU?$pair@NN@0@@Z 100153f0 f i ResamplerImp.obj
 0001:00014400       ??$_Move_backward_opt@PAU?$pair@NN@std@@PAU12@Urandom_access_iterator_tag@2@U_Undefined_move_tag@2@@std@@YAPAU?$pair@NN@0@PAU10@00Urandom_access_iterator_tag@0@U_Undefined_move_tag@0@U_Range_checked_iterator_tag@0@@Z 10015400 f i ResamplerImp.obj
 0001:00014440       ??$_Unchecked_uninitialized_move@PAUTriplet@ResamplerImp@@PAU12@V?$allocator@UTriplet@ResamplerImp@@@std@@@stdext@@YAPAUTriplet@ResamplerImp@@PAU12@00AAV?$allocator@UTriplet@ResamplerImp@@@std@@@Z 10015440 f i ResamplerImp.obj
 0001:00014460       ??$_Checked_base@PAUTriplet@ResamplerImp@@@std@@YAPAUTriplet@ResamplerImp@@AAPAU12@@Z 10015460 f i ResamplerImp.obj
 0001:00014470       ??$_Fill@PAUTriplet@ResamplerImp@@U12@@std@@YAXPAUTriplet@ResamplerImp@@0ABU12@@Z 10015470 f i ResamplerImp.obj
 0001:000144a0       ??$_Iter_random@PAUTriplet@ResamplerImp@@PAU12@@std@@YA?AUrandom_access_iterator_tag@0@ABQAUTriplet@ResamplerImp@@0@Z 100154a0 f i ResamplerImp.obj
 0001:000144b0       ??$_Move_cat@PAUTriplet@ResamplerImp@@@std@@YA?AU_Undefined_move_tag@0@ABQAUTriplet@ResamplerImp@@@Z 100154b0 f i ResamplerImp.obj
 0001:000144c0       ??$_Move_backward_opt@PAUTriplet@ResamplerImp@@PAU12@Urandom_access_iterator_tag@std@@U_Undefined_move_tag@4@@std@@YAPAUTriplet@ResamplerImp@@PAU12@00Urandom_access_iterator_tag@0@U_Undefined_move_tag@0@U_Range_checked_iterator_tag@0@@Z 100154c0 f i ResamplerImp.obj
 0001:000144f0       ??$_Unchecked_uninitialized_move@PAU?$pair@HN@std@@PAU12@V?$allocator@U?$pair@HN@std@@@2@@stdext@@YAPAU?$pair@HN@std@@PAU12@00AAV?$allocator@U?$pair@HN@std@@@2@@Z 100154f0 f i ResamplerImp.obj
 0001:00014510       ??$_Checked_base@PAU?$pair@HN@std@@@std@@YAPAU?$pair@HN@0@AAPAU10@@Z 10015510 f i ResamplerImp.obj
 0001:00014520       ??$_Fill@PAU?$pair@HN@std@@U12@@std@@YAXPAU?$pair@HN@0@0ABU10@@Z 10015520 f i ResamplerImp.obj
 0001:00014550       ??$_Iter_random@PAU?$pair@HN@std@@PAU12@@std@@YA?AUrandom_access_iterator_tag@0@ABQAU?$pair@HN@0@0@Z 10015550 f i ResamplerImp.obj
 0001:00014560       ??$_Move_cat@PAU?$pair@HN@std@@@std@@YA?AU_Undefined_move_tag@0@ABQAU?$pair@HN@0@@Z 10015560 f i ResamplerImp.obj
 0001:00014570       ??$_Move_backward_opt@PAU?$pair@HN@std@@PAU12@Urandom_access_iterator_tag@2@U_Undefined_move_tag@2@@std@@YAPAU?$pair@HN@0@PAU10@00Urandom_access_iterator_tag@0@U_Undefined_move_tag@0@U_Range_checked_iterator_tag@0@@Z 10015570 f i ResamplerImp.obj
 0001:000145b0       ?construct@?$allocator@V?$basic_string@DU?$char_traits@D@std@@V?$allocator@D@2@@std@@@std@@QAEXPAV?$basic_string@DU?$char_traits@D@std@@V?$allocator@D@2@@2@ABV32@@Z 100155b0 f i ResamplerImp.obj
 0001:00014600       ??4?$back_insert_iterator@V?$vector@NV?$allocator@N@std@@@std@@@std@@QAEAAV01@ABN@Z 10015600 f i ResamplerImp.obj
 0001:00014610       ??D?$back_insert_iterator@V?$vector@NV?$allocator@N@std@@@std@@@std@@QAEAAV01@XZ 10015610 f i ResamplerImp.obj
 0001:00014620       ??E?$back_insert_iterator@V?$vector@NV?$allocator@N@std@@@std@@@std@@QAEAAV01@XZ 10015620 f i ResamplerImp.obj
 0001:00014630       ?construct@?$allocator@U?$pair@NN@std@@@std@@QAEXPAU?$pair@NN@2@ABU32@@Z 10015630 f i ResamplerImp.obj
 0001:00014650       ?destroy@?$allocator@U?$pair@NN@std@@@std@@QAEXPAU?$pair@NN@2@@Z 10015650 f i ResamplerImp.obj
 0001:00014660       ?construct@?$allocator@UTriplet@ResamplerImp@@@std@@QAEXPAUTriplet@ResamplerImp@@ABU34@@Z 10015660 f i ResamplerImp.obj
 0001:00014690       ?destroy@?$allocator@UTriplet@ResamplerImp@@@std@@QAEXPAUTriplet@ResamplerImp@@@Z 10015690 f i ResamplerImp.obj
 0001:000146a0       ?construct@?$allocator@U?$pair@HN@std@@@std@@QAEXPAU?$pair@HN@2@ABU32@@Z 100156a0 f i ResamplerImp.obj
 0001:000146c0       ?destroy@?$allocator@U?$pair@HN@std@@@std@@QAEXPAU?$pair@HN@2@@Z 100156c0 f i ResamplerImp.obj
 0001:000146d0       ??$getPointerToValue@V?$basic_string@DU?$char_traits@D@std@@V?$allocator@D@2@@std@@@DataVariant@@QAEPAV?$basic_string@DU?$char_traits@D@std@@V?$allocator@D@2@@std@@XZ 100156d0 f i ResamplerImp.obj
 0001:00014700       ??$_Checked_base@V?$_Vector_const_iterator@NV?$allocator@N@std@@@std@@U_Different_checked_iterator_base_type_tag@2@@std@@YAPBNAAV?$_Vector_const_iterator@NV?$allocator@N@std@@@0@U_Different_checked_iterator_base_type_tag@0@@Z 10015700 f i ResamplerImp.obj
 0001:00014710       ??$_Checked_base@V?$_Vector_iterator@U?$pair@NN@std@@V?$allocator@U?$pair@NN@std@@@2@@std@@U_Different_checked_iterator_base_type_tag@2@@std@@YAPAU?$pair@NN@0@AAV?$_Vector_iterator@U?$pair@NN@std@@V?$allocator@U?$pair@NN@std@@@2@@0@U_Different_checked_iterator_base_type_tag@0@@Z 10015710 f i ResamplerImp.obj
 0001:00014720       ??$_Unguarded_partition@PAU?$pair@NN@std@@@std@@YA?AU?$pair@PAU?$pair@NN@std@@PAU12@@0@PAU?$pair@NN@0@0@Z 10015720 f i ResamplerImp.obj
 0001:00014cd0       ??$make_heap@PAU?$pair@NN@std@@@std@@YAXPAU?$pair@NN@0@0@Z 10015cd0 f i ResamplerImp.obj
 0001:00014cf0       ??$sort_heap@PAU?$pair@NN@std@@@std@@YAXPAU?$pair@NN@0@0@Z 10015cf0 f i ResamplerImp.obj
 0001:00014d00       ??$_Insertion_sort@PAU?$pair@NN@std@@@std@@YAXPAU?$pair@NN@0@0@Z 10015d00 f i ResamplerImp.obj
 0001:00014d20       ??$_Checked_base@V?$_Vector_iterator@UTriplet@ResamplerImp@@V?$allocator@UTriplet@ResamplerImp@@@std@@@std@@U_Different_checked_iterator_base_type_tag@2@@std@@YAPAUTriplet@ResamplerImp@@AAV?$_Vector_iterator@UTriplet@ResamplerImp@@V?$allocator@UTriplet@ResamplerImp@@@std@@@0@U_Different_checked_iterator_base_type_tag@0@@Z 10015d20 f i ResamplerImp.obj
 0001:00014d30       ??$_Unguarded_partition@PAUTriplet@ResamplerImp@@@std@@YA?AU?$pair@PAUTriplet@ResamplerImp@@PAU12@@0@PAUTriplet@ResamplerImp@@0@Z 10015d30 f i ResamplerImp.obj
 0001:00015570       ??$make_heap@PAUTriplet@ResamplerImp@@@std@@YAXPAUTriplet@ResamplerImp@@0@Z 10016570 f i ResamplerImp.obj
 0001:000155a0       ??$sort_heap@PAUTriplet@ResamplerImp@@@std@@YAXPAUTriplet@ResamplerImp@@0@Z 100165a0 f i ResamplerImp.obj
 0001:000155b0       ??$_Insertion_sort@PAUTriplet@ResamplerImp@@@std@@YAXPAUTriplet@ResamplerImp@@0@Z 100165b0 f i ResamplerImp.obj
 0001:000155c0       ??$_Checked_base@V?$_Vector_iterator@U?$pair@HN@std@@V?$allocator@U?$pair@HN@std@@@2@@std@@U_Different_checked_iterator_base_type_tag@2@@std@@YAPAU?$pair@HN@0@AAV?$_Vector_iterator@U?$pair@HN@std@@V?$allocator@U?$pair@HN@std@@@2@@0@U_Different_checked_iterator_base_type_tag@0@@Z 100165c0 f i ResamplerImp.obj
 0001:000155d0       ??$_Unguarded_partition@PAU?$pair@HN@std@@@std@@YA?AU?$pair@PAU?$pair@HN@std@@PAU12@@0@PAU?$pair@HN@0@0@Z 100165d0 f i ResamplerImp.obj
 0001:00015a30       ??$make_heap@PAU?$pair@HN@std@@@std@@YAXPAU?$pair@HN@0@0@Z 10016a30 f i ResamplerImp.obj
 0001:00015a50       ??$sort_heap@PAU?$pair@HN@std@@@std@@YAXPAU?$pair@HN@0@0@Z 10016a50 f i ResamplerImp.obj
 0001:00015a60       ??$_Insertion_sort@PAU?$pair@HN@std@@@std@@YAXPAU?$pair@HN@0@0@Z 10016a60 f i ResamplerImp.obj
 0001:00015a80       ??$_Checked_base@V?$_Vector_const_iterator@V?$basic_string@DU?$char_traits@D@std@@V?$allocator@D@2@@std@@V?$allocator@V?$basic_string@DU?$char_traits@D@std@@V?$allocator@D@2@@std@@@2@@std@@@std@@YAPBV?$basic_string@DU?$char_traits@D@std@@V?$allocator@D@2@@0@AAV?$_Vector_const_iterator@V?$basic_string@DU?$char_traits@D@std@@V?$allocator@D@2@@std@@V?$allocator@V?$basic_string@DU?$char_traits@D@std@@V?$allocator@D@2@@std@@@2@@0@@Z 10016a80 f i ResamplerImp.obj
 0001:00015a90       ??$_Ptr_cat@V?$_Vector_const_iterator@V?$basic_string@DU?$char_traits@D@std@@V?$allocator@D@2@@std@@V?$allocator@V?$basic_string@DU?$char_traits@D@std@@V?$allocator@D@2@@std@@@2@@std@@PAV?$basic_string@DU?$char_traits@D@std@@V?$allocator@D@2@@2@@std@@YA?AU_Nonscalar_ptr_iterator_tag@0@AAV?$_Vector_const_iterator@V?$basic_string@DU?$char_traits@D@std@@V?$allocator@D@2@@std@@V?$allocator@V?$basic_string@DU?$char_traits@D@std@@V?$allocator@D@2@@std@@@2@@0@AAPAV?$basic_string@DU?$char_traits@D@std@@V?$allocator@D@2@@0@@Z 10016a90 f i ResamplerImp.obj
 0001:00015aa0       ??$_Uninit_copy@PBV?$basic_string@DU?$char_traits@D@std@@V?$allocator@D@2@@std@@PAV12@V?$allocator@V?$basic_string@DU?$char_traits@D@std@@V?$allocator@D@2@@std@@@2@@std@@YAPAV?$basic_string@DU?$char_traits@D@std@@V?$allocator@D@2@@0@PBV10@0PAV10@AAV?$allocator@V?$basic_string@DU?$char_traits@D@std@@V?$allocator@D@2@@std@@@0@U_Nonscalar_ptr_iterator_tag@0@U_Range_checked_iterator_tag@0@@Z 10016aa0 f i ResamplerImp.obj
 0001:00015b30       ??$_Checked_base@PAV?$basic_string@DU?$char_traits@D@std@@V?$allocator@D@2@@std@@@std@@YAPAV?$basic_string@DU?$char_traits@D@std@@V?$allocator@D@2@@0@AAPAV10@U_Unchanged_checked_iterator_base_type_tag@0@@Z 10016b30 f i ResamplerImp.obj
 0001:00015b40       ??$_Uninit_move@PAU?$pair@NN@std@@PAU12@V?$allocator@U?$pair@NN@std@@@2@U_Undefined_move_tag@2@@std@@YAPAU?$pair@NN@0@PAU10@00AAV?$allocator@U?$pair@NN@std@@@0@U_Undefined_move_tag@0@U_Range_checked_iterator_tag@0@@Z 10016b40 f i ResamplerImp.obj
 0001:00015b60       ??$_Uninit_move@PAUTriplet@ResamplerImp@@PAU12@V?$allocator@UTriplet@ResamplerImp@@@std@@U_Undefined_move_tag@4@@std@@YAPAUTriplet@ResamplerImp@@PAU12@00AAV?$allocator@UTriplet@ResamplerImp@@@0@U_Undefined_move_tag@0@U_Range_checked_iterator_tag@0@@Z 10016b60 f i ResamplerImp.obj
 0001:00015b80       ??$_Uninit_move@PAU?$pair@HN@std@@PAU12@V?$allocator@U?$pair@HN@std@@@2@U_Undefined_move_tag@2@@std@@YAPAU?$pair@HN@0@PAU10@00AAV?$allocator@U?$pair@HN@std@@@0@U_Undefined_move_tag@0@U_Range_checked_iterator_tag@0@@Z 10016b80 f i ResamplerImp.obj
 0001:00015ba0       ??$_Uninit_move@PAV?$basic_string@DU?$char_traits@D@std@@V?$allocator@D@2@@std@@PAV12@V?$allocator@V?$basic_string@DU?$char_traits@D@std@@V?$allocator@D@2@@std@@@2@@std@@YAPAV?$basic_string@DU?$char_traits@D@std@@V?$allocator@D@2@@0@PAV10@00AAV?$allocator@V?$basic_string@DU?$char_traits@D@std@@V?$allocator@D@2@@std@@@0@U_Swap_move_tag@0@U_Range_checked_iterator_tag@0@@Z 10016ba0 f i ResamplerImp.obj
 0001:00015c60       ??$_Move_backward_opt@PAV?$basic_string@DU?$char_traits@D@std@@V?$allocator@D@2@@std@@PAV12@Uforward_iterator_tag@2@@std@@YAPAV?$basic_string@DU?$char_traits@D@std@@V?$allocator@D@2@@0@PAV10@00Uforward_iterator_tag@0@U_Swap_move_tag@0@U_Range_checked_iterator_tag@0@@Z 10016c60 f i ResamplerImp.obj
 0001:00015c90       ??$_Checked_base@PAU?$pair@NN@std@@@std@@YAPAU?$pair@NN@0@AAPAU10@U_Unchanged_checked_iterator_base_type_tag@0@@Z 10016c90 f i ResamplerImp.obj
 0001:00015ca0       ??$_Copy_backward_opt@PAU?$pair@NN@std@@PAU12@@std@@YAPAU?$pair@NN@0@PAU10@00Urandom_access_iterator_tag@0@U_Nonscalar_ptr_iterator_tag@0@U_Range_checked_iterator_tag@0@@Z 10016ca0 f i ResamplerImp.obj
 0001:00015ce0       ??$_Checked_base@PAUTriplet@ResamplerImp@@@std@@YAPAUTriplet@ResamplerImp@@AAPAU12@U_Unchanged_checked_iterator_base_type_tag@0@@Z 10016ce0 f i ResamplerImp.obj
 0001:00015cf0       ??$_Copy_backward_opt@PAUTriplet@ResamplerImp@@PAU12@@std@@YAPAUTriplet@ResamplerImp@@PAU12@00Urandom_access_iterator_tag@0@U_Nonscalar_ptr_iterator_tag@0@U_Range_checked_iterator_tag@0@@Z 10016cf0 f i ResamplerImp.obj
 0001:00015d60       ??$_Checked_base@PAU?$pair@HN@std@@@std@@YAPAU?$pair@HN@0@AAPAU10@U_Unchanged_checked_iterator_base_type_tag@0@@Z 10016d60 f i ResamplerImp.obj
 0001:00015d70       ??$_Copy_backward_opt@PAU?$pair@HN@std@@PAU12@@std@@YAPAU?$pair@HN@0@PAU10@00Urandom_access_iterator_tag@0@U_Nonscalar_ptr_iterator_tag@0@U_Range_checked_iterator_tag@0@@Z 10016d70 f i ResamplerImp.obj
 0001:00015db0       ??$_Construct@V?$basic_string@DU?$char_traits@D@std@@V?$allocator@D@2@@std@@V12@@std@@YAXPAV?$basic_string@DU?$char_traits@D@std@@V?$allocator@D@2@@0@ABV10@@Z 10016db0 f i ResamplerImp.obj
 0001:00015e00       ??$_Construct@U?$pair@NN@std@@U12@@std@@YAXPAU?$pair@NN@0@ABU10@@Z 10016e00 f i ResamplerImp.obj
 0001:00015e20       ??$_Destroy@U?$pair@NN@std@@@std@@YAXPAU?$pair@NN@0@@Z 10016e20 f i ResamplerImp.obj
 0001:00015e30       ??$_Construct@UTriplet@ResamplerImp@@U12@@std@@YAXPAUTriplet@ResamplerImp@@ABU12@@Z 10016e30 f i ResamplerImp.obj
 0001:00015e60       ??$_Destroy@UTriplet@ResamplerImp@@@std@@YAXPAUTriplet@ResamplerImp@@@Z 10016e60 f i ResamplerImp.obj
 0001:00015e70       ??$_Construct@U?$pair@HN@std@@U12@@std@@YAXPAU?$pair@HN@0@ABU10@@Z 10016e70 f i ResamplerImp.obj
 0001:00015e90       ??$_Destroy@U?$pair@HN@std@@@std@@YAXPAU?$pair@HN@0@@Z 10016e90 f i ResamplerImp.obj
 0001:00015ea0       ?_Checked_iterator_base@?$_Vector_const_iterator@NV?$allocator@N@std@@@std@@QBEPBNXZ 10016ea0 f i ResamplerImp.obj
 0001:00015eb0       ?_Checked_iterator_base@?$_Vector_iterator@U?$pair@NN@std@@V?$allocator@U?$pair@NN@std@@@2@@std@@QBEPAU?$pair@NN@2@XZ 10016eb0 f i ResamplerImp.obj
 0001:00015ec0       ?_Checked_iterator_base@?$_Vector_iterator@UTriplet@ResamplerImp@@V?$allocator@UTriplet@ResamplerImp@@@std@@@std@@QBEPAUTriplet@ResamplerImp@@XZ 10016ec0 f i ResamplerImp.obj
 0001:00015ed0       ?_Checked_iterator_base@?$_Vector_iterator@U?$pair@HN@std@@V?$allocator@U?$pair@HN@std@@@2@@std@@QBEPAU?$pair@HN@2@XZ 10016ed0 f i ResamplerImp.obj
 0001:00015ee0       ??0?$pair@PAU?$pair@NN@std@@PAU12@@std@@QAE@ABQAU?$pair@NN@1@0@Z 10016ee0 f i ResamplerImp.obj
 0001:00015ef0       ??0?$pair@PAUTriplet@ResamplerImp@@PAU12@@std@@QAE@ABQAUTriplet@ResamplerImp@@0@Z 10016ef0 f i ResamplerImp.obj
 0001:00015f00       ??0?$pair@PAU?$pair@HN@std@@PAU12@@std@@QAE@ABQAU?$pair@HN@1@0@Z 10016f00 f i ResamplerImp.obj
 0001:00015f10       ??$_Median@PAU?$pair@NN@std@@@std@@YAXPAU?$pair@NN@0@00@Z 10016f10 f i ResamplerImp.obj
 0001:00015fb0       ??$?MNN@std@@YA_NABU?$pair@NN@0@0@Z 10016fb0 f i ResamplerImp.obj
 0001:00015fe0       ??$iter_swap@PAU?$pair@NN@std@@PAU12@@std@@YAXPAU?$pair@NN@0@0@Z 10016fe0 f i ResamplerImp.obj
 0001:00016000       ??$_Dist_type@PAU?$pair@NN@std@@@std@@YAPAHPAU?$pair@NN@0@@Z 10017000 f i ResamplerImp.obj
 0001:00016010       ??$_Val_type@PAU?$pair@NN@std@@@std@@YAPAU?$pair@NN@0@PAU10@@Z 10017010 f i ResamplerImp.obj
 0001:00016020       ??$_Make_heap@PAU?$pair@NN@std@@HU12@@std@@YAXPAU?$pair@NN@0@0PAH0@Z 10017020 f i ResamplerImp.obj
 0001:00016080       ??$_Sort_heap@PAU?$pair@NN@std@@@std@@YAXPAU?$pair@NN@0@0@Z 10017080 f i ResamplerImp.obj
 0001:000160f0       ??$_Insertion_sort1@PAU?$pair@NN@std@@U12@@std@@YAXPAU?$pair@NN@0@00@Z 100170f0 f i ResamplerImp.obj
 0001:000161a0       ??$_Median@PAUTriplet@ResamplerImp@@@std@@YAXPAUTriplet@ResamplerImp@@00@Z 100171a0 f i ResamplerImp.obj
 0001:00016340       ??$iter_swap@PAUTriplet@ResamplerImp@@PAU12@@std@@YAXPAUTriplet@ResamplerImp@@0@Z 10017340 f i ResamplerImp.obj
 0001:00016350       ??$_Dist_type@PAUTriplet@ResamplerImp@@@std@@YAPAHPAUTriplet@ResamplerImp@@@Z 10017350 f i ResamplerImp.obj
 0001:00016360       ??$_Val_type@PAUTriplet@ResamplerImp@@@std@@YAPAUTriplet@ResamplerImp@@PAU12@@Z 10017360 f i ResamplerImp.obj
 0001:00016370       ??$_Make_heap@PAUTriplet@ResamplerImp@@HU12@@std@@YAXPAUTriplet@ResamplerImp@@0PAH0@Z 10017370 f i ResamplerImp.obj
 0001:000163f0       ??$_Sort_heap@PAUTriplet@ResamplerImp@@@std@@YAXPAUTriplet@ResamplerImp@@0@Z 100173f0 f i ResamplerImp.obj
 0001:00016480       ??$_Insertion_sort1@PAUTriplet@ResamplerImp@@U12@@std@@YAXPAUTriplet@ResamplerImp@@00@Z 10017480 f i ResamplerImp.obj
 0001:00016580       ??$_Median@PAU?$pair@HN@std@@@std@@YAXPAU?$pair@HN@0@00@Z 10017580 f i ResamplerImp.obj
 0001:00016610       ??$?MHN@std@@YA_NABU?$pair@HN@0@0@Z 10017610 f i ResamplerImp.obj
 0001:00016630       ??$iter_swap@PAU?$pair@HN@std@@PAU12@@std@@YAXPAU?$pair@HN@0@0@Z 10017630 f i ResamplerImp.obj
 0001:00016650       ??$_Dist_type@PAU?$pair@HN@std@@@std@@YAPAHPAU?$pair@HN@0@@Z 10017650 f i ResamplerImp.obj
 0001:00016660       ??$_Val_type@PAU?$pair@HN@std@@@std@@YAPAU?$pair@HN@0@PAU10@@Z 10017660 f i ResamplerImp.obj
 0001:00016670       ??$_Make_heap@PAU?$pair@HN@std@@HU12@@std@@YAXPAU?$pair@HN@0@0PAH0@Z 10017670 f i ResamplerImp.obj
 0001:000166d0       ??$_Sort_heap@PAU?$pair@HN@std@@@std@@YAXPAU?$pair@HN@0@0@Z 100176d0 f i ResamplerImp.obj
 0001:00016740       ??$_Insertion_sort1@PAU?$pair@HN@std@@U12@@std@@YAXPAU?$pair@HN@0@00@Z 10017740 f i ResamplerImp.obj
 0001:00016810       ??$_Checked_base@V?$_Vector_const_iterator@V?$basic_string@DU?$char_traits@D@std@@V?$allocator@D@2@@std@@V?$allocator@V?$basic_string@DU?$char_traits@D@std@@V?$allocator@D@2@@std@@@2@@std@@U_Different_checked_iterator_base_type_tag@2@@std@@YAPBV?$basic_string@DU?$char_traits@D@std@@V?$allocator@D@2@@0@AAV?$_Vector_const_iterator@V?$basic_string@DU?$char_traits@D@std@@V?$allocator@D@2@@std@@V?$allocator@V?$basic_string@DU?$char_traits@D@std@@V?$allocator@D@2@@std@@@2@@0@U_Different_checked_iterator_base_type_tag@0@@Z 10017810 f i ResamplerImp.obj
 0001:00016820       ??$unchecked_uninitialized_copy@PAU?$pair@NN@std@@PAU12@V?$allocator@U?$pair@NN@std@@@2@@stdext@@YAPAU?$pair@NN@std@@PAU12@00AAV?$allocator@U?$pair@NN@std@@@2@@Z 10017820 f i ResamplerImp.obj
 0001:00016840       ??$unchecked_uninitialized_copy@PAUTriplet@ResamplerImp@@PAU12@V?$allocator@UTriplet@ResamplerImp@@@std@@@stdext@@YAPAUTriplet@ResamplerImp@@PAU12@00AAV?$allocator@UTriplet@ResamplerImp@@@std@@@Z 10017840 f i ResamplerImp.obj
 0001:00016860       ??$unchecked_uninitialized_copy@PAU?$pair@HN@std@@PAU12@V?$allocator@U?$pair@HN@std@@@2@@stdext@@YAPAU?$pair@HN@std@@PAU12@00AAV?$allocator@U?$pair@HN@std@@@2@@Z 10017860 f i ResamplerImp.obj
 0001:00016880       ??$_Copy_backward_opt@PAU?$pair@NN@std@@PAU12@Uforward_iterator_tag@2@@std@@YAPAU?$pair@NN@0@PAU10@00Uforward_iterator_tag@0@U_Nonscalar_ptr_iterator_tag@0@U_Range_checked_iterator_tag@0@@Z 10017880 f i ResamplerImp.obj
 0001:000168b0       ??$_Copy_backward_opt@PAUTriplet@ResamplerImp@@PAU12@Uforward_iterator_tag@std@@@std@@YAPAUTriplet@ResamplerImp@@PAU12@00Uforward_iterator_tag@0@U_Nonscalar_ptr_iterator_tag@0@U_Range_checked_iterator_tag@0@@Z 100178b0 f i ResamplerImp.obj
 0001:000168f0       ??$_Copy_backward_opt@PAU?$pair@HN@std@@PAU12@Uforward_iterator_tag@2@@std@@YAPAU?$pair@HN@0@PAU10@00Uforward_iterator_tag@0@U_Nonscalar_ptr_iterator_tag@0@U_Range_checked_iterator_tag@0@@Z 100178f0 f i ResamplerImp.obj
 0001:00016920       ?_Checked_iterator_base@?$_Vector_const_iterator@V?$basic_string@DU?$char_traits@D@std@@V?$allocator@D@2@@std@@V?$allocator@V?$basic_string@DU?$char_traits@D@std@@V?$allocator@D@2@@std@@@2@@std@@QBEPBV?$basic_string@DU?$char_traits@D@std@@V?$allocator@D@2@@2@XZ 10017920 f i ResamplerImp.obj
 0001:00016930       ??$_Med3@PAU?$pair@NN@std@@@std@@YAXPAU?$pair@NN@0@00@Z 10017930 f i ResamplerImp.obj
 0001:000169d0       ??$swap@NN@std@@YAXAAU?$pair@NN@0@0@Z 100179d0 f i ResamplerImp.obj
 0001:000169f0       ??$_Adjust_heap@PAU?$pair@NN@std@@HU12@@std@@YAXPAU?$pair@NN@0@HHU10@@Z 100179f0 f i ResamplerImp.obj
 0001:00016ac0       ??$pop_heap@PAU?$pair@NN@std@@@std@@YAXPAU?$pair@NN@0@0@Z 10017ac0 f i ResamplerImp.obj
 0001:00016ae0       ??$unchecked_copy_backward@PAU?$pair@NN@std@@PAU12@@stdext@@YAPAU?$pair@NN@std@@PAU12@00@Z 10017ae0 f i ResamplerImp.obj
 0001:00016b20       ??$_Med3@PAUTriplet@ResamplerImp@@@std@@YAXPAUTriplet@ResamplerImp@@00@Z 10017b20 f i ResamplerImp.obj
 0001:00016b60       ??$swap@UTriplet@ResamplerImp@@@std@@YAXAAUTriplet@ResamplerImp@@0@Z 10017b60 f i ResamplerImp.obj
 0001:00016bd0       ??$_Adjust_heap@PAUTriplet@ResamplerImp@@HU12@@std@@YAXPAUTriplet@ResamplerImp@@HHU12@@Z 10017bd0 f i ResamplerImp.obj
 0001:00016ca0       ??$pop_heap@PAUTriplet@ResamplerImp@@@std@@YAXPAUTriplet@ResamplerImp@@0@Z 10017ca0 f i ResamplerImp.obj
 0001:00016d00       ??$unchecked_copy_backward@PAUTriplet@ResamplerImp@@PAU12@@stdext@@YAPAUTriplet@ResamplerImp@@PAU12@00@Z 10017d00 f i ResamplerImp.obj
 0001:00016d30       ??$_Med3@PAU?$pair@HN@std@@@std@@YAXPAU?$pair@HN@0@00@Z 10017d30 f i ResamplerImp.obj
 0001:00016db0       ??$swap@HN@std@@YAXAAU?$pair@HN@0@0@Z 10017db0 f i ResamplerImp.obj
 0001:00016dd0       ??$_Adjust_heap@PAU?$pair@HN@std@@HU12@@std@@YAXPAU?$pair@HN@0@HHU10@@Z 10017dd0 f i ResamplerImp.obj
 0001:00016ea0       ??$pop_heap@PAU?$pair@HN@std@@@std@@YAXPAU?$pair@HN@0@0@Z 10017ea0 f i ResamplerImp.obj
 0001:00016ec0       ??$unchecked_copy_backward@PAU?$pair@HN@std@@PAU12@@stdext@@YAPAU?$pair@HN@std@@PAU12@00@Z 10017ec0 f i ResamplerImp.obj
 0001:00016f00       ??$_Uninit_copy@PAU?$pair@NN@std@@PAU12@V?$allocator@U?$pair@NN@std@@@2@@std@@YAPAU?$pair@NN@0@PAU10@00AAV?$allocator@U?$pair@NN@std@@@0@U_Nonscalar_ptr_iterator_tag@0@U_Range_checked_iterator_tag@0@@Z 10017f00 f i ResamplerImp.obj
 0001:00016f30       ??$_Uninit_copy@PAUTriplet@ResamplerImp@@PAU12@V?$allocator@UTriplet@ResamplerImp@@@std@@@std@@YAPAUTriplet@ResamplerImp@@PAU12@00AAV?$allocator@UTriplet@ResamplerImp@@@0@U_Nonscalar_ptr_iterator_tag@0@U_Range_checked_iterator_tag@0@@Z 10017f30 f i ResamplerImp.obj
 0001:00016f70       ??$_Uninit_copy@PAU?$pair@HN@std@@PAU12@V?$allocator@U?$pair@HN@std@@@2@@std@@YAPAU?$pair@HN@0@PAU10@00AAV?$allocator@U?$pair@HN@std@@@0@U_Nonscalar_ptr_iterator_tag@0@U_Range_checked_iterator_tag@0@@Z 10017f70 f i ResamplerImp.obj
 0001:00016fa0       ?swap@?$pair@NN@std@@QAEXAAU12@@Z 10017fa0 f i ResamplerImp.obj
 0001:00016fc0       ?swap@?$pair@HN@std@@QAEXAAU12@@Z 10017fc0 f i ResamplerImp.obj
 0001:00016fe0       ??$_Push_heap@PAU?$pair@NN@std@@HU12@@std@@YAXPAU?$pair@NN@0@HHU10@@Z 10017fe0 f i ResamplerImp.obj
 0001:00017060       ??$_Pop_heap_0@PAU?$pair@NN@std@@U12@@std@@YAXPAU?$pair@NN@0@00@Z 10018060 f i ResamplerImp.obj
 0001:000170b0       ??$_Push_heap@PAUTriplet@ResamplerImp@@HU12@@std@@YAXPAUTriplet@ResamplerImp@@HHU12@@Z 100180b0 f i ResamplerImp.obj
 0001:00017150       ??$_Pop_heap_0@PAUTriplet@ResamplerImp@@U12@@std@@YAXPAUTriplet@ResamplerImp@@00@Z 10018150 f i ResamplerImp.obj
 0001:00017190       ??$_Push_heap@PAU?$pair@HN@std@@HU12@@std@@YAXPAU?$pair@HN@0@HHU10@@Z 10018190 f i ResamplerImp.obj
 0001:00017220       ??$_Pop_heap_0@PAU?$pair@HN@std@@U12@@std@@YAXPAU?$pair@HN@0@00@Z 10018220 f i ResamplerImp.obj
 0001:00017270       ??$swap@N@std@@YAXAAN0@Z   10018270 f i ResamplerImp.obj
 0001:00017280       ??$swap@H@std@@YAXAAH0@Z   10018280 f i ResamplerImp.obj
 0001:00017290       ??$_Pop_heap@PAU?$pair@NN@std@@HU12@@std@@YAXPAU?$pair@NN@0@00U10@PAH@Z 10018290 f i ResamplerImp.obj
 0001:000172e0       ??$_Pop_heap@PAUTriplet@ResamplerImp@@HU12@@std@@YAXPAUTriplet@ResamplerImp@@00U12@PAH@Z 100182e0 f i ResamplerImp.obj
 0001:00017360       ??$_Pop_heap@PAU?$pair@HN@std@@HU12@@std@@YAXPAU?$pair@HN@0@00U10@PAH@Z 10018360 f i ResamplerImp.obj
 0001:000173b0       ??_EResamplerImp@@WBCI@AEPAXI@Z 100183b0 f i ResamplerImp.obj
 0001:000173c0       ??_EResamplerImp@@W3AEPAXI@Z 100183c0 f i ResamplerImp.obj
 0001:000173d0       ?setSettingResamplerMethod@ResamplerOptions@@SAXV?$basic_string@DU?$char_traits@D@std@@V?$allocator@D@2@@std@@_N@Z 100183d0 f i ResamplerOptions.obj
 0001:00017450       ?setSettingDropOutWindow@ResamplerOptions@@SAXN_N@Z 10018450 f i ResamplerOptions.obj
 0001:000174c0       ?setSettingFullWidthHalfMax@ResamplerOptions@@SAXN_N@Z 100184c0 f i ResamplerOptions.obj
 0001:00017530       ?getName@ResamplerOptions@@SAABV?$basic_string@DU?$char_traits@D@std@@V?$allocator@D@2@@std@@XZ 10018530 f i ResamplerOptions.obj
 0001:00017590       ?getOptionName@ResamplerOptions@@SAABV?$basic_string@DU?$char_traits@D@std@@V?$allocator@D@2@@std@@XZ 10018590 f i ResamplerOptions.obj
 0001:000175f0       ?getDescription@ResamplerOptions@@SAABV?$basic_string@DU?$char_traits@D@std@@V?$allocator@D@2@@std@@XZ 100185f0 f i ResamplerOptions.obj
 0001:00017650       ?getShortDescription@ResamplerOptions@@SAABV?$basic_string@DU?$char_traits@D@std@@V?$allocator@D@2@@std@@XZ 10018650 f i ResamplerOptions.obj
 0001:000176b0       ?getCreator@ResamplerOptions@@SAABV?$basic_string@DU?$char_traits@D@std@@V?$allocator@D@2@@std@@XZ 100186b0 f i ResamplerOptions.obj
 0001:00017710       ?getCopyright@ResamplerOptions@@SAABV?$basic_string@DU?$char_traits@D@std@@V?$allocator@D@2@@std@@XZ 10018710 f i ResamplerOptions.obj
 0001:00017770       ?getVersion@ResamplerOptions@@SAABV?$basic_string@DU?$char_traits@D@std@@V?$allocator@D@2@@std@@XZ 10018770 f i ResamplerOptions.obj
 0001:000177d0       ?isProduction@ResamplerOptions@@SA_NXZ 100187d0 f i ResamplerOptions.obj
 0001:000177e0       ?getDescriptorId@ResamplerOptions@@SAABV?$basic_string@DU?$char_traits@D@std@@V?$allocator@D@2@@std@@XZ 100187e0 f i ResamplerOptions.obj
 0001:00017840       ??0ResamplerOptionsPlugInFactory@SpectralResampler@@QAE@ABV?$basic_string@DU?$char_traits@D@std@@V?$allocator@D@2@@std@@@Z 10018840 f i ResamplerOptions.obj
 0001:000178a0       ?createPlugIn@ResamplerOptionsPlugInFactory@SpectralResampler@@UAEPAVPlugIn@@ABV?$basic_string@DU?$char_traits@D@std@@V?$allocator@D@2@@std@@@Z 100188a0 f i ResamplerOptions.obj
 0001:00017910       ??1ResamplerOptionsPlugInFactory@SpectralResampler@@QAE@XZ 10018910 f i ResamplerOptions.obj
 0001:00017920       ??0ResamplerOptions@@QAE@XZ 10018920 f   ResamplerOptions.obj
 0001:000180f0       ??_GResamplerOptions@@UAEPAXI@Z 100190f0 f i ResamplerOptions.obj
 0001:000180f0       ??_EResamplerOptions@@UAEPAXI@Z 100190f0 f i  CIL library: CIL module
 0001:00018120       ??_GQLabel@@UAEPAXI@Z      10019120 f i ResamplerOptions.obj
 0001:00018120       ??_EQLabel@@UAEPAXI@Z      10019120 f i  CIL library: CIL module
 0001:00018140       ??_GQComboBox@@UAEPAXI@Z   10019140 f i ResamplerOptions.obj
 0001:00018140       ??_EQComboBox@@UAEPAXI@Z   10019140 f i  CIL library: CIL module
 0001:00018160       ??_GQDoubleSpinBox@@UAEPAXI@Z 10019160 f i ResamplerOptions.obj
 0001:00018160       ??_EQDoubleSpinBox@@UAEPAXI@Z 10019160 f i  CIL library: CIL module
 0001:00018180       ??_GQWidget@@UAEPAXI@Z     10019180 f i ResamplerOptions.obj
 0001:00018180       ??_EQWidget@@UAEPAXI@Z     10019180 f i  CIL library: CIL module
 0001:000181a0       ??_EQGridLayout@@UAEPAXI@Z 100191a0 f i  CIL library: CIL module
 0001:000181a0       ??_GQGridLayout@@UAEPAXI@Z 100191a0 f i ResamplerOptions.obj
 0001:000181c0       ??1ResamplerOptions@@UAE@XZ 100191c0 f   ResamplerOptions.obj
 0001:000181e0       ?applyChanges@ResamplerOptions@@QAEXXZ 100191e0 f   ResamplerOptions.obj
 0001:00018280       ?currentIndexChanged@ResamplerOptions@@QAEXH@Z 10019280 f   ResamplerOptions.obj
 0001:00018330       ??0?$QFlags@W4WindowType@Qt@@@@QAE@PAPAX@Z 10019330 f i ResamplerOptions.obj
 0001:00018340       ??0?$QFlags@W4AlignmentFlag@Qt@@@@QAE@PAPAX@Z 10019340 f i ResamplerOptions.obj
 0001:00018350       ??0?$OptionQWidgetWrapper@VResamplerOptions@@@@QAE@XZ 10019350 f i ResamplerOptions.obj
 0001:00018420       ??1?$OptionQWidgetWrapper@VResamplerOptions@@@@UAE@XZ 10019420 f i ResamplerOptions.obj
 0001:00018440       ?applyChanges@?$OptionQWidgetWrapper@VResamplerOptions@@@@UAEXXZ 10019440 f i ResamplerOptions.obj
 0001:00018470       ?createOptionsWidget@?$OptionQWidgetWrapper@VResamplerOptions@@@@MAEPAVQWidget@@XZ 10019470 f i ResamplerOptions.obj
 0001:000184d0       ??_G?$OptionQWidgetWrapper@VResamplerOptions@@@@UAEPAXI@Z 100194d0 f i ResamplerOptions.obj
 0001:000184d0       ??_E?$OptionQWidgetWrapper@VResamplerOptions@@@@UAEPAXI@Z 100194d0 f i  CIL library: CIL module
 0001:00018510       ??$setSetting@V?$basic_string@DU?$char_traits@D@std@@V?$allocator@D@2@@std@@@ConfigurationSettings@@QAE_NABV?$basic_string@DU?$char_traits@D@std@@V?$allocator@D@2@@std@@0_N@Z 10019510 f i ResamplerOptions.obj
 0001:000185a0       ??$setSetting@N@ConfigurationSettings@@QAE_NABV?$basic_string@DU?$char_traits@D@std@@V?$allocator@D@2@@std@@ABN_N@Z 100195a0 f i ResamplerOptions.obj
 0001:00018630       ??$?0V?$basic_string@DU?$char_traits@D@std@@V?$allocator@D@2@@std@@@DataVariant@@QAE@ABV?$basic_string@DU?$char_traits@D@std@@V?$allocator@D@2@@std@@@Z 10019630 f i ResamplerOptions.obj
 0001:00018660       ??$?0N@DataVariant@@QAE@ABN@Z 10019660 f i ResamplerOptions.obj
 0001:00018690       ??_E?$OptionQWidgetWrapper@VResamplerOptions@@@@W3AEPAXI@Z 10019690 f i ResamplerOptions.obj
 0001:000186a0       ??_E?$OptionQWidgetWrapper@VResamplerOptions@@@@W7AEPAXI@Z 100196a0 f i ResamplerOptions.obj
 0001:000186b0       ??_EResamplerOptions@@W7AEPAXI@Z 100196b0 f i ResamplerOptions.obj
 0001:000186c0       ??_EQDoubleSpinBox@@W7AEPAXI@Z 100196c0 f i ResamplerOptions.obj
 0001:000186d0       ??_EQComboBox@@W7AEPAXI@Z  100196d0 f i ResamplerOptions.obj
 0001:000186e0       ??_EQLabel@@W7AEPAXI@Z     100196e0 f i ResamplerOptions.obj
 0001:000186f0       ??_EQWidget@@W7AEPAXI@Z    100196f0 f i ResamplerOptions.obj
 0001:00018700       ??_EQGridLayout@@W7AEPAXI@Z 10019700 f i ResamplerOptions.obj
 0001:00018710       ??0SplineInterpolator@@QAE@ABV?$vector@NV?$allocator@N@std@@@std@@0N@Z 10019710 f   SplineInterpolator.obj
 0001:000187c0       ?resamplePoint@SplineInterpolator@@EAENUIndexPair@@NN@Z 100197c0 f   SplineInterpolator.obj
 0001:00018810       ?spline@SplineInterpolator@@CAXABV?$vector@NV?$allocator@N@std@@@std@@0HNNAAV23@@Z 10019810 f   SplineInterpolator.obj
 0001:00018f60       ?splint@SplineInterpolator@@CANHABV?$vector@NV?$allocator@N@std@@@std@@00N@Z 10019f60 f   SplineInterpolator.obj
 0001:00019150       ??0?$vector@NV?$allocator@N@std@@@std@@QAE@I@Z 1001a150 f i SplineInterpolator.obj
 0001:00019170       ?_Construct_n@?$vector@NV?$allocator@N@std@@@std@@QAEXIABN@Z 1001a170 f i SplineInterpolator.obj
 0001:000191d0       ?metaObject@ResamplerOptions@@UBEPBUQMetaObject@@XZ 1001a1d0 f   moc_ResamplerOptions.obj
 0001:000191e0       ?qt_metacast@ResamplerOptions@@UAEPAXPBD@Z 1001a1e0 f   moc_ResamplerOptions.obj
 0001:00019240       ?qt_metacall@ResamplerOptions@@UAEHW4Call@QMetaObject@@HPAPAX@Z 1001a240 f   moc_ResamplerOptions.obj
 0001:0001927a       ??1QVariant@@QAE@XZ        1001a27a f   QtCore4:QtCore4.dll
 0001:00019280       ?disconnectNotify@QObject@@MAEXPBD@Z 1001a280 f   QtCore4:QtCore4.dll
 0001:00019286       ?connectNotify@QObject@@MAEXPBD@Z 1001a286 f   QtCore4:QtCore4.dll
 0001:0001928c       ?customEvent@QObject@@MAEXPAVQEvent@@@Z 1001a28c f   QtCore4:QtCore4.dll
 0001:00019292       ?childEvent@QObject@@MAEXPAVQChildEvent@@@Z 1001a292 f   QtCore4:QtCore4.dll
 0001:00019298       ?timerEvent@QObject@@MAEXPAVQTimerEvent@@@Z 1001a298 f   QtCore4:QtCore4.dll
 0001:0001929e       ?connect@QObject@@SA_NPBV1@PBD01W4ConnectionType@Qt@@@Z 1001a29e f   QtCore4:QtCore4.dll
 0001:000192a4       ?eventFilter@QObject@@UAE_NPAV1@PAVQEvent@@@Z 1001a2a4 f   QtCore4:QtCore4.dll
 0001:000192aa       ?event@QObject@@UAE_NPAVQEvent@@@Z 1001a2aa f   QtCore4:QtCore4.dll
 0001:000192b0       ??0QVariant@@QAE@XZ        1001a2b0 f   QtCore4:QtCore4.dll
 0001:000192b6       ??0QString@@QAE@PBD@Z      1001a2b6 f   QtCore4:QtCore4.dll
 0001:000192bc       ?fromStdString@QString@@SA?AV1@ABV?$basic_string@DU?$char_traits@D@std@@V?$allocator@D@2@@std@@@Z 1001a2bc f   QtCore4:QtCore4.dll
 0001:000192c2       ?toStdString@QString@@QBE?AV?$basic_string@DU?$char_traits@D@std@@V?$allocator@D@2@@std@@XZ 1001a2c2 f   QtCore4:QtCore4.dll
 0001:000192c8       ??1QString@@QAE@XZ         1001a2c8 f   QtCore4:QtCore4.dll
 0001:000192ce       ?qFlagLocation@@YAPBDPBD@Z 1001a2ce f   QtCore4:QtCore4.dll
 0001:000192d4       ?wheelEvent@QComboBox@@MAEXPAVQWheelEvent@@@Z 1001a2d4 f   QtGui4:QtGui4.dll
 0001:000192da       ?qt_metacall@QDoubleSpinBox@@UAEHW4Call@QMetaObject@@HPAPAX@Z 1001a2da f   QtGui4:QtGui4.dll
 0001:000192e0       ?closeEvent@QAbstractSpinBox@@MAEXPAVQCloseEvent@@@Z 1001a2e0 f   QtGui4:QtGui4.dll
 0001:000192e6       ?winEvent@QWidget@@MAE_NPAUtagMSG@@PAJ@Z 1001a2e6 f   QtGui4:QtGui4.dll
 0001:000192ec       ?paintEvent@QLabel@@MAEXPAVQPaintEvent@@@Z 1001a2ec f   QtGui4:QtGui4.dll
 0001:000192f2       ?count@QGridLayout@@UBEHXZ 1001a2f2 f   QtGui4:QtGui4.dll
 0001:000192f8       ?keyReleaseEvent@QComboBox@@MAEXPAVQKeyEvent@@@Z 1001a2f8 f   QtGui4:QtGui4.dll
 0001:000192fe       ?qt_metacast@QDoubleSpinBox@@UAEPAXPBD@Z 1001a2fe f   QtGui4:QtGui4.dll
 0001:00019304       ?changeEvent@QAbstractSpinBox@@MAEXPAVQEvent@@@Z 1001a304 f   QtGui4:QtGui4.dll
 0001:0001930a       ?hideEvent@QWidget@@MAEXPAVQHideEvent@@@Z 1001a30a f   QtGui4:QtGui4.dll
 0001:00019310       ?minimumSizeHint@QWidget@@UBE?AVQSize@@XZ 1001a310 f   QtGui4:QtGui4.dll
 0001:00019316       ?keyPressEvent@QLabel@@MAEXPAVQKeyEvent@@@Z 1001a316 f   QtGui4:QtGui4.dll
 0001:0001931c       ?takeAt@QGridLayout@@UAEPAVQLayoutItem@@H@Z 1001a31c f   QtGui4:QtGui4.dll
 0001:00019322       ?keyPressEvent@QComboBox@@MAEXPAVQKeyEvent@@@Z 1001a322 f   QtGui4:QtGui4.dll
 0001:00019328       ?metaObject@QDoubleSpinBox@@UBEPBUQMetaObject@@XZ 1001a328 f   QtGui4:QtGui4.dll
 0001:0001932e       ?contextMenuEvent@QAbstractSpinBox@@MAEXPAVQContextMenuEvent@@@Z 1001a32e f   QtGui4:QtGui4.dll
 0001:00019334       ?showEvent@QWidget@@MAEXPAVQShowEvent@@@Z 1001a334 f   QtGui4:QtGui4.dll
 0001:0001933a       ?sizeHint@QWidget@@UBE?AVQSize@@XZ 1001a33a f   QtGui4:QtGui4.dll
 0001:00019340       ?event@QLabel@@MAE_NPAVQEvent@@@Z 1001a340 f   QtGui4:QtGui4.dll
 0001:00019346       ?itemAt@QGridLayout@@UBEPAVQLayoutItem@@H@Z 1001a346 f   QtGui4:QtGui4.dll
 0001:0001934c       ?mouseReleaseEvent@QComboBox@@MAEXPAVQMouseEvent@@@Z 1001a34c f   QtGui4:QtGui4.dll
 0001:00019352       ?focusOutEvent@QAbstractSpinBox@@MAEXPAVQFocusEvent@@@Z 1001a352 f   QtGui4:QtGui4.dll
 0001:00019358       ?dropEvent@QWidget@@MAEXPAVQDropEvent@@@Z 1001a358 f   QtGui4:QtGui4.dll
 0001:0001935e       ?heightForWidth@QLabel@@UBEHH@Z 1001a35e f   QtGui4:QtGui4.dll
 0001:00019364       ?addWidget@QGridLayout@@QAEXPAVQWidget@@HHV?$QFlags@W4AlignmentFlag@Qt@@@@@Z 1001a364 f   QtGui4:QtGui4.dll
 0001:0001936a       ?mousePressEvent@QComboBox@@MAEXPAVQMouseEvent@@@Z 1001a36a f   QtGui4:QtGui4.dll
 0001:00019370       ?focusInEvent@QAbstractSpinBox@@MAEXPAVQFocusEvent@@@Z 1001a370 f   QtGui4:QtGui4.dll
 0001:00019376       ?dragLeaveEvent@QWidget@@MAEXPAVQDragLeaveEvent@@@Z 1001a376 f   QtGui4:QtGui4.dll
 0001:0001937c       ?minimumSizeHint@QLabel@@UBE?AVQSize@@XZ 1001a37c f   QtGui4:QtGui4.dll
 0001:00019382       ?invalidate@QGridLayout@@UAEXXZ 1001a382 f   QtGui4:QtGui4.dll
 0001:00019388       ?hideEvent@QComboBox@@MAEXPAVQHideEvent@@@Z 1001a388 f   QtGui4:QtGui4.dll
 0001:0001938e       ?wheelEvent@QAbstractSpinBox@@MAEXPAVQWheelEvent@@@Z 1001a38e f   QtGui4:QtGui4.dll
 0001:00019394       ?childEvent@QLayout@@MAEXPAVQChildEvent@@@Z 1001a394 f   QtGui4:QtGui4.dll
 0001:0001939a       ?dragMoveEvent@QWidget@@MAEXPAVQDragMoveEvent@@@Z 1001a39a f   QtGui4:QtGui4.dll
 0001:000193a0       ?sizeHint@QLabel@@UBE?AVQSize@@XZ 1001a3a0 f   QtGui4:QtGui4.dll
 0001:000193a6       ?expandingDirections@QGridLayout@@UBE?AV?$QFlags@W4Orientation@Qt@@@@XZ 1001a3a6 f   QtGui4:QtGui4.dll
 0001:000193ac       ?showEvent@QComboBox@@MAEXPAVQShowEvent@@@Z 1001a3ac f   QtGui4:QtGui4.dll
 0001:000193b2       ?keyReleaseEvent@QAbstractSpinBox@@MAEXPAVQKeyEvent@@@Z 1001a3b2 f   QtGui4:QtGui4.dll
 0001:000193b8       ?layout@QLayout@@UAEPAV1@XZ 1001a3b8 f   QtGui4:QtGui4.dll
 0001:000193be       ?dragEnterEvent@QWidget@@MAEXPAVQDragEnterEvent@@@Z 1001a3be f   QtGui4:QtGui4.dll
 0001:000193c4       ?setVisible@QWidget@@UAEX_N@Z 1001a3c4 f   QtGui4:QtGui4.dll
 0001:000193ca       ??1QLabel@@UAE@XZ          1001a3ca f   QtGui4:QtGui4.dll
 0001:000193d0       ?minimumHeightForWidth@QGridLayout@@UBEHH@Z 1001a3d0 f   QtGui4:QtGui4.dll
 0001:000193d6       ?paintEvent@QComboBox@@MAEXPAVQPaintEvent@@@Z 1001a3d6 f   QtGui4:QtGui4.dll
 0001:000193dc       ?keyPressEvent@QAbstractSpinBox@@MAEXPAVQKeyEvent@@@Z 1001a3dc f   QtGui4:QtGui4.dll
 0001:000193e2       ?isEmpty@QLayout@@UBE_NXZ  1001a3e2 f   QtGui4:QtGui4.dll
 0001:000193e8       ?actionEvent@QWidget@@MAEXPAVQActionEvent@@@Z 1001a3e8 f   QtGui4:QtGui4.dll
 0001:000193ee       ??0QLabel@@QAE@ABVQString@@PAVQWidget@@V?$QFlags@W4WindowType@Qt@@@@@Z 1001a3ee f   QtGui4:QtGui4.dll
 0001:000193f4       ?heightForWidth@QGridLayout@@UBEHH@Z 1001a3f4 f   QtGui4:QtGui4.dll
 0001:000193fa       ?resizeEvent@QComboBox@@MAEXPAVQResizeEvent@@@Z 1001a3fa f   QtGui4:QtGui4.dll
 0001:00019400       ?resizeEvent@QAbstractSpinBox@@MAEXPAVQResizeEvent@@@Z 1001a400 f   QtGui4:QtGui4.dll
 0001:00019406       ?indexOf@QLayout@@UBEHPAVQWidget@@@Z 1001a406 f   QtGui4:QtGui4.dll
 0001:0001940c       ?tabletEvent@QWidget@@MAEXPAVQTabletEvent@@@Z 1001a40c f   QtGui4:QtGui4.dll
 0001:00019412       ?qt_metacall@QLabel@@UAEHW4Call@QMetaObject@@HPAPAX@Z 1001a412 f   QtGui4:QtGui4.dll
 0001:00019418       ?hasHeightForWidth@QGridLayout@@UBE_NXZ 1001a418 f   QtGui4:QtGui4.dll
 0001:0001941e       ?changeEvent@QComboBox@@MAEXPAVQEvent@@@Z 1001a41e f   QtGui4:QtGui4.dll
 0001:00019424       ?clear@QAbstractSpinBox@@UAEXXZ 1001a424 f   QtGui4:QtGui4.dll
 0001:0001942a       ?contextMenuEvent@QWidget@@MAEXPAVQContextMenuEvent@@@Z 1001a42a f   QtGui4:QtGui4.dll
 0001:00019430       ?qt_metacast@QLabel@@UAEPAXPBD@Z 1001a430 f   QtGui4:QtGui4.dll
 0001:00019436       ?scrollContentsBy@QScrollArea@@MAEXHH@Z 1001a436 f   QtGui4:QtGui4.dll
 0001:0001943c       ?maximumSize@QGridLayout@@UBE?AVQSize@@XZ 1001a43c f   QtGui4:QtGui4.dll
 0001:00019442       ?focusOutEvent@QComboBox@@MAEXPAVQFocusEvent@@@Z 1001a442 f   QtGui4:QtGui4.dll
 0001:00019448       ?stepBy@QAbstractSpinBox@@UAEXH@Z 1001a448 f   QtGui4:QtGui4.dll
 0001:0001944e       ?geometry@QLayout@@UBE?AVQRect@@XZ 1001a44e f   QtGui4:QtGui4.dll
 0001:00019454       ?closeEvent@QWidget@@MAEXPAVQCloseEvent@@@Z 1001a454 f   QtGui4:QtGui4.dll
 0001:0001945a       ?metaObject@QLabel@@UBEPBUQMetaObject@@XZ 1001a45a f   QtGui4:QtGui4.dll
 0001:00019460       ?resizeEvent@QScrollArea@@MAEXPAVQResizeEvent@@@Z 1001a460 f   QtGui4:QtGui4.dll
 0001:00019466       ?minimumSize@QGridLayout@@UBE?AVQSize@@XZ 1001a466 f   QtGui4:QtGui4.dll
 0001:0001946c       ?focusInEvent@QComboBox@@MAEXPAVQFocusEvent@@@Z 1001a46c f   QtGui4:QtGui4.dll
 0001:00019472       ?event@QAbstractSpinBox@@UAE_NPAVQEvent@@@Z 1001a472 f   QtGui4:QtGui4.dll
 0001:00019478       ?resizeEvent@QWidget@@MAEXPAVQResizeEvent@@@Z 1001a478 f   QtGui4:QtGui4.dll
 0001:0001947e       ?eventFilter@QScrollArea@@MAE_NPAVQObject@@PAVQEvent@@@Z 1001a47e f   QtGui4:QtGui4.dll
 0001:00019484       ?sizeHint@QGridLayout@@UBE?AVQSize@@XZ 1001a484 f   QtGui4:QtGui4.dll
 0001:0001948a       ?setCurrentIndex@QComboBox@@QAEXH@Z 1001a48a f   QtGui4:QtGui4.dll
 0001:00019490       ?minimumSizeHint@QAbstractSpinBox@@UBE?AVQSize@@XZ 1001a490 f   QtGui4:QtGui4.dll
 0001:00019496       ?moveEvent@QWidget@@MAEXPAVQMoveEvent@@@Z 1001a496 f   QtGui4:QtGui4.dll
 0001:0001949c       ?event@QScrollArea@@MAE_NPAVQEvent@@@Z 1001a49c f   QtGui4:QtGui4.dll
 0001:000194a2       ??1QGridLayout@@UAE@XZ     1001a4a2 f   QtGui4:QtGui4.dll
 0001:000194a8       ?event@QComboBox@@UAE_NPAVQEvent@@@Z 1001a4a8 f   QtGui4:QtGui4.dll
 0001:000194ae       ?sizeHint@QAbstractSpinBox@@UBE?AVQSize@@XZ 1001a4ae f   QtGui4:QtGui4.dll
 0001:000194b4       ?paintEvent@QWidget@@MAEXPAVQPaintEvent@@@Z 1001a4b4 f   QtGui4:QtGui4.dll
 0001:000194ba       ?focusNextPrevChild@QScrollArea@@UAE_N_N@Z 1001a4ba f   QtGui4:QtGui4.dll
 0001:000194c0       ??0QGridLayout@@QAE@PAVQWidget@@@Z 1001a4c0 f   QtGui4:QtGui4.dll
 0001:000194c6       ?hidePopup@QComboBox@@UAEXXZ 1001a4c6 f   QtGui4:QtGui4.dll
 0001:000194cc       ?leaveEvent@QWidget@@MAEXPAVQEvent@@@Z 1001a4cc f   QtGui4:QtGui4.dll
 0001:000194d2       ?qt_metacall@QGridLayout@@UAEHW4Call@QMetaObject@@HPAPAX@Z 1001a4d2 f   QtGui4:QtGui4.dll
 0001:000194d8       ?showPopup@QComboBox@@UAEXXZ 1001a4d8 f   QtGui4:QtGui4.dll
 0001:000194de       ?enterEvent@QWidget@@MAEXPAVQEvent@@@Z 1001a4de f   QtGui4:QtGui4.dll
 0001:000194e4       ?qt_metacast@QGridLayout@@UAEPAXPBD@Z 1001a4e4 f   QtGui4:QtGui4.dll
 0001:000194ea       ?minimumSizeHint@QComboBox@@UBE?AVQSize@@XZ 1001a4ea f   QtGui4:QtGui4.dll
 0001:000194f0       ?keyPressEvent@QAbstractScrollArea@@MAEXPAVQKeyEvent@@@Z 1001a4f0 f   QtGui4:QtGui4.dll
 0001:000194f6       ?focusOutEvent@QWidget@@MAEXPAVQFocusEvent@@@Z 1001a4f6 f   QtGui4:QtGui4.dll
 0001:000194fc       ?metaObject@QGridLayout@@UBEPBUQMetaObject@@XZ 1001a4fc f   QtGui4:QtGui4.dll
 0001:00019502       ?sizeHint@QComboBox@@UBE?AVQSize@@XZ 1001a502 f   QtGui4:QtGui4.dll
 0001:00019508       ?dropEvent@QAbstractScrollArea@@MAEXPAVQDropEvent@@@Z 1001a508 f   QtGui4:QtGui4.dll
 0001:0001950e       ?focusInEvent@QWidget@@MAEXPAVQFocusEvent@@@Z 1001a50e f   QtGui4:QtGui4.dll
 0001:00019514       ?setEnabled@QWidget@@QAEX_N@Z 1001a514 f   QtGui4:QtGui4.dll
 0001:0001951a       ??1QDoubleSpinBox@@UAE@XZ  1001a51a f   QtGui4:QtGui4.dll
 0001:00019520       ?dragLeaveEvent@QAbstractScrollArea@@MAEXPAVQDragLeaveEvent@@@Z 1001a520 f   QtGui4:QtGui4.dll
 0001:00019526       ?keyReleaseEvent@QWidget@@MAEXPAVQKeyEvent@@@Z 1001a526 f   QtGui4:QtGui4.dll
 0001:0001952c       ?devType@QWidget@@UBEHXZ   1001a52c f   QtGui4:QtGui4.dll
 0001:00019532       ?dragMoveEvent@QAbstractScrollArea@@MAEXPAVQDragMoveEvent@@@Z 1001a532 f   QtGui4:QtGui4.dll
 0001:00019538       ?keyPressEvent@QWidget@@MAEXPAVQKeyEvent@@@Z 1001a538 f   QtGui4:QtGui4.dll
 0001:0001953e       ??1QWidget@@UAE@XZ         1001a53e f   QtGui4:QtGui4.dll
 0001:00019544       ?currentText@QComboBox@@QBE?AVQString@@XZ 1001a544 f   QtGui4:QtGui4.dll
 0001:0001954a       ?dragEnterEvent@QAbstractScrollArea@@MAEXPAVQDragEnterEvent@@@Z 1001a54a f   QtGui4:QtGui4.dll
 0001:00019550       ?languageChange@QWidget@@MAEXXZ 1001a550 f   QtGui4:QtGui4.dll
 0001:00019556       ?wheelEvent@QWidget@@MAEXPAVQWheelEvent@@@Z 1001a556 f   QtGui4:QtGui4.dll
 0001:0001955c       ??0QWidget@@QAE@PAV0@V?$QFlags@W4WindowType@Qt@@@@@Z 1001a55c f   QtGui4:QtGui4.dll
 0001:00019562       ?contextMenuEvent@QAbstractScrollArea@@MAEXPAVQContextMenuEvent@@@Z 1001a562 f   QtGui4:QtGui4.dll
 0001:00019568       ?windowActivationChange@QWidget@@MAEX_N@Z 1001a568 f   QtGui4:QtGui4.dll
 0001:0001956e       ?mouseMoveEvent@QWidget@@MAEXPAVQMouseEvent@@@Z 1001a56e f   QtGui4:QtGui4.dll
 0001:00019574       ?qt_metacall@QWidget@@UAEHW4Call@QMetaObject@@HPAPAX@Z 1001a574 f   QtGui4:QtGui4.dll
 0001:0001957a       ?addItem@QComboBox@@QAEXABVQString@@ABVQVariant@@@Z 1001a57a f   QtGui4:QtGui4.dll
 0001:00019580       ?setValue@QDoubleSpinBox@@QAEXN@Z 1001a580 f   QtGui4:QtGui4.dll
 0001:00019586       ?wheelEvent@QAbstractScrollArea@@MAEXPAVQWheelEvent@@@Z 1001a586 f   QtGui4:QtGui4.dll
 0001:0001958c       ?fontChange@QWidget@@MAEXABVQFont@@@Z 1001a58c f   QtGui4:QtGui4.dll
 0001:00019592       ?mouseDoubleClickEvent@QWidget@@MAEXPAVQMouseEvent@@@Z 1001a592 f   QtGui4:QtGui4.dll
 0001:00019598       ?qt_metacast@QWidget@@UAEPAXPBD@Z 1001a598 f   QtGui4:QtGui4.dll
 0001:0001959e       ??1QComboBox@@UAE@XZ       1001a59e f   QtGui4:QtGui4.dll
 0001:000195a4       ?fixup@QDoubleSpinBox@@UBEXAAVQString@@@Z 1001a5a4 f   QtGui4:QtGui4.dll
 0001:000195aa       ?mouseMoveEvent@QAbstractScrollArea@@MAEXPAVQMouseEvent@@@Z 1001a5aa f   QtGui4:QtGui4.dll
 0001:000195b0       ?paletteChange@QWidget@@MAEXABVQPalette@@@Z 1001a5b0 f   QtGui4:QtGui4.dll
 0001:000195b6       ?mouseReleaseEvent@QWidget@@MAEXPAVQMouseEvent@@@Z 1001a5b6 f   QtGui4:QtGui4.dll
 0001:000195bc       ?metaObject@QWidget@@UBEPBUQMetaObject@@XZ 1001a5bc f   QtGui4:QtGui4.dll
 0001:000195c2       ??0QComboBox@@QAE@PAVQWidget@@@Z 1001a5c2 f   QtGui4:QtGui4.dll
 0001:000195c8       ?textFromValue@QDoubleSpinBox@@UBE?AVQString@@N@Z 1001a5c8 f   QtGui4:QtGui4.dll
 0001:000195ce       ?changeEvent@QFrame@@MAEXPAVQEvent@@@Z 1001a5ce f   QtGui4:QtGui4.dll
 0001:000195d4       ?stepEnabled@QAbstractSpinBox@@MBE?AV?$QFlags@W4StepEnabledFlag@QAbstractSpinBox@@@@XZ 1001a5d4 f   QtGui4:QtGui4.dll
 0001:000195da       ?mouseDoubleClickEvent@QAbstractScrollArea@@MAEXPAVQMouseEvent@@@Z 1001a5da f   QtGui4:QtGui4.dll
 0001:000195e0       ?enabledChange@QWidget@@MAEX_N@Z 1001a5e0 f   QtGui4:QtGui4.dll
 0001:000195e6       ?mousePressEvent@QWidget@@MAEXPAVQMouseEvent@@@Z 1001a5e6 f   QtGui4:QtGui4.dll
 0001:000195ec       ?focusNextPrevChild@QLabel@@MAE_N_N@Z 1001a5ec f   QtGui4:QtGui4.dll
 0001:000195f2       ?qt_metacall@QComboBox@@UAEHW4Call@QMetaObject@@HPAPAX@Z 1001a5f2 f   QtGui4:QtGui4.dll
 0001:000195f8       ?valueFromText@QDoubleSpinBox@@UBENABVQString@@@Z 1001a5f8 f   QtGui4:QtGui4.dll
 0001:000195fe       ?showEvent@QAbstractSpinBox@@MAEXPAVQShowEvent@@@Z 1001a5fe f   QtGui4:QtGui4.dll
 0001:00019604       ?mouseReleaseEvent@QAbstractScrollArea@@MAEXPAVQMouseEvent@@@Z 1001a604 f   QtGui4:QtGui4.dll
 0001:0001960a       ?styleChange@QWidget@@MAEXAAVQStyle@@@Z 1001a60a f   QtGui4:QtGui4.dll
 0001:00019610       ?event@QWidget@@MAE_NPAVQEvent@@@Z 1001a610 f   QtGui4:QtGui4.dll
 0001:00019616       ?focusOutEvent@QLabel@@MAEXPAVQFocusEvent@@@Z 1001a616 f   QtGui4:QtGui4.dll
 0001:0001961c       ?qt_metacast@QComboBox@@UAEPAXPBD@Z 1001a61c f   QtGui4:QtGui4.dll
 0001:00019622       ?validate@QDoubleSpinBox@@UBE?AW4State@QValidator@@AAVQString@@AAH@Z 1001a622 f   QtGui4:QtGui4.dll
 0001:00019628       ?paintEvent@QAbstractSpinBox@@MAEXPAVQPaintEvent@@@Z 1001a628 f   QtGui4:QtGui4.dll
 0001:0001962e       ?mousePressEvent@QAbstractScrollArea@@MAEXPAVQMouseEvent@@@Z 1001a62e f   QtGui4:QtGui4.dll
 0001:00019634       ?paintEngine@QWidget@@UBEPAVQPaintEngine@@XZ 1001a634 f   QtGui4:QtGui4.dll
 0001:0001963a       ?focusInEvent@QLabel@@MAEXPAVQFocusEvent@@@Z 1001a63a f   QtGui4:QtGui4.dll
 0001:00019640       ?metaObject@QComboBox@@UBEPBUQMetaObject@@XZ 1001a640 f   QtGui4:QtGui4.dll
 0001:00019646       ?setDecimals@QDoubleSpinBox@@QAEXH@Z 1001a646 f   QtGui4:QtGui4.dll
 0001:0001964c       ?timerEvent@QAbstractSpinBox@@MAEXPAVQTimerEvent@@@Z 1001a64c f   QtGui4:QtGui4.dll
 0001:00019652       ?paintEvent@QAbstractScrollArea@@MAEXPAVQPaintEvent@@@Z 1001a652 f   QtGui4:QtGui4.dll
 0001:00019658       ?spacerItem@QLayoutItem@@UAEPAVQSpacerItem@@XZ 1001a658 f   QtGui4:QtGui4.dll
 0001:0001965e       ?focusNextPrevChild@QWidget@@MAE_N_N@Z 1001a65e f   QtGui4:QtGui4.dll
 0001:00019664       ?contextMenuEvent@QLabel@@MAEXPAVQContextMenuEvent@@@Z 1001a664 f   QtGui4:QtGui4.dll
 0001:0001966a       ?setRange@QDoubleSpinBox@@QAEXNN@Z 1001a66a f   QtGui4:QtGui4.dll
 0001:00019670       ?mouseMoveEvent@QAbstractSpinBox@@MAEXPAVQMouseEvent@@@Z 1001a670 f   QtGui4:QtGui4.dll
 0001:00019676       ?viewportEvent@QAbstractScrollArea@@MAE_NPAVQEvent@@@Z 1001a676 f   QtGui4:QtGui4.dll
 0001:0001967c       ?widget@QLayoutItem@@UAEPAVQWidget@@XZ 1001a67c f   QtGui4:QtGui4.dll
 0001:00019682       ?inputMethodQuery@QWidget@@UBE?AVQVariant@@W4InputMethodQuery@Qt@@@Z 1001a682 f   QtGui4:QtGui4.dll
 0001:00019688       ?releaseDC@QWidget@@UBEXPAUHDC__@@@Z 1001a688 f   QtGui4:QtGui4.dll
 0001:0001968e       ?mouseReleaseEvent@QLabel@@MAEXPAVQMouseEvent@@@Z 1001a68e f   QtGui4:QtGui4.dll
 0001:00019694       ?inputMethodQuery@QComboBox@@MBE?AVQVariant@@W4InputMethodQuery@Qt@@@Z 1001a694 f   QtGui4:QtGui4.dll
 0001:0001969a       ?setSuffix@QDoubleSpinBox@@QAEXABVQString@@@Z 1001a69a f   QtGui4:QtGui4.dll
 0001:000196a0       ?mouseReleaseEvent@QAbstractSpinBox@@MAEXPAVQMouseEvent@@@Z 1001a6a0 f   QtGui4:QtGui4.dll
 0001:000196a6       ?minimumSizeHint@QAbstractScrollArea@@UBE?AVQSize@@XZ 1001a6a6 f   QtGui4:QtGui4.dll
 0001:000196ac       ?inputMethodEvent@QWidget@@MAEXPAVQInputMethodEvent@@@Z 1001a6ac f   QtGui4:QtGui4.dll
 0001:000196b2       ?getDC@QWidget@@UBEPAUHDC__@@XZ 1001a6b2 f   QtGui4:QtGui4.dll
 0001:000196b8       ?mouseMoveEvent@QLabel@@MAEXPAVQMouseEvent@@@Z 1001a6b8 f   QtGui4:QtGui4.dll
 0001:000196be       ?inputMethodEvent@QComboBox@@MAEXPAVQInputMethodEvent@@@Z 1001a6be f   QtGui4:QtGui4.dll
 0001:000196c4       ?value@QDoubleSpinBox@@QBENXZ 1001a6c4 f   QtGui4:QtGui4.dll
 0001:000196ca       ?mousePressEvent@QAbstractSpinBox@@MAEXPAVQMouseEvent@@@Z 1001a6ca f   QtGui4:QtGui4.dll
 0001:000196d0       ?metric@QWidget@@MBEHW4PaintDeviceMetric@QPaintDevice@@@Z 1001a6d0 f   QtGui4:QtGui4.dll
 0001:000196d6       ?mousePressEvent@QLabel@@MAEXPAVQMouseEvent@@@Z 1001a6d6 f   QtGui4:QtGui4.dll
 0001:000196dc       ?addItem@QGridLayout@@MAEXPAVQLayoutItem@@@Z 1001a6dc f   QtGui4:QtGui4.dll
 0001:000196e2       ?contextMenuEvent@QComboBox@@MAEXPAVQContextMenuEvent@@@Z 1001a6e2 f   QtGui4:QtGui4.dll
 0001:000196e8       ??0QDoubleSpinBox@@QAE@PAVQWidget@@@Z 1001a6e8 f   QtGui4:QtGui4.dll
 0001:000196ee       ?hideEvent@QAbstractSpinBox@@MAEXPAVQHideEvent@@@Z 1001a6ee f   QtGui4:QtGui4.dll
 0001:000196f4       ?changeEvent@QWidget@@MAEXPAVQEvent@@@Z 1001a6f4 f   QtGui4:QtGui4.dll
 0001:000196fa       ?heightForWidth@QWidget@@UBEHH@Z 1001a6fa f   QtGui4:QtGui4.dll
 0001:00019700       ?changeEvent@QLabel@@MAEXPAVQEvent@@@Z 1001a700 f   QtGui4:QtGui4.dll
 0001:00019706       ?setGeometry@QGridLayout@@UAEXABVQRect@@@Z 1001a706 f   QtGui4:QtGui4.dll
 0001:00019710       ??0ModuleManager@@IAE@XZ   1001a710 f   PlugInLib:ModuleManagerCommon.obj
 0001:00019720       ??1ModuleManager@@IAE@XZ   1001a720 f   PlugInLib:ModuleManagerCommon.obj
 0001:00019730       ?instance@ModuleManager@@SAPAV1@XZ 1001a730 f   PlugInLib:ModuleManagerCommon.obj
 0001:00019760       ??1SessionItem@@MAE@XZ     1001a760 f i PlugInLib:PlugInShell.obj
 0001:00019770       ??_GSessionItem@@MAEPAXI@Z 1001a770 f i PlugInLib:PlugInShell.obj
 0001:00019770       ??_ESessionItem@@MAEPAXI@Z 1001a770 f i PlugInLib:PlugInShell.obj
 0001:00019790       ??1SessionItemExt1@@MAE@XZ 1001a790 f i PlugInLib:PlugInShell.obj
 0001:000197a0       ??_ESessionItemExt1@@MAEPAXI@Z 1001a7a0 f i PlugInLib:PlugInShell.obj
 0001:000197a0       ??_GSessionItemExt1@@MAEPAXI@Z 1001a7a0 f i PlugInLib:PlugInShell.obj
 0001:000197c0       ??0Args@FactoryAllocator@@QAE@PBD@Z 1001a7c0 f i PlugInLib:PlugInShell.obj
 0001:000197e0       ??1PlugIn@@MAE@XZ          1001a7e0 f i PlugInLib:PlugInShell.obj
 0001:000197f0       ??0SessionItemExt1@@QAE@XZ 1001a7f0 f i PlugInLib:PlugInShell.obj
 0001:00019800       ??0SessionItem@@QAE@XZ     1001a800 f i PlugInLib:PlugInShell.obj
 0001:00019810       ?serialize@PlugInShell@@UBE_NAAVSessionItemSerializer@@@Z 1001a810 f   PlugInLib:PlugInShell.obj
 0001:00019820       ?deserialize@PlugInShell@@UAE_NAAVSessionItemDeserializer@@@Z 1001a820 f   PlugInLib:PlugInShell.obj
 0001:00019830       ?getVersion@PlugInShell@@UBE?AV?$basic_string@DU?$char_traits@D@std@@V?$allocator@D@2@@std@@XZ 1001a830 f   PlugInLib:PlugInShell.obj
 0001:00019860       ?isProduction@PlugInShell@@UBE_NXZ 1001a860 f   PlugInLib:PlugInShell.obj
 0001:00019870       ?getCreator@PlugInShell@@UBE?AV?$basic_string@DU?$char_traits@D@std@@V?$allocator@D@2@@std@@XZ 1001a870 f   PlugInLib:PlugInShell.obj
 0001:000198a0       ?getCopyright@PlugInShell@@UBE?AV?$basic_string@DU?$char_traits@D@std@@V?$allocator@D@2@@std@@XZ 1001a8a0 f   PlugInLib:PlugInShell.obj
 0001:000198d0       ?getDescription@PlugInShell@@UBE?AV?$basic_string@DU?$char_traits@D@std@@V?$allocator@D@2@@std@@XZ 1001a8d0 f   PlugInLib:PlugInShell.obj
 0001:00019900       ?getShortDescription@PlugInShell@@UBE?AV?$basic_string@DU?$char_traits@D@std@@V?$allocator@D@2@@std@@XZ 1001a900 f   PlugInLib:PlugInShell.obj
 0001:00019930       ?getDescriptorId@PlugInShell@@UBE?AV?$basic_string@DU?$char_traits@D@std@@V?$allocator@D@2@@std@@XZ 1001a930 f   PlugInLib:PlugInShell.obj
 0001:00019960       ?getType@PlugInShell@@UBE?AV?$basic_string@DU?$char_traits@D@std@@V?$allocator@D@2@@std@@XZ 1001a960 f   PlugInLib:PlugInShell.obj
 0001:00019990       ?getSubtype@PlugInShell@@UBE?AV?$basic_string@DU?$char_traits@D@std@@V?$allocator@D@2@@std@@XZ 1001a990 f   PlugInLib:PlugInShell.obj
 0001:000199c0       ?areMultipleInstancesAllowed@PlugInShell@@UBE_NXZ 1001a9c0 f   PlugInLib:PlugInShell.obj
 0001:000199d0       ?setVersion@PlugInShell@@IAEXABV?$basic_string@DU?$char_traits@D@std@@V?$allocator@D@2@@std@@@Z 1001a9d0 f   PlugInLib:PlugInShell.obj
 0001:000199e0       ?setProductionStatus@PlugInShell@@IAEX_N@Z 1001a9e0 f   PlugInLib:PlugInShell.obj
 0001:000199f0       ?setCreator@PlugInShell@@IAEXABV?$basic_string@DU?$char_traits@D@std@@V?$allocator@D@2@@std@@@Z 1001a9f0 f   PlugInLib:PlugInShell.obj
 0001:00019a00       ?setCopyright@PlugInShell@@IAEXABV?$basic_string@DU?$char_traits@D@std@@V?$allocator@D@2@@std@@@Z 1001aa00 f   PlugInLib:PlugInShell.obj
 0001:00019a10       ?setDescription@PlugInShell@@IAEXABV?$basic_string@DU?$char_traits@D@std@@V?$allocator@D@2@@std@@@Z 1001aa10 f   PlugInLib:PlugInShell.obj
 0001:00019a20       ?setShortDescription@PlugInShell@@IAEXABV?$basic_string@DU?$char_traits@D@std@@V?$allocator@D@2@@std@@@Z 1001aa20 f   PlugInLib:PlugInShell.obj
 0001:00019a30       ?setDescriptorId@PlugInShell@@IAEXABV?$basic_string@DU?$char_traits@D@std@@V?$allocator@D@2@@std@@@Z 1001aa30 f   PlugInLib:PlugInShell.obj
 0001:00019a40       ?setType@PlugInShell@@IAEXABV?$basic_string@DU?$char_traits@D@std@@V?$allocator@D@2@@std@@@Z 1001aa40 f   PlugInLib:PlugInShell.obj
 0001:00019a50       ?setSubtype@PlugInShell@@IAEXABV?$basic_string@DU?$char_traits@D@std@@V?$allocator@D@2@@std@@@Z 1001aa50 f   PlugInLib:PlugInShell.obj
 0001:00019a60       ?allowMultipleInstances@PlugInShell@@IAEX_N@Z 1001aa60 f   PlugInLib:PlugInShell.obj
 0001:00019a70       ??C?$Service@VApplicationServices@@@@QBEPAVApplicationServices@@XZ 1001aa70 f i PlugInLib:PlugInShell.obj
 0001:00019a80       ?get@?$Resource@VSettableSessionItem@@VFactoryObject@@@@QBEPBVSettableSessionItem@@XZ 1001aa80 f i PlugInLib:PlugInShell.obj
 0001:00019a90       ?get@?$Resource@VSettableSessionItem@@VFactoryObject@@@@QAEPAVSettableSessionItem@@XZ 1001aa90 f i PlugInLib:PlugInShell.obj
 0001:00019aa0       ??C?$Resource@VSettableSessionItem@@VFactoryObject@@@@QBEPBVSettableSessionItem@@XZ 1001aaa0 f i PlugInLib:PlugInShell.obj
 0001:00019ab0       ??C?$Resource@VSettableSessionItem@@VFactoryObject@@@@QAEPAVSettableSessionItem@@XZ 1001aab0 f i PlugInLib:PlugInShell.obj
 0001:00019ac0       ??1Args@FactoryAllocator@@QAE@XZ 1001aac0 f i PlugInLib:PlugInShell.obj
 0001:00019ad0       ??1?$pair@$$CBV?$basic_string@DU?$char_traits@D@std@@V?$allocator@D@2@@std@@V12@@std@@QAE@XZ 1001aad0 f i PlugInLib:PlugInShell.obj
 0001:00019b20       ?_Color@?$_Tree@V?$_Tmap_traits@V?$basic_string@DU?$char_traits@D@std@@V?$allocator@D@2@@std@@V12@U?$less@V?$basic_string@DU?$char_traits@D@std@@V?$allocator@D@2@@std@@@2@V?$allocator@U?$pair@$$CBV?$basic_string@DU?$char_traits@D@std@@V?$allocator@D@2@@std@@V12@@std@@@2@$0A@@std@@@std@@KAAADPAU_Node@?$_Tree_nod@V?$_Tmap_traits@V?$basic_string@DU?$char_traits@D@std@@V?$allocator@D@2@@std@@V12@U?$less@V?$basic_string@DU?$char_traits@D@std@@V?$allocator@D@2@@std@@@2@V?$allocator@U?$pair@$$CBV?$basic_string@DU?$char_traits@D@std@@V?$allocator@D@2@@std@@V12@@std@@@2@$0A@@std@@@2@@Z 1001ab20 f i PlugInLib:PlugInShell.obj
 0001:00019b30       ?_Isnil@?$_Tree@V?$_Tmap_traits@V?$basic_string@DU?$char_traits@D@std@@V?$allocator@D@2@@std@@V12@U?$less@V?$basic_string@DU?$char_traits@D@std@@V?$allocator@D@2@@std@@@2@V?$allocator@U?$pair@$$CBV?$basic_string@DU?$char_traits@D@std@@V?$allocator@D@2@@std@@V12@@std@@@2@$0A@@std@@@std@@KAAADPAU_Node@?$_Tree_nod@V?$_Tmap_traits@V?$basic_string@DU?$char_traits@D@std@@V?$allocator@D@2@@std@@V12@U?$less@V?$basic_string@DU?$char_traits@D@std@@V?$allocator@D@2@@std@@@2@V?$allocator@U?$pair@$$CBV?$basic_string@DU?$char_traits@D@std@@V?$allocator@D@2@@std@@V12@@std@@@2@$0A@@std@@@2@@Z 1001ab30 f i PlugInLib:PlugInShell.obj
 0001:00019b40       ?_Left@?$_Tree@V?$_Tmap_traits@V?$basic_string@DU?$char_traits@D@std@@V?$allocator@D@2@@std@@V12@U?$less@V?$basic_string@DU?$char_traits@D@std@@V?$allocator@D@2@@std@@@2@V?$allocator@U?$pair@$$CBV?$basic_string@DU?$char_traits@D@std@@V?$allocator@D@2@@std@@V12@@std@@@2@$0A@@std@@@std@@KAAAPAU_Node@?$_Tree_nod@V?$_Tmap_traits@V?$basic_string@DU?$char_traits@D@std@@V?$allocator@D@2@@std@@V12@U?$less@V?$basic_string@DU?$char_traits@D@std@@V?$allocator@D@2@@std@@@2@V?$allocator@U?$pair@$$CBV?$basic_string@DU?$char_traits@D@std@@V?$allocator@D@2@@std@@V12@@std@@@2@$0A@@std@@@2@PAU342@@Z 1001ab40 f i PlugInLib:PlugInShell.obj
 0001:00019b50       ?_Parent@?$_Tree@V?$_Tmap_traits@V?$basic_string@DU?$char_traits@D@std@@V?$allocator@D@2@@std@@V12@U?$less@V?$basic_string@DU?$char_traits@D@std@@V?$allocator@D@2@@std@@@2@V?$allocator@U?$pair@$$CBV?$basic_string@DU?$char_traits@D@std@@V?$allocator@D@2@@std@@V12@@std@@@2@$0A@@std@@@std@@KAAAPAU_Node@?$_Tree_nod@V?$_Tmap_traits@V?$basic_string@DU?$char_traits@D@std@@V?$allocator@D@2@@std@@V12@U?$less@V?$basic_string@DU?$char_traits@D@std@@V?$allocator@D@2@@std@@@2@V?$allocator@U?$pair@$$CBV?$basic_string@DU?$char_traits@D@std@@V?$allocator@D@2@@std@@V12@@std@@@2@$0A@@std@@@2@PAU342@@Z 1001ab50 f i PlugInLib:PlugInShell.obj
 0001:00019b60       ?_Right@?$_Tree@V?$_Tmap_traits@V?$basic_string@DU?$char_traits@D@std@@V?$allocator@D@2@@std@@V12@U?$less@V?$basic_string@DU?$char_traits@D@std@@V?$allocator@D@2@@std@@@2@V?$allocator@U?$pair@$$CBV?$basic_string@DU?$char_traits@D@std@@V?$allocator@D@2@@std@@V12@@std@@@2@$0A@@std@@@std@@KAAAPAU_Node@?$_Tree_nod@V?$_Tmap_traits@V?$basic_string@DU?$char_traits@D@std@@V?$allocator@D@2@@std@@V12@U?$less@V?$basic_string@DU?$char_traits@D@std@@V?$allocator@D@2@@std@@@2@V?$allocator@U?$pair@$$CBV?$basic_string@DU?$char_traits@D@std@@V?$allocator@D@2@@std@@V12@@std@@@2@$0A@@std@@@2@PAU342@@Z 1001ab60 f i PlugInLib:PlugInShell.obj
 0001:00019b70       ?key_comp@?$_Tree@V?$_Tmap_traits@V?$basic_string@DU?$char_traits@D@std@@V?$allocator@D@2@@std@@V12@U?$less@V?$basic_string@DU?$char_traits@D@std@@V?$allocator@D@2@@std@@@2@V?$allocator@U?$pair@$$CBV?$basic_string@DU?$char_traits@D@std@@V?$allocator@D@2@@std@@V12@@std@@@2@$0A@@std@@@std@@QBE?AU?$less@V?$basic_string@DU?$char_traits@D@std@@V?$allocator@D@2@@std@@@2@XZ 1001ab70 f i PlugInLib:PlugInShell.obj
 0001:00019b80       ?_Lmost@?$_Tree@V?$_Tmap_traits@V?$basic_string@DU?$char_traits@D@std@@V?$allocator@D@2@@std@@V12@U?$less@V?$basic_string@DU?$char_traits@D@std@@V?$allocator@D@2@@std@@@2@V?$allocator@U?$pair@$$CBV?$basic_string@DU?$char_traits@D@std@@V?$allocator@D@2@@std@@V12@@std@@@2@$0A@@std@@@std@@IBEAAPAU_Node@?$_Tree_nod@V?$_Tmap_traits@V?$basic_string@DU?$char_traits@D@std@@V?$allocator@D@2@@std@@V12@U?$less@V?$basic_string@DU?$char_traits@D@std@@V?$allocator@D@2@@std@@@2@V?$allocator@U?$pair@$$CBV?$basic_string@DU?$char_traits@D@std@@V?$allocator@D@2@@std@@V12@@std@@@2@$0A@@std@@@2@XZ 1001ab80 f i PlugInLib:PlugInShell.obj
 0001:00019b90       ?_Max@?$_Tree@V?$_Tmap_traits@V?$basic_string@DU?$char_traits@D@std@@V?$allocator@D@2@@std@@V12@U?$less@V?$basic_string@DU?$char_traits@D@std@@V?$allocator@D@2@@std@@@2@V?$allocator@U?$pair@$$CBV?$basic_string@DU?$char_traits@D@std@@V?$allocator@D@2@@std@@V12@@std@@@2@$0A@@std@@@std@@KAPAU_Node@?$_Tree_nod@V?$_Tmap_traits@V?$basic_string@DU?$char_traits@D@std@@V?$allocator@D@2@@std@@V12@U?$less@V?$basic_string@DU?$char_traits@D@std@@V?$allocator@D@2@@std@@@2@V?$allocator@U?$pair@$$CBV?$basic_string@DU?$char_traits@D@std@@V?$allocator@D@2@@std@@V12@@std@@@2@$0A@@std@@@2@PAU342@@Z 1001ab90 f i PlugInLib:PlugInShell.obj
 0001:00019bb0       ?_Min@?$_Tree@V?$_Tmap_traits@V?$basic_string@DU?$char_traits@D@std@@V?$allocator@D@2@@std@@V12@U?$less@V?$basic_string@DU?$char_traits@D@std@@V?$allocator@D@2@@std@@@2@V?$allocator@U?$pair@$$CBV?$basic_string@DU?$char_traits@D@std@@V?$allocator@D@2@@std@@V12@@std@@@2@$0A@@std@@@std@@KAPAU_Node@?$_Tree_nod@V?$_Tmap_traits@V?$basic_string@DU?$char_traits@D@std@@V?$allocator@D@2@@std@@V12@U?$less@V?$basic_string@DU?$char_traits@D@std@@V?$allocator@D@2@@std@@@2@V?$allocator@U?$pair@$$CBV?$basic_string@DU?$char_traits@D@std@@V?$allocator@D@2@@std@@V12@@std@@@2@$0A@@std@@@2@PAU342@@Z 1001abb0 f i PlugInLib:PlugInShell.obj
 0001:00019bd0       ?_Rmost@?$_Tree@V?$_Tmap_traits@V?$basic_string@DU?$char_traits@D@std@@V?$allocator@D@2@@std@@V12@U?$less@V?$basic_string@DU?$char_traits@D@std@@V?$allocator@D@2@@std@@@2@V?$allocator@U?$pair@$$CBV?$basic_string@DU?$char_traits@D@std@@V?$allocator@D@2@@std@@V12@@std@@@2@$0A@@std@@@std@@IBEAAPAU_Node@?$_Tree_nod@V?$_Tmap_traits@V?$basic_string@DU?$char_traits@D@std@@V?$allocator@D@2@@std@@V12@U?$less@V?$basic_string@DU?$char_traits@D@std@@V?$allocator@D@2@@std@@@2@V?$allocator@U?$pair@$$CBV?$basic_string@DU?$char_traits@D@std@@V?$allocator@D@2@@std@@V12@@std@@@2@$0A@@std@@@2@XZ 1001abd0 f i PlugInLib:PlugInShell.obj
 0001:00019be0       ?_Root@?$_Tree@V?$_Tmap_traits@V?$basic_string@DU?$char_traits@D@std@@V?$allocator@D@2@@std@@V12@U?$less@V?$basic_string@DU?$char_traits@D@std@@V?$allocator@D@2@@std@@@2@V?$allocator@U?$pair@$$CBV?$basic_string@DU?$char_traits@D@std@@V?$allocator@D@2@@std@@V12@@std@@@2@$0A@@std@@@std@@IBEAAPAU_Node@?$_Tree_nod@V?$_Tmap_traits@V?$basic_string@DU?$char_traits@D@std@@V?$allocator@D@2@@std@@V12@U?$less@V?$basic_string@DU?$char_traits@D@std@@V?$allocator@D@2@@std@@@2@V?$allocator@U?$pair@$$CBV?$basic_string@DU?$char_traits@D@std@@V?$allocator@D@2@@std@@V12@@std@@@2@$0A@@std@@@2@XZ 1001abe0 f i PlugInLib:PlugInShell.obj
 0001:00019bf0       ?_Rrotate@?$_Tree@V?$_Tmap_traits@V?$basic_string@DU?$char_traits@D@std@@V?$allocator@D@2@@std@@V12@U?$less@V?$basic_string@DU?$char_traits@D@std@@V?$allocator@D@2@@std@@@2@V?$allocator@U?$pair@$$CBV?$basic_string@DU?$char_traits@D@std@@V?$allocator@D@2@@std@@V12@@std@@@2@$0A@@std@@@std@@IAEXPAU_Node@?$_Tree_nod@V?$_Tmap_traits@V?$basic_string@DU?$char_traits@D@std@@V?$allocator@D@2@@std@@V12@U?$less@V?$basic_string@DU?$char_traits@D@std@@V?$allocator@D@2@@std@@@2@V?$allocator@U?$pair@$$CBV?$basic_string@DU?$char_traits@D@std@@V?$allocator@D@2@@std@@V12@@std@@@2@$0A@@std@@@2@@Z 1001abf0 f i PlugInLib:PlugInShell.obj
 0001:00019c50       ??0?$allocator@U?$pair@$$CBV?$basic_string@DU?$char_traits@D@std@@V?$allocator@D@2@@std@@V12@@std@@@std@@QAE@XZ 1001ac50 f i PlugInLib:PlugInShell.obj
 0001:00019c60       ??R?$less@V?$basic_string@DU?$char_traits@D@std@@V?$allocator@D@2@@std@@@std@@QBE_NABV?$basic_string@DU?$char_traits@D@std@@V?$allocator@D@2@@1@0@Z 1001ac60 f i PlugInLib:PlugInShell.obj
 0001:00019c80       ?deallocate@?$allocator@U_Node@?$_Tree_nod@V?$_Tmap_traits@V?$basic_string@DU?$char_traits@D@std@@V?$allocator@D@2@@std@@V12@U?$less@V?$basic_string@DU?$char_traits@D@std@@V?$allocator@D@2@@std@@@2@V?$allocator@U?$pair@$$CBV?$basic_string@DU?$char_traits@D@std@@V?$allocator@D@2@@std@@V12@@std@@@2@$0A@@std@@@std@@@std@@QAEXPAU_Node@?$_Tree_nod@V?$_Tmap_traits@V?$basic_string@DU?$char_traits@D@std@@V?$allocator@D@2@@std@@V12@U?$less@V?$basic_string@DU?$char_traits@D@std@@V?$allocator@D@2@@std@@@2@V?$allocator@U?$pair@$$CBV?$basic_string@DU?$char_traits@D@std@@V?$allocator@D@2@@std@@V12@@std@@@2@$0A@@std@@@2@I@Z 1001ac80 f i PlugInLib:PlugInShell.obj
 0001:00019c90       ??8const_iterator@?$_Tree@V?$_Tmap_traits@V?$basic_string@DU?$char_traits@D@std@@V?$allocator@D@2@@std@@V12@U?$less@V?$basic_string@DU?$char_traits@D@std@@V?$allocator@D@2@@std@@@2@V?$allocator@U?$pair@$$CBV?$basic_string@DU?$char_traits@D@std@@V?$allocator@D@2@@std@@V12@@std@@@2@$0A@@std@@@std@@QBE_NABV012@@Z 1001ac90 f i PlugInLib:PlugInShell.obj
 0001:00019cc0       ?_Mynode@const_iterator@?$_Tree@V?$_Tmap_traits@V?$basic_string@DU?$char_traits@D@std@@V?$allocator@D@2@@std@@V12@U?$less@V?$basic_string@DU?$char_traits@D@std@@V?$allocator@D@2@@std@@@2@V?$allocator@U?$pair@$$CBV?$basic_string@DU?$char_traits@D@std@@V?$allocator@D@2@@std@@V12@@std@@@2@$0A@@std@@@std@@QBEPAU_Node@?$_Tree_nod@V?$_Tmap_traits@V?$basic_string@DU?$char_traits@D@std@@V?$allocator@D@2@@std@@V12@U?$less@V?$basic_string@DU?$char_traits@D@std@@V?$allocator@D@2@@std@@@2@V?$allocator@U?$pair@$$CBV?$basic_string@DU?$char_traits@D@std@@V?$allocator@D@2@@std@@V12@@std@@@2@$0A@@std@@@3@XZ 1001acc0 f i PlugInLib:PlugInShell.obj
 0001:00019cd0       ??0?$pair@$$CBV?$basic_string@DU?$char_traits@D@std@@V?$allocator@D@2@@std@@V12@@std@@QAE@ABV?$basic_string@DU?$char_traits@D@std@@V?$allocator@D@2@@1@0@Z 1001acd0 f i PlugInLib:PlugInShell.obj
 0001:00019d30       ??0Args@FactoryAllocator@@QAE@ABV01@@Z 1001ad30 f i PlugInLib:PlugInShell.obj
 0001:00019d50       ?_Myval@?$_Tree@V?$_Tmap_traits@V?$basic_string@DU?$char_traits@D@std@@V?$allocator@D@2@@std@@V12@U?$less@V?$basic_string@DU?$char_traits@D@std@@V?$allocator@D@2@@std@@@2@V?$allocator@U?$pair@$$CBV?$basic_string@DU?$char_traits@D@std@@V?$allocator@D@2@@std@@V12@@std@@@2@$0A@@std@@@std@@KAAAU?$pair@$$CBV?$basic_string@DU?$char_traits@D@std@@V?$allocator@D@2@@std@@V12@@2@PAU_Node@?$_Tree_nod@V?$_Tmap_traits@V?$basic_string@DU?$char_traits@D@std@@V?$allocator@D@2@@std@@V12@U?$less@V?$basic_string@DU?$char_traits@D@std@@V?$allocator@D@2@@std@@@2@V?$allocator@U?$pair@$$CBV?$basic_string@DU?$char_traits@D@std@@V?$allocator@D@2@@std@@V12@@std@@@2@$0A@@std@@@2@@Z 1001ad50 f i PlugInLib:PlugInShell.obj
 0001:00019d60       ?size@?$_Tree@V?$_Tmap_traits@V?$basic_string@DU?$char_traits@D@std@@V?$allocator@D@2@@std@@V12@U?$less@V?$basic_string@DU?$char_traits@D@std@@V?$allocator@D@2@@std@@@2@V?$allocator@U?$pair@$$CBV?$basic_string@DU?$char_traits@D@std@@V?$allocator@D@2@@std@@V12@@std@@@2@$0A@@std@@@std@@QBEIXZ 1001ad60 f i PlugInLib:PlugInShell.obj
 0001:00019d70       ?_Kfn@?$_Tmap_traits@V?$basic_string@DU?$char_traits@D@std@@V?$allocator@D@2@@std@@V12@U?$less@V?$basic_string@DU?$char_traits@D@std@@V?$allocator@D@2@@std@@@2@V?$allocator@U?$pair@$$CBV?$basic_string@DU?$char_traits@D@std@@V?$allocator@D@2@@std@@V12@@std@@@2@$0A@@std@@SAABV?$basic_string@DU?$char_traits@D@std@@V?$allocator@D@2@@2@ABU?$pair@$$CBV?$basic_string@DU?$char_traits@D@std@@V?$allocator@D@2@@std@@V12@@2@@Z 1001ad70 f i PlugInLib:PlugInShell.obj
 0001:00019d80       ??0?$allocator@U?$pair@$$CBV?$basic_string@DU?$char_traits@D@std@@V?$allocator@D@2@@std@@V12@@std@@@std@@QAE@ABV01@@Z 1001ad80 f i PlugInLib:PlugInShell.obj
 0001:00019d90       ?_Nextnode@?$list@UContextMenuAction@@V?$allocator@UContextMenuAction@@@std@@@std@@KAAAPAU_Node@?$_List_nod@UContextMenuAction@@V?$allocator@UContextMenuAction@@@std@@@2@PAU342@@Z 1001ad90 f i PlugInLib:PlugInShell.obj
 0001:00019da0       ?_Prevnode@?$list@UContextMenuAction@@V?$allocator@UContextMenuAction@@@std@@@std@@KAAAPAU_Node@?$_List_nod@UContextMenuAction@@V?$allocator@UContextMenuAction@@@std@@@2@PAU342@@Z 1001ada0 f i PlugInLib:PlugInShell.obj
 0001:00019db0       ?deallocate@?$allocator@U_Node@?$_List_nod@UContextMenuAction@@V?$allocator@UContextMenuAction@@@std@@@std@@@std@@QAEXPAU_Node@?$_List_nod@UContextMenuAction@@V?$allocator@UContextMenuAction@@@std@@@2@I@Z 1001adb0 f i PlugInLib:PlugInShell.obj
 0001:00019dc0       ??Dconst_iterator@?$_Tree@V?$_Tmap_traits@V?$basic_string@DU?$char_traits@D@std@@V?$allocator@D@2@@std@@V12@U?$less@V?$basic_string@DU?$char_traits@D@std@@V?$allocator@D@2@@std@@@2@V?$allocator@U?$pair@$$CBV?$basic_string@DU?$char_traits@D@std@@V?$allocator@D@2@@std@@V12@@std@@@2@$0A@@std@@@std@@QBEABU?$pair@$$CBV?$basic_string@DU?$char_traits@D@std@@V?$allocator@D@2@@std@@V12@@2@XZ 1001adc0 f i PlugInLib:PlugInShell.obj
 0001:00019df0       ??0?$_Bidit@U?$pair@$$CBV?$basic_string@DU?$char_traits@D@std@@V?$allocator@D@2@@std@@V12@@std@@HPBU12@ABU12@@std@@QAE@XZ 1001adf0 f i PlugInLib:PlugInShell.obj
 0001:00019e00       ??0const_iterator@?$_Tree@V?$_Tmap_traits@V?$basic_string@DU?$char_traits@D@std@@V?$allocator@D@2@@std@@V12@U?$less@V?$basic_string@DU?$char_traits@D@std@@V?$allocator@D@2@@std@@@2@V?$allocator@U?$pair@$$CBV?$basic_string@DU?$char_traits@D@std@@V?$allocator@D@2@@std@@V12@@std@@@2@$0A@@std@@@std@@QAE@XZ 1001ae00 f i PlugInLib:PlugInShell.obj
 0001:00019e10       ?_Inc@const_iterator@?$_Tree@V?$_Tmap_traits@V?$basic_string@DU?$char_traits@D@std@@V?$allocator@D@2@@std@@V12@U?$less@V?$basic_string@DU?$char_traits@D@std@@V?$allocator@D@2@@std@@@2@V?$allocator@U?$pair@$$CBV?$basic_string@DU?$char_traits@D@std@@V?$allocator@D@2@@std@@V12@@std@@@2@$0A@@std@@@std@@QAEXXZ 1001ae10 f i PlugInLib:PlugInShell.obj
 0001:00019e80       ??0?$pair@Viterator@?$_Tree@V?$_Tmap_traits@V?$basic_string@DU?$char_traits@D@std@@V?$allocator@D@2@@std@@V12@U?$less@V?$basic_string@DU?$char_traits@D@std@@V?$allocator@D@2@@std@@@2@V?$allocator@U?$pair@$$CBV?$basic_string@DU?$char_traits@D@std@@V?$allocator@D@2@@std@@V12@@std@@@2@$0A@@std@@@std@@_N@std@@QAE@ABViterator@?$_Tree@V?$_Tmap_traits@V?$basic_string@DU?$char_traits@D@std@@V?$allocator@D@2@@std@@V12@U?$less@V?$basic_string@DU?$char_traits@D@std@@V?$allocator@D@2@@std@@@2@V?$allocator@U?$pair@$$CBV?$basic_string@DU?$char_traits@D@std@@V?$allocator@D@2@@std@@V12@@std@@@2@$0A@@std@@@1@AB_N@Z 1001ae80 f i PlugInLib:PlugInShell.obj
 0001:00019ea0       ??0?$_Tmap_traits@V?$basic_string@DU?$char_traits@D@std@@V?$allocator@D@2@@std@@V12@U?$less@V?$basic_string@DU?$char_traits@D@std@@V?$allocator@D@2@@std@@@2@V?$allocator@U?$pair@$$CBV?$basic_string@DU?$char_traits@D@std@@V?$allocator@D@2@@std@@V12@@std@@@2@$0A@@std@@QAE@U?$less@V?$basic_string@DU?$char_traits@D@std@@V?$allocator@D@2@@std@@@1@@Z 1001aea0 f i PlugInLib:PlugInShell.obj
 0001:00019eb0       ?max_size@?$allocator@U?$pair@$$CBV?$basic_string@DU?$char_traits@D@std@@V?$allocator@D@2@@std@@V12@@std@@@std@@QBEIXZ 1001aeb0 f i PlugInLib:PlugInShell.obj
 0001:00019ec0       ?_Dec@const_iterator@?$_Tree@V?$_Tmap_traits@V?$basic_string@DU?$char_traits@D@std@@V?$allocator@D@2@@std@@V12@U?$less@V?$basic_string@DU?$char_traits@D@std@@V?$allocator@D@2@@std@@@2@V?$allocator@U?$pair@$$CBV?$basic_string@DU?$char_traits@D@std@@V?$allocator@D@2@@std@@V12@@std@@@2@$0A@@std@@@std@@QAEXXZ 1001aec0 f i PlugInLib:PlugInShell.obj
 0001:00019f50       ??0?$pair@$$CBV?$basic_string@DU?$char_traits@D@std@@V?$allocator@D@2@@std@@V12@@std@@QAE@ABU01@@Z 1001af50 f i PlugInLib:PlugInShell.obj
 0001:00019fb0       ??$swap@D@std@@YAXAAD0@Z   1001afb0 f i PlugInLib:PlugInShell.obj
 0001:00019fd0       ??$?0U?$pair@$$CBV?$basic_string@DU?$char_traits@D@std@@V?$allocator@D@2@@std@@V12@@std@@@?$allocator@PAU_Node@?$_Tree_nod@V?$_Tmap_traits@V?$basic_string@DU?$char_traits@D@std@@V?$allocator@D@2@@std@@V12@U?$less@V?$basic_string@DU?$char_traits@D@std@@V?$allocator@D@2@@std@@@2@V?$allocator@U?$pair@$$CBV?$basic_string@DU?$char_traits@D@std@@V?$allocator@D@2@@std@@V12@@std@@@2@$0A@@std@@@std@@@std@@QAE@ABV?$allocator@U?$pair@$$CBV?$basic_string@DU?$char_traits@D@std@@V?$allocator@D@2@@std@@V12@@std@@@1@@Z 1001afd0 f i PlugInLib:PlugInShell.obj
 0001:00019fe0       ??$_Destroy@PAU_Node@?$_Tree_nod@V?$_Tmap_traits@V?$basic_string@DU?$char_traits@D@std@@V?$allocator@D@2@@std@@V12@U?$less@V?$basic_string@DU?$char_traits@D@std@@V?$allocator@D@2@@std@@@2@V?$allocator@U?$pair@$$CBV?$basic_string@DU?$char_traits@D@std@@V?$allocator@D@2@@std@@V12@@std@@@2@$0A@@std@@@std@@@std@@YAXPAPAU_Node@?$_Tree_nod@V?$_Tmap_traits@V?$basic_string@DU?$char_traits@D@std@@V?$allocator@D@2@@std@@V12@U?$less@V?$basic_string@DU?$char_traits@D@std@@V?$allocator@D@2@@std@@@2@V?$allocator@U?$pair@$$CBV?$basic_string@DU?$char_traits@D@std@@V?$allocator@D@2@@std@@V12@@std@@@2@$0A@@std@@@0@@Z 1001afe0 f i PlugInLib:PlugInShell.obj
 0001:00019ff0       ??$_Destroy@PAU_Node@?$_List_nod@UContextMenuAction@@V?$allocator@UContextMenuAction@@@std@@@std@@@std@@YAXPAPAU_Node@?$_List_nod@UContextMenuAction@@V?$allocator@UContextMenuAction@@@std@@@0@@Z 1001aff0 f i PlugInLib:PlugInShell.obj
 0001:0001a000       ??$?0U?$pair@$$CBV?$basic_string@DU?$char_traits@D@std@@V?$allocator@D@2@@std@@V12@@std@@@?$allocator@U_Node@?$_Tree_nod@V?$_Tmap_traits@V?$basic_string@DU?$char_traits@D@std@@V?$allocator@D@2@@std@@V12@U?$less@V?$basic_string@DU?$char_traits@D@std@@V?$allocator@D@2@@std@@@2@V?$allocator@U?$pair@$$CBV?$basic_string@DU?$char_traits@D@std@@V?$allocator@D@2@@std@@V12@@std@@@2@$0A@@std@@@std@@@std@@QAE@ABV?$allocator@U?$pair@$$CBV?$basic_string@DU?$char_traits@D@std@@V?$allocator@D@2@@std@@V12@@std@@@1@@Z 1001b000 f i PlugInLib:PlugInShell.obj
 0001:0001a010       ??$_Allocate@U_Node@?$_Tree_nod@V?$_Tmap_traits@V?$basic_string@DU?$char_traits@D@std@@V?$allocator@D@2@@std@@V12@U?$less@V?$basic_string@DU?$char_traits@D@std@@V?$allocator@D@2@@std@@@2@V?$allocator@U?$pair@$$CBV?$basic_string@DU?$char_traits@D@std@@V?$allocator@D@2@@std@@V12@@std@@@2@$0A@@std@@@std@@@std@@YAPAU_Node@?$_Tree_nod@V?$_Tmap_traits@V?$basic_string@DU?$char_traits@D@std@@V?$allocator@D@2@@std@@V12@U?$less@V?$basic_string@DU?$char_traits@D@std@@V?$allocator@D@2@@std@@@2@V?$allocator@U?$pair@$$CBV?$basic_string@DU?$char_traits@D@std@@V?$allocator@D@2@@std@@V12@@std@@@2@$0A@@std@@@0@IPAU120@@Z 1001b010 f i PlugInLib:PlugInShell.obj
 0001:0001a070       ??$_Construct@PAU_Node@?$_Tree_nod@V?$_Tmap_traits@V?$basic_string@DU?$char_traits@D@std@@V?$allocator@D@2@@std@@V12@U?$less@V?$basic_string@DU?$char_traits@D@std@@V?$allocator@D@2@@std@@@2@V?$allocator@U?$pair@$$CBV?$basic_string@DU?$char_traits@D@std@@V?$allocator@D@2@@std@@V12@@std@@@2@$0A@@std@@@std@@PAU123@@std@@YAXPAPAU_Node@?$_Tree_nod@V?$_Tmap_traits@V?$basic_string@DU?$char_traits@D@std@@V?$allocator@D@2@@std@@V12@U?$less@V?$basic_string@DU?$char_traits@D@std@@V?$allocator@D@2@@std@@@2@V?$allocator@U?$pair@$$CBV?$basic_string@DU?$char_traits@D@std@@V?$allocator@D@2@@std@@V12@@std@@@2@$0A@@std@@@0@ABQAU120@@Z 1001b070 f i PlugInLib:PlugInShell.obj
 0001:0001a090       ??1_Node@?$_Tree_nod@V?$_Tmap_traits@V?$basic_string@DU?$char_traits@D@std@@V?$allocator@D@2@@std@@V12@U?$less@V?$basic_string@DU?$char_traits@D@std@@V?$allocator@D@2@@std@@@2@V?$allocator@U?$pair@$$CBV?$basic_string@DU?$char_traits@D@std@@V?$allocator@D@2@@std@@V12@@std@@@2@$0A@@std@@@std@@QAE@XZ 1001b090 f i PlugInLib:PlugInShell.obj
 0001:0001a0a0       ??1ContextMenuAction@@QAE@XZ 1001b0a0 f i PlugInLib:PlugInShell.obj
 0001:0001a0f0       ?getFactory@FactoryAllocator@@IBEPAVObjectFactory@@XZ 1001b0f0 f i PlugInLib:PlugInShell.obj
 0001:0001a110       ?obtainResource@FactoryObject@@QBEPAXABVArgs@FactoryAllocator@@@Z 1001b110 f i PlugInLib:PlugInShell.obj
 0001:0001a1a0       ?releaseResource@FactoryObject@@QBEXABVArgs@FactoryAllocator@@PAX@Z 1001b1a0 f i PlugInLib:PlugInShell.obj
 0001:0001a230       ??0PlugIn@@QAE@XZ          1001b230 f i PlugInLib:PlugInShell.obj
 0001:0001a240       ??_EPlugIn@@MAEPAXI@Z      1001b240 f i PlugInLib:PlugInShell.obj
 0001:0001a240       ??_GPlugIn@@MAEPAXI@Z      1001b240 f i PlugInLib:PlugInShell.obj
 0001:0001a260       ?getId@PlugInShell@@UBEABV?$basic_string@DU?$char_traits@D@std@@V?$allocator@D@2@@std@@XZ 1001b260 f   PlugInLib:PlugInShell.obj
 0001:0001a270       ?getIcon@PlugInShell@@UBEABVQIcon@@XZ 1001b270 f   PlugInLib:PlugInShell.obj
 0001:0001a280       ?getName@PlugInShell@@UBEABV?$basic_string@DU?$char_traits@D@std@@V?$allocator@D@2@@std@@XZ 1001b280 f   PlugInLib:PlugInShell.obj
 0001:0001a290       ?getDisplayName@PlugInShell@@UBEABV?$basic_string@DU?$char_traits@D@std@@V?$allocator@D@2@@std@@XZ 1001b290 f   PlugInLib:PlugInShell.obj
 0001:0001a2a0       ?getDisplayText@PlugInShell@@UBEABV?$basic_string@DU?$char_traits@D@std@@V?$allocator@D@2@@std@@XZ 1001b2a0 f   PlugInLib:PlugInShell.obj
 0001:0001a2b0       ?hasFilenameDisplay@PlugInShell@@UBE_NXZ 1001b2b0 f   PlugInLib:PlugInShell.obj
 0001:0001a2c0       ?setId@PlugInShell@@UAE_NABVSessionItemId@@@Z 1001b2c0 f   PlugInLib:PlugInShell.obj
 0001:0001a2d0       ?setName@PlugInShell@@IAEXABV?$basic_string@DU?$char_traits@D@std@@V?$allocator@D@2@@std@@@Z 1001b2d0 f   PlugInLib:PlugInShell.obj
 0001:0001a2e0       ?setDisplayName@PlugInShell@@IAEXABV?$basic_string@DU?$char_traits@D@std@@V?$allocator@D@2@@std@@@Z 1001b2e0 f   PlugInLib:PlugInShell.obj
 0001:0001a2f0       ?setDisplayText@PlugInShell@@IAEXABV?$basic_string@DU?$char_traits@D@std@@V?$allocator@D@2@@std@@@Z 1001b2f0 f   PlugInLib:PlugInShell.obj
 0001:0001a300       ?addContextMenuAction@PlugInShell@@IAEXABUContextMenuAction@@@Z 1001b300 f   PlugInLib:PlugInShell.obj
 0001:0001a310       ?setContextMenuActions@PlugInShell@@IAEXABV?$list@UContextMenuAction@@V?$allocator@UContextMenuAction@@@std@@@std@@@Z 1001b310 f   PlugInLib:PlugInShell.obj
 0001:0001a320       ?setFilenameDisplay@PlugInShell@@IAEX_N@Z 1001b320 f   PlugInLib:PlugInShell.obj
 0001:0001a330       ?addPropertiesPage@PlugInShell@@IAEXABV?$basic_string@DU?$char_traits@D@std@@V?$allocator@D@2@@std@@@Z 1001b330 f   PlugInLib:PlugInShell.obj
 0001:0001a340       ?removePropertiesPage@PlugInShell@@IAEXABV?$basic_string@DU?$char_traits@D@std@@V?$allocator@D@2@@std@@@Z 1001b340 f   PlugInLib:PlugInShell.obj
 0001:0001a350       ?setPropertiesPages@PlugInShell@@IAEXABV?$vector@V?$basic_string@DU?$char_traits@D@std@@V?$allocator@D@2@@std@@V?$allocator@V?$basic_string@DU?$char_traits@D@std@@V?$allocator@D@2@@std@@@2@@std@@@Z 1001b350 f   PlugInLib:PlugInShell.obj
 0001:0001a360       ?isValidSessionSaveItem@PlugInShell@@UBE_NXZ 1001b360 f   PlugInLib:PlugInShell.obj
 0001:0001a3b0       ?setValidSessionSaveItem@PlugInShell@@IAEX_N@Z 1001b3b0 f   PlugInLib:PlugInShell.obj
 0001:0001a400       ??9const_iterator@?$_Tree@V?$_Tmap_traits@V?$basic_string@DU?$char_traits@D@std@@V?$allocator@D@2@@std@@V12@U?$less@V?$basic_string@DU?$char_traits@D@std@@V?$allocator@D@2@@std@@@2@V?$allocator@U?$pair@$$CBV?$basic_string@DU?$char_traits@D@std@@V?$allocator@D@2@@std@@V12@@std@@@2@$0A@@std@@@std@@QBE_NABV012@@Z 1001b400 f i PlugInLib:PlugInShell.obj
 0001:0001a430       ??0?$Resource@VSettableSessionItem@@VFactoryObject@@@@QAE@ABVArgs@FactoryAllocator@@@Z 1001b430 f i PlugInLib:PlugInShell.obj
 0001:0001a490       ?destroyIfOwned@?$Resource@VSettableSessionItem@@VFactoryObject@@@@IAEXXZ 1001b490 f i PlugInLib:PlugInShell.obj
 0001:0001a4c0       ?_Key@?$_Tree@V?$_Tmap_traits@V?$basic_string@DU?$char_traits@D@std@@V?$allocator@D@2@@std@@V12@U?$less@V?$basic_string@DU?$char_traits@D@std@@V?$allocator@D@2@@std@@@2@V?$allocator@U?$pair@$$CBV?$basic_string@DU?$char_traits@D@std@@V?$allocator@D@2@@std@@V12@@std@@@2@$0A@@std@@@std@@KAABV?$basic_string@DU?$char_traits@D@std@@V?$allocator@D@2@@2@PAU_Node@?$_Tree_nod@V?$_Tmap_traits@V?$basic_string@DU?$char_traits@D@std@@V?$allocator@D@2@@std@@V12@U?$less@V?$basic_string@DU?$char_traits@D@std@@V?$allocator@D@2@@std@@@2@V?$allocator@U?$pair@$$CBV?$basic_string@DU?$char_traits@D@std@@V?$allocator@D@2@@std@@V12@@std@@@2@$0A@@std@@@2@@Z 1001b4c0 f i PlugInLib:PlugInShell.obj
 0001:0001a4d0       ?get_allocator@?$_Tree@V?$_Tmap_traits@V?$basic_string@DU?$char_traits@D@std@@V?$allocator@D@2@@std@@V12@U?$less@V?$basic_string@DU?$char_traits@D@std@@V?$allocator@D@2@@std@@@2@V?$allocator@U?$pair@$$CBV?$basic_string@DU?$char_traits@D@std@@V?$allocator@D@2@@std@@V12@@std@@@2@$0A@@std@@@std@@QBE?AV?$allocator@U?$pair@$$CBV?$basic_string@DU?$char_traits@D@std@@V?$allocator@D@2@@std@@V12@@std@@@2@XZ 1001b4d0 f i PlugInLib:PlugInShell.obj
 0001:0001a4e0       ?_Lrotate@?$_Tree@V?$_Tmap_traits@V?$basic_string@DU?$char_traits@D@std@@V?$allocator@D@2@@std@@V12@U?$less@V?$basic_string@DU?$char_traits@D@std@@V?$allocator@D@2@@std@@@2@V?$allocator@U?$pair@$$CBV?$basic_string@DU?$char_traits@D@std@@V?$allocator@D@2@@std@@V12@@std@@@2@$0A@@std@@@std@@IAEXPAU_Node@?$_Tree_nod@V?$_Tmap_traits@V?$basic_string@DU?$char_traits@D@std@@V?$allocator@D@2@@std@@V12@U?$less@V?$basic_string@DU?$char_traits@D@std@@V?$allocator@D@2@@std@@@2@V?$allocator@U?$pair@$$CBV?$basic_string@DU?$char_traits@D@std@@V?$allocator@D@2@@std@@V12@@std@@@2@$0A@@std@@@2@@Z 1001b4e0 f i PlugInLib:PlugInShell.obj
 0001:0001a530       ??Diterator@?$_Tree@V?$_Tmap_traits@V?$basic_string@DU?$char_traits@D@std@@V?$allocator@D@2@@std@@V12@U?$less@V?$basic_string@DU?$char_traits@D@std@@V?$allocator@D@2@@std@@@2@V?$allocator@U?$pair@$$CBV?$basic_string@DU?$char_traits@D@std@@V?$allocator@D@2@@std@@V12@@std@@@2@$0A@@std@@@std@@QBEAAU?$pair@$$CBV?$basic_string@DU?$char_traits@D@std@@V?$allocator@D@2@@std@@V12@@2@XZ 1001b530 f i PlugInLib:PlugInShell.obj
 0001:0001a560       ?_Lbound@?$_Tree@V?$_Tmap_traits@V?$basic_string@DU?$char_traits@D@std@@V?$allocator@D@2@@std@@V12@U?$less@V?$basic_string@DU?$char_traits@D@std@@V?$allocator@D@2@@std@@@2@V?$allocator@U?$pair@$$CBV?$basic_string@DU?$char_traits@D@std@@V?$allocator@D@2@@std@@V12@@std@@@2@$0A@@std@@@std@@IBEPAU_Node@?$_Tree_nod@V?$_Tmap_traits@V?$basic_string@DU?$char_traits@D@std@@V?$allocator@D@2@@std@@V12@U?$less@V?$basic_string@DU?$char_traits@D@std@@V?$allocator@D@2@@std@@@2@V?$allocator@U?$pair@$$CBV?$basic_string@DU?$char_traits@D@std@@V?$allocator@D@2@@std@@V12@@std@@@2@$0A@@std@@@2@ABV?$basic_string@DU?$char_traits@D@std@@V?$allocator@D@2@@2@@Z 1001b560 f i PlugInLib:PlugInShell.obj
 0001:0001a5b0       ?destroy@?$allocator@PAU_Node@?$_Tree_nod@V?$_Tmap_traits@V?$basic_string@DU?$char_traits@D@std@@V?$allocator@D@2@@std@@V12@U?$less@V?$basic_string@DU?$char_traits@D@std@@V?$allocator@D@2@@std@@@2@V?$allocator@U?$pair@$$CBV?$basic_string@DU?$char_traits@D@std@@V?$allocator@D@2@@std@@V12@@std@@@2@$0A@@std@@@std@@@std@@QAEXPAPAU_Node@?$_Tree_nod@V?$_Tmap_traits@V?$basic_string@DU?$char_traits@D@std@@V?$allocator@D@2@@std@@V12@U?$less@V?$basic_string@DU?$char_traits@D@std@@V?$allocator@D@2@@std@@@2@V?$allocator@U?$pair@$$CBV?$basic_string@DU?$char_traits@D@std@@V?$allocator@D@2@@std@@V12@@std@@@2@$0A@@std@@@2@@Z 1001b5b0 f i PlugInLib:PlugInShell.obj
 0001:0001a5c0       ?destroy@?$allocator@PAU_Node@?$_List_nod@UContextMenuAction@@V?$allocator@UContextMenuAction@@@std@@@std@@@std@@QAEXPAPAU_Node@?$_List_nod@UContextMenuAction@@V?$allocator@UContextMenuAction@@@std@@@2@@Z 1001b5c0 f i PlugInLib:PlugInShell.obj
 0001:0001a5d0       ??0iterator@?$_Tree@V?$_Tmap_traits@V?$basic_string@DU?$char_traits@D@std@@V?$allocator@D@2@@std@@V12@U?$less@V?$basic_string@DU?$char_traits@D@std@@V?$allocator@D@2@@std@@@2@V?$allocator@U?$pair@$$CBV?$basic_string@DU?$char_traits@D@std@@V?$allocator@D@2@@std@@V12@@std@@@2@$0A@@std@@@std@@QAE@XZ 1001b5d0 f i PlugInLib:PlugInShell.obj
 0001:0001a5e0       ??0const_iterator@?$_Tree@V?$_Tmap_traits@V?$basic_string@DU?$char_traits@D@std@@V?$allocator@D@2@@std@@V12@U?$less@V?$basic_string@DU?$char_traits@D@std@@V?$allocator@D@2@@std@@@2@V?$allocator@U?$pair@$$CBV?$basic_string@DU?$char_traits@D@std@@V?$allocator@D@2@@std@@V12@@std@@@2@$0A@@std@@@std@@QAE@PAU_Node@?$_Tree_nod@V?$_Tmap_traits@V?$basic_string@DU?$char_traits@D@std@@V?$allocator@D@2@@std@@V12@U?$less@V?$basic_string@DU?$char_traits@D@std@@V?$allocator@D@2@@std@@@2@V?$allocator@U?$pair@$$CBV?$basic_string@DU?$char_traits@D@std@@V?$allocator@D@2@@std@@V12@@std@@@2@$0A@@std@@@2@PBV12@@Z 1001b5e0 f i PlugInLib:PlugInShell.obj
 0001:0001a610       ??Econst_iterator@?$_Tree@V?$_Tmap_traits@V?$basic_string@DU?$char_traits@D@std@@V?$allocator@D@2@@std@@V12@U?$less@V?$basic_string@DU?$char_traits@D@std@@V?$allocator@D@2@@std@@@2@V?$allocator@U?$pair@$$CBV?$basic_string@DU?$char_traits@D@std@@V?$allocator@D@2@@std@@V12@@std@@@2@$0A@@std@@@std@@QAEAAV012@XZ 1001b610 f i PlugInLib:PlugInShell.obj
 0001:0001a620       ?max_size@?$_Tree@V?$_Tmap_traits@V?$basic_string@DU?$char_traits@D@std@@V?$allocator@D@2@@std@@V12@U?$less@V?$basic_string@DU?$char_traits@D@std@@V?$allocator@D@2@@std@@@2@V?$allocator@U?$pair@$$CBV?$basic_string@DU?$char_traits@D@std@@V?$allocator@D@2@@std@@V12@@std@@@2@$0A@@std@@@std@@QBEIXZ 1001b620 f i PlugInLib:PlugInShell.obj
 0001:0001a630       ??0?$_Tree_nod@V?$_Tmap_traits@V?$basic_string@DU?$char_traits@D@std@@V?$allocator@D@2@@std@@V12@U?$less@V?$basic_string@DU?$char_traits@D@std@@V?$allocator@D@2@@std@@@2@V?$allocator@U?$pair@$$CBV?$basic_string@DU?$char_traits@D@std@@V?$allocator@D@2@@std@@V12@@std@@@2@$0A@@std@@@std@@IAE@ABU?$less@V?$basic_string@DU?$char_traits@D@std@@V?$allocator@D@2@@std@@@1@V?$allocator@U?$pair@$$CBV?$basic_string@DU?$char_traits@D@std@@V?$allocator@D@2@@std@@V12@@std@@@1@@Z 1001b630 f i PlugInLib:PlugInShell.obj
 0001:0001a640       ?allocate@?$allocator@U_Node@?$_Tree_nod@V?$_Tmap_traits@V?$basic_string@DU?$char_traits@D@std@@V?$allocator@D@2@@std@@V12@U?$less@V?$basic_string@DU?$char_traits@D@std@@V?$allocator@D@2@@std@@@2@V?$allocator@U?$pair@$$CBV?$basic_string@DU?$char_traits@D@std@@V?$allocator@D@2@@std@@V12@@std@@@2@$0A@@std@@@std@@@std@@QAEPAU_Node@?$_Tree_nod@V?$_Tmap_traits@V?$basic_string@DU?$char_traits@D@std@@V?$allocator@D@2@@std@@V12@U?$less@V?$basic_string@DU?$char_traits@D@std@@V?$allocator@D@2@@std@@@2@V?$allocator@U?$pair@$$CBV?$basic_string@DU?$char_traits@D@std@@V?$allocator@D@2@@std@@V12@@std@@@2@$0A@@std@@@2@I@Z 1001b640 f i PlugInLib:PlugInShell.obj
 0001:0001a660       ?construct@?$allocator@PAU_Node@?$_Tree_nod@V?$_Tmap_traits@V?$basic_string@DU?$char_traits@D@std@@V?$allocator@D@2@@std@@V12@U?$less@V?$basic_string@DU?$char_traits@D@std@@V?$allocator@D@2@@std@@@2@V?$allocator@U?$pair@$$CBV?$basic_string@DU?$char_traits@D@std@@V?$allocator@D@2@@std@@V12@@std@@@2@$0A@@std@@@std@@@std@@QAEXPAPAU_Node@?$_Tree_nod@V?$_Tmap_traits@V?$basic_string@DU?$char_traits@D@std@@V?$allocator@D@2@@std@@V12@U?$less@V?$basic_string@DU?$char_traits@D@std@@V?$allocator@D@2@@std@@@2@V?$allocator@U?$pair@$$CBV?$basic_string@DU?$char_traits@D@std@@V?$allocator@D@2@@std@@V12@@std@@@2@$0A@@std@@@2@ABQAU342@@Z 1001b660 f i PlugInLib:PlugInShell.obj
 0001:0001a680       ??Fconst_iterator@?$_Tree@V?$_Tmap_traits@V?$basic_string@DU?$char_traits@D@std@@V?$allocator@D@2@@std@@V12@U?$less@V?$basic_string@DU?$char_traits@D@std@@V?$allocator@D@2@@std@@@2@V?$allocator@U?$pair@$$CBV?$basic_string@DU?$char_traits@D@std@@V?$allocator@D@2@@std@@V12@@std@@@2@$0A@@std@@@std@@QAEAAV012@XZ 1001b680 f i PlugInLib:PlugInShell.obj
 0001:0001a690       ??0_Node@?$_Tree_nod@V?$_Tmap_traits@V?$basic_string@DU?$char_traits@D@std@@V?$allocator@D@2@@std@@V12@U?$less@V?$basic_string@DU?$char_traits@D@std@@V?$allocator@D@2@@std@@@2@V?$allocator@U?$pair@$$CBV?$basic_string@DU?$char_traits@D@std@@V?$allocator@D@2@@std@@V12@@std@@@2@$0A@@std@@@std@@QAE@PAU012@00ABU?$pair@$$CBV?$basic_string@DU?$char_traits@D@std@@V?$allocator@D@2@@std@@V12@@2@D@Z 1001b690 f i PlugInLib:PlugInShell.obj
 0001:0001a6d0       ??_G_Node@?$_Tree_nod@V?$_Tmap_traits@V?$basic_string@DU?$char_traits@D@std@@V?$allocator@D@2@@std@@V12@U?$less@V?$basic_string@DU?$char_traits@D@std@@V?$allocator@D@2@@std@@@2@V?$allocator@U?$pair@$$CBV?$basic_string@DU?$char_traits@D@std@@V?$allocator@D@2@@std@@V12@@std@@@2@$0A@@std@@@std@@QAEPAXI@Z 1001b6d0 f i PlugInLib:PlugInShell.obj
 0001:0001a700       ??1_Node@?$_List_nod@UContextMenuAction@@V?$allocator@UContextMenuAction@@@std@@@std@@QAE@XZ 1001b700 f i PlugInLib:PlugInShell.obj
 0001:0001a710       ??1?$Resource@VSettableSessionItem@@VFactoryObject@@@@UAE@XZ 1001b710 f i PlugInLib:PlugInShell.obj
 0001:0001a790       ??_G?$Resource@VSettableSessionItem@@VFactoryObject@@@@UAEPAXI@Z 1001b790 f i PlugInLib:PlugInShell.obj
 0001:0001a790       ??_E?$Resource@VSettableSessionItem@@VFactoryObject@@@@UAEPAXI@Z 1001b790 f i PlugInLib:PlugInShell.obj
 0001:0001a7b0       ??0iterator@?$_Tree@V?$_Tmap_traits@V?$basic_string@DU?$char_traits@D@std@@V?$allocator@D@2@@std@@V12@U?$less@V?$basic_string@DU?$char_traits@D@std@@V?$allocator@D@2@@std@@@2@V?$allocator@U?$pair@$$CBV?$basic_string@DU?$char_traits@D@std@@V?$allocator@D@2@@std@@V12@@std@@@2@$0A@@std@@@std@@QAE@PAU_Node@?$_Tree_nod@V?$_Tmap_traits@V?$basic_string@DU?$char_traits@D@std@@V?$allocator@D@2@@std@@V12@U?$less@V?$basic_string@DU?$char_traits@D@std@@V?$allocator@D@2@@std@@@2@V?$allocator@U?$pair@$$CBV?$basic_string@DU?$char_traits@D@std@@V?$allocator@D@2@@std@@V12@@std@@@2@$0A@@std@@@2@PBV12@@Z 1001b7b0 f i PlugInLib:PlugInShell.obj
 0001:0001a7e0       ??Eiterator@?$_Tree@V?$_Tmap_traits@V?$basic_string@DU?$char_traits@D@std@@V?$allocator@D@2@@std@@V12@U?$less@V?$basic_string@DU?$char_traits@D@std@@V?$allocator@D@2@@std@@@2@V?$allocator@U?$pair@$$CBV?$basic_string@DU?$char_traits@D@std@@V?$allocator@D@2@@std@@V12@@std@@@2@$0A@@std@@@std@@QAEAAV012@XZ 1001b7e0 f i PlugInLib:PlugInShell.obj
 0001:0001a7f0       ?begin@?$_Tree@V?$_Tmap_traits@V?$basic_string@DU?$char_traits@D@std@@V?$allocator@D@2@@std@@V12@U?$less@V?$basic_string@DU?$char_traits@D@std@@V?$allocator@D@2@@std@@@2@V?$allocator@U?$pair@$$CBV?$basic_string@DU?$char_traits@D@std@@V?$allocator@D@2@@std@@V12@@std@@@2@$0A@@std@@@std@@QAE?AViterator@12@XZ 1001b7f0 f i PlugInLib:PlugInShell.obj
 0001:0001a810       ?_Buynode@?$_Tree@V?$_Tmap_traits@V?$basic_string@DU?$char_traits@D@std@@V?$allocator@D@2@@std@@V12@U?$less@V?$basic_string@DU?$char_traits@D@std@@V?$allocator@D@2@@std@@@2@V?$allocator@U?$pair@$$CBV?$basic_string@DU?$char_traits@D@std@@V?$allocator@D@2@@std@@V12@@std@@@2@$0A@@std@@@std@@IAEPAU_Node@?$_Tree_nod@V?$_Tmap_traits@V?$basic_string@DU?$char_traits@D@std@@V?$allocator@D@2@@std@@V12@U?$less@V?$basic_string@DU?$char_traits@D@std@@V?$allocator@D@2@@std@@@2@V?$allocator@U?$pair@$$CBV?$basic_string@DU?$char_traits@D@std@@V?$allocator@D@2@@std@@V12@@std@@@2@$0A@@std@@@2@XZ 1001b810 f i PlugInLib:PlugInShell.obj
 0001:0001a850       ??0?$_Tree_ptr@V?$_Tmap_traits@V?$basic_string@DU?$char_traits@D@std@@V?$allocator@D@2@@std@@V12@U?$less@V?$basic_string@DU?$char_traits@D@std@@V?$allocator@D@2@@std@@@2@V?$allocator@U?$pair@$$CBV?$basic_string@DU?$char_traits@D@std@@V?$allocator@D@2@@std@@V12@@std@@@2@$0A@@std@@@std@@IAE@ABU?$less@V?$basic_string@DU?$char_traits@D@std@@V?$allocator@D@2@@std@@@1@V?$allocator@U?$pair@$$CBV?$basic_string@DU?$char_traits@D@std@@V?$allocator@D@2@@std@@V12@@std@@@1@@Z 1001b850 f i PlugInLib:PlugInShell.obj
 0001:0001a860       ??Fiterator@?$_Tree@V?$_Tmap_traits@V?$basic_string@DU?$char_traits@D@std@@V?$allocator@D@2@@std@@V12@U?$less@V?$basic_string@DU?$char_traits@D@std@@V?$allocator@D@2@@std@@@2@V?$allocator@U?$pair@$$CBV?$basic_string@DU?$char_traits@D@std@@V?$allocator@D@2@@std@@V12@@std@@@2@$0A@@std@@@std@@QAEAAV012@XZ 1001b860 f i PlugInLib:PlugInShell.obj
 0001:0001a870       ?_Buynode@?$_Tree@V?$_Tmap_traits@V?$basic_string@DU?$char_traits@D@std@@V?$allocator@D@2@@std@@V12@U?$less@V?$basic_string@DU?$char_traits@D@std@@V?$allocator@D@2@@std@@@2@V?$allocator@U?$pair@$$CBV?$basic_string@DU?$char_traits@D@std@@V?$allocator@D@2@@std@@V12@@std@@@2@$0A@@std@@@std@@IAEPAU_Node@?$_Tree_nod@V?$_Tmap_traits@V?$basic_string@DU?$char_traits@D@std@@V?$allocator@D@2@@std@@V12@U?$less@V?$basic_string@DU?$char_traits@D@std@@V?$allocator@D@2@@std@@@2@V?$allocator@U?$pair@$$CBV?$basic_string@DU?$char_traits@D@std@@V?$allocator@D@2@@std@@V12@@std@@@2@$0A@@std@@@2@PAU342@00ABU?$pair@$$CBV?$basic_string@DU?$char_traits@D@std@@V?$allocator@D@2@@std@@V12@@2@D@Z 1001b870 f i PlugInLib:PlugInShell.obj
 0001:0001a910       ??Eiterator@?$_Tree@V?$_Tmap_traits@V?$basic_string@DU?$char_traits@D@std@@V?$allocator@D@2@@std@@V12@U?$less@V?$basic_string@DU?$char_traits@D@std@@V?$allocator@D@2@@std@@@2@V?$allocator@U?$pair@$$CBV?$basic_string@DU?$char_traits@D@std@@V?$allocator@D@2@@std@@V12@@std@@@2@$0A@@std@@@std@@QAE?AV012@H@Z 1001b910 f i PlugInLib:PlugInShell.obj
 0001:0001a930       ??$_Destroy@U_Node@?$_Tree_nod@V?$_Tmap_traits@V?$basic_string@DU?$char_traits@D@std@@V?$allocator@D@2@@std@@V12@U?$less@V?$basic_string@DU?$char_traits@D@std@@V?$allocator@D@2@@std@@@2@V?$allocator@U?$pair@$$CBV?$basic_string@DU?$char_traits@D@std@@V?$allocator@D@2@@std@@V12@@std@@@2@$0A@@std@@@std@@@std@@YAXPAU_Node@?$_Tree_nod@V?$_Tmap_traits@V?$basic_string@DU?$char_traits@D@std@@V?$allocator@D@2@@std@@V12@U?$less@V?$basic_string@DU?$char_traits@D@std@@V?$allocator@D@2@@std@@@2@V?$allocator@U?$pair@$$CBV?$basic_string@DU?$char_traits@D@std@@V?$allocator@D@2@@std@@V12@@std@@@2@$0A@@std@@@0@@Z 1001b930 f i PlugInLib:PlugInShell.obj
 0001:0001a940       ??_G_Node@?$_List_nod@UContextMenuAction@@V?$allocator@UContextMenuAction@@@std@@@std@@QAEPAXI@Z 1001b940 f i PlugInLib:PlugInShell.obj
 0001:0001a970       ??1?$FactoryResource@VSettableSessionItem@@@@UAE@XZ 1001b970 f i PlugInLib:PlugInShell.obj
 0001:0001a980       ??0?$FactoryResource@VSettableSessionItem@@@@QAE@XZ 1001b980 f i PlugInLib:PlugInShell.obj
 0001:0001a9f0       ?end@?$_Tree@V?$_Tmap_traits@V?$basic_string@DU?$char_traits@D@std@@V?$allocator@D@2@@std@@V12@U?$less@V?$basic_string@DU?$char_traits@D@std@@V?$allocator@D@2@@std@@@2@V?$allocator@U?$pair@$$CBV?$basic_string@DU?$char_traits@D@std@@V?$allocator@D@2@@std@@V12@@std@@@2@$0A@@std@@@std@@QAE?AViterator@12@XZ 1001b9f0 f i PlugInLib:PlugInShell.obj
 0001:0001aa00       ??_E?$FactoryResource@VSettableSessionItem@@@@UAEPAXI@Z 1001ba00 f i PlugInLib:PlugInShell.obj
 0001:0001aa00       ??_G?$FactoryResource@VSettableSessionItem@@@@UAEPAXI@Z 1001ba00 f i PlugInLib:PlugInShell.obj
 0001:0001aa20       ?lower_bound@?$_Tree@V?$_Tmap_traits@V?$basic_string@DU?$char_traits@D@std@@V?$allocator@D@2@@std@@V12@U?$less@V?$basic_string@DU?$char_traits@D@std@@V?$allocator@D@2@@std@@@2@V?$allocator@U?$pair@$$CBV?$basic_string@DU?$char_traits@D@std@@V?$allocator@D@2@@std@@V12@@std@@@2@$0A@@std@@@std@@QAE?AViterator@12@ABV?$basic_string@DU?$char_traits@D@std@@V?$allocator@D@2@@2@@Z 1001ba20 f i PlugInLib:PlugInShell.obj
 0001:0001aa50       ?_Init@?$_Tree@V?$_Tmap_traits@V?$basic_string@DU?$char_traits@D@std@@V?$allocator@D@2@@std@@V12@U?$less@V?$basic_string@DU?$char_traits@D@std@@V?$allocator@D@2@@std@@@2@V?$allocator@U?$pair@$$CBV?$basic_string@DU?$char_traits@D@std@@V?$allocator@D@2@@std@@V12@@std@@@2@$0A@@std@@@std@@IAEXXZ 1001ba50 f i PlugInLib:PlugInShell.obj
 0001:0001aa80       ??0?$_Tree_val@V?$_Tmap_traits@V?$basic_string@DU?$char_traits@D@std@@V?$allocator@D@2@@std@@V12@U?$less@V?$basic_string@DU?$char_traits@D@std@@V?$allocator@D@2@@std@@@2@V?$allocator@U?$pair@$$CBV?$basic_string@DU?$char_traits@D@std@@V?$allocator@D@2@@std@@V12@@std@@@2@$0A@@std@@@std@@IAE@ABU?$less@V?$basic_string@DU?$char_traits@D@std@@V?$allocator@D@2@@std@@@1@V?$allocator@U?$pair@$$CBV?$basic_string@DU?$char_traits@D@std@@V?$allocator@D@2@@std@@V12@@std@@@1@@Z 1001ba80 f i PlugInLib:PlugInShell.obj
 0001:0001aa90       ?destroy@?$allocator@U_Node@?$_Tree_nod@V?$_Tmap_traits@V?$basic_string@DU?$char_traits@D@std@@V?$allocator@D@2@@std@@V12@U?$less@V?$basic_string@DU?$char_traits@D@std@@V?$allocator@D@2@@std@@@2@V?$allocator@U?$pair@$$CBV?$basic_string@DU?$char_traits@D@std@@V?$allocator@D@2@@std@@V12@@std@@@2@$0A@@std@@@std@@@std@@QAEXPAU_Node@?$_Tree_nod@V?$_Tmap_traits@V?$basic_string@DU?$char_traits@D@std@@V?$allocator@D@2@@std@@V12@U?$less@V?$basic_string@DU?$char_traits@D@std@@V?$allocator@D@2@@std@@@2@V?$allocator@U?$pair@$$CBV?$basic_string@DU?$char_traits@D@std@@V?$allocator@D@2@@std@@V12@@std@@@2@$0A@@std@@@2@@Z 1001ba90 f i PlugInLib:PlugInShell.obj
 0001:0001aaa0       ?_Insert@?$_Tree@V?$_Tmap_traits@V?$basic_string@DU?$char_traits@D@std@@V?$allocator@D@2@@std@@V12@U?$less@V?$basic_string@DU?$char_traits@D@std@@V?$allocator@D@2@@std@@@2@V?$allocator@U?$pair@$$CBV?$basic_string@DU?$char_traits@D@std@@V?$allocator@D@2@@std@@V12@@std@@@2@$0A@@std@@@std@@IAE?AViterator@12@_NPAU_Node@?$_Tree_nod@V?$_Tmap_traits@V?$basic_string@DU?$char_traits@D@std@@V?$allocator@D@2@@std@@V12@U?$less@V?$basic_string@DU?$char_traits@D@std@@V?$allocator@D@2@@std@@@2@V?$allocator@U?$pair@$$CBV?$basic_string@DU?$char_traits@D@std@@V?$allocator@D@2@@std@@V12@@std@@@2@$0A@@std@@@2@ABU?$pair@$$CBV?$basic_string@DU?$char_traits@D@std@@V?$allocator@D@2@@std@@V12@@2@@Z 1001baa0 f i PlugInLib:PlugInShell.obj
 0001:0001aca0       ?_Erase@?$_Tree@V?$_Tmap_traits@V?$basic_string@DU?$char_traits@D@std@@V?$allocator@D@2@@std@@V12@U?$less@V?$basic_string@DU?$char_traits@D@std@@V?$allocator@D@2@@std@@@2@V?$allocator@U?$pair@$$CBV?$basic_string@DU?$char_traits@D@std@@V?$allocator@D@2@@std@@V12@@std@@@2@$0A@@std@@@std@@IAEXPAU_Node@?$_Tree_nod@V?$_Tmap_traits@V?$basic_string@DU?$char_traits@D@std@@V?$allocator@D@2@@std@@V12@U?$less@V?$basic_string@DU?$char_traits@D@std@@V?$allocator@D@2@@std@@@2@V?$allocator@U?$pair@$$CBV?$basic_string@DU?$char_traits@D@std@@V?$allocator@D@2@@std@@V12@@std@@@2@$0A@@std@@@2@@Z 1001bca0 f i PlugInLib:PlugInShell.obj
 0001:0001ad30       ??$_Destroy@U_Node@?$_List_nod@UContextMenuAction@@V?$allocator@UContextMenuAction@@@std@@@std@@@std@@YAXPAU_Node@?$_List_nod@UContextMenuAction@@V?$allocator@UContextMenuAction@@@std@@@0@@Z 1001bd30 f i PlugInLib:PlugInShell.obj
 0001:0001ad40       ?erase@?$_Tree@V?$_Tmap_traits@V?$basic_string@DU?$char_traits@D@std@@V?$allocator@D@2@@std@@V12@U?$less@V?$basic_string@DU?$char_traits@D@std@@V?$allocator@D@2@@std@@@2@V?$allocator@U?$pair@$$CBV?$basic_string@DU?$char_traits@D@std@@V?$allocator@D@2@@std@@V12@@std@@@2@$0A@@std@@@std@@QAE?AViterator@12@V312@@Z 1001bd40 f i PlugInLib:PlugInShell.obj
 0001:0001b030       ?find@?$_Tree@V?$_Tmap_traits@V?$basic_string@DU?$char_traits@D@std@@V?$allocator@D@2@@std@@V12@U?$less@V?$basic_string@DU?$char_traits@D@std@@V?$allocator@D@2@@std@@@2@V?$allocator@U?$pair@$$CBV?$basic_string@DU?$char_traits@D@std@@V?$allocator@D@2@@std@@V12@@std@@@2@$0A@@std@@@std@@QAE?AViterator@12@ABV?$basic_string@DU?$char_traits@D@std@@V?$allocator@D@2@@2@@Z 1001c030 f i PlugInLib:PlugInShell.obj
 0001:0001b0a0       ??0?$_Tree@V?$_Tmap_traits@V?$basic_string@DU?$char_traits@D@std@@V?$allocator@D@2@@std@@V12@U?$less@V?$basic_string@DU?$char_traits@D@std@@V?$allocator@D@2@@std@@@2@V?$allocator@U?$pair@$$CBV?$basic_string@DU?$char_traits@D@std@@V?$allocator@D@2@@std@@V12@@std@@@2@$0A@@std@@@std@@QAE@ABU?$less@V?$basic_string@DU?$char_traits@D@std@@V?$allocator@D@2@@std@@@1@ABV?$allocator@U?$pair@$$CBV?$basic_string@DU?$char_traits@D@std@@V?$allocator@D@2@@std@@V12@@std@@@1@@Z 1001c0a0 f i PlugInLib:PlugInShell.obj
 0001:0001b0d0       ?insert@?$_Tree@V?$_Tmap_traits@V?$basic_string@DU?$char_traits@D@std@@V?$allocator@D@2@@std@@V12@U?$less@V?$basic_string@DU?$char_traits@D@std@@V?$allocator@D@2@@std@@@2@V?$allocator@U?$pair@$$CBV?$basic_string@DU?$char_traits@D@std@@V?$allocator@D@2@@std@@V12@@std@@@2@$0A@@std@@@std@@QAE?AU?$pair@Viterator@?$_Tree@V?$_Tmap_traits@V?$basic_string@DU?$char_traits@D@std@@V?$allocator@D@2@@std@@V12@U?$less@V?$basic_string@DU?$char_traits@D@std@@V?$allocator@D@2@@std@@@2@V?$allocator@U?$pair@$$CBV?$basic_string@DU?$char_traits@D@std@@V?$allocator@D@2@@std@@V12@@std@@@2@$0A@@std@@@std@@_N@2@ABU?$pair@$$CBV?$basic_string@DU?$char_traits@D@std@@V?$allocator@D@2@@std@@V12@@2@@Z 1001c0d0 f i PlugInLib:PlugInShell.obj
 0001:0001b1d0       ?_Copy@?$_Tree@V?$_Tmap_traits@V?$basic_string@DU?$char_traits@D@std@@V?$allocator@D@2@@std@@V12@U?$less@V?$basic_string@DU?$char_traits@D@std@@V?$allocator@D@2@@std@@@2@V?$allocator@U?$pair@$$CBV?$basic_string@DU?$char_traits@D@std@@V?$allocator@D@2@@std@@V12@@std@@@2@$0A@@std@@@std@@IAEPAU_Node@?$_Tree_nod@V?$_Tmap_traits@V?$basic_string@DU?$char_traits@D@std@@V?$allocator@D@2@@std@@V12@U?$less@V?$basic_string@DU?$char_traits@D@std@@V?$allocator@D@2@@std@@@2@V?$allocator@U?$pair@$$CBV?$basic_string@DU?$char_traits@D@std@@V?$allocator@D@2@@std@@V12@@std@@@2@$0A@@std@@@2@PAU342@0@Z 1001c1d0 f i PlugInLib:PlugInShell.obj
 0001:0001b280       ?clear@?$_Tree@V?$_Tmap_traits@V?$basic_string@DU?$char_traits@D@std@@V?$allocator@D@2@@std@@V12@U?$less@V?$basic_string@DU?$char_traits@D@std@@V?$allocator@D@2@@std@@@2@V?$allocator@U?$pair@$$CBV?$basic_string@DU?$char_traits@D@std@@V?$allocator@D@2@@std@@V12@@std@@@2@$0A@@std@@@std@@QAEXXZ 1001c280 f i PlugInLib:PlugInShell.obj
 0001:0001b2b0       ?destroy@?$allocator@U_Node@?$_List_nod@UContextMenuAction@@V?$allocator@UContextMenuAction@@@std@@@std@@@std@@QAEXPAU_Node@?$_List_nod@UContextMenuAction@@V?$allocator@UContextMenuAction@@@std@@@2@@Z 1001c2b0 f i PlugInLib:PlugInShell.obj
 0001:0001b2c0       ?insert@?$_Tree@V?$_Tmap_traits@V?$basic_string@DU?$char_traits@D@std@@V?$allocator@D@2@@std@@V12@U?$less@V?$basic_string@DU?$char_traits@D@std@@V?$allocator@D@2@@std@@@2@V?$allocator@U?$pair@$$CBV?$basic_string@DU?$char_traits@D@std@@V?$allocator@D@2@@std@@V12@@std@@@2@$0A@@std@@@std@@QAE?AViterator@12@V312@ABU?$pair@$$CBV?$basic_string@DU?$char_traits@D@std@@V?$allocator@D@2@@std@@V12@@2@@Z 1001c2c0 f i PlugInLib:PlugInShell.obj
 0001:0001b4d0       ?_Copy@?$_Tree@V?$_Tmap_traits@V?$basic_string@DU?$char_traits@D@std@@V?$allocator@D@2@@std@@V12@U?$less@V?$basic_string@DU?$char_traits@D@std@@V?$allocator@D@2@@std@@@2@V?$allocator@U?$pair@$$CBV?$basic_string@DU?$char_traits@D@std@@V?$allocator@D@2@@std@@V12@@std@@@2@$0A@@std@@@std@@IAEXABV12@@Z 1001c4d0 f i PlugInLib:PlugInShell.obj
 0001:0001b550       ?erase@?$_Tree@V?$_Tmap_traits@V?$basic_string@DU?$char_traits@D@std@@V?$allocator@D@2@@std@@V12@U?$less@V?$basic_string@DU?$char_traits@D@std@@V?$allocator@D@2@@std@@@2@V?$allocator@U?$pair@$$CBV?$basic_string@DU?$char_traits@D@std@@V?$allocator@D@2@@std@@V12@@std@@@2@$0A@@std@@@std@@QAE?AViterator@12@V312@0@Z 1001c550 f i PlugInLib:PlugInShell.obj
 0001:0001b620       ?clear@?$list@UContextMenuAction@@V?$allocator@UContextMenuAction@@@std@@@std@@QAEXXZ 1001c620 f i PlugInLib:PlugInShell.obj
 0001:0001b6b0       ??A?$map@V?$basic_string@DU?$char_traits@D@std@@V?$allocator@D@2@@std@@V12@U?$less@V?$basic_string@DU?$char_traits@D@std@@V?$allocator@D@2@@std@@@2@V?$allocator@U?$pair@$$CBV?$basic_string@DU?$char_traits@D@std@@V?$allocator@D@2@@std@@V12@@std@@@2@@std@@QAEAAV?$basic_string@DU?$char_traits@D@std@@V?$allocator@D@2@@1@ABV21@@Z 1001c6b0 f i PlugInLib:PlugInShell.obj
 0001:0001b780       ?_Tidy@?$_Tree@V?$_Tmap_traits@V?$basic_string@DU?$char_traits@D@std@@V?$allocator@D@2@@std@@V12@U?$less@V?$basic_string@DU?$char_traits@D@std@@V?$allocator@D@2@@std@@@2@V?$allocator@U?$pair@$$CBV?$basic_string@DU?$char_traits@D@std@@V?$allocator@D@2@@std@@V12@@std@@@2@$0A@@std@@@std@@IAEXXZ 1001c780 f i PlugInLib:PlugInShell.obj
 0001:0001b7c0       ?_Tidy@?$list@UContextMenuAction@@V?$allocator@UContextMenuAction@@@std@@@std@@IAEXXZ 1001c7c0 f i PlugInLib:PlugInShell.obj
 0001:0001b7e0       ?addDependencyCopyright@PlugInShell@@IAEXABV?$basic_string@DU?$char_traits@D@std@@V?$allocator@D@2@@std@@0@Z 1001c7e0 f   PlugInLib:PlugInShell.obj
 0001:0001b860       ??0?$_Tree@V?$_Tmap_traits@V?$basic_string@DU?$char_traits@D@std@@V?$allocator@D@2@@std@@V12@U?$less@V?$basic_string@DU?$char_traits@D@std@@V?$allocator@D@2@@std@@@2@V?$allocator@U?$pair@$$CBV?$basic_string@DU?$char_traits@D@std@@V?$allocator@D@2@@std@@V12@@std@@@2@$0A@@std@@@std@@QAE@ABV01@@Z 1001c860 f i PlugInLib:PlugInShell.obj
 0001:0001b8f0       ??1?$_Tree@V?$_Tmap_traits@V?$basic_string@DU?$char_traits@D@std@@V?$allocator@D@2@@std@@V12@U?$less@V?$basic_string@DU?$char_traits@D@std@@V?$allocator@D@2@@std@@@2@V?$allocator@U?$pair@$$CBV?$basic_string@DU?$char_traits@D@std@@V?$allocator@D@2@@std@@V12@@std@@@2@$0A@@std@@@std@@QAE@XZ 1001c8f0 f i PlugInLib:PlugInShell.obj
 0001:0001b930       ??1?$list@UContextMenuAction@@V?$allocator@UContextMenuAction@@@std@@@std@@QAE@XZ 1001c930 f i PlugInLib:PlugInShell.obj
 0001:0001b950       ??1?$map@V?$basic_string@DU?$char_traits@D@std@@V?$allocator@D@2@@std@@V12@U?$less@V?$basic_string@DU?$char_traits@D@std@@V?$allocator@D@2@@std@@@2@V?$allocator@U?$pair@$$CBV?$basic_string@DU?$char_traits@D@std@@V?$allocator@D@2@@std@@V12@@std@@@2@@std@@QAE@XZ 1001c950 f i PlugInLib:PlugInShell.obj
 0001:0001b990       ??1PlugInShell@@UAE@XZ     1001c990 f   PlugInLib:PlugInShell.obj
 0001:0001bab0       ??_EPlugInShell@@W3AEPAXI@Z 1001cab0 f i PlugInLib:PlugInShell.obj
 0001:0001bac0       ?getContextMenuActions@PlugInShell@@UBE?AV?$list@UContextMenuAction@@V?$allocator@UContextMenuAction@@@std@@@std@@XZ 1001cac0 f   PlugInLib:PlugInShell.obj
 0001:0001bae0       ?getPropertiesPages@PlugInShell@@UBE?AV?$vector@V?$basic_string@DU?$char_traits@D@std@@V?$allocator@D@2@@std@@V?$allocator@V?$basic_string@DU?$char_traits@D@std@@V?$allocator@D@2@@std@@@2@@std@@XZ 1001cae0 f   PlugInLib:PlugInShell.obj
 0001:0001bb00       ??0?$map@V?$basic_string@DU?$char_traits@D@std@@V?$allocator@D@2@@std@@V12@U?$less@V?$basic_string@DU?$char_traits@D@std@@V?$allocator@D@2@@std@@@2@V?$allocator@U?$pair@$$CBV?$basic_string@DU?$char_traits@D@std@@V?$allocator@D@2@@std@@V12@@std@@@2@@std@@QAE@ABV01@@Z 1001cb00 f i PlugInLib:PlugInShell.obj
 0001:0001bb20       ??0?$map@V?$basic_string@DU?$char_traits@D@std@@V?$allocator@D@2@@std@@V12@U?$less@V?$basic_string@DU?$char_traits@D@std@@V?$allocator@D@2@@std@@@2@V?$allocator@U?$pair@$$CBV?$basic_string@DU?$char_traits@D@std@@V?$allocator@D@2@@std@@V12@@std@@@2@@std@@QAE@XZ 1001cb20 f i PlugInLib:PlugInShell.obj
 0001:0001bb50       ??0PlugInShell@@QAE@XZ     1001cb50 f   PlugInLib:PlugInShell.obj
 0001:0001bc70       ??_EPlugInShell@@UAEPAXI@Z 1001cc70 f i PlugInLib:PlugInShell.obj
 0001:0001bc70       ??_GPlugInShell@@UAEPAXI@Z 1001cc70 f i PlugInLib:PlugInShell.obj
 0001:0001bc90       ?getDependencyCopyright@PlugInShell@@UBE?AV?$map@V?$basic_string@DU?$char_traits@D@std@@V?$allocator@D@2@@std@@V12@U?$less@V?$basic_string@DU?$char_traits@D@std@@V?$allocator@D@2@@std@@@2@V?$allocator@U?$pair@$$CBV?$basic_string@DU?$char_traits@D@std@@V?$allocator@D@2@@std@@V12@@std@@@2@@std@@XZ 1001cc90 f   PlugInLib:PlugInShell.obj
 0001:0001bcc0       ??1Option@@MAE@XZ          1001ccc0 f i PlugInLib:OptionShell.obj
 0001:0001bcd0       ??_GOption@@MAEPAXI@Z      1001ccd0 f i PlugInLib:OptionShell.obj
 0001:0001bcd0       ??_EOption@@MAEPAXI@Z      1001ccd0 f i PlugInLib:OptionShell.obj
 0001:0001bcf0       ?OptionType@PlugInManagerServices@@SA?AV?$basic_string@DU?$char_traits@D@std@@V?$allocator@D@2@@std@@XZ 1001ccf0 f i PlugInLib:OptionShell.obj
 0001:0001bd10       ??0Option@@QAE@XZ          1001cd10 f i PlugInLib:OptionShell.obj
 0001:0001bd20       ??1OptionShell@@UAE@XZ     1001cd20 f   PlugInLib:OptionShell.obj
 0001:0001bdb0       ?getOptionName@OptionShell@@UAEABV?$basic_string@DU?$char_traits@D@std@@V?$allocator@D@2@@std@@XZ 1001cdb0 f   PlugInLib:OptionShell.obj
 0001:0001bdc0       ?setOptionName@OptionShell@@IAEXABV?$basic_string@DU?$char_traits@D@std@@V?$allocator@D@2@@std@@@Z 1001cdc0 f   PlugInLib:OptionShell.obj
 0001:0001bdd0       ?getWidget@OptionShell@@UAEPAVQWidget@@XZ 1001cdd0 f   PlugInLib:OptionShell.obj
 0001:0001be00       ?getStoredWidget@OptionShell@@MAEPAVQWidget@@XZ 1001ce00 f   PlugInLib:OptionShell.obj
 0001:0001be10       ??_EOptionShell@@W3AEPAXI@Z 1001ce10 f i PlugInLib:OptionShell.obj
 0001:0001be20       ??_EOptionShell@@W7AEPAXI@Z 1001ce20 f i PlugInLib:OptionShell.obj
 0001:0001be30       ??0OptionShell@@QAE@XZ     1001ce30 f   PlugInLib:OptionShell.obj
 0001:0001bee0       ??_GOptionShell@@UAEPAXI@Z 1001cee0 f i PlugInLib:OptionShell.obj
 0001:0001bee0       ??_EOptionShell@@UAEPAXI@Z 1001cee0 f i PlugInLib:OptionShell.obj
 0001:0001bf00       ??C?$Service@VMessageLogMgr@@@@QBEPAVMessageLogMgr@@XZ 1001cf00 f i PlugInUtilities:AppVerify.obj
 0001:0001bf10       ??C?$Service@VDesktopServices@@@@QBEPAVDesktopServices@@XZ 1001cf10 f i PlugInUtilities:AppVerify.obj
 0001:0001bf20       ?LogVerificationErrorProc@@YAXPBD0I0@Z 1001cf20 f   PlugInUtilities:AppVerify.obj
 0001:0001c3a0       ??1DataVariant@@QAE@XZ     1001d3a0 f   PlugInUtilities:DataVariant.obj
 0001:0001c3b0       ?isValid@DataVariant@@QBE_NXZ 1001d3b0 f   PlugInUtilities:DataVariant.obj
 0001:0001c3c0       ?getType@DataVariant@@QBEABVtype_info@@XZ 1001d3c0 f   PlugInUtilities:DataVariant.obj
 0001:0001c3e0       ?getTypeName@DataVariant@@QBE?AV?$basic_string@DU?$char_traits@D@std@@V?$allocator@D@2@@std@@XZ 1001d3e0 f   PlugInUtilities:DataVariant.obj
 0001:0001c420       ?toXml@DataVariant@@QBE_NPAVXMLWriter@@@Z 1001d420 f   PlugInUtilities:DataVariant.obj
 0001:0001c440       ??8DataVariant@@QBE_NABV0@@Z 1001d440 f   PlugInUtilities:DataVariant.obj
 0001:0001c470       ?getPointerToValueAsVoid@DataVariant@@QBEPAXXZ 1001d470 f   PlugInUtilities:DataVariant.obj
 0001:0001c480       ??0?$EnumWrapper@W4StatusEnum@DataVariant@@@@QAE@ABW4StatusEnum@DataVariant@@@Z 1001d480 f i PlugInUtilities:DataVariant.obj
 0001:0001c4a0       ??8?$EnumWrapper@W4StatusEnum@DataVariant@@@@QBE_NABW4StatusEnum@DataVariant@@@Z 1001d4a0 f i PlugInUtilities:DataVariant.obj
 0001:0001c4c0       ??C?$Service@VDataVariantFactory@@@@QBEPAVDataVariantFactory@@XZ 1001d4c0 f i PlugInUtilities:DataVariant.obj
 0001:0001c4d0       ??$swap@PAVDataValueWrapper@@@std@@YAXAAPAVDataValueWrapper@@0@Z 1001d4d0 f i PlugInUtilities:DataVariant.obj
 0001:0001c4f0       ??0DataVariant@@QAE@ABV0@@Z 1001d4f0 f   PlugInUtilities:DataVariant.obj
 0001:0001c520       ?toXmlString@DataVariant@@QBE?AV?$basic_string@DU?$char_traits@D@std@@V?$allocator@D@2@@std@@PAV?$EnumWrapper@W4StatusEnum@DataVariant@@@@@Z 1001d520 f   PlugInUtilities:DataVariant.obj
 0001:0001c580       ?fromXmlString@DataVariant@@QAE?AV?$EnumWrapper@W4StatusEnum@DataVariant@@@@ABV?$basic_string@DU?$char_traits@D@std@@V?$allocator@D@2@@std@@0@Z 1001d580 f   PlugInUtilities:DataVariant.obj
 0001:0001c620       ?toDisplayString@DataVariant@@QBE?AV?$basic_string@DU?$char_traits@D@std@@V?$allocator@D@2@@std@@PAV?$EnumWrapper@W4StatusEnum@DataVariant@@@@@Z 1001d620 f   PlugInUtilities:DataVariant.obj
 0001:0001c680       ?fromDisplayString@DataVariant@@QAE?AV?$EnumWrapper@W4StatusEnum@DataVariant@@@@ABV?$basic_string@DU?$char_traits@D@std@@V?$allocator@D@2@@std@@0@Z 1001d680 f   PlugInUtilities:DataVariant.obj
 0001:0001c720       ?fromXml@DataVariant@@QAE_NPAVDOMNode@xercesc_2_7@@I@Z 1001d720 f   PlugInUtilities:DataVariant.obj
 0001:0001c770       ?swap@DataVariant@@QAEAAV1@AAV1@@Z 1001d770 f   PlugInUtilities:DataVariant.obj
 0001:0001c790       ??4DataVariant@@QAEAAV0@ABV0@@Z 1001d790 f   PlugInUtilities:DataVariant.obj
 0001:0001c7c0       ?createWrapper@DataVariant@@ABEPAVDataValueWrapper@@PBXPBD_N@Z 1001d7c0 f   PlugInUtilities:DataVariant.obj
 0001:0001c840       ?getService@ModuleManager@@QAEPAVExternal@@XZ 1001d840 f i PlugInUtilities:Service.obj
 0001:0001c850       ?get@?$Service@VApplicationServices@@@@QBEPAVApplicationServices@@XZ 1001d850 f   PlugInUtilities:Service.obj
 0001:0001c880       ?get@?$Service@VUtilityServices@@@@QBEPAVUtilityServices@@XZ 1001d880 f   PlugInUtilities:Service.obj
 0001:0001c8b0       ?get@?$Service@VModelServices@@@@QBEPAVModelServices@@XZ 1001d8b0 f   PlugInUtilities:Service.obj
 0001:0001c8e0       ?get@?$Service@VAnimationServices@@@@QBEPAVAnimationServices@@XZ 1001d8e0 f   PlugInUtilities:Service.obj
 0001:0001c910       ?get@?$Service@VDesktopServices@@@@QBEPAVDesktopServices@@XZ 1001d910 f   PlugInUtilities:Service.obj
 0001:0001c940       ?get@?$Service@VPlugInManagerServices@@@@QBEPAVPlugInManagerServices@@XZ 1001d940 f   PlugInUtilities:Service.obj
 0001:0001c970       ??C?$Service@VUtilityServices@@@@QBEPAVUtilityServices@@XZ 1001d970 f i PlugInUtilities:Service.obj
 0001:0001c9a0       ??0?$EnumWrapper@W4WindowTypeEnum@@@@QAE@ABW4WindowTypeEnum@@@Z 1001d9a0 f i PlugInUtilities:Service.obj
 0001:0001c9c0       ?get@?$Service@VSessionManager@@@@QBEPAVSessionManager@@XZ 1001d9c0 f   PlugInUtilities:Service.obj
 0001:0001c9f0       ?get@?$Service@VConfigurationSettings@@@@QBEPAVConfigurationSettings@@XZ 1001d9f0 f   PlugInUtilities:Service.obj
 0001:0001ca20       ?get@?$Service@VObjectFactory@@@@QBEPAVObjectFactory@@XZ 1001da20 f   PlugInUtilities:Service.obj
 0001:0001ca50       ?get@?$Service@VDataVariantFactory@@@@QBEPAVDataVariantFactory@@XZ 1001da50 f   PlugInUtilities:Service.obj
 0001:0001ca80       ?get@?$Service@VMessageLogMgr@@@@QBEPAVMessageLogMgr@@XZ 1001da80 f   PlugInUtilities:Service.obj
 0001:0001cab0       ?get@?$Service@VSessionExplorer@@@@QBEPAVSessionExplorer@@XZ 1001dab0 f   PlugInUtilities:Service.obj
 0001:0001cba0       ?qt_noop@@YAXXZ            1001dba0 f i PlugInUtilities:LabeledSectionGroup.obj
 0001:0001cbb0       ?addStretch@LabeledSectionGroup@@QAEXH@Z 1001dbb0 f   PlugInUtilities:LabeledSectionGroup.obj
 0001:0001cbc0       ?sizeHint@LabeledSectionGroup@@UBE?AVQSize@@XZ 1001dbc0 f   PlugInUtilities:LabeledSectionGroup.obj
 0001:0001cbf0       ?setSizeHint@LabeledSectionGroup@@IAEXABVQSize@@@Z 1001dbf0 f   PlugInUtilities:LabeledSectionGroup.obj
 0001:0001cc10       ?disableSectionStretch@LabeledSectionGroup@@AAEXXZ 1001dc10 f   PlugInUtilities:LabeledSectionGroup.obj
 0001:0001cc50       ??0?$QFlags@W4AlignmentFlag@Qt@@@@QAE@ABV0@@Z 1001dc50 f i PlugInUtilities:LabeledSectionGroup.obj
 0001:0001cc60       ??0?$QMap@PAVLabeledSection@@H@@QAE@XZ 1001dc60 f i PlugInUtilities:LabeledSectionGroup.obj
 0001:0001cc80       ??9iterator@?$QMap@PAVLabeledSection@@H@@QBE_NABV01@@Z 1001dc80 f i PlugInUtilities:LabeledSectionGroup.obj
 0001:0001cca0       ??0const_iterator@?$QMap@PAVLabeledSection@@H@@QAE@XZ 1001dca0 f i PlugInUtilities:LabeledSectionGroup.obj
 0001:0001ccb0       ??9const_iterator@?$QMap@PAVLabeledSection@@H@@QBE_NABV01@@Z 1001dcb0 f i PlugInUtilities:LabeledSectionGroup.obj
 0001:0001ccd0       ??Econst_iterator@?$QMap@PAVLabeledSection@@H@@QAEAAV01@XZ 1001dcd0 f i PlugInUtilities:LabeledSectionGroup.obj
 0001:0001cce0       ?count@?$QList@PAVLabeledSection@@@@QBEHXZ 1001dce0 f i PlugInUtilities:LabeledSectionGroup.obj
 0001:0001ccf0       ??0iterator@?$QMap@PAVLabeledSection@@H@@QAE@PAUNode@QMapData@@@Z 1001dcf0 f i PlugInUtilities:LabeledSectionGroup.obj
 0001:0001cd00       ?capacity@?$vector@PAVLabeledSection@@V?$allocator@PAVLabeledSection@@@std@@@std@@QBEIXZ 1001dd00 f i PlugInUtilities:LabeledSectionGroup.obj
 0001:0001cd20       ?size@?$vector@PAVLabeledSection@@V?$allocator@PAVLabeledSection@@@std@@@std@@QBEIXZ 1001dd20 f i PlugInUtilities:LabeledSectionGroup.obj
 0001:0001cd40       ??0?$allocator@PAVLabeledSection@@@std@@QAE@XZ 1001dd40 f i PlugInUtilities:LabeledSectionGroup.obj
 0001:0001cd50       ??0?$allocator@PAVLabeledSection@@@std@@QAE@ABV01@@Z 1001dd50 f i PlugInUtilities:LabeledSectionGroup.obj
 0001:0001cd60       ??0const_iterator@?$QMap@PAVLabeledSection@@H@@QAE@PAUNode@QMapData@@@Z 1001dd60 f i PlugInUtilities:LabeledSectionGroup.obj
 0001:0001cd70       ?payload@?$QMap@PAVLabeledSection@@H@@CAHXZ 1001dd70 f i PlugInUtilities:LabeledSectionGroup.obj
 0001:0001cd80       ?_Xlen@?$vector@PAVLabeledSection@@V?$allocator@PAVLabeledSection@@@std@@@std@@KAXXZ 1001dd80 f i PlugInUtilities:LabeledSectionGroup.obj
 0001:0001ce00       ?deallocate@?$allocator@PAVLabeledSection@@@std@@QAEXPAPAVLabeledSection@@I@Z 1001de00 f i PlugInUtilities:LabeledSectionGroup.obj
 0001:0001ce10       ??0?$_Ranit@PAVLabeledSection@@HPBQAV1@ABQAV1@@std@@QAE@XZ 1001de10 f i PlugInUtilities:LabeledSectionGroup.obj
 0001:0001ce20       ?max_size@?$allocator@PAVLabeledSection@@@std@@QBEIXZ 1001de20 f i PlugInUtilities:LabeledSectionGroup.obj
 0001:0001ce30       ??G?$_Vector_const_iterator@PAVLabeledSection@@V?$allocator@PAVLabeledSection@@@std@@@std@@QBEHABV01@@Z 1001de30 f i PlugInUtilities:LabeledSectionGroup.obj
 0001:0001ce60       ??Y?$_Vector_const_iterator@PAVLabeledSection@@V?$allocator@PAVLabeledSection@@@std@@@std@@QAEAAV01@H@Z 1001de60 f i PlugInUtilities:LabeledSectionGroup.obj
 0001:0001cea0       ??$_Allocate@PAVLabeledSection@@@std@@YAPAPAVLabeledSection@@IPAPAV1@@Z 1001dea0 f i PlugInUtilities:LabeledSectionGroup.obj
 0001:0001cf00       ??8const_iterator@?$QMap@PAVLabeledSection@@H@@QBE_NABV01@@Z 1001df00 f i PlugInUtilities:LabeledSectionGroup.obj
 0001:0001cf20       ??0?$QList@PAVLabeledSection@@@@QAE@XZ 1001df20 f i PlugInUtilities:LabeledSectionGroup.obj
 0001:0001cf40       ?t@Node@?$QList@PAVLabeledSection@@@@QAEAAPAVLabeledSection@@XZ 1001df40 f i PlugInUtilities:LabeledSectionGroup.obj
 0001:0001cf50       ??$qMapLessThanKey@PAVLabeledSection@@@@YA_NABQAVLabeledSection@@0@Z 1001df50 f i PlugInUtilities:LabeledSectionGroup.obj
 0001:0001cf70       ??$_Ptr_cat@PAPAVLabeledSection@@PAPAV1@@std@@YA?AU_Scalar_ptr_iterator_tag@0@AAPAPAVLabeledSection@@0@Z 1001df70 f i PlugInUtilities:LabeledSectionGroup.obj
 0001:0001cf80       ??$_Destroy_range@PAVLabeledSection@@V?$allocator@PAVLabeledSection@@@std@@@std@@YAXPAPAVLabeledSection@@0AAV?$allocator@PAVLabeledSection@@@0@U_Scalar_ptr_iterator_tag@0@@Z 1001df80 f i PlugInUtilities:LabeledSectionGroup.obj
 0001:0001cf90       ??$_Fill@PAPAVLabeledSection@@PAV1@@std@@YAXPAPAVLabeledSection@@0ABQAV1@@Z 1001df90 f i PlugInUtilities:LabeledSectionGroup.obj
 0001:0001cfb0       ??$_Iter_random@PAPAVLabeledSection@@PAPAV1@@std@@YA?AUrandom_access_iterator_tag@0@ABQAPAVLabeledSection@@0@Z 1001dfb0 f i PlugInUtilities:LabeledSectionGroup.obj
 0001:0001cfc0       ??$_Move_cat@PAPAVLabeledSection@@@std@@YA?AU_Undefined_move_tag@0@ABQAPAVLabeledSection@@@Z 1001dfc0 f i PlugInUtilities:LabeledSectionGroup.obj
 0001:0001cfd0       ?node_construct@?$QList@PAVLabeledSection@@@@AAEXPAUNode@1@ABQAVLabeledSection@@@Z 1001dfd0 f i PlugInUtilities:LabeledSectionGroup.obj
 0001:0001cfe0       ?node_destruct@?$QList@PAVLabeledSection@@@@AAEXPAUNode@1@0@Z 1001dfe0 f i PlugInUtilities:LabeledSectionGroup.obj
 0001:0001cff0       ?node_copy@?$QList@PAVLabeledSection@@@@AAEXPAUNode@1@00@Z 1001dff0 f i PlugInUtilities:LabeledSectionGroup.obj
 0001:0001d000       ??$_Ptr_cat@V?$_Vector_const_iterator@PAVLabeledSection@@V?$allocator@PAVLabeledSection@@@std@@@std@@PAPAVLabeledSection@@@std@@YA?AU_Scalar_ptr_iterator_tag@0@AAV?$_Vector_const_iterator@PAVLabeledSection@@V?$allocator@PAVLabeledSection@@@std@@@0@AAPAPAVLabeledSection@@@Z 1001e000 f i PlugInUtilities:LabeledSectionGroup.obj
 0001:0001d010       ??$_Uninit_copy@PBQAVLabeledSection@@PAPAV1@V?$allocator@PAVLabeledSection@@@std@@@std@@YAPAPAVLabeledSection@@PBQAV1@0PAPAV1@AAV?$allocator@PAVLabeledSection@@@0@U_Scalar_ptr_iterator_tag@0@U_Range_checked_iterator_tag@0@@Z 1001e010 f i PlugInUtilities:LabeledSectionGroup.obj
 0001:0001d040       ??$_Checked_base@PAPAVLabeledSection@@@std@@YAPAPAVLabeledSection@@AAPAPAV1@U_Unchanged_checked_iterator_base_type_tag@0@@Z 1001e040 f i PlugInUtilities:LabeledSectionGroup.obj
 0001:0001d050       ??$_Copy_backward_opt@PAPAVLabeledSection@@PAPAV1@Urandom_access_iterator_tag@std@@@std@@YAPAPAVLabeledSection@@PAPAV1@00Urandom_access_iterator_tag@0@U_Scalar_ptr_iterator_tag@0@U_Range_checked_iterator_tag@0@@Z 1001e050 f i PlugInUtilities:LabeledSectionGroup.obj
 0001:0001d080       ??$_Iter_cat@PAPAVLabeledSection@@@std@@YA?AUrandom_access_iterator_tag@0@ABQAPAVLabeledSection@@@Z 1001e080 f i PlugInUtilities:LabeledSectionGroup.obj
 0001:0001d090       ?_Checked_iterator_base@?$_Vector_const_iterator@PAVLabeledSection@@V?$allocator@PAVLabeledSection@@@std@@@std@@QBEPBQAVLabeledSection@@XZ 1001e090 f i PlugInUtilities:LabeledSectionGroup.obj
 0001:0001d0a0       ??$_Fill_n@PAPAVLabeledSection@@IPAV1@@std@@YAXPAPAVLabeledSection@@IABQAV1@U_Range_checked_iterator_tag@0@@Z 1001e0a0 f i PlugInUtilities:LabeledSectionGroup.obj
 0001:0001d0d0       ??$_Uninit_copy@PAPAVLabeledSection@@PAPAV1@V?$allocator@PAVLabeledSection@@@std@@@std@@YAPAPAVLabeledSection@@PAPAV1@00AAV?$allocator@PAVLabeledSection@@@0@U_Scalar_ptr_iterator_tag@0@U_Range_checked_iterator_tag@0@@Z 1001e0d0 f i PlugInUtilities:LabeledSectionGroup.obj
 0001:0001d100       ?setSizeHint@LabeledSectionGroup@@IAEXHH@Z 1001e100 f   PlugInUtilities:LabeledSectionGroup.obj
 0001:0001d120       ?begin@?$QMap@PAVLabeledSection@@H@@QBE?AVconst_iterator@1@XZ 1001e120 f i PlugInUtilities:LabeledSectionGroup.obj
 0001:0001d130       ?end@?$QMap@PAVLabeledSection@@H@@QBE?AVconst_iterator@1@XZ 1001e130 f i PlugInUtilities:LabeledSectionGroup.obj
 0001:0001d140       ?concrete@?$QMap@PAVLabeledSection@@H@@CAPAU?$QMapNode@PAVLabeledSection@@H@@PAUNode@QMapData@@@Z 1001e140 f i PlugInUtilities:LabeledSectionGroup.obj
 0001:0001d150       ??0?$_Vector_val@PAVLabeledSection@@V?$allocator@PAVLabeledSection@@@std@@@std@@IAE@V?$allocator@PAVLabeledSection@@@1@@Z 1001e150 f i PlugInUtilities:LabeledSectionGroup.obj
 0001:0001d160       ?max_size@?$vector@PAVLabeledSection@@V?$allocator@PAVLabeledSection@@@std@@@std@@QBEIXZ 1001e160 f i PlugInUtilities:LabeledSectionGroup.obj
 0001:0001d170       ?allocate@?$allocator@PAVLabeledSection@@@std@@QAEPAPAVLabeledSection@@I@Z 1001e170 f i PlugInUtilities:LabeledSectionGroup.obj
 0001:0001d190       ??0?$_Vector_const_iterator@PAVLabeledSection@@V?$allocator@PAVLabeledSection@@@std@@@std@@QAE@PAPAVLabeledSection@@PBU_Container_base@1@@Z 1001e190 f i PlugInUtilities:LabeledSectionGroup.obj
 0001:0001d1d0       ??0?$_Vector_iterator@PAVLabeledSection@@V?$allocator@PAVLabeledSection@@@std@@@std@@QAE@PAPAVLabeledSection@@PBU_Container_base@1@@Z 1001e1d0 f i PlugInUtilities:LabeledSectionGroup.obj
 0001:0001d210       ??G?$_Vector_iterator@PAVLabeledSection@@V?$allocator@PAVLabeledSection@@@std@@@std@@QBEHABV?$_Vector_const_iterator@PAVLabeledSection@@V?$allocator@PAVLabeledSection@@@std@@@1@@Z 1001e210 f i PlugInUtilities:LabeledSectionGroup.obj
 0001:0001d240       ??Y?$_Vector_iterator@PAVLabeledSection@@V?$allocator@PAVLabeledSection@@@std@@@std@@QAEAAV01@H@Z 1001e240 f i PlugInUtilities:LabeledSectionGroup.obj
 0001:0001d280       ?freeData@?$QMap@PAVLabeledSection@@H@@AAEXPAUQMapData@@@Z 1001e280 f i PlugInUtilities:LabeledSectionGroup.obj
 0001:0001d290       ??$_Destroy_range@PAVLabeledSection@@V?$allocator@PAVLabeledSection@@@std@@@std@@YAXPAPAVLabeledSection@@0AAV?$allocator@PAVLabeledSection@@@0@@Z 1001e290 f i PlugInUtilities:LabeledSectionGroup.obj
 0001:0001d2a0       ?findNode@?$QMap@PAVLabeledSection@@H@@ABEPAUNode@QMapData@@ABQAVLabeledSection@@@Z 1001e2a0 f i PlugInUtilities:LabeledSectionGroup.obj
 0001:0001d2f0       ?mutableFindNode@?$QMap@PAVLabeledSection@@H@@ABEPAUNode@QMapData@@QAPAU23@ABQAVLabeledSection@@@Z 1001e2f0 f i PlugInUtilities:LabeledSectionGroup.obj
 0001:0001d350       ?node_create@?$QMap@PAVLabeledSection@@H@@AAEPAUNode@QMapData@@PAU3@QAPAU23@ABQAVLabeledSection@@ABH@Z 1001e350 f i PlugInUtilities:LabeledSectionGroup.obj
 0001:0001d380       ?free@?$QList@PAVLabeledSection@@@@AAEXPAUData@QListData@@@Z 1001e380 f i PlugInUtilities:LabeledSectionGroup.obj
 0001:0001d3a0       ??$_Checked_base@PAPAVLabeledSection@@@std@@YAPAPAVLabeledSection@@AAPAPAV1@@Z 1001e3a0 f i PlugInUtilities:LabeledSectionGroup.obj
 0001:0001d3b0       ??$_Move_backward_opt@PAPAVLabeledSection@@PAPAV1@Urandom_access_iterator_tag@std@@U_Undefined_move_tag@3@@std@@YAPAPAVLabeledSection@@PAPAV1@00Urandom_access_iterator_tag@0@U_Undefined_move_tag@0@U_Range_checked_iterator_tag@0@@Z 1001e3b0 f i PlugInUtilities:LabeledSectionGroup.obj
 0001:0001d3e0       ??$_Checked_base@V?$_Vector_const_iterator@PAVLabeledSection@@V?$allocator@PAVLabeledSection@@@std@@@std@@U_Different_checked_iterator_base_type_tag@2@@std@@YAPBQAVLabeledSection@@AAV?$_Vector_const_iterator@PAVLabeledSection@@V?$allocator@PAVLabeledSection@@@std@@@0@U_Different_checked_iterator_base_type_tag@0@@Z 1001e3e0 f i PlugInUtilities:LabeledSectionGroup.obj
 0001:0001d3f0       ??$_Fill_n@PAPAVLabeledSection@@IPAV1@@std@@YAXPAPAVLabeledSection@@IABQAV1@Urandom_access_iterator_tag@0@U_Range_checked_iterator_tag@0@@Z 1001e3f0 f i PlugInUtilities:LabeledSectionGroup.obj
 0001:0001d420       ??$unchecked_uninitialized_copy@PAPAVLabeledSection@@PAPAV1@V?$allocator@PAVLabeledSection@@@std@@@stdext@@YAPAPAVLabeledSection@@PAPAV1@00AAV?$allocator@PAVLabeledSection@@@std@@@Z 1001e420 f i PlugInUtilities:LabeledSectionGroup.obj
 0001:0001d450       ??1?$QMap@PAVLabeledSection@@H@@QAE@XZ 1001e450 f i PlugInUtilities:LabeledSectionGroup.obj
 0001:0001d470       ?value@iterator@?$QMap@PAVLabeledSection@@H@@QBEAAHXZ 1001e470 f i PlugInUtilities:LabeledSectionGroup.obj
 0001:0001d480       ?key@const_iterator@?$QMap@PAVLabeledSection@@H@@QBEABQAVLabeledSection@@XZ 1001e480 f i PlugInUtilities:LabeledSectionGroup.obj
 0001:0001d490       ?begin@?$vector@PAVLabeledSection@@V?$allocator@PAVLabeledSection@@@std@@@std@@QBE?AV?$_Vector_const_iterator@PAVLabeledSection@@V?$allocator@PAVLabeledSection@@@std@@@2@XZ 1001e490 f i PlugInUtilities:LabeledSectionGroup.obj
 0001:0001d4c0       ?end@?$vector@PAVLabeledSection@@V?$allocator@PAVLabeledSection@@@std@@@std@@QAE?AV?$_Vector_iterator@PAVLabeledSection@@V?$allocator@PAVLabeledSection@@@std@@@2@XZ 1001e4c0 f i PlugInUtilities:LabeledSectionGroup.obj
 0001:0001d4f0       ?end@?$vector@PAVLabeledSection@@V?$allocator@PAVLabeledSection@@@std@@@std@@QBE?AV?$_Vector_const_iterator@PAVLabeledSection@@V?$allocator@PAVLabeledSection@@@std@@@2@XZ 1001e4f0 f i PlugInUtilities:LabeledSectionGroup.obj
 0001:0001d520       ?_Buy@?$vector@PAVLabeledSection@@V?$allocator@PAVLabeledSection@@@std@@@std@@IAE_NI@Z 1001e520 f i PlugInUtilities:LabeledSectionGroup.obj
 0001:0001d570       ?begin@?$vector@PAVLabeledSection@@V?$allocator@PAVLabeledSection@@@std@@@std@@QAE?AV?$_Vector_iterator@PAVLabeledSection@@V?$allocator@PAVLabeledSection@@@std@@@2@XZ 1001e570 f i PlugInUtilities:LabeledSectionGroup.obj
 0001:0001d5a0       ?_Destroy@?$vector@PAVLabeledSection@@V?$allocator@PAVLabeledSection@@@std@@@std@@IAEXPAPAVLabeledSection@@0@Z 1001e5a0 f i PlugInUtilities:LabeledSectionGroup.obj
 0001:0001d5b0       ??H?$_Vector_iterator@PAVLabeledSection@@V?$allocator@PAVLabeledSection@@@std@@@std@@QBE?AV01@H@Z 1001e5b0 f i PlugInUtilities:LabeledSectionGroup.obj
 0001:0001d5f0       ?contains@?$QMap@PAVLabeledSection@@H@@QBE_NABQAVLabeledSection@@@Z 1001e5f0 f i PlugInUtilities:LabeledSectionGroup.obj
 0001:0001d610       ?detach_helper@?$QMap@PAVLabeledSection@@H@@AAEXXZ 1001e610 f i PlugInUtilities:LabeledSectionGroup.obj
 0001:0001d690       ??1?$QList@PAVLabeledSection@@@@QAE@XZ 1001e690 f i PlugInUtilities:LabeledSectionGroup.obj
 0001:0001d6b0       ??$fill@PAPAVLabeledSection@@PAV1@@std@@YAXPAPAVLabeledSection@@0ABQAV1@@Z 1001e6b0 f i PlugInUtilities:LabeledSectionGroup.obj
 0001:0001d6d0       ??$_Unchecked_move_backward@PAPAVLabeledSection@@PAPAV1@@stdext@@YAPAPAVLabeledSection@@PAPAV1@00@Z 1001e6d0 f i PlugInUtilities:LabeledSectionGroup.obj
 0001:0001d700       ?detach_helper@?$QList@PAVLabeledSection@@@@AAEXXZ 1001e700 f i PlugInUtilities:LabeledSectionGroup.obj
 0001:0001d720       ??$_Checked_base@V?$_Vector_const_iterator@PAVLabeledSection@@V?$allocator@PAVLabeledSection@@@std@@@std@@@std@@YAPBQAVLabeledSection@@AAV?$_Vector_const_iterator@PAVLabeledSection@@V?$allocator@PAVLabeledSection@@@std@@@0@@Z 1001e720 f i PlugInUtilities:LabeledSectionGroup.obj
 0001:0001d730       ??$unchecked_fill_n@PAPAVLabeledSection@@IPAV1@@stdext@@YAXPAPAVLabeledSection@@IABQAV1@@Z 1001e730 f i PlugInUtilities:LabeledSectionGroup.obj
 0001:0001d760       ??$_Uninit_move@PAPAVLabeledSection@@PAPAV1@V?$allocator@PAVLabeledSection@@@std@@U_Undefined_move_tag@3@@std@@YAPAPAVLabeledSection@@PAPAV1@00AAV?$allocator@PAVLabeledSection@@@0@U_Undefined_move_tag@0@U_Range_checked_iterator_tag@0@@Z 1001e760 f i PlugInUtilities:LabeledSectionGroup.obj
 0001:0001d790       ??0LabeledSectionGroup@@QAE@PAVQWidget@@@Z 1001e790 f   PlugInUtilities:LabeledSectionGroup.obj
 0001:0001d8e0       ??_EQVBoxLayout@@UAEPAXI@Z 1001e8e0 f i PlugInUtilities:LabeledSectionGroup.obj
 0001:0001d8e0       ??_GQVBoxLayout@@UAEPAXI@Z 1001e8e0 f i PlugInUtilities:LabeledSectionGroup.obj
 0001:0001d900       ??_ELabeledSectionGroup@@W7AEPAXI@Z 1001e900 f i PlugInUtilities:LabeledSectionGroup.obj
 0001:0001d910       ??_EQVBoxLayout@@W7AEPAXI@Z 1001e910 f i PlugInUtilities:LabeledSectionGroup.obj
 0001:0001d920       ??1LabeledSectionGroup@@UAE@XZ 1001e920 f   PlugInUtilities:LabeledSectionGroup.obj
 0001:0001d990       ?hasSection@LabeledSectionGroup@@QBE_NPAVLabeledSection@@@Z 1001e990 f   PlugInUtilities:LabeledSectionGroup.obj
 0001:0001d9c0       ?expandSection@LabeledSectionGroup@@QAEXPAVLabeledSection@@@Z 1001e9c0 f   PlugInUtilities:LabeledSectionGroup.obj
 0001:0001da00       ?collapseSection@LabeledSectionGroup@@QAEXPAVLabeledSection@@@Z 1001ea00 f   PlugInUtilities:LabeledSectionGroup.obj
 0001:0001da40       ??0?$vector@PAVLabeledSection@@V?$allocator@PAVLabeledSection@@@std@@@std@@QAE@XZ 1001ea40 f i PlugInUtilities:LabeledSectionGroup.obj
 0001:0001da50       ?detach@?$QMap@PAVLabeledSection@@H@@QAEXXZ 1001ea50 f i PlugInUtilities:LabeledSectionGroup.obj
 0001:0001da70       ?_Tidy@?$vector@PAVLabeledSection@@V?$allocator@PAVLabeledSection@@@std@@@std@@IAEXXZ 1001ea70 f i PlugInUtilities:LabeledSectionGroup.obj
 0001:0001daa0       ?remove@?$QMap@PAVLabeledSection@@H@@QAEHABQAVLabeledSection@@@Z 1001eaa0 f i PlugInUtilities:LabeledSectionGroup.obj
 0001:0001db50       ?find@?$QMap@PAVLabeledSection@@H@@QAE?AViterator@1@ABQAVLabeledSection@@@Z 1001eb50 f i PlugInUtilities:LabeledSectionGroup.obj
 0001:0001db80       ?insert@?$QMap@PAVLabeledSection@@H@@QAE?AViterator@1@ABQAVLabeledSection@@ABH@Z 1001eb80 f i PlugInUtilities:LabeledSectionGroup.obj
 0001:0001dc00       ??0?$QList@PAVLabeledSection@@@@QAE@ABV0@@Z 1001ec00 f i PlugInUtilities:LabeledSectionGroup.obj
 0001:0001dc50       ?detach@?$QList@PAVLabeledSection@@@@QAEXXZ 1001ec50 f i PlugInUtilities:LabeledSectionGroup.obj
 0001:0001dc80       ?append@?$QList@PAVLabeledSection@@@@QAEXABQAVLabeledSection@@@Z 1001ec80 f i PlugInUtilities:LabeledSectionGroup.obj
 0001:0001dcd0       ??$unchecked_uninitialized_copy@V?$_Vector_const_iterator@PAVLabeledSection@@V?$allocator@PAVLabeledSection@@@std@@@std@@PAPAVLabeledSection@@V?$allocator@PAVLabeledSection@@@2@@stdext@@YAPAPAVLabeledSection@@V?$_Vector_const_iterator@PAVLabeledSection@@V?$allocator@PAVLabeledSection@@@std@@@std@@0PAPAV1@AAV?$allocator@PAVLabeledSection@@@3@@Z 1001ecd0 f i PlugInUtilities:LabeledSectionGroup.obj
 0001:0001dd00       ??$_Uninit_fill_n@PAPAVLabeledSection@@IPAV1@V?$allocator@PAVLabeledSection@@@std@@@std@@YAXPAPAVLabeledSection@@IABQAV1@AAV?$allocator@PAVLabeledSection@@@0@U_Scalar_ptr_iterator_tag@0@U_Range_checked_iterator_tag@0@@Z 1001ed00 f i PlugInUtilities:LabeledSectionGroup.obj
 0001:0001dd30       ??$_Unchecked_uninitialized_move@PAPAVLabeledSection@@PAPAV1@V?$allocator@PAVLabeledSection@@@std@@@stdext@@YAPAPAVLabeledSection@@PAPAV1@00AAV?$allocator@PAVLabeledSection@@@std@@@Z 1001ed30 f i PlugInUtilities:LabeledSectionGroup.obj
 0001:0001dd60       ??_ELabeledSectionGroup@@UAEPAXI@Z 1001ed60 f i PlugInUtilities:LabeledSectionGroup.obj
 0001:0001dd60       ??_GLabeledSectionGroup@@UAEPAXI@Z 1001ed60 f i PlugInUtilities:LabeledSectionGroup.obj
 0001:0001dd80       ?addSection@LabeledSectionGroup@@QAEXPAVLabeledSection@@HV?$QFlags@W4AlignmentFlag@Qt@@@@@Z 1001ed80 f   PlugInUtilities:LabeledSectionGroup.obj
 0001:0001de80       ?removeSection@LabeledSectionGroup@@QAEXPAVLabeledSection@@@Z 1001ee80 f   PlugInUtilities:LabeledSectionGroup.obj
 0001:0001df60       ?end@?$QMap@PAVLabeledSection@@H@@QAE?AViterator@1@XZ 1001ef60 f i PlugInUtilities:LabeledSectionGroup.obj
 0001:0001df80       ??1?$vector@PAVLabeledSection@@V?$allocator@PAVLabeledSection@@@std@@@std@@QAE@XZ 1001ef80 f i PlugInUtilities:LabeledSectionGroup.obj
 0001:0001dfb0       ?uniqueKeys@?$QMap@PAVLabeledSection@@H@@QBE?AV?$QList@PAVLabeledSection@@@@XZ 1001efb0 f i PlugInUtilities:LabeledSectionGroup.obj
 0001:0001e070       ??A?$QList@PAVLabeledSection@@@@QAEAAPAVLabeledSection@@H@Z 1001f070 f i PlugInUtilities:LabeledSectionGroup.obj
 0001:0001e0f0       ??$_Ucopy@V?$_Vector_const_iterator@PAVLabeledSection@@V?$allocator@PAVLabeledSection@@@std@@@std@@@?$vector@PAVLabeledSection@@V?$allocator@PAVLabeledSection@@@std@@@std@@IAEPAPAVLabeledSection@@V?$_Vector_const_iterator@PAVLabeledSection@@V?$allocator@PAVLabeledSection@@@std@@@1@0PAPAV2@@Z 1001f0f0 f i PlugInUtilities:LabeledSectionGroup.obj
 0001:0001e130       ??$unchecked_uninitialized_fill_n@PAPAVLabeledSection@@IPAV1@V?$allocator@PAVLabeledSection@@@std@@@stdext@@YAXPAPAVLabeledSection@@IABQAV1@AAV?$allocator@PAVLabeledSection@@@std@@@Z 1001f130 f i PlugInUtilities:LabeledSectionGroup.obj
 0001:0001e160       ??$_Umove@PAPAVLabeledSection@@@?$vector@PAVLabeledSection@@V?$allocator@PAVLabeledSection@@@std@@@std@@IAEPAPAVLabeledSection@@PAPAV2@00@Z 1001f160 f i PlugInUtilities:LabeledSectionGroup.obj
 0001:0001e1a0       ?clear@LabeledSectionGroup@@QAEXXZ 1001f1a0 f   PlugInUtilities:LabeledSectionGroup.obj
 0001:0001e290       ?enableSectionStretch@LabeledSectionGroup@@AAEXXZ 1001f290 f   PlugInUtilities:LabeledSectionGroup.obj
 0001:0001e320       ??0?$vector@PAVLabeledSection@@V?$allocator@PAVLabeledSection@@@std@@@std@@QAE@ABV01@@Z 1001f320 f i PlugInUtilities:LabeledSectionGroup.obj
 0001:0001e3c0       ?_Ufill@?$vector@PAVLabeledSection@@V?$allocator@PAVLabeledSection@@@std@@@std@@IAEPAPAVLabeledSection@@PAPAV3@IABQAV3@@Z 1001f3c0 f i PlugInUtilities:LabeledSectionGroup.obj
 0001:0001e3f0       ?_Insert_n@?$vector@PAVLabeledSection@@V?$allocator@PAVLabeledSection@@@std@@@std@@IAEXV?$_Vector_iterator@PAVLabeledSection@@V?$allocator@PAVLabeledSection@@@std@@@2@IABQAVLabeledSection@@@Z 1001f3f0 f i PlugInUtilities:LabeledSectionGroup.obj
 0001:0001e5b0       ?insert@?$vector@PAVLabeledSection@@V?$allocator@PAVLabeledSection@@@std@@@std@@QAE?AV?$_Vector_iterator@PAVLabeledSection@@V?$allocator@PAVLabeledSection@@@std@@@2@V32@ABQAVLabeledSection@@@Z 1001f5b0 f i PlugInUtilities:LabeledSectionGroup.obj
 0001:0001e640       ?push_back@?$vector@PAVLabeledSection@@V?$allocator@PAVLabeledSection@@@std@@@std@@QAEXABQAVLabeledSection@@@Z 1001f640 f i PlugInUtilities:LabeledSectionGroup.obj
 0001:0001e6b0       ?getSections@LabeledSectionGroup@@QBE?AV?$vector@PAVLabeledSection@@V?$allocator@PAVLabeledSection@@@std@@@std@@XZ 1001f6b0 f   PlugInUtilities:LabeledSectionGroup.obj
 0001:0001e730       ??1LabeledSection@@UAE@XZ  1001f730 f   PlugInUtilities:LabeledSection.obj
 0001:0001e750       ?getText@LabeledSection@@QBE?AVQString@@XZ 1001f750 f   PlugInUtilities:LabeledSection.obj
 0001:0001e7b0       ?setText@LabeledSection@@QAEXABVQString@@@Z 1001f7b0 f   PlugInUtilities:LabeledSection.obj
 0001:0001e7e0       ?getSectionWidget@LabeledSection@@QBEPAVQWidget@@XZ 1001f7e0 f   PlugInUtilities:LabeledSection.obj
 0001:0001e7f0       ?collapse@LabeledSection@@QAEXXZ 1001f7f0 f   PlugInUtilities:LabeledSection.obj
 0001:0001e800       ?expand@LabeledSection@@QAEXXZ 1001f800 f   PlugInUtilities:LabeledSection.obj
 0001:0001e810       ?mousePressEvent@LabeledSection@@MAEXPAVQMouseEvent@@@Z 1001f810 f   PlugInUtilities:LabeledSection.obj
 0001:0001e8b0       ?mouseDoubleClickEvent@LabeledSection@@MAEXPAVQMouseEvent@@@Z 1001f8b0 f   PlugInUtilities:LabeledSection.obj
 0001:0001e960       ??0?$QFlags@W4StateFlag@QStyle@@@@QAE@W4StateFlag@QStyle@@@Z 1001f960 f i PlugInUtilities:LabeledSection.obj
 0001:0001e970       ??4?$QFlags@W4StateFlag@QStyle@@@@QAEAAV0@ABV0@@Z 1001f970 f i PlugInUtilities:LabeledSection.obj
 0001:0001e980       ??_5?$QFlags@W4StateFlag@QStyle@@@@QAEAAV0@W4StateFlag@QStyle@@@Z 1001f980 f i PlugInUtilities:LabeledSection.obj
 0001:0001e990       ??_ELabeledSection@@W7AEPAXI@Z 1001f990 f i PlugInUtilities:LabeledSection.obj
 0001:0001e9a0       ??_GLabeledSection@@UAEPAXI@Z 1001f9a0 f i PlugInUtilities:LabeledSection.obj
 0001:0001e9a0       ??_ELabeledSection@@UAEPAXI@Z 1001f9a0 f i PlugInUtilities:LabeledSection.obj
 0001:0001e9d0       ?updateIndicator@LabeledSection@@AAEXXZ 1001f9d0 f   PlugInUtilities:LabeledSection.obj
 0001:0001eb60       ?setSectionWidget@LabeledSection@@QAEXPAVQWidget@@@Z 1001fb60 f   PlugInUtilities:LabeledSection.obj
 0001:0001ec10       ?eventFilter@LabeledSection@@MAE_NPAVQObject@@PAVQEvent@@@Z 1001fc10 f   PlugInUtilities:LabeledSection.obj
 0001:0001ec60       ?initialize@LabeledSection@@AAEXABVQString@@PAVQWidget@@@Z 1001fc60 f   PlugInUtilities:LabeledSection.obj
 0001:0001eeb0       ??_EQFrame@@UAEPAXI@Z      1001feb0 f i PlugInUtilities:LabeledSection.obj
 0001:0001eeb0       ??_GQFrame@@UAEPAXI@Z      1001feb0 f i PlugInUtilities:LabeledSection.obj
 0001:0001eed0       ??_EQFrame@@W7AEPAXI@Z     1001fed0 f i PlugInUtilities:LabeledSection.obj
 0001:0001eee0       ??0LabeledSection@@QAE@PAVQWidget@@@Z 1001fee0 f   PlugInUtilities:LabeledSection.obj
 0001:0001ef90       ??0LabeledSection@@QAE@ABVQString@@PAVQWidget@@@Z 1001ff90 f   PlugInUtilities:LabeledSection.obj
 0001:0001f010       ??0LabeledSection@@QAE@PAVQWidget@@ABVQString@@0@Z 10020010 f   PlugInUtilities:LabeledSection.obj
 0001:0001f090       ?metaObject@LabeledSectionGroup@@UBEPBUQMetaObject@@XZ 10020090 f   PlugInUtilities:moc_LabeledSectionGroup.obj
 0001:0001f0a0       ?qt_metacast@LabeledSectionGroup@@UAEPAXPBD@Z 100200a0 f   PlugInUtilities:moc_LabeledSectionGroup.obj
 0001:0001f100       ?sectionCollapsed@LabeledSectionGroup@@IAEXPAVLabeledSection@@@Z 10020100 f   PlugInUtilities:moc_LabeledSectionGroup.obj
 0001:0001f130       ?sectionExpanded@LabeledSectionGroup@@IAEXPAVLabeledSection@@@Z 10020130 f   PlugInUtilities:moc_LabeledSectionGroup.obj
 0001:0001f160       ?qt_metacall@LabeledSectionGroup@@UAEHW4Call@QMetaObject@@HPAPAX@Z 10020160 f   PlugInUtilities:moc_LabeledSectionGroup.obj
 0001:0001f200       ??$toString@_N@TypeConverter@@YAPBDXZ 10020200 f   PlugInUtilities:TypeConverter.obj
 0001:0001f210       ??$toString@V?$vector@PA_NV?$allocator@PA_N@std@@@std@@@TypeConverter@@YAPBDXZ 10020210 f   PlugInUtilities:TypeConverter.obj
 0001:0001f220       ??$toString@V?$vector@_NV?$allocator@_N@std@@@std@@@TypeConverter@@YAPBDXZ 10020220 f   PlugInUtilities:TypeConverter.obj
 0001:0001f230       ??$toString@D@TypeConverter@@YAPBDXZ 10020230 f   PlugInUtilities:TypeConverter.obj
 0001:0001f240       ??$toString@V?$vector@PADV?$allocator@PAD@std@@@std@@@TypeConverter@@YAPBDXZ 10020240 f   PlugInUtilities:TypeConverter.obj
 0001:0001f250       ??$toString@V?$vector@DV?$allocator@D@std@@@std@@@TypeConverter@@YAPBDXZ 10020250 f   PlugInUtilities:TypeConverter.obj
 0001:0001f260       ??$toString@E@TypeConverter@@YAPBDXZ 10020260 f   PlugInUtilities:TypeConverter.obj
 0001:0001f270       ??$toString@V?$vector@PAEV?$allocator@PAE@std@@@std@@@TypeConverter@@YAPBDXZ 10020270 f   PlugInUtilities:TypeConverter.obj
 0001:0001f280       ??$toString@V?$vector@EV?$allocator@E@std@@@std@@@TypeConverter@@YAPBDXZ 10020280 f   PlugInUtilities:TypeConverter.obj
 0001:0001f290       ??$toString@C@TypeConverter@@YAPBDXZ 10020290 f   PlugInUtilities:TypeConverter.obj
 0001:0001f2a0       ??$toString@V?$vector@PACV?$allocator@PAC@std@@@std@@@TypeConverter@@YAPBDXZ 100202a0 f   PlugInUtilities:TypeConverter.obj
 0001:0001f2b0       ??$toString@V?$vector@CV?$allocator@C@std@@@std@@@TypeConverter@@YAPBDXZ 100202b0 f   PlugInUtilities:TypeConverter.obj
 0001:0001f2c0       ??$toString@F@TypeConverter@@YAPBDXZ 100202c0 f   PlugInUtilities:TypeConverter.obj
 0001:0001f2d0       ??$toString@V?$vector@PAFV?$allocator@PAF@std@@@std@@@TypeConverter@@YAPBDXZ 100202d0 f   PlugInUtilities:TypeConverter.obj
 0001:0001f2e0       ??$toString@V?$vector@FV?$allocator@F@std@@@std@@@TypeConverter@@YAPBDXZ 100202e0 f   PlugInUtilities:TypeConverter.obj
 0001:0001f2f0       ??$toString@G@TypeConverter@@YAPBDXZ 100202f0 f   PlugInUtilities:TypeConverter.obj
 0001:0001f300       ??$toString@V?$vector@PAGV?$allocator@PAG@std@@@std@@@TypeConverter@@YAPBDXZ 10020300 f   PlugInUtilities:TypeConverter.obj
 0001:0001f310       ??$toString@V?$vector@GV?$allocator@G@std@@@std@@@TypeConverter@@YAPBDXZ 10020310 f   PlugInUtilities:TypeConverter.obj
 0001:0001f320       ??$toString@H@TypeConverter@@YAPBDXZ 10020320 f   PlugInUtilities:TypeConverter.obj
 0001:0001f330       ??$toString@V?$vector@PAHV?$allocator@PAH@std@@@std@@@TypeConverter@@YAPBDXZ 10020330 f   PlugInUtilities:TypeConverter.obj
 0001:0001f340       ??$toString@V?$vector@HV?$allocator@H@std@@@std@@@TypeConverter@@YAPBDXZ 10020340 f   PlugInUtilities:TypeConverter.obj
 0001:0001f350       ??$toString@I@TypeConverter@@YAPBDXZ 10020350 f   PlugInUtilities:TypeConverter.obj
 0001:0001f360       ??$toString@V?$vector@PAIV?$allocator@PAI@std@@@std@@@TypeConverter@@YAPBDXZ 10020360 f   PlugInUtilities:TypeConverter.obj
 0001:0001f370       ??$toString@V?$vector@IV?$allocator@I@std@@@std@@@TypeConverter@@YAPBDXZ 10020370 f   PlugInUtilities:TypeConverter.obj
 0001:0001f380       ??$toString@J@TypeConverter@@YAPBDXZ 10020380 f   PlugInUtilities:TypeConverter.obj
 0001:0001f390       ??$toString@V?$vector@PAJV?$allocator@PAJ@std@@@std@@@TypeConverter@@YAPBDXZ 10020390 f   PlugInUtilities:TypeConverter.obj
 0001:0001f3a0       ??$toString@V?$vector@JV?$allocator@J@std@@@std@@@TypeConverter@@YAPBDXZ 100203a0 f   PlugInUtilities:TypeConverter.obj
 0001:0001f3b0       ??$toString@K@TypeConverter@@YAPBDXZ 100203b0 f   PlugInUtilities:TypeConverter.obj
 0001:0001f3c0       ??$toString@V?$vector@PAKV?$allocator@PAK@std@@@std@@@TypeConverter@@YAPBDXZ 100203c0 f   PlugInUtilities:TypeConverter.obj
 0001:0001f3d0       ??$toString@V?$vector@KV?$allocator@K@std@@@std@@@TypeConverter@@YAPBDXZ 100203d0 f   PlugInUtilities:TypeConverter.obj
 0001:0001f3e0       ??$toString@_J@TypeConverter@@YAPBDXZ 100203e0 f   PlugInUtilities:TypeConverter.obj
 0001:0001f3f0       ??$toString@V?$vector@PA_JV?$allocator@PA_J@std@@@std@@@TypeConverter@@YAPBDXZ 100203f0 f   PlugInUtilities:TypeConverter.obj
 0001:0001f400       ??$toString@V?$vector@_JV?$allocator@_J@std@@@std@@@TypeConverter@@YAPBDXZ 10020400 f   PlugInUtilities:TypeConverter.obj
 0001:0001f410       ??$toString@_K@TypeConverter@@YAPBDXZ 10020410 f   PlugInUtilities:TypeConverter.obj
 0001:0001f420       ??$toString@V?$vector@PA_KV?$allocator@PA_K@std@@@std@@@TypeConverter@@YAPBDXZ 10020420 f   PlugInUtilities:TypeConverter.obj
 0001:0001f430       ??$toString@V?$vector@_KV?$allocator@_K@std@@@std@@@TypeConverter@@YAPBDXZ 10020430 f   PlugInUtilities:TypeConverter.obj
 0001:0001f440       ??$toString@M@TypeConverter@@YAPBDXZ 10020440 f   PlugInUtilities:TypeConverter.obj
 0001:0001f450       ??$toString@V?$vector@PAMV?$allocator@PAM@std@@@std@@@TypeConverter@@YAPBDXZ 10020450 f   PlugInUtilities:TypeConverter.obj
 0001:0001f460       ??$toString@V?$vector@MV?$allocator@M@std@@@std@@@TypeConverter@@YAPBDXZ 10020460 f   PlugInUtilities:TypeConverter.obj
 0001:0001f470       ??$toString@N@TypeConverter@@YAPBDXZ 10020470 f   PlugInUtilities:TypeConverter.obj
 0001:0001f480       ??$toString@V?$vector@PANV?$allocator@PAN@std@@@std@@@TypeConverter@@YAPBDXZ 10020480 f   PlugInUtilities:TypeConverter.obj
 0001:0001f490       ??$toString@V?$vector@NV?$allocator@N@std@@@std@@@TypeConverter@@YAPBDXZ 10020490 f   PlugInUtilities:TypeConverter.obj
 0001:0001f4a0       ??$toString@X@TypeConverter@@YAPBDXZ 100204a0 f   PlugInUtilities:TypeConverter.obj
 0001:0001f4b0       ??$toString@V?$vector@PAXV?$allocator@PAX@std@@@std@@@TypeConverter@@YAPBDXZ 100204b0 f   PlugInUtilities:TypeConverter.obj
 0001:0001f4c0       ??$toString@V?$vector@XV?$allocator@X@std@@@std@@@TypeConverter@@YAPBDXZ 100204c0 f   PlugInUtilities:TypeConverter.obj
 0001:0001f4d0       ??$toString@V?$basic_string@DU?$char_traits@D@std@@V?$allocator@D@2@@std@@@TypeConverter@@YAPBDXZ 100204d0 f   PlugInUtilities:TypeConverter.obj
 0001:0001f4e0       ??$toString@V?$vector@PAV?$basic_string@DU?$char_traits@D@std@@V?$allocator@D@2@@std@@V?$allocator@PAV?$basic_string@DU?$char_traits@D@std@@V?$allocator@D@2@@std@@@2@@std@@@TypeConverter@@YAPBDXZ 100204e0 f   PlugInUtilities:TypeConverter.obj
 0001:0001f4f0       ??$toString@V?$vector@V?$basic_string@DU?$char_traits@D@std@@V?$allocator@D@2@@std@@V?$allocator@V?$basic_string@DU?$char_traits@D@std@@V?$allocator@D@2@@std@@@2@@std@@@TypeConverter@@YAPBDXZ 100204f0 f   PlugInUtilities:TypeConverter.obj
 0001:0001f500       ??$toString@V?$EnumWrapper@W4AnimationCycleEnum@@@@@TypeConverter@@YAPBDXZ 10020500 f   PlugInUtilities:TypeConverter.obj
 0001:0001f510       ??$toString@V?$vector@PAV?$EnumWrapper@W4AnimationCycleEnum@@@@V?$allocator@PAV?$EnumWrapper@W4AnimationCycleEnum@@@@@std@@@std@@@TypeConverter@@YAPBDXZ 10020510 f   PlugInUtilities:TypeConverter.obj
 0001:0001f520       ??$toString@V?$vector@V?$EnumWrapper@W4AnimationCycleEnum@@@@V?$allocator@V?$EnumWrapper@W4AnimationCycleEnum@@@@@std@@@std@@@TypeConverter@@YAPBDXZ 10020520 f   PlugInUtilities:TypeConverter.obj
 0001:0001f530       ??$toString@V?$EnumWrapper@W4AnimationStateEnum@@@@@TypeConverter@@YAPBDXZ 10020530 f   PlugInUtilities:TypeConverter.obj
 0001:0001f540       ??$toString@V?$vector@PAV?$EnumWrapper@W4AnimationStateEnum@@@@V?$allocator@PAV?$EnumWrapper@W4AnimationStateEnum@@@@@std@@@std@@@TypeConverter@@YAPBDXZ 10020540 f   PlugInUtilities:TypeConverter.obj
 0001:0001f550       ??$toString@V?$vector@V?$EnumWrapper@W4AnimationStateEnum@@@@V?$allocator@V?$EnumWrapper@W4AnimationStateEnum@@@@@std@@@std@@@TypeConverter@@YAPBDXZ 10020550 f   PlugInUtilities:TypeConverter.obj
 0001:0001f560       ??$toString@V?$EnumWrapper@W4ArcRegionEnum@@@@@TypeConverter@@YAPBDXZ 10020560 f   PlugInUtilities:TypeConverter.obj
 0001:0001f570       ??$toString@V?$vector@PAV?$EnumWrapper@W4ArcRegionEnum@@@@V?$allocator@PAV?$EnumWrapper@W4ArcRegionEnum@@@@@std@@@std@@@TypeConverter@@YAPBDXZ 10020570 f   PlugInUtilities:TypeConverter.obj
 0001:0001f580       ??$toString@V?$vector@V?$EnumWrapper@W4ArcRegionEnum@@@@V?$allocator@V?$EnumWrapper@W4ArcRegionEnum@@@@@std@@@std@@@TypeConverter@@YAPBDXZ 10020580 f   PlugInUtilities:TypeConverter.obj
 0001:0001f590       ??$toString@V?$EnumWrapper@W4ComplexComponentEnum@@@@@TypeConverter@@YAPBDXZ 10020590 f   PlugInUtilities:TypeConverter.obj
 0001:0001f5a0       ??$toString@V?$vector@PAV?$EnumWrapper@W4ComplexComponentEnum@@@@V?$allocator@PAV?$EnumWrapper@W4ComplexComponentEnum@@@@@std@@@std@@@TypeConverter@@YAPBDXZ 100205a0 f   PlugInUtilities:TypeConverter.obj
 0001:0001f5b0       ??$toString@V?$vector@V?$EnumWrapper@W4ComplexComponentEnum@@@@V?$allocator@V?$EnumWrapper@W4ComplexComponentEnum@@@@@std@@@std@@@TypeConverter@@YAPBDXZ 100205b0 f   PlugInUtilities:TypeConverter.obj
 0001:0001f5c0       ??$toString@V?$EnumWrapper@W4DataOriginEnum@@@@@TypeConverter@@YAPBDXZ 100205c0 f   PlugInUtilities:TypeConverter.obj
 0001:0001f5d0       ??$toString@V?$vector@PAV?$EnumWrapper@W4DataOriginEnum@@@@V?$allocator@PAV?$EnumWrapper@W4DataOriginEnum@@@@@std@@@std@@@TypeConverter@@YAPBDXZ 100205d0 f   PlugInUtilities:TypeConverter.obj
 0001:0001f5e0       ??$toString@V?$vector@V?$EnumWrapper@W4DataOriginEnum@@@@V?$allocator@V?$EnumWrapper@W4DataOriginEnum@@@@@std@@@std@@@TypeConverter@@YAPBDXZ 100205e0 f   PlugInUtilities:TypeConverter.obj
 0001:0001f5f0       ??$toString@V?$EnumWrapper@W4DisplayModeEnum@@@@@TypeConverter@@YAPBDXZ 100205f0 f   PlugInUtilities:TypeConverter.obj
 0001:0001f600       ??$toString@V?$vector@PAV?$EnumWrapper@W4DisplayModeEnum@@@@V?$allocator@PAV?$EnumWrapper@W4DisplayModeEnum@@@@@std@@@std@@@TypeConverter@@YAPBDXZ 10020600 f   PlugInUtilities:TypeConverter.obj
 0001:0001f610       ??$toString@V?$vector@V?$EnumWrapper@W4DisplayModeEnum@@@@V?$allocator@V?$EnumWrapper@W4DisplayModeEnum@@@@@std@@@std@@@TypeConverter@@YAPBDXZ 10020610 f   PlugInUtilities:TypeConverter.obj
 0001:0001f620       ??$toString@V?$EnumWrapper@W4DistanceUnitsEnum@@@@@TypeConverter@@YAPBDXZ 10020620 f   PlugInUtilities:TypeConverter.obj
 0001:0001f630       ??$toString@V?$vector@PAV?$EnumWrapper@W4DistanceUnitsEnum@@@@V?$allocator@PAV?$EnumWrapper@W4DistanceUnitsEnum@@@@@std@@@std@@@TypeConverter@@YAPBDXZ 10020630 f   PlugInUtilities:TypeConverter.obj
 0001:0001f640       ??$toString@V?$vector@V?$EnumWrapper@W4DistanceUnitsEnum@@@@V?$allocator@V?$EnumWrapper@W4DistanceUnitsEnum@@@@@std@@@std@@@TypeConverter@@YAPBDXZ 10020640 f   PlugInUtilities:TypeConverter.obj
 0001:0001f650       ??$toString@V?$EnumWrapper@W4DmsFormatTypeEnum@@@@@TypeConverter@@YAPBDXZ 10020650 f   PlugInUtilities:TypeConverter.obj
 0001:0001f660       ??$toString@V?$vector@PAV?$EnumWrapper@W4DmsFormatTypeEnum@@@@V?$allocator@PAV?$EnumWrapper@W4DmsFormatTypeEnum@@@@@std@@@std@@@TypeConverter@@YAPBDXZ 10020660 f   PlugInUtilities:TypeConverter.obj
 0001:0001f670       ??$toString@V?$vector@V?$EnumWrapper@W4DmsFormatTypeEnum@@@@V?$allocator@V?$EnumWrapper@W4DmsFormatTypeEnum@@@@@std@@@std@@@TypeConverter@@YAPBDXZ 10020670 f   PlugInUtilities:TypeConverter.obj
 0001:0001f680       ??$toString@V?$EnumWrapper@W4EncodingTypeEnum@@@@@TypeConverter@@YAPBDXZ 10020680 f   PlugInUtilities:TypeConverter.obj
 0001:0001f690       ??$toString@V?$vector@PAV?$EnumWrapper@W4EncodingTypeEnum@@@@V?$allocator@PAV?$EnumWrapper@W4EncodingTypeEnum@@@@@std@@@std@@@TypeConverter@@YAPBDXZ 10020690 f   PlugInUtilities:TypeConverter.obj
 0001:0001f6a0       ??$toString@V?$vector@V?$EnumWrapper@W4EncodingTypeEnum@@@@V?$allocator@V?$EnumWrapper@W4EncodingTypeEnum@@@@@std@@@std@@@TypeConverter@@YAPBDXZ 100206a0 f   PlugInUtilities:TypeConverter.obj
 0001:0001f6b0       ??$toString@V?$EnumWrapper@W4EndianTypeEnum@@@@@TypeConverter@@YAPBDXZ 100206b0 f   PlugInUtilities:TypeConverter.obj
 0001:0001f6c0       ??$toString@V?$vector@PAV?$EnumWrapper@W4EndianTypeEnum@@@@V?$allocator@PAV?$EnumWrapper@W4EndianTypeEnum@@@@@std@@@std@@@TypeConverter@@YAPBDXZ 100206c0 f   PlugInUtilities:TypeConverter.obj
 0001:0001f6d0       ??$toString@V?$vector@V?$EnumWrapper@W4EndianTypeEnum@@@@V?$allocator@V?$EnumWrapper@W4EndianTypeEnum@@@@@std@@@std@@@TypeConverter@@YAPBDXZ 100206d0 f   PlugInUtilities:TypeConverter.obj
 0001:0001f6e0       ??$toString@V?$EnumWrapper@W4FillStyleEnum@@@@@TypeConverter@@YAPBDXZ 100206e0 f   PlugInUtilities:TypeConverter.obj
 0001:0001f6f0       ??$toString@V?$vector@PAV?$EnumWrapper@W4FillStyleEnum@@@@V?$allocator@PAV?$EnumWrapper@W4FillStyleEnum@@@@@std@@@std@@@TypeConverter@@YAPBDXZ 100206f0 f   PlugInUtilities:TypeConverter.obj
 0001:0001f700       ??$toString@V?$vector@V?$EnumWrapper@W4FillStyleEnum@@@@V?$allocator@V?$EnumWrapper@W4FillStyleEnum@@@@@std@@@std@@@TypeConverter@@YAPBDXZ 10020700 f   PlugInUtilities:TypeConverter.obj
 0001:0001f710       ??$toString@V?$EnumWrapper@W4InsetZoomModeEnum@@@@@TypeConverter@@YAPBDXZ 10020710 f   PlugInUtilities:TypeConverter.obj
 0001:0001f720       ??$toString@V?$vector@PAV?$EnumWrapper@W4InsetZoomModeEnum@@@@V?$allocator@PAV?$EnumWrapper@W4InsetZoomModeEnum@@@@@std@@@std@@@TypeConverter@@YAPBDXZ 10020720 f   PlugInUtilities:TypeConverter.obj
 0001:0001f730       ??$toString@V?$vector@V?$EnumWrapper@W4InsetZoomModeEnum@@@@V?$allocator@V?$EnumWrapper@W4InsetZoomModeEnum@@@@@std@@@std@@@TypeConverter@@YAPBDXZ 10020730 f   PlugInUtilities:TypeConverter.obj
 0001:0001f740       ??$toString@V?$EnumWrapper@W4InterleaveFormatTypeEnum@@@@@TypeConverter@@YAPBDXZ 10020740 f   PlugInUtilities:TypeConverter.obj
 0001:0001f750       ??$toString@V?$vector@PAV?$EnumWrapper@W4InterleaveFormatTypeEnum@@@@V?$allocator@PAV?$EnumWrapper@W4InterleaveFormatTypeEnum@@@@@std@@@std@@@TypeConverter@@YAPBDXZ 10020750 f   PlugInUtilities:TypeConverter.obj
 0001:0001f760       ??$toString@V?$vector@V?$EnumWrapper@W4InterleaveFormatTypeEnum@@@@V?$allocator@V?$EnumWrapper@W4InterleaveFormatTypeEnum@@@@@std@@@std@@@TypeConverter@@YAPBDXZ 10020760 f   PlugInUtilities:TypeConverter.obj
 0001:0001f770       ??$toString@V?$EnumWrapper@W4GcpSymbolEnum@@@@@TypeConverter@@YAPBDXZ 10020770 f   PlugInUtilities:TypeConverter.obj
 0001:0001f780       ??$toString@V?$vector@PAV?$EnumWrapper@W4GcpSymbolEnum@@@@V?$allocator@PAV?$EnumWrapper@W4GcpSymbolEnum@@@@@std@@@std@@@TypeConverter@@YAPBDXZ 10020780 f   PlugInUtilities:TypeConverter.obj
 0001:0001f790       ??$toString@V?$vector@V?$EnumWrapper@W4GcpSymbolEnum@@@@V?$allocator@V?$EnumWrapper@W4GcpSymbolEnum@@@@@std@@@std@@@TypeConverter@@YAPBDXZ 10020790 f   PlugInUtilities:TypeConverter.obj
 0001:0001f7a0       ??$toString@V?$EnumWrapper@W4GeocoordTypeEnum@@@@@TypeConverter@@YAPBDXZ 100207a0 f   PlugInUtilities:TypeConverter.obj
 0001:0001f7b0       ??$toString@V?$vector@PAV?$EnumWrapper@W4GeocoordTypeEnum@@@@V?$allocator@PAV?$EnumWrapper@W4GeocoordTypeEnum@@@@@std@@@std@@@TypeConverter@@YAPBDXZ 100207b0 f   PlugInUtilities:TypeConverter.obj
 0001:0001f7c0       ??$toString@V?$vector@V?$EnumWrapper@W4GeocoordTypeEnum@@@@V?$allocator@V?$EnumWrapper@W4GeocoordTypeEnum@@@@@std@@@std@@@TypeConverter@@YAPBDXZ 100207c0 f   PlugInUtilities:TypeConverter.obj
 0001:0001f7d0       ??$toString@V?$EnumWrapper@W4GraphicObjectTypeEnum@@@@@TypeConverter@@YAPBDXZ 100207d0 f   PlugInUtilities:TypeConverter.obj
 0001:0001f7e0       ??$toString@V?$vector@PAV?$EnumWrapper@W4GraphicObjectTypeEnum@@@@V?$allocator@PAV?$EnumWrapper@W4GraphicObjectTypeEnum@@@@@std@@@std@@@TypeConverter@@YAPBDXZ 100207e0 f   PlugInUtilities:TypeConverter.obj
 0001:0001f7f0       ??$toString@V?$vector@V?$EnumWrapper@W4GraphicObjectTypeEnum@@@@V?$allocator@V?$EnumWrapper@W4GraphicObjectTypeEnum@@@@@std@@@std@@@TypeConverter@@YAPBDXZ 100207f0 f   PlugInUtilities:TypeConverter.obj
 0001:0001f800       ??$toString@V?$EnumWrapper@W4LatLonStyleEnum@@@@@TypeConverter@@YAPBDXZ 10020800 f   PlugInUtilities:TypeConverter.obj
 0001:0001f810       ??$toString@V?$vector@PAV?$EnumWrapper@W4LatLonStyleEnum@@@@V?$allocator@PAV?$EnumWrapper@W4LatLonStyleEnum@@@@@std@@@std@@@TypeConverter@@YAPBDXZ 10020810 f   PlugInUtilities:TypeConverter.obj
 0001:0001f820       ??$toString@V?$vector@V?$EnumWrapper@W4LatLonStyleEnum@@@@V?$allocator@V?$EnumWrapper@W4LatLonStyleEnum@@@@@std@@@std@@@TypeConverter@@YAPBDXZ 10020820 f   PlugInUtilities:TypeConverter.obj
 0001:0001f830       ??$toString@V?$EnumWrapper@W4LayerTypeEnum@@@@@TypeConverter@@YAPBDXZ 10020830 f   PlugInUtilities:TypeConverter.obj
 0001:0001f840       ??$toString@V?$vector@PAV?$EnumWrapper@W4LayerTypeEnum@@@@V?$allocator@PAV?$EnumWrapper@W4LayerTypeEnum@@@@@std@@@std@@@TypeConverter@@YAPBDXZ 10020840 f   PlugInUtilities:TypeConverter.obj
 0001:0001f850       ??$toString@V?$vector@V?$EnumWrapper@W4LayerTypeEnum@@@@V?$allocator@V?$EnumWrapper@W4LayerTypeEnum@@@@@std@@@std@@@TypeConverter@@YAPBDXZ 10020850 f   PlugInUtilities:TypeConverter.obj
 0001:0001f860       ??$toString@V?$EnumWrapper@W4LineStyleEnum@@@@@TypeConverter@@YAPBDXZ 10020860 f   PlugInUtilities:TypeConverter.obj
 0001:0001f870       ??$toString@V?$vector@PAV?$EnumWrapper@W4LineStyleEnum@@@@V?$allocator@PAV?$EnumWrapper@W4LineStyleEnum@@@@@std@@@std@@@TypeConverter@@YAPBDXZ 10020870 f   PlugInUtilities:TypeConverter.obj
 0001:0001f880       ??$toString@V?$vector@V?$EnumWrapper@W4LineStyleEnum@@@@V?$allocator@V?$EnumWrapper@W4LineStyleEnum@@@@@std@@@std@@@TypeConverter@@YAPBDXZ 10020880 f   PlugInUtilities:TypeConverter.obj
 0001:0001f890       ??$toString@V?$EnumWrapper@W4PanLimitTypeEnum@@@@@TypeConverter@@YAPBDXZ 10020890 f   PlugInUtilities:TypeConverter.obj
 0001:0001f8a0       ??$toString@V?$vector@PAV?$EnumWrapper@W4PanLimitTypeEnum@@@@V?$allocator@PAV?$EnumWrapper@W4PanLimitTypeEnum@@@@@std@@@std@@@TypeConverter@@YAPBDXZ 100208a0 f   PlugInUtilities:TypeConverter.obj
 0001:0001f8b0       ??$toString@V?$vector@V?$EnumWrapper@W4PanLimitTypeEnum@@@@V?$allocator@V?$EnumWrapper@W4PanLimitTypeEnum@@@@@std@@@std@@@TypeConverter@@YAPBDXZ 100208b0 f   PlugInUtilities:TypeConverter.obj
 0001:0001f8c0       ??$toString@V?$EnumWrapper@W4PassAreaEnum@@@@@TypeConverter@@YAPBDXZ 100208c0 f   PlugInUtilities:TypeConverter.obj
 0001:0001f8d0       ??$toString@V?$vector@PAV?$EnumWrapper@W4PassAreaEnum@@@@V?$allocator@PAV?$EnumWrapper@W4PassAreaEnum@@@@@std@@@std@@@TypeConverter@@YAPBDXZ 100208d0 f   PlugInUtilities:TypeConverter.obj
 0001:0001f8e0       ??$toString@V?$vector@V?$EnumWrapper@W4PassAreaEnum@@@@V?$allocator@V?$EnumWrapper@W4PassAreaEnum@@@@@std@@@std@@@TypeConverter@@YAPBDXZ 100208e0 f   PlugInUtilities:TypeConverter.obj
 0001:0001f8f0       ??$toString@V?$EnumWrapper@W4PlotObjectTypeEnum@@@@@TypeConverter@@YAPBDXZ 100208f0 f   PlugInUtilities:TypeConverter.obj
 0001:0001f900       ??$toString@V?$vector@PAV?$EnumWrapper@W4PlotObjectTypeEnum@@@@V?$allocator@PAV?$EnumWrapper@W4PlotObjectTypeEnum@@@@@std@@@std@@@TypeConverter@@YAPBDXZ 10020900 f   PlugInUtilities:TypeConverter.obj
 0001:0001f910       ??$toString@V?$vector@V?$EnumWrapper@W4PlotObjectTypeEnum@@@@V?$allocator@V?$EnumWrapper@W4PlotObjectTypeEnum@@@@@std@@@std@@@TypeConverter@@YAPBDXZ 10020910 f   PlugInUtilities:TypeConverter.obj
 0001:0001f920       ??$toString@V?$EnumWrapper@W4PointSymbolTypeEnum@Point@@@@@TypeConverter@@YAPBDXZ 10020920 f   PlugInUtilities:TypeConverter.obj
 0001:0001f930       ??$toString@V?$vector@PAV?$EnumWrapper@W4PointSymbolTypeEnum@Point@@@@V?$allocator@PAV?$EnumWrapper@W4PointSymbolTypeEnum@Point@@@@@std@@@std@@@TypeConverter@@YAPBDXZ 10020930 f   PlugInUtilities:TypeConverter.obj
 0001:0001f940       ??$toString@V?$vector@V?$EnumWrapper@W4PointSymbolTypeEnum@Point@@@@V?$allocator@V?$EnumWrapper@W4PointSymbolTypeEnum@Point@@@@@std@@@std@@@TypeConverter@@YAPBDXZ 10020940 f   PlugInUtilities:TypeConverter.obj
 0001:0001f950       ??$toString@V?$EnumWrapper@W4PositionTypeEnum@@@@@TypeConverter@@YAPBDXZ 10020950 f   PlugInUtilities:TypeConverter.obj
 0001:0001f960       ??$toString@V?$vector@PAV?$EnumWrapper@W4PositionTypeEnum@@@@V?$allocator@PAV?$EnumWrapper@W4PositionTypeEnum@@@@@std@@@std@@@TypeConverter@@YAPBDXZ 10020960 f   PlugInUtilities:TypeConverter.obj
 0001:0001f970       ??$toString@V?$vector@V?$EnumWrapper@W4PositionTypeEnum@@@@V?$allocator@V?$EnumWrapper@W4PositionTypeEnum@@@@@std@@@std@@@TypeConverter@@YAPBDXZ 10020970 f   PlugInUtilities:TypeConverter.obj
 0001:0001f980       ??$toString@V?$EnumWrapper@W4ProcessingLocationEnum@@@@@TypeConverter@@YAPBDXZ 10020980 f   PlugInUtilities:TypeConverter.obj
 0001:0001f990       ??$toString@V?$vector@PAV?$EnumWrapper@W4ProcessingLocationEnum@@@@V?$allocator@PAV?$EnumWrapper@W4ProcessingLocationEnum@@@@@std@@@std@@@TypeConverter@@YAPBDXZ 10020990 f   PlugInUtilities:TypeConverter.obj
 0001:0001f9a0       ??$toString@V?$vector@V?$EnumWrapper@W4ProcessingLocationEnum@@@@V?$allocator@V?$EnumWrapper@W4ProcessingLocationEnum@@@@@std@@@std@@@TypeConverter@@YAPBDXZ 100209a0 f   PlugInUtilities:TypeConverter.obj
 0001:0001f9b0       ??$toString@V?$EnumWrapper@W4SessionSaveTypeEnum@@@@@TypeConverter@@YAPBDXZ 100209b0 f   PlugInUtilities:TypeConverter.obj
 0001:0001f9c0       ??$toString@V?$vector@PAV?$EnumWrapper@W4SessionSaveTypeEnum@@@@V?$allocator@PAV?$EnumWrapper@W4SessionSaveTypeEnum@@@@@std@@@std@@@TypeConverter@@YAPBDXZ 100209c0 f   PlugInUtilities:TypeConverter.obj
 0001:0001f9d0       ??$toString@V?$vector@V?$EnumWrapper@W4SessionSaveTypeEnum@@@@V?$allocator@V?$EnumWrapper@W4SessionSaveTypeEnum@@@@@std@@@std@@@TypeConverter@@YAPBDXZ 100209d0 f   PlugInUtilities:TypeConverter.obj
 0001:0001f9e0       ??$toString@V?$EnumWrapper@W4RasterChannelTypeEnum@@@@@TypeConverter@@YAPBDXZ 100209e0 f   PlugInUtilities:TypeConverter.obj
 0001:0001f9f0       ??$toString@V?$vector@PAV?$EnumWrapper@W4RasterChannelTypeEnum@@@@V?$allocator@PAV?$EnumWrapper@W4RasterChannelTypeEnum@@@@@std@@@std@@@TypeConverter@@YAPBDXZ 100209f0 f   PlugInUtilities:TypeConverter.obj
 0001:0001fa00       ??$toString@V?$vector@V?$EnumWrapper@W4RasterChannelTypeEnum@@@@V?$allocator@V?$EnumWrapper@W4RasterChannelTypeEnum@@@@@std@@@std@@@TypeConverter@@YAPBDXZ 10020a00 f   PlugInUtilities:TypeConverter.obj
 0001:0001fa10       ??$toString@V?$EnumWrapper@W4ReleaseTypeEnum@@@@@TypeConverter@@YAPBDXZ 10020a10 f   PlugInUtilities:TypeConverter.obj
 0001:0001fa20       ??$toString@V?$vector@PAV?$EnumWrapper@W4ReleaseTypeEnum@@@@V?$allocator@PAV?$EnumWrapper@W4ReleaseTypeEnum@@@@@std@@@std@@@TypeConverter@@YAPBDXZ 10020a20 f   PlugInUtilities:TypeConverter.obj
 0001:0001fa30       ??$toString@V?$vector@V?$EnumWrapper@W4ReleaseTypeEnum@@@@V?$allocator@V?$EnumWrapper@W4ReleaseTypeEnum@@@@@std@@@std@@@TypeConverter@@YAPBDXZ 10020a30 f   PlugInUtilities:TypeConverter.obj
 0001:0001fa40       ??$toString@V?$EnumWrapper@W4StretchTypeEnum@@@@@TypeConverter@@YAPBDXZ 10020a40 f   PlugInUtilities:TypeConverter.obj
 0001:0001fa50       ??$toString@V?$vector@PAV?$EnumWrapper@W4StretchTypeEnum@@@@V?$allocator@PAV?$EnumWrapper@W4StretchTypeEnum@@@@@std@@@std@@@TypeConverter@@YAPBDXZ 10020a50 f   PlugInUtilities:TypeConverter.obj
 0001:0001fa60       ??$toString@V?$vector@V?$EnumWrapper@W4StretchTypeEnum@@@@V?$allocator@V?$EnumWrapper@W4StretchTypeEnum@@@@@std@@@std@@@TypeConverter@@YAPBDXZ 10020a60 f   PlugInUtilities:TypeConverter.obj
 0001:0001fa70       ??$toString@V?$EnumWrapper@W4SymbolTypeEnum@@@@@TypeConverter@@YAPBDXZ 10020a70 f   PlugInUtilities:TypeConverter.obj
 0001:0001fa80       ??$toString@V?$vector@PAV?$EnumWrapper@W4SymbolTypeEnum@@@@V?$allocator@PAV?$EnumWrapper@W4SymbolTypeEnum@@@@@std@@@std@@@TypeConverter@@YAPBDXZ 10020a80 f   PlugInUtilities:TypeConverter.obj
 0001:0001fa90       ??$toString@V?$vector@V?$EnumWrapper@W4SymbolTypeEnum@@@@V?$allocator@V?$EnumWrapper@W4SymbolTypeEnum@@@@@std@@@std@@@TypeConverter@@YAPBDXZ 10020a90 f   PlugInUtilities:TypeConverter.obj
 0001:0001faa0       ??$toString@V?$EnumWrapper@W4RegionUnitsEnum@@@@@TypeConverter@@YAPBDXZ 10020aa0 f   PlugInUtilities:TypeConverter.obj
 0001:0001fab0       ??$toString@V?$vector@PAV?$EnumWrapper@W4RegionUnitsEnum@@@@V?$allocator@PAV?$EnumWrapper@W4RegionUnitsEnum@@@@@std@@@std@@@TypeConverter@@YAPBDXZ 10020ab0 f   PlugInUtilities:TypeConverter.obj
 0001:0001fac0       ??$toString@V?$vector@V?$EnumWrapper@W4RegionUnitsEnum@@@@V?$allocator@V?$EnumWrapper@W4RegionUnitsEnum@@@@@std@@@std@@@TypeConverter@@YAPBDXZ 10020ac0 f   PlugInUtilities:TypeConverter.obj
 0001:0001fad0       ??$toString@V?$EnumWrapper@W4UnitSystemEnum@@@@@TypeConverter@@YAPBDXZ 10020ad0 f   PlugInUtilities:TypeConverter.obj
 0001:0001fae0       ??$toString@V?$vector@PAV?$EnumWrapper@W4UnitSystemEnum@@@@V?$allocator@PAV?$EnumWrapper@W4UnitSystemEnum@@@@@std@@@std@@@TypeConverter@@YAPBDXZ 10020ae0 f   PlugInUtilities:TypeConverter.obj
 0001:0001faf0       ??$toString@V?$vector@V?$EnumWrapper@W4UnitSystemEnum@@@@V?$allocator@V?$EnumWrapper@W4UnitSystemEnum@@@@@std@@@std@@@TypeConverter@@YAPBDXZ 10020af0 f   PlugInUtilities:TypeConverter.obj
 0001:0001fb00       ??$toString@V?$EnumWrapper@W4UnitTypeEnum@@@@@TypeConverter@@YAPBDXZ 10020b00 f   PlugInUtilities:TypeConverter.obj
 0001:0001fb10       ??$toString@V?$vector@PAV?$EnumWrapper@W4UnitTypeEnum@@@@V?$allocator@PAV?$EnumWrapper@W4UnitTypeEnum@@@@@std@@@std@@@TypeConverter@@YAPBDXZ 10020b10 f   PlugInUtilities:TypeConverter.obj
 0001:0001fb20       ??$toString@V?$vector@V?$EnumWrapper@W4UnitTypeEnum@@@@V?$allocator@V?$EnumWrapper@W4UnitTypeEnum@@@@@std@@@std@@@TypeConverter@@YAPBDXZ 10020b20 f   PlugInUtilities:TypeConverter.obj
 0001:0001fb30       ??$toString@V?$EnumWrapper@W4WindowSizeTypeEnum@@@@@TypeConverter@@YAPBDXZ 10020b30 f   PlugInUtilities:TypeConverter.obj
 0001:0001fb40       ??$toString@V?$vector@PAV?$EnumWrapper@W4WindowSizeTypeEnum@@@@V?$allocator@PAV?$EnumWrapper@W4WindowSizeTypeEnum@@@@@std@@@std@@@TypeConverter@@YAPBDXZ 10020b40 f   PlugInUtilities:TypeConverter.obj
 0001:0001fb50       ??$toString@V?$vector@V?$EnumWrapper@W4WindowSizeTypeEnum@@@@V?$allocator@V?$EnumWrapper@W4WindowSizeTypeEnum@@@@@std@@@std@@@TypeConverter@@YAPBDXZ 10020b50 f   PlugInUtilities:TypeConverter.obj
 0001:0001fb60       ??$toString@V?$EnumWrapper@W4WindowTypeEnum@@@@@TypeConverter@@YAPBDXZ 10020b60 f   PlugInUtilities:TypeConverter.obj
 0001:0001fb70       ??$toString@V?$vector@PAV?$EnumWrapper@W4WindowTypeEnum@@@@V?$allocator@PAV?$EnumWrapper@W4WindowTypeEnum@@@@@std@@@std@@@TypeConverter@@YAPBDXZ 10020b70 f   PlugInUtilities:TypeConverter.obj
 0001:0001fb80       ??$toString@V?$vector@V?$EnumWrapper@W4WindowTypeEnum@@@@V?$allocator@V?$EnumWrapper@W4WindowTypeEnum@@@@@std@@@std@@@TypeConverter@@YAPBDXZ 10020b80 f   PlugInUtilities:TypeConverter.obj
 0001:0001fb90       ??$toString@VAebInstallTransaction@@@TypeConverter@@YAPBDXZ 10020b90 f   PlugInUtilities:TypeConverter.obj
 0001:0001fba0       ??$toString@V?$vector@PAVAebInstallTransaction@@V?$allocator@PAVAebInstallTransaction@@@std@@@std@@@TypeConverter@@YAPBDXZ 10020ba0 f   PlugInUtilities:TypeConverter.obj
 0001:0001fbb0       ??$toString@V?$vector@VAebInstallTransaction@@V?$allocator@VAebInstallTransaction@@@std@@@std@@@TypeConverter@@YAPBDXZ 10020bb0 f   PlugInUtilities:TypeConverter.obj
 0001:0001fbc0       ??$toString@PAVAebInstallTransaction@@@TypeConverter@@YAPBDXZ 10020bc0 f   PlugInUtilities:TypeConverter.obj
 0001:0001fbd0       ??$toString@VApplicationWindow@@@TypeConverter@@YAPBDXZ 10020bd0 f   PlugInUtilities:TypeConverter.obj
 0001:0001fbe0       ??$toString@V?$vector@PAVApplicationWindow@@V?$allocator@PAVApplicationWindow@@@std@@@std@@@TypeConverter@@YAPBDXZ 10020be0 f   PlugInUtilities:TypeConverter.obj
 0001:0001fbf0       ??$toString@V?$vector@VApplicationWindow@@V?$allocator@VApplicationWindow@@@std@@@std@@@TypeConverter@@YAPBDXZ 10020bf0 f   PlugInUtilities:TypeConverter.obj
 0001:0001fc00       ??$toString@PAVApplicationWindow@@@TypeConverter@@YAPBDXZ 10020c00 f   PlugInUtilities:TypeConverter.obj
 0001:0001fc10       ??$toString@VAnimation@@@TypeConverter@@YAPBDXZ 10020c10 f   PlugInUtilities:TypeConverter.obj
 0001:0001fc20       ??$toString@V?$vector@PAVAnimation@@V?$allocator@PAVAnimation@@@std@@@std@@@TypeConverter@@YAPBDXZ 10020c20 f   PlugInUtilities:TypeConverter.obj
 0001:0001fc30       ??$toString@V?$vector@VAnimation@@V?$allocator@VAnimation@@@std@@@std@@@TypeConverter@@YAPBDXZ 10020c30 f   PlugInUtilities:TypeConverter.obj
 0001:0001fc40       ??$toString@PAVAnimation@@@TypeConverter@@YAPBDXZ 10020c40 f   PlugInUtilities:TypeConverter.obj
 0001:0001fc50       ??$toString@VAnimationController@@@TypeConverter@@YAPBDXZ 10020c50 f   PlugInUtilities:TypeConverter.obj
 0001:0001fc60       ??$toString@V?$vector@PAVAnimationController@@V?$allocator@PAVAnimationController@@@std@@@std@@@TypeConverter@@YAPBDXZ 10020c60 f   PlugInUtilities:TypeConverter.obj
 0001:0001fc70       ??$toString@V?$vector@VAnimationController@@V?$allocator@VAnimationController@@@std@@@std@@@TypeConverter@@YAPBDXZ 10020c70 f   PlugInUtilities:TypeConverter.obj
 0001:0001fc80       ??$toString@PAVAnimationController@@@TypeConverter@@YAPBDXZ 10020c80 f   PlugInUtilities:TypeConverter.obj
 0001:0001fc90       ??$toString@VAnnotationElement@@@TypeConverter@@YAPBDXZ 10020c90 f   PlugInUtilities:TypeConverter.obj
 0001:0001fca0       ??$toString@V?$vector@PAVAnnotationElement@@V?$allocator@PAVAnnotationElement@@@std@@@std@@@TypeConverter@@YAPBDXZ 10020ca0 f   PlugInUtilities:TypeConverter.obj
 0001:0001fcb0       ??$toString@V?$vector@VAnnotationElement@@V?$allocator@VAnnotationElement@@@std@@@std@@@TypeConverter@@YAPBDXZ 10020cb0 f   PlugInUtilities:TypeConverter.obj
 0001:0001fcc0       ??$toString@PAVAnnotationElement@@@TypeConverter@@YAPBDXZ 10020cc0 f   PlugInUtilities:TypeConverter.obj
 0001:0001fcd0       ??$toString@VAnnotationLayer@@@TypeConverter@@YAPBDXZ 10020cd0 f   PlugInUtilities:TypeConverter.obj
 0001:0001fce0       ??$toString@V?$vector@PAVAnnotationLayer@@V?$allocator@PAVAnnotationLayer@@@std@@@std@@@TypeConverter@@YAPBDXZ 10020ce0 f   PlugInUtilities:TypeConverter.obj
 0001:0001fcf0       ??$toString@V?$vector@VAnnotationLayer@@V?$allocator@VAnnotationLayer@@@std@@@std@@@TypeConverter@@YAPBDXZ 10020cf0 f   PlugInUtilities:TypeConverter.obj
 0001:0001fd00       ??$toString@PAVAnnotationLayer@@@TypeConverter@@YAPBDXZ 10020d00 f   PlugInUtilities:TypeConverter.obj
 0001:0001fd10       ??$toString@VAny@@@TypeConverter@@YAPBDXZ 10020d10 f   PlugInUtilities:TypeConverter.obj
 0001:0001fd20       ??$toString@V?$vector@PAVAny@@V?$allocator@PAVAny@@@std@@@std@@@TypeConverter@@YAPBDXZ 10020d20 f   PlugInUtilities:TypeConverter.obj
 0001:0001fd30       ??$toString@V?$vector@VAny@@V?$allocator@VAny@@@std@@@std@@@TypeConverter@@YAPBDXZ 10020d30 f   PlugInUtilities:TypeConverter.obj
 0001:0001fd40       ??$toString@PAVAny@@@TypeConverter@@YAPBDXZ 10020d40 f   PlugInUtilities:TypeConverter.obj
 0001:0001fd50       ??$toString@VAoiElement@@@TypeConverter@@YAPBDXZ 10020d50 f   PlugInUtilities:TypeConverter.obj
 0001:0001fd60       ??$toString@V?$vector@PAVAoiElement@@V?$allocator@PAVAoiElement@@@std@@@std@@@TypeConverter@@YAPBDXZ 10020d60 f   PlugInUtilities:TypeConverter.obj
 0001:0001fd70       ??$toString@V?$vector@VAoiElement@@V?$allocator@VAoiElement@@@std@@@std@@@TypeConverter@@YAPBDXZ 10020d70 f   PlugInUtilities:TypeConverter.obj
 0001:0001fd80       ??$toString@PAVAoiElement@@@TypeConverter@@YAPBDXZ 10020d80 f   PlugInUtilities:TypeConverter.obj
 0001:0001fd90       ??$toString@VAoiLayer@@@TypeConverter@@YAPBDXZ 10020d90 f   PlugInUtilities:TypeConverter.obj
 0001:0001fda0       ??$toString@V?$vector@PAVAoiLayer@@V?$allocator@PAVAoiLayer@@@std@@@std@@@TypeConverter@@YAPBDXZ 10020da0 f   PlugInUtilities:TypeConverter.obj
 0001:0001fdb0       ??$toString@V?$vector@VAoiLayer@@V?$allocator@VAoiLayer@@@std@@@std@@@TypeConverter@@YAPBDXZ 10020db0 f   PlugInUtilities:TypeConverter.obj
 0001:0001fdc0       ??$toString@PAVAoiLayer@@@TypeConverter@@YAPBDXZ 10020dc0 f   PlugInUtilities:TypeConverter.obj
 0001:0001fdd0       ??$toString@VBitMask@@@TypeConverter@@YAPBDXZ 10020dd0 f   PlugInUtilities:TypeConverter.obj
 0001:0001fde0       ??$toString@V?$vector@PAVBitMask@@V?$allocator@PAVBitMask@@@std@@@std@@@TypeConverter@@YAPBDXZ 10020de0 f   PlugInUtilities:TypeConverter.obj
 0001:0001fdf0       ??$toString@V?$vector@VBitMask@@V?$allocator@VBitMask@@@std@@@std@@@TypeConverter@@YAPBDXZ 10020df0 f   PlugInUtilities:TypeConverter.obj
 0001:0001fe00       ??$toString@PAVBitMask@@@TypeConverter@@YAPBDXZ 10020e00 f   PlugInUtilities:TypeConverter.obj
 0001:0001fe10       ??$toString@VCartesianPlot@@@TypeConverter@@YAPBDXZ 10020e10 f   PlugInUtilities:TypeConverter.obj
 0001:0001fe20       ??$toString@V?$vector@PAVCartesianPlot@@V?$allocator@PAVCartesianPlot@@@std@@@std@@@TypeConverter@@YAPBDXZ 10020e20 f   PlugInUtilities:TypeConverter.obj
 0001:0001fe30       ??$toString@V?$vector@VCartesianPlot@@V?$allocator@VCartesianPlot@@@std@@@std@@@TypeConverter@@YAPBDXZ 10020e30 f   PlugInUtilities:TypeConverter.obj
 0001:0001fe40       ??$toString@PAVCartesianPlot@@@TypeConverter@@YAPBDXZ 10020e40 f   PlugInUtilities:TypeConverter.obj
 0001:0001fe50       ??$toString@VClassification@@@TypeConverter@@YAPBDXZ 10020e50 f   PlugInUtilities:TypeConverter.obj
 0001:0001fe60       ??$toString@V?$vector@PAVClassification@@V?$allocator@PAVClassification@@@std@@@std@@@TypeConverter@@YAPBDXZ 10020e60 f   PlugInUtilities:TypeConverter.obj
 0001:0001fe70       ??$toString@V?$vector@VClassification@@V?$allocator@VClassification@@@std@@@std@@@TypeConverter@@YAPBDXZ 10020e70 f   PlugInUtilities:TypeConverter.obj
 0001:0001fe80       ??$toString@PAVClassification@@@TypeConverter@@YAPBDXZ 10020e80 f   PlugInUtilities:TypeConverter.obj
 0001:0001fe90       ??$toString@VClassificationLayer@@@TypeConverter@@YAPBDXZ 10020e90 f   PlugInUtilities:TypeConverter.obj
 0001:0001fea0       ??$toString@V?$vector@PAVClassificationLayer@@V?$allocator@PAVClassificationLayer@@@std@@@std@@@TypeConverter@@YAPBDXZ 10020ea0 f   PlugInUtilities:TypeConverter.obj
 0001:0001feb0       ??$toString@V?$vector@VClassificationLayer@@V?$allocator@VClassificationLayer@@@std@@@std@@@TypeConverter@@YAPBDXZ 10020eb0 f   PlugInUtilities:TypeConverter.obj
 0001:0001fec0       ??$toString@PAVClassificationLayer@@@TypeConverter@@YAPBDXZ 10020ec0 f   PlugInUtilities:TypeConverter.obj
 0001:0001fed0       ??$toString@VColorType@@@TypeConverter@@YAPBDXZ 10020ed0 f   PlugInUtilities:TypeConverter.obj
 0001:0001fee0       ??$toString@V?$vector@PAVColorType@@V?$allocator@PAVColorType@@@std@@@std@@@TypeConverter@@YAPBDXZ 10020ee0 f   PlugInUtilities:TypeConverter.obj
 0001:0001fef0       ??$toString@V?$vector@VColorType@@V?$allocator@VColorType@@@std@@@std@@@TypeConverter@@YAPBDXZ 10020ef0 f   PlugInUtilities:TypeConverter.obj
 0001:0001ff00       ??$toString@PAVColorType@@@TypeConverter@@YAPBDXZ 10020f00 f   PlugInUtilities:TypeConverter.obj
 0001:0001ff10       ??$toString@VDataDescriptor@@@TypeConverter@@YAPBDXZ 10020f10 f   PlugInUtilities:TypeConverter.obj
 0001:0001ff20       ??$toString@V?$vector@PAVDataDescriptor@@V?$allocator@PAVDataDescriptor@@@std@@@std@@@TypeConverter@@YAPBDXZ 10020f20 f   PlugInUtilities:TypeConverter.obj
 0001:0001ff30       ??$toString@V?$vector@VDataDescriptor@@V?$allocator@VDataDescriptor@@@std@@@std@@@TypeConverter@@YAPBDXZ 10020f30 f   PlugInUtilities:TypeConverter.obj
 0001:0001ff40       ??$toString@PAVDataDescriptor@@@TypeConverter@@YAPBDXZ 10020f40 f   PlugInUtilities:TypeConverter.obj
 0001:0001ff50       ??$toString@VDataElement@@@TypeConverter@@YAPBDXZ 10020f50 f   PlugInUtilities:TypeConverter.obj
 0001:0001ff60       ??$toString@V?$vector@PAVDataElement@@V?$allocator@PAVDataElement@@@std@@@std@@@TypeConverter@@YAPBDXZ 10020f60 f   PlugInUtilities:TypeConverter.obj
 0001:0001ff70       ??$toString@V?$vector@VDataElement@@V?$allocator@VDataElement@@@std@@@std@@@TypeConverter@@YAPBDXZ 10020f70 f   PlugInUtilities:TypeConverter.obj
 0001:0001ff80       ??$toString@PAVDataElement@@@TypeConverter@@YAPBDXZ 10020f80 f   PlugInUtilities:TypeConverter.obj
 0001:0001ff90       ??$toString@VDataElementGroup@@@TypeConverter@@YAPBDXZ 10020f90 f   PlugInUtilities:TypeConverter.obj
 0001:0001ffa0       ??$toString@V?$vector@PAVDataElementGroup@@V?$allocator@PAVDataElementGroup@@@std@@@std@@@TypeConverter@@YAPBDXZ 10020fa0 f   PlugInUtilities:TypeConverter.obj
 0001:0001ffb0       ??$toString@V?$vector@VDataElementGroup@@V?$allocator@VDataElementGroup@@@std@@@std@@@TypeConverter@@YAPBDXZ 10020fb0 f   PlugInUtilities:TypeConverter.obj
 0001:0001ffc0       ??$toString@PAVDataElementGroup@@@TypeConverter@@YAPBDXZ 10020fc0 f   PlugInUtilities:TypeConverter.obj
 0001:0001ffd0       ??$toString@VDataRequest@@@TypeConverter@@YAPBDXZ 10020fd0 f   PlugInUtilities:TypeConverter.obj
 0001:0001ffe0       ??$toString@V?$vector@PAVDataRequest@@V?$allocator@PAVDataRequest@@@std@@@std@@@TypeConverter@@YAPBDXZ 10020fe0 f   PlugInUtilities:TypeConverter.obj
 0001:0001fff0       ??$toString@V?$vector@VDataRequest@@V?$allocator@VDataRequest@@@std@@@std@@@TypeConverter@@YAPBDXZ 10020ff0 f   PlugInUtilities:TypeConverter.obj
 0001:00020000       ??$toString@PAVDataRequest@@@TypeConverter@@YAPBDXZ 10021000 f   PlugInUtilities:TypeConverter.obj
 0001:00020010       ??$toString@VDataVariantAnyData@@@TypeConverter@@YAPBDXZ 10021010 f   PlugInUtilities:TypeConverter.obj
 0001:00020020       ??$toString@V?$vector@PAVDataVariantAnyData@@V?$allocator@PAVDataVariantAnyData@@@std@@@std@@@TypeConverter@@YAPBDXZ 10021020 f   PlugInUtilities:TypeConverter.obj
 0001:00020030       ??$toString@V?$vector@VDataVariantAnyData@@V?$allocator@VDataVariantAnyData@@@std@@@std@@@TypeConverter@@YAPBDXZ 10021030 f   PlugInUtilities:TypeConverter.obj
 0001:00020040       ??$toString@PAVDataVariantAnyData@@@TypeConverter@@YAPBDXZ 10021040 f   PlugInUtilities:TypeConverter.obj
 0001:00020050       ??$toString@VDateTime@@@TypeConverter@@YAPBDXZ 10021050 f   PlugInUtilities:TypeConverter.obj
 0001:00020060       ??$toString@V?$vector@PAVDateTime@@V?$allocator@PAVDateTime@@@std@@@std@@@TypeConverter@@YAPBDXZ 10021060 f   PlugInUtilities:TypeConverter.obj
 0001:00020070       ??$toString@V?$vector@VDateTime@@V?$allocator@VDateTime@@@std@@@std@@@TypeConverter@@YAPBDXZ 10021070 f   PlugInUtilities:TypeConverter.obj
 0001:00020080       ??$toString@PAVDateTime@@@TypeConverter@@YAPBDXZ 10021080 f   PlugInUtilities:TypeConverter.obj
 0001:00020090       ??$toString@VDimensionDescriptor@@@TypeConverter@@YAPBDXZ 10021090 f   PlugInUtilities:TypeConverter.obj
 0001:000200a0       ??$toString@V?$vector@PAVDimensionDescriptor@@V?$allocator@PAVDimensionDescriptor@@@std@@@std@@@TypeConverter@@YAPBDXZ 100210a0 f   PlugInUtilities:TypeConverter.obj
 0001:000200b0       ??$toString@V?$vector@VDimensionDescriptor@@V?$allocator@VDimensionDescriptor@@@std@@@std@@@TypeConverter@@YAPBDXZ 100210b0 f   PlugInUtilities:TypeConverter.obj
 0001:000200c0       ??$toString@PAVDimensionDescriptor@@@TypeConverter@@YAPBDXZ 100210c0 f   PlugInUtilities:TypeConverter.obj
 0001:000200d0       ??$toString@VDynamicObject@@@TypeConverter@@YAPBDXZ 100210d0 f   PlugInUtilities:TypeConverter.obj
 0001:000200e0       ??$toString@V?$vector@PAVDynamicObject@@V?$allocator@PAVDynamicObject@@@std@@@std@@@TypeConverter@@YAPBDXZ 100210e0 f   PlugInUtilities:TypeConverter.obj
 0001:000200f0       ??$toString@V?$vector@VDynamicObject@@V?$allocator@VDynamicObject@@@std@@@std@@@TypeConverter@@YAPBDXZ 100210f0 f   PlugInUtilities:TypeConverter.obj
 0001:00020100       ??$toString@PAVDynamicObject@@@TypeConverter@@YAPBDXZ 10021100 f   PlugInUtilities:TypeConverter.obj
 0001:00020110       ??$toString@VExecutableAgent@@@TypeConverter@@YAPBDXZ 10021110 f   PlugInUtilities:TypeConverter.obj
 0001:00020120       ??$toString@V?$vector@PAVExecutableAgent@@V?$allocator@PAVExecutableAgent@@@std@@@std@@@TypeConverter@@YAPBDXZ 10021120 f   PlugInUtilities:TypeConverter.obj
 0001:00020130       ??$toString@V?$vector@VExecutableAgent@@V?$allocator@VExecutableAgent@@@std@@@std@@@TypeConverter@@YAPBDXZ 10021130 f   PlugInUtilities:TypeConverter.obj
 0001:00020140       ??$toString@PAVExecutableAgent@@@TypeConverter@@YAPBDXZ 10021140 f   PlugInUtilities:TypeConverter.obj
 0001:00020150       ??$toString@VExportAgent@@@TypeConverter@@YAPBDXZ 10021150 f   PlugInUtilities:TypeConverter.obj
 0001:00020160       ??$toString@V?$vector@PAVExportAgent@@V?$allocator@PAVExportAgent@@@std@@@std@@@TypeConverter@@YAPBDXZ 10021160 f   PlugInUtilities:TypeConverter.obj
 0001:00020170       ??$toString@V?$vector@VExportAgent@@V?$allocator@VExportAgent@@@std@@@std@@@TypeConverter@@YAPBDXZ 10021170 f   PlugInUtilities:TypeConverter.obj
 0001:00020180       ??$toString@PAVExportAgent@@@TypeConverter@@YAPBDXZ 10021180 f   PlugInUtilities:TypeConverter.obj
 0001:00020190       ??$toString@VFileDescriptor@@@TypeConverter@@YAPBDXZ 10021190 f   PlugInUtilities:TypeConverter.obj
 0001:000201a0       ??$toString@V?$vector@PAVFileDescriptor@@V?$allocator@PAVFileDescriptor@@@std@@@std@@@TypeConverter@@YAPBDXZ 100211a0 f   PlugInUtilities:TypeConverter.obj
 0001:000201b0       ??$toString@V?$vector@VFileDescriptor@@V?$allocator@VFileDescriptor@@@std@@@std@@@TypeConverter@@YAPBDXZ 100211b0 f   PlugInUtilities:TypeConverter.obj
 0001:000201c0       ??$toString@PAVFileDescriptor@@@TypeConverter@@YAPBDXZ 100211c0 f   PlugInUtilities:TypeConverter.obj
 0001:000201d0       ??$toString@VFileFinder@@@TypeConverter@@YAPBDXZ 100211d0 f   PlugInUtilities:TypeConverter.obj
 0001:000201e0       ??$toString@V?$vector@PAVFileFinder@@V?$allocator@PAVFileFinder@@@std@@@std@@@TypeConverter@@YAPBDXZ 100211e0 f   PlugInUtilities:TypeConverter.obj
 0001:000201f0       ??$toString@V?$vector@VFileFinder@@V?$allocator@VFileFinder@@@std@@@std@@@TypeConverter@@YAPBDXZ 100211f0 f   PlugInUtilities:TypeConverter.obj
 0001:00020200       ??$toString@PAVFileFinder@@@TypeConverter@@YAPBDXZ 10021200 f   PlugInUtilities:TypeConverter.obj
 0001:00020210       ??$toString@VFilename@@@TypeConverter@@YAPBDXZ 10021210 f   PlugInUtilities:TypeConverter.obj
 0001:00020220       ??$toString@V?$vector@PAVFilename@@V?$allocator@PAVFilename@@@std@@@std@@@TypeConverter@@YAPBDXZ 10021220 f   PlugInUtilities:TypeConverter.obj
 0001:00020230       ??$toString@V?$vector@VFilename@@V?$allocator@VFilename@@@std@@@std@@@TypeConverter@@YAPBDXZ 10021230 f   PlugInUtilities:TypeConverter.obj
 0001:00020240       ??$toString@PAVFilename@@@TypeConverter@@YAPBDXZ 10021240 f   PlugInUtilities:TypeConverter.obj
 0001:00020250       ??$toString@VFloatComplex@@@TypeConverter@@YAPBDXZ 10021250 f   PlugInUtilities:TypeConverter.obj
 0001:00020260       ??$toString@V?$vector@PAVFloatComplex@@V?$allocator@PAVFloatComplex@@@std@@@std@@@TypeConverter@@YAPBDXZ 10021260 f   PlugInUtilities:TypeConverter.obj
 0001:00020270       ??$toString@V?$vector@VFloatComplex@@V?$allocator@VFloatComplex@@@std@@@std@@@TypeConverter@@YAPBDXZ 10021270 f   PlugInUtilities:TypeConverter.obj
 0001:00020280       ??$toString@PAVFloatComplex@@@TypeConverter@@YAPBDXZ 10021280 f   PlugInUtilities:TypeConverter.obj
 0001:00020290       ??$toString@VFont@@@TypeConverter@@YAPBDXZ 10021290 f   PlugInUtilities:TypeConverter.obj
 0001:000202a0       ??$toString@V?$vector@PAVFont@@V?$allocator@PAVFont@@@std@@@std@@@TypeConverter@@YAPBDXZ 100212a0 f   PlugInUtilities:TypeConverter.obj
 0001:000202b0       ??$toString@V?$vector@VFont@@V?$allocator@VFont@@@std@@@std@@@TypeConverter@@YAPBDXZ 100212b0 f   PlugInUtilities:TypeConverter.obj
 0001:000202c0       ??$toString@PAVFont@@@TypeConverter@@YAPBDXZ 100212c0 f   PlugInUtilities:TypeConverter.obj
 0001:000202d0       ??$toString@VGcpLayer@@@TypeConverter@@YAPBDXZ 100212d0 f   PlugInUtilities:TypeConverter.obj
 0001:000202e0       ??$toString@V?$vector@PAVGcpLayer@@V?$allocator@PAVGcpLayer@@@std@@@std@@@TypeConverter@@YAPBDXZ 100212e0 f   PlugInUtilities:TypeConverter.obj
 0001:000202f0       ??$toString@V?$vector@VGcpLayer@@V?$allocator@VGcpLayer@@@std@@@std@@@TypeConverter@@YAPBDXZ 100212f0 f   PlugInUtilities:TypeConverter.obj
 0001:00020300       ??$toString@PAVGcpLayer@@@TypeConverter@@YAPBDXZ 10021300 f   PlugInUtilities:TypeConverter.obj
 0001:00020310       ??$toString@VGcpList@@@TypeConverter@@YAPBDXZ 10021310 f   PlugInUtilities:TypeConverter.obj
 0001:00020320       ??$toString@V?$vector@PAVGcpList@@V?$allocator@PAVGcpList@@@std@@@std@@@TypeConverter@@YAPBDXZ 10021320 f   PlugInUtilities:TypeConverter.obj
 0001:00020330       ??$toString@V?$vector@VGcpList@@V?$allocator@VGcpList@@@std@@@std@@@TypeConverter@@YAPBDXZ 10021330 f   PlugInUtilities:TypeConverter.obj
 0001:00020340       ??$toString@PAVGcpList@@@TypeConverter@@YAPBDXZ 10021340 f   PlugInUtilities:TypeConverter.obj
 0001:00020350       ??$toString@VGraphicElement@@@TypeConverter@@YAPBDXZ 10021350 f   PlugInUtilities:TypeConverter.obj
 0001:00020360       ??$toString@V?$vector@PAVGraphicElement@@V?$allocator@PAVGraphicElement@@@std@@@std@@@TypeConverter@@YAPBDXZ 10021360 f   PlugInUtilities:TypeConverter.obj
 0001:00020370       ??$toString@V?$vector@VGraphicElement@@V?$allocator@VGraphicElement@@@std@@@std@@@TypeConverter@@YAPBDXZ 10021370 f   PlugInUtilities:TypeConverter.obj
 0001:00020380       ??$toString@PAVGraphicElement@@@TypeConverter@@YAPBDXZ 10021380 f   PlugInUtilities:TypeConverter.obj
 0001:00020390       ??$toString@VGraphicLayer@@@TypeConverter@@YAPBDXZ 10021390 f   PlugInUtilities:TypeConverter.obj
 0001:000203a0       ??$toString@V?$vector@PAVGraphicLayer@@V?$allocator@PAVGraphicLayer@@@std@@@std@@@TypeConverter@@YAPBDXZ 100213a0 f   PlugInUtilities:TypeConverter.obj
 0001:000203b0       ??$toString@V?$vector@VGraphicLayer@@V?$allocator@VGraphicLayer@@@std@@@std@@@TypeConverter@@YAPBDXZ 100213b0 f   PlugInUtilities:TypeConverter.obj
 0001:000203c0       ??$toString@PAVGraphicLayer@@@TypeConverter@@YAPBDXZ 100213c0 f   PlugInUtilities:TypeConverter.obj
 0001:000203d0       ??$toString@VHistogramPlot@@@TypeConverter@@YAPBDXZ 100213d0 f   PlugInUtilities:TypeConverter.obj
 0001:000203e0       ??$toString@V?$vector@PAVHistogramPlot@@V?$allocator@PAVHistogramPlot@@@std@@@std@@@TypeConverter@@YAPBDXZ 100213e0 f   PlugInUtilities:TypeConverter.obj
 0001:000203f0       ??$toString@V?$vector@VHistogramPlot@@V?$allocator@VHistogramPlot@@@std@@@std@@@TypeConverter@@YAPBDXZ 100213f0 f   PlugInUtilities:TypeConverter.obj
 0001:00020400       ??$toString@PAVHistogramPlot@@@TypeConverter@@YAPBDXZ 10021400 f   PlugInUtilities:TypeConverter.obj
 0001:00020410       ??$toString@VImportAgent@@@TypeConverter@@YAPBDXZ 10021410 f   PlugInUtilities:TypeConverter.obj
 0001:00020420       ??$toString@V?$vector@PAVImportAgent@@V?$allocator@PAVImportAgent@@@std@@@std@@@TypeConverter@@YAPBDXZ 10021420 f   PlugInUtilities:TypeConverter.obj
 0001:00020430       ??$toString@V?$vector@VImportAgent@@V?$allocator@VImportAgent@@@std@@@std@@@TypeConverter@@YAPBDXZ 10021430 f   PlugInUtilities:TypeConverter.obj
 0001:00020440       ??$toString@PAVImportAgent@@@TypeConverter@@YAPBDXZ 10021440 f   PlugInUtilities:TypeConverter.obj
 0001:00020450       ??$toString@VIntegerComplex@@@TypeConverter@@YAPBDXZ 10021450 f   PlugInUtilities:TypeConverter.obj
 0001:00020460       ??$toString@V?$vector@PAVIntegerComplex@@V?$allocator@PAVIntegerComplex@@@std@@@std@@@TypeConverter@@YAPBDXZ 10021460 f   PlugInUtilities:TypeConverter.obj
 0001:00020470       ??$toString@V?$vector@VIntegerComplex@@V?$allocator@VIntegerComplex@@@std@@@std@@@TypeConverter@@YAPBDXZ 10021470 f   PlugInUtilities:TypeConverter.obj
 0001:00020480       ??$toString@PAVIntegerComplex@@@TypeConverter@@YAPBDXZ 10021480 f   PlugInUtilities:TypeConverter.obj
 0001:00020490       ??$toString@VInt64@@@TypeConverter@@YAPBDXZ 10021490 f   PlugInUtilities:TypeConverter.obj
 0001:000204a0       ??$toString@V?$vector@PAVInt64@@V?$allocator@PAVInt64@@@std@@@std@@@TypeConverter@@YAPBDXZ 100214a0 f   PlugInUtilities:TypeConverter.obj
 0001:000204b0       ??$toString@V?$vector@VInt64@@V?$allocator@VInt64@@@std@@@std@@@TypeConverter@@YAPBDXZ 100214b0 f   PlugInUtilities:TypeConverter.obj
 0001:000204c0       ??$toString@VLatLonLayer@@@TypeConverter@@YAPBDXZ 100214c0 f   PlugInUtilities:TypeConverter.obj
 0001:000204d0       ??$toString@V?$vector@PAVLatLonLayer@@V?$allocator@PAVLatLonLayer@@@std@@@std@@@TypeConverter@@YAPBDXZ 100214d0 f   PlugInUtilities:TypeConverter.obj
 0001:000204e0       ??$toString@V?$vector@VLatLonLayer@@V?$allocator@VLatLonLayer@@@std@@@std@@@TypeConverter@@YAPBDXZ 100214e0 f   PlugInUtilities:TypeConverter.obj
 0001:000204f0       ??$toString@PAVLatLonLayer@@@TypeConverter@@YAPBDXZ 100214f0 f   PlugInUtilities:TypeConverter.obj
 0001:00020500       ??$toString@VLayer@@@TypeConverter@@YAPBDXZ 10021500 f   PlugInUtilities:TypeConverter.obj
 0001:00020510       ??$toString@V?$vector@PAVLayer@@V?$allocator@PAVLayer@@@std@@@std@@@TypeConverter@@YAPBDXZ 10021510 f   PlugInUtilities:TypeConverter.obj
 0001:00020520       ??$toString@V?$vector@VLayer@@V?$allocator@VLayer@@@std@@@std@@@TypeConverter@@YAPBDXZ 10021520 f   PlugInUtilities:TypeConverter.obj
 0001:00020530       ??$toString@PAVLayer@@@TypeConverter@@YAPBDXZ 10021530 f   PlugInUtilities:TypeConverter.obj
 0001:00020540       ??$toString@V?$Location@N$01@Opticks@@@TypeConverter@@YAPBDXZ 10021540 f   PlugInUtilities:TypeConverter.obj
 0001:00020550       ??$toString@V?$vector@PAV?$Location@N$01@Opticks@@V?$allocator@PAV?$Location@N$01@Opticks@@@std@@@std@@@TypeConverter@@YAPBDXZ 10021550 f   PlugInUtilities:TypeConverter.obj
 0001:00020560       ??$toString@V?$vector@V?$Location@N$01@Opticks@@V?$allocator@V?$Location@N$01@Opticks@@@std@@@std@@@TypeConverter@@YAPBDXZ 10021560 f   PlugInUtilities:TypeConverter.obj
 0001:00020570       ??$toString@VMeasurementLayer@@@TypeConverter@@YAPBDXZ 10021570 f   PlugInUtilities:TypeConverter.obj
 0001:00020580       ??$toString@V?$vector@PAVMeasurementLayer@@V?$allocator@PAVMeasurementLayer@@@std@@@std@@@TypeConverter@@YAPBDXZ 10021580 f   PlugInUtilities:TypeConverter.obj
 0001:00020590       ??$toString@V?$vector@VMeasurementLayer@@V?$allocator@VMeasurementLayer@@@std@@@std@@@TypeConverter@@YAPBDXZ 10021590 f   PlugInUtilities:TypeConverter.obj
 0001:000205a0       ??$toString@PAVMeasurementLayer@@@TypeConverter@@YAPBDXZ 100215a0 f   PlugInUtilities:TypeConverter.obj
 0001:000205b0       ??$toString@VOrthographicView@@@TypeConverter@@YAPBDXZ 100215b0 f   PlugInUtilities:TypeConverter.obj
 0001:000205c0       ??$toString@V?$vector@PAVOrthographicView@@V?$allocator@PAVOrthographicView@@@std@@@std@@@TypeConverter@@YAPBDXZ 100215c0 f   PlugInUtilities:TypeConverter.obj
 0001:000205d0       ??$toString@V?$vector@VOrthographicView@@V?$allocator@VOrthographicView@@@std@@@std@@@TypeConverter@@YAPBDXZ 100215d0 f   PlugInUtilities:TypeConverter.obj
 0001:000205e0       ??$toString@PAVOrthographicView@@@TypeConverter@@YAPBDXZ 100215e0 f   PlugInUtilities:TypeConverter.obj
 0001:000205f0       ??$toString@VPerspectiveView@@@TypeConverter@@YAPBDXZ 100215f0 f   PlugInUtilities:TypeConverter.obj
 0001:00020600       ??$toString@V?$vector@PAVPerspectiveView@@V?$allocator@PAVPerspectiveView@@@std@@@std@@@TypeConverter@@YAPBDXZ 10021600 f   PlugInUtilities:TypeConverter.obj
 0001:00020610       ??$toString@V?$vector@VPerspectiveView@@V?$allocator@VPerspectiveView@@@std@@@std@@@TypeConverter@@YAPBDXZ 10021610 f   PlugInUtilities:TypeConverter.obj
 0001:00020620       ??$toString@PAVPerspectiveView@@@TypeConverter@@YAPBDXZ 10021620 f   PlugInUtilities:TypeConverter.obj
 0001:00020630       ??$toString@V?$Location@H$01@Opticks@@@TypeConverter@@YAPBDXZ 10021630 f   PlugInUtilities:TypeConverter.obj
 0001:00020640       ??$toString@V?$vector@PAV?$Location@H$01@Opticks@@V?$allocator@PAV?$Location@H$01@Opticks@@@std@@@std@@@TypeConverter@@YAPBDXZ 10021640 f   PlugInUtilities:TypeConverter.obj
 0001:00020650       ??$toString@V?$vector@V?$Location@H$01@Opticks@@V?$allocator@V?$Location@H$01@Opticks@@@std@@@std@@@TypeConverter@@YAPBDXZ 10021650 f   PlugInUtilities:TypeConverter.obj
 0001:00020660       ??$toString@VPlotView@@@TypeConverter@@YAPBDXZ 10021660 f   PlugInUtilities:TypeConverter.obj
 0001:00020670       ??$toString@V?$vector@PAVPlotView@@V?$allocator@PAVPlotView@@@std@@@std@@@TypeConverter@@YAPBDXZ 10021670 f   PlugInUtilities:TypeConverter.obj
 0001:00020680       ??$toString@V?$vector@VPlotView@@V?$allocator@VPlotView@@@std@@@std@@@TypeConverter@@YAPBDXZ 10021680 f   PlugInUtilities:TypeConverter.obj
 0001:00020690       ??$toString@PAVPlotView@@@TypeConverter@@YAPBDXZ 10021690 f   PlugInUtilities:TypeConverter.obj
 0001:000206a0       ??$toString@VPlotWidget@@@TypeConverter@@YAPBDXZ 100216a0 f   PlugInUtilities:TypeConverter.obj
 0001:000206b0       ??$toString@V?$vector@PAVPlotWidget@@V?$allocator@PAVPlotWidget@@@std@@@std@@@TypeConverter@@YAPBDXZ 100216b0 f   PlugInUtilities:TypeConverter.obj
 0001:000206c0       ??$toString@V?$vector@VPlotWidget@@V?$allocator@VPlotWidget@@@std@@@std@@@TypeConverter@@YAPBDXZ 100216c0 f   PlugInUtilities:TypeConverter.obj
 0001:000206d0       ??$toString@PAVPlotWidget@@@TypeConverter@@YAPBDXZ 100216d0 f   PlugInUtilities:TypeConverter.obj
 0001:000206e0       ??$toString@VPlotWindow@@@TypeConverter@@YAPBDXZ 100216e0 f   PlugInUtilities:TypeConverter.obj
 0001:000206f0       ??$toString@V?$vector@PAVPlotWindow@@V?$allocator@PAVPlotWindow@@@std@@@std@@@TypeConverter@@YAPBDXZ 100216f0 f   PlugInUtilities:TypeConverter.obj
 0001:00020700       ??$toString@V?$vector@VPlotWindow@@V?$allocator@VPlotWindow@@@std@@@std@@@TypeConverter@@YAPBDXZ 10021700 f   PlugInUtilities:TypeConverter.obj
 0001:00020710       ??$toString@PAVPlotWindow@@@TypeConverter@@YAPBDXZ 10021710 f   PlugInUtilities:TypeConverter.obj
 0001:00020720       ??$toString@VPolarPlot@@@TypeConverter@@YAPBDXZ 10021720 f   PlugInUtilities:TypeConverter.obj
 0001:00020730       ??$toString@V?$vector@PAVPolarPlot@@V?$allocator@PAVPolarPlot@@@std@@@std@@@TypeConverter@@YAPBDXZ 10021730 f   PlugInUtilities:TypeConverter.obj
 0001:00020740       ??$toString@V?$vector@VPolarPlot@@V?$allocator@VPolarPlot@@@std@@@std@@@TypeConverter@@YAPBDXZ 10021740 f   PlugInUtilities:TypeConverter.obj
 0001:00020750       ??$toString@PAVPolarPlot@@@TypeConverter@@YAPBDXZ 10021750 f   PlugInUtilities:TypeConverter.obj
 0001:00020760       ??$toString@VProductView@@@TypeConverter@@YAPBDXZ 10021760 f   PlugInUtilities:TypeConverter.obj
 0001:00020770       ??$toString@V?$vector@PAVProductView@@V?$allocator@PAVProductView@@@std@@@std@@@TypeConverter@@YAPBDXZ 10021770 f   PlugInUtilities:TypeConverter.obj
 0001:00020780       ??$toString@V?$vector@VProductView@@V?$allocator@VProductView@@@std@@@std@@@TypeConverter@@YAPBDXZ 10021780 f   PlugInUtilities:TypeConverter.obj
 0001:00020790       ??$toString@PAVProductView@@@TypeConverter@@YAPBDXZ 10021790 f   PlugInUtilities:TypeConverter.obj
 0001:000207a0       ??$toString@VProductWindow@@@TypeConverter@@YAPBDXZ 100217a0 f   PlugInUtilities:TypeConverter.obj
 0001:000207b0       ??$toString@V?$vector@PAVProductWindow@@V?$allocator@PAVProductWindow@@@std@@@std@@@TypeConverter@@YAPBDXZ 100217b0 f   PlugInUtilities:TypeConverter.obj
 0001:000207c0       ??$toString@V?$vector@VProductWindow@@V?$allocator@VProductWindow@@@std@@@std@@@TypeConverter@@YAPBDXZ 100217c0 f   PlugInUtilities:TypeConverter.obj
 0001:000207d0       ??$toString@PAVProductWindow@@@TypeConverter@@YAPBDXZ 100217d0 f   PlugInUtilities:TypeConverter.obj
 0001:000207e0       ??$toString@VProgress@@@TypeConverter@@YAPBDXZ 100217e0 f   PlugInUtilities:TypeConverter.obj
 0001:000207f0       ??$toString@V?$vector@PAVProgress@@V?$allocator@PAVProgress@@@std@@@std@@@TypeConverter@@YAPBDXZ 100217f0 f   PlugInUtilities:TypeConverter.obj
 0001:00020800       ??$toString@V?$vector@VProgress@@V?$allocator@VProgress@@@std@@@std@@@TypeConverter@@YAPBDXZ 10021800 f   PlugInUtilities:TypeConverter.obj
 0001:00020810       ??$toString@PAVProgress@@@TypeConverter@@YAPBDXZ 10021810 f   PlugInUtilities:TypeConverter.obj
 0001:00020820       ??$toString@VPseudocolorLayer@@@TypeConverter@@YAPBDXZ 10021820 f   PlugInUtilities:TypeConverter.obj
 0001:00020830       ??$toString@V?$vector@PAVPseudocolorLayer@@V?$allocator@PAVPseudocolorLayer@@@std@@@std@@@TypeConverter@@YAPBDXZ 10021830 f   PlugInUtilities:TypeConverter.obj
 0001:00020840       ??$toString@V?$vector@VPseudocolorLayer@@V?$allocator@VPseudocolorLayer@@@std@@@std@@@TypeConverter@@YAPBDXZ 10021840 f   PlugInUtilities:TypeConverter.obj
 0001:00020850       ??$toString@PAVPseudocolorLayer@@@TypeConverter@@YAPBDXZ 10021850 f   PlugInUtilities:TypeConverter.obj
 0001:00020860       ??$toString@VRasterDataDescriptor@@@TypeConverter@@YAPBDXZ 10021860 f   PlugInUtilities:TypeConverter.obj
 0001:00020870       ??$toString@V?$vector@PAVRasterDataDescriptor@@V?$allocator@PAVRasterDataDescriptor@@@std@@@std@@@TypeConverter@@YAPBDXZ 10021870 f   PlugInUtilities:TypeConverter.obj
 0001:00020880       ??$toString@V?$vector@VRasterDataDescriptor@@V?$allocator@VRasterDataDescriptor@@@std@@@std@@@TypeConverter@@YAPBDXZ 10021880 f   PlugInUtilities:TypeConverter.obj
 0001:00020890       ??$toString@PAVRasterDataDescriptor@@@TypeConverter@@YAPBDXZ 10021890 f   PlugInUtilities:TypeConverter.obj
 0001:000208a0       ??$toString@VRasterElement@@@TypeConverter@@YAPBDXZ 100218a0 f   PlugInUtilities:TypeConverter.obj
 0001:000208b0       ??$toString@V?$vector@PAVRasterElement@@V?$allocator@PAVRasterElement@@@std@@@std@@@TypeConverter@@YAPBDXZ 100218b0 f   PlugInUtilities:TypeConverter.obj
 0001:000208c0       ??$toString@V?$vector@VRasterElement@@V?$allocator@VRasterElement@@@std@@@std@@@TypeConverter@@YAPBDXZ 100218c0 f   PlugInUtilities:TypeConverter.obj
 0001:000208d0       ??$toString@PAVRasterElement@@@TypeConverter@@YAPBDXZ 100218d0 f   PlugInUtilities:TypeConverter.obj
 0001:000208e0       ??$toString@VRasterFileDescriptor@@@TypeConverter@@YAPBDXZ 100218e0 f   PlugInUtilities:TypeConverter.obj
 0001:000208f0       ??$toString@V?$vector@PAVRasterFileDescriptor@@V?$allocator@PAVRasterFileDescriptor@@@std@@@std@@@TypeConverter@@YAPBDXZ 100218f0 f   PlugInUtilities:TypeConverter.obj
 0001:00020900       ??$toString@V?$vector@VRasterFileDescriptor@@V?$allocator@VRasterFileDescriptor@@@std@@@std@@@TypeConverter@@YAPBDXZ 10021900 f   PlugInUtilities:TypeConverter.obj
 0001:00020910       ??$toString@PAVRasterFileDescriptor@@@TypeConverter@@YAPBDXZ 10021910 f   PlugInUtilities:TypeConverter.obj
 0001:00020920       ??$toString@VRasterLayer@@@TypeConverter@@YAPBDXZ 10021920 f   PlugInUtilities:TypeConverter.obj
 0001:00020930       ??$toString@V?$vector@PAVRasterLayer@@V?$allocator@PAVRasterLayer@@@std@@@std@@@TypeConverter@@YAPBDXZ 10021930 f   PlugInUtilities:TypeConverter.obj
 0001:00020940       ??$toString@V?$vector@VRasterLayer@@V?$allocator@VRasterLayer@@@std@@@std@@@TypeConverter@@YAPBDXZ 10021940 f   PlugInUtilities:TypeConverter.obj
 0001:00020950       ??$toString@PAVRasterLayer@@@TypeConverter@@YAPBDXZ 10021950 f   PlugInUtilities:TypeConverter.obj
 0001:00020960       ??$toString@VSessionItem@@@TypeConverter@@YAPBDXZ 10021960 f   PlugInUtilities:TypeConverter.obj
 0001:00020970       ??$toString@V?$vector@PAVSessionItem@@V?$allocator@PAVSessionItem@@@std@@@std@@@TypeConverter@@YAPBDXZ 10021970 f   PlugInUtilities:TypeConverter.obj
 0001:00020980       ??$toString@V?$vector@VSessionItem@@V?$allocator@VSessionItem@@@std@@@std@@@TypeConverter@@YAPBDXZ 10021980 f   PlugInUtilities:TypeConverter.obj
 0001:00020990       ??$toString@PAVSessionItem@@@TypeConverter@@YAPBDXZ 10021990 f   PlugInUtilities:TypeConverter.obj
 0001:000209a0       ??$toString@VSettableSessionItem@@@TypeConverter@@YAPBDXZ 100219a0 f   PlugInUtilities:TypeConverter.obj
 0001:000209b0       ??$toString@V?$vector@PAVSettableSessionItem@@V?$allocator@PAVSettableSessionItem@@@std@@@std@@@TypeConverter@@YAPBDXZ 100219b0 f   PlugInUtilities:TypeConverter.obj
 0001:000209c0       ??$toString@V?$vector@VSettableSessionItem@@V?$allocator@VSettableSessionItem@@@std@@@std@@@TypeConverter@@YAPBDXZ 100219c0 f   PlugInUtilities:TypeConverter.obj
 0001:000209d0       ??$toString@PAVSettableSessionItem@@@TypeConverter@@YAPBDXZ 100219d0 f   PlugInUtilities:TypeConverter.obj
 0001:000209e0       ??$toString@VSignature@@@TypeConverter@@YAPBDXZ 100219e0 f   PlugInUtilities:TypeConverter.obj
 0001:000209f0       ??$toString@V?$vector@PAVSignature@@V?$allocator@PAVSignature@@@std@@@std@@@TypeConverter@@YAPBDXZ 100219f0 f   PlugInUtilities:TypeConverter.obj
 0001:00020a00       ??$toString@V?$vector@VSignature@@V?$allocator@VSignature@@@std@@@std@@@TypeConverter@@YAPBDXZ 10021a00 f   PlugInUtilities:TypeConverter.obj
 0001:00020a10       ??$toString@PAVSignature@@@TypeConverter@@YAPBDXZ 10021a10 f   PlugInUtilities:TypeConverter.obj
 0001:00020a20       ??$toString@VSignatureLibrary@@@TypeConverter@@YAPBDXZ 10021a20 f   PlugInUtilities:TypeConverter.obj
 0001:00020a30       ??$toString@V?$vector@PAVSignatureLibrary@@V?$allocator@PAVSignatureLibrary@@@std@@@std@@@TypeConverter@@YAPBDXZ 10021a30 f   PlugInUtilities:TypeConverter.obj
 0001:00020a40       ??$toString@V?$vector@VSignatureLibrary@@V?$allocator@VSignatureLibrary@@@std@@@std@@@TypeConverter@@YAPBDXZ 10021a40 f   PlugInUtilities:TypeConverter.obj
 0001:00020a50       ??$toString@PAVSignatureLibrary@@@TypeConverter@@YAPBDXZ 10021a50 f   PlugInUtilities:TypeConverter.obj
 0001:00020a60       ??$toString@VSignaturePlot@@@TypeConverter@@YAPBDXZ 10021a60 f   PlugInUtilities:TypeConverter.obj
 0001:00020a70       ??$toString@V?$vector@PAVSignaturePlot@@V?$allocator@PAVSignaturePlot@@@std@@@std@@@TypeConverter@@YAPBDXZ 10021a70 f   PlugInUtilities:TypeConverter.obj
 0001:00020a80       ??$toString@V?$vector@VSignaturePlot@@V?$allocator@VSignaturePlot@@@std@@@std@@@TypeConverter@@YAPBDXZ 10021a80 f   PlugInUtilities:TypeConverter.obj
 0001:00020a90       ??$toString@PAVSignaturePlot@@@TypeConverter@@YAPBDXZ 10021a90 f   PlugInUtilities:TypeConverter.obj
 0001:00020aa0       ??$toString@VSignatureSet@@@TypeConverter@@YAPBDXZ 10021aa0 f   PlugInUtilities:TypeConverter.obj
 0001:00020ab0       ??$toString@V?$vector@PAVSignatureSet@@V?$allocator@PAVSignatureSet@@@std@@@std@@@TypeConverter@@YAPBDXZ 10021ab0 f   PlugInUtilities:TypeConverter.obj
 0001:00020ac0       ??$toString@V?$vector@VSignatureSet@@V?$allocator@VSignatureSet@@@std@@@std@@@TypeConverter@@YAPBDXZ 10021ac0 f   PlugInUtilities:TypeConverter.obj
 0001:00020ad0       ??$toString@PAVSignatureSet@@@TypeConverter@@YAPBDXZ 10021ad0 f   PlugInUtilities:TypeConverter.obj
 0001:00020ae0       ??$toString@VSpatialDataView@@@TypeConverter@@YAPBDXZ 10021ae0 f   PlugInUtilities:TypeConverter.obj
 0001:00020af0       ??$toString@V?$vector@PAVSpatialDataView@@V?$allocator@PAVSpatialDataView@@@std@@@std@@@TypeConverter@@YAPBDXZ 10021af0 f   PlugInUtilities:TypeConverter.obj
 0001:00020b00       ??$toString@V?$vector@VSpatialDataView@@V?$allocator@VSpatialDataView@@@std@@@std@@@TypeConverter@@YAPBDXZ 10021b00 f   PlugInUtilities:TypeConverter.obj
 0001:00020b10       ??$toString@PAVSpatialDataView@@@TypeConverter@@YAPBDXZ 10021b10 f   PlugInUtilities:TypeConverter.obj
 0001:00020b20       ??$toString@VSpatialDataWindow@@@TypeConverter@@YAPBDXZ 10021b20 f   PlugInUtilities:TypeConverter.obj
 0001:00020b30       ??$toString@V?$vector@PAVSpatialDataWindow@@V?$allocator@PAVSpatialDataWindow@@@std@@@std@@@TypeConverter@@YAPBDXZ 10021b30 f   PlugInUtilities:TypeConverter.obj
 0001:00020b40       ??$toString@V?$vector@VSpatialDataWindow@@V?$allocator@VSpatialDataWindow@@@std@@@std@@@TypeConverter@@YAPBDXZ 10021b40 f   PlugInUtilities:TypeConverter.obj
 0001:00020b50       ??$toString@PAVSpatialDataWindow@@@TypeConverter@@YAPBDXZ 10021b50 f   PlugInUtilities:TypeConverter.obj
 0001:00020b60       ??$toString@VThresholdLayer@@@TypeConverter@@YAPBDXZ 10021b60 f   PlugInUtilities:TypeConverter.obj
 0001:00020b70       ??$toString@V?$vector@PAVThresholdLayer@@V?$allocator@PAVThresholdLayer@@@std@@@std@@@TypeConverter@@YAPBDXZ 10021b70 f   PlugInUtilities:TypeConverter.obj
 0001:00020b80       ??$toString@V?$vector@VThresholdLayer@@V?$allocator@VThresholdLayer@@@std@@@std@@@TypeConverter@@YAPBDXZ 10021b80 f   PlugInUtilities:TypeConverter.obj
 0001:00020b90       ??$toString@PAVThresholdLayer@@@TypeConverter@@YAPBDXZ 10021b90 f   PlugInUtilities:TypeConverter.obj
 0001:00020ba0       ??$toString@VTiePointLayer@@@TypeConverter@@YAPBDXZ 10021ba0 f   PlugInUtilities:TypeConverter.obj
 0001:00020bb0       ??$toString@V?$vector@PAVTiePointLayer@@V?$allocator@PAVTiePointLayer@@@std@@@std@@@TypeConverter@@YAPBDXZ 10021bb0 f   PlugInUtilities:TypeConverter.obj
 0001:00020bc0       ??$toString@V?$vector@VTiePointLayer@@V?$allocator@VTiePointLayer@@@std@@@std@@@TypeConverter@@YAPBDXZ 10021bc0 f   PlugInUtilities:TypeConverter.obj
 0001:00020bd0       ??$toString@PAVTiePointLayer@@@TypeConverter@@YAPBDXZ 10021bd0 f   PlugInUtilities:TypeConverter.obj
 0001:00020be0       ??$toString@VTiePointList@@@TypeConverter@@YAPBDXZ 10021be0 f   PlugInUtilities:TypeConverter.obj
 0001:00020bf0       ??$toString@V?$vector@PAVTiePointList@@V?$allocator@PAVTiePointList@@@std@@@std@@@TypeConverter@@YAPBDXZ 10021bf0 f   PlugInUtilities:TypeConverter.obj
 0001:00020c00       ??$toString@V?$vector@VTiePointList@@V?$allocator@VTiePointList@@@std@@@std@@@TypeConverter@@YAPBDXZ 10021c00 f   PlugInUtilities:TypeConverter.obj
 0001:00020c10       ??$toString@PAVTiePointList@@@TypeConverter@@YAPBDXZ 10021c10 f   PlugInUtilities:TypeConverter.obj
 0001:00020c20       ??$toString@VUInt64@@@TypeConverter@@YAPBDXZ 10021c20 f   PlugInUtilities:TypeConverter.obj
 0001:00020c30       ??$toString@V?$vector@PAVUInt64@@V?$allocator@PAVUInt64@@@std@@@std@@@TypeConverter@@YAPBDXZ 10021c30 f   PlugInUtilities:TypeConverter.obj
 0001:00020c40       ??$toString@V?$vector@VUInt64@@V?$allocator@VUInt64@@@std@@@std@@@TypeConverter@@YAPBDXZ 10021c40 f   PlugInUtilities:TypeConverter.obj
 0001:00020c50       ??$toString@VUnits@@@TypeConverter@@YAPBDXZ 10021c50 f   PlugInUtilities:TypeConverter.obj
 0001:00020c60       ??$toString@V?$vector@PAVUnits@@V?$allocator@PAVUnits@@@std@@@std@@@TypeConverter@@YAPBDXZ 10021c60 f   PlugInUtilities:TypeConverter.obj
 0001:00020c70       ??$toString@V?$vector@VUnits@@V?$allocator@VUnits@@@std@@@std@@@TypeConverter@@YAPBDXZ 10021c70 f   PlugInUtilities:TypeConverter.obj
 0001:00020c80       ??$toString@PAVUnits@@@TypeConverter@@YAPBDXZ 10021c80 f   PlugInUtilities:TypeConverter.obj
 0001:00020c90       ??$toString@VView@@@TypeConverter@@YAPBDXZ 10021c90 f   PlugInUtilities:TypeConverter.obj
 0001:00020ca0       ??$toString@V?$vector@PAVView@@V?$allocator@PAVView@@@std@@@std@@@TypeConverter@@YAPBDXZ 10021ca0 f   PlugInUtilities:TypeConverter.obj
 0001:00020cb0       ??$toString@V?$vector@VView@@V?$allocator@VView@@@std@@@std@@@TypeConverter@@YAPBDXZ 10021cb0 f   PlugInUtilities:TypeConverter.obj
 0001:00020cc0       ??$toString@PAVView@@@TypeConverter@@YAPBDXZ 10021cc0 f   PlugInUtilities:TypeConverter.obj
 0001:00020cd0       ??$toString@VWindow@@@TypeConverter@@YAPBDXZ 10021cd0 f   PlugInUtilities:TypeConverter.obj
 0001:00020ce0       ??$toString@V?$vector@PAVWindow@@V?$allocator@PAVWindow@@@std@@@std@@@TypeConverter@@YAPBDXZ 10021ce0 f   PlugInUtilities:TypeConverter.obj
 0001:00020cf0       ??$toString@V?$vector@VWindow@@V?$allocator@VWindow@@@std@@@std@@@TypeConverter@@YAPBDXZ 10021cf0 f   PlugInUtilities:TypeConverter.obj
 0001:00020d00       ??$toString@PAVWindow@@@TypeConverter@@YAPBDXZ 10021d00 f   PlugInUtilities:TypeConverter.obj
 0001:00020d10       ??$toString@VWizardObject@@@TypeConverter@@YAPBDXZ 10021d10 f   PlugInUtilities:TypeConverter.obj
 0001:00020d20       ??$toString@V?$vector@PAVWizardObject@@V?$allocator@PAVWizardObject@@@std@@@std@@@TypeConverter@@YAPBDXZ 10021d20 f   PlugInUtilities:TypeConverter.obj
 0001:00020d30       ??$toString@V?$vector@VWizardObject@@V?$allocator@VWizardObject@@@std@@@std@@@TypeConverter@@YAPBDXZ 10021d30 f   PlugInUtilities:TypeConverter.obj
 0001:00020d40       ??$toString@PAVWizardObject@@@TypeConverter@@YAPBDXZ 10021d40 f   PlugInUtilities:TypeConverter.obj
 0001:00020d50       ??$toString@VWorkspaceWindow@@@TypeConverter@@YAPBDXZ 10021d50 f   PlugInUtilities:TypeConverter.obj
 0001:00020d60       ??$toString@V?$vector@PAVWorkspaceWindow@@V?$allocator@PAVWorkspaceWindow@@@std@@@std@@@TypeConverter@@YAPBDXZ 10021d60 f   PlugInUtilities:TypeConverter.obj
 0001:00020d70       ??$toString@V?$vector@VWorkspaceWindow@@V?$allocator@VWorkspaceWindow@@@std@@@std@@@TypeConverter@@YAPBDXZ 10021d70 f   PlugInUtilities:TypeConverter.obj
 0001:00020d80       ??$toString@PAVWorkspaceWindow@@@TypeConverter@@YAPBDXZ 10021d80 f   PlugInUtilities:TypeConverter.obj
 0001:00020d90       ?metaObject@LabeledSection@@UBEPBUQMetaObject@@XZ 10021d90 f   PlugInUtilities:moc_LabeledSection.obj
 0001:00020da0       ?qt_metacast@LabeledSection@@UAEPAXPBD@Z 10021da0 f   PlugInUtilities:moc_LabeledSection.obj
 0001:00020e00       ?collapsed@LabeledSection@@IAEXXZ 10021e00 f   PlugInUtilities:moc_LabeledSection.obj
 0001:00020e20       ?expanded@LabeledSection@@IAEXXZ 10021e20 f   PlugInUtilities:moc_LabeledSection.obj
 0001:00020e40       ?qt_metacall@LabeledSection@@UAEHW4Call@QMetaObject@@HPAPAX@Z 10021e40 f   PlugInUtilities:moc_LabeledSection.obj
 0001:00020ecc       ?c_str@?$basic_string@DU?$char_traits@D@std@@V?$allocator@D@2@@std@@QBEPBDXZ 10021ecc f   msvcprt:MSVCP80.dll
 0001:00020ed2       ?_Myptr@?$basic_string@DU?$char_traits@D@std@@V?$allocator@D@2@@std@@IBEPBDXZ 10021ed2 f   msvcprt:MSVCP80.dll
 0001:00020ed8       ??4?$basic_string@DU?$char_traits@D@std@@V?$allocator@D@2@@std@@QAEAAV01@PBD@Z 10021ed8 f   msvcprt:MSVCP80.dll
 0001:00020ede       ??1?$basic_string@DU?$char_traits@D@std@@V?$allocator@D@2@@std@@QAE@XZ 10021ede f   msvcprt:MSVCP80.dll
 0001:00020ee4       ??0?$basic_string@DU?$char_traits@D@std@@V?$allocator@D@2@@std@@QAE@ABV01@@Z 10021ee4 f   msvcprt:MSVCP80.dll
 0001:00020eea       ??$?HDU?$char_traits@D@std@@V?$allocator@D@1@@std@@YA?AV?$basic_string@DU?$char_traits@D@std@@V?$allocator@D@2@@0@PBDABV10@@Z 10021eea f   msvcprt:MSVCP80.dll
 0001:00020ef0       ??0?$basic_string@DU?$char_traits@D@std@@V?$allocator@D@2@@std@@QAE@PBD@Z 10021ef0 f   msvcprt:MSVCP80.dll
 0001:00020ef6       ?begin@?$basic_string@DU?$char_traits@D@std@@V?$allocator@D@2@@std@@QAE?AV?$_String_iterator@DU?$char_traits@D@std@@V?$allocator@D@2@@2@XZ 10021ef6 f   msvcprt:MSVCP80.dll
 0001:00020efc       ??4?$basic_string@DU?$char_traits@D@std@@V?$allocator@D@2@@std@@QAEAAV01@ABV01@@Z 10021efc f   msvcprt:MSVCP80.dll
 0001:00020f02       ??$?MDU?$char_traits@D@std@@V?$allocator@D@1@@std@@YA_NABV?$basic_string@DU?$char_traits@D@std@@V?$allocator@D@2@@0@0@Z 10021f02 f   msvcprt:MSVCP80.dll
 0001:00020f08       ?swap@?$basic_string@DU?$char_traits@D@std@@V?$allocator@D@2@@std@@QAEXAAV12@@Z 10021f08 f   msvcprt:MSVCP80.dll
 0001:00020f0e       ?end@?$basic_string@DU?$char_traits@D@std@@V?$allocator@D@2@@std@@QAE?AV?$_String_iterator@DU?$char_traits@D@std@@V?$allocator@D@2@@2@XZ 10021f0e f   msvcprt:MSVCP80.dll
 0001:00020f14       ?rdbuf@?$basic_ios@DU?$char_traits@D@std@@@std@@QBEPAV?$basic_streambuf@DU?$char_traits@D@std@@@2@XZ 10021f14 f   msvcprt:MSVCP80.dll
 0001:00020f1a       ?tie@?$basic_ios@DU?$char_traits@D@std@@@std@@QBEPAV?$basic_ostream@DU?$char_traits@D@std@@@2@XZ 10021f1a f   msvcprt:MSVCP80.dll
 0001:00020f20       ?setstate@?$basic_ios@DU?$char_traits@D@std@@@std@@QAEXH_N@Z 10021f20 f   msvcprt:MSVCP80.dll
 0001:00020f26       ?length@?$char_traits@D@std@@SAIPBD@Z 10021f26 f   msvcprt:MSVCP80.dll
 0001:00020f2c       ?good@ios_base@std@@QBE_NXZ 10021f2c f   msvcprt:MSVCP80.dll
 0001:00020f32       ?rdstate@ios_base@std@@QBEHXZ 10021f32 f   msvcprt:MSVCP80.dll
 0001:00020f38       ?_Unlock@?$basic_streambuf@DU?$char_traits@D@std@@@std@@QAEXXZ 10021f38 f   msvcprt:MSVCP80.dll
 0001:00020f3e       ?sputc@?$basic_streambuf@DU?$char_traits@D@std@@@std@@QAEHD@Z 10021f3e f   msvcprt:MSVCP80.dll
 0001:00020f44       ?fill@?$basic_ios@DU?$char_traits@D@std@@@std@@QBEDXZ 10021f44 f   msvcprt:MSVCP80.dll
 0001:00020f4a       ??$?8DU?$char_traits@D@std@@V?$allocator@D@1@@std@@YA_NABV?$basic_string@DU?$char_traits@D@std@@V?$allocator@D@2@@0@0@Z 10021f4a f   msvcprt:MSVCP80.dll
 0001:00020f50       ??$?9DU?$char_traits@D@std@@V?$allocator@D@1@@std@@YA_NABV?$basic_string@DU?$char_traits@D@std@@V?$allocator@D@2@@0@0@Z 10021f50 f   msvcprt:MSVCP80.dll
 0001:00020f56       ?sputn@?$basic_streambuf@DU?$char_traits@D@std@@@std@@QAEHPBDH@Z 10021f56 f   msvcprt:MSVCP80.dll
 0001:00020f5c       ?_Lock@?$basic_streambuf@DU?$char_traits@D@std@@@std@@QAEXXZ 10021f5c f   msvcprt:MSVCP80.dll
 0001:00020f62       ??$?6DU?$char_traits@D@std@@V?$allocator@D@1@@std@@YAAAV?$basic_ostream@DU?$char_traits@D@std@@@0@AAV10@ABV?$basic_string@DU?$char_traits@D@std@@V?$allocator@D@2@@0@@Z 10021f62 f   msvcprt:MSVCP80.dll
 0001:00020f68       ?empty@?$basic_string@DU?$char_traits@D@std@@V?$allocator@D@2@@std@@QBE_NXZ 10021f68 f   msvcprt:MSVCP80.dll
 0001:00020f6e       ?width@ios_base@std@@QAEHH@Z 10021f6e f   msvcprt:MSVCP80.dll
 0001:00020f74       ?flush@?$basic_ostream@DU?$char_traits@D@std@@@std@@QAEAAV12@XZ 10021f74 f   msvcprt:MSVCP80.dll
 0001:00020f7a       ?width@ios_base@std@@QBEHXZ 10021f7a f   msvcprt:MSVCP80.dll
 0001:00020f80       ?eof@?$char_traits@D@std@@SAHXZ 10021f80 f   msvcprt:MSVCP80.dll
 0001:00020f86       ?eq_int_type@?$char_traits@D@std@@SA_NABH0@Z 10021f86 f   msvcprt:MSVCP80.dll
 0001:00020f8c       ?uncaught_exception@std@@YA_NXZ 10021f8c f   msvcprt:MSVCP80.dll
 0001:00020f92       ?_Osfx@?$basic_ostream@DU?$char_traits@D@std@@@std@@QAEXXZ 10021f92 f   msvcprt:MSVCP80.dll
 0001:00020f98       ??0?$basic_string@DU?$char_traits@D@std@@V?$allocator@D@2@@std@@QAE@XZ 10021f98 f   msvcprt:MSVCP80.dll
 0001:00020f9e       ?flags@ios_base@std@@QBEHXZ 10021f9e f   msvcprt:MSVCP80.dll
 0001:00020fa4       ?max@?$numeric_limits@N@std@@SANXZ 10021fa4 f   msvcprt:MSVCP80.dll
 0001:00020faa       ?_Lock@_Mutex@std@@QAEXXZ  10021faa f   msvcprt:MSVCP80.dll
 0001:00020fb0       ?_Unlock@_Mutex@std@@QAEXXZ 10021fb0 f   msvcprt:MSVCP80.dll
 0001:00020fb6       ??_D?$basic_stringstream@DU?$char_traits@D@std@@V?$allocator@D@2@@std@@QAEXXZ 10021fb6 f   msvcprt:MSVCP80.dll
 0001:00020fbc       ?str@?$basic_stringstream@DU?$char_traits@D@std@@V?$allocator@D@2@@std@@QBE?AV?$basic_string@DU?$char_traits@D@std@@V?$allocator@D@2@@2@XZ 10021fbc f   msvcprt:MSVCP80.dll
 0001:00020fc2       ??6?$basic_ostream@DU?$char_traits@D@std@@@std@@QAEAAV01@I@Z 10021fc2 f   msvcprt:MSVCP80.dll
 0001:00020fc8       ??0?$basic_stringstream@DU?$char_traits@D@std@@V?$allocator@D@2@@std@@QAE@H@Z 10021fc8 f   msvcprt:MSVCP80.dll
 0001:00020fce       ??$?HDU?$char_traits@D@std@@V?$allocator@D@1@@std@@YA?AV?$basic_string@DU?$char_traits@D@std@@V?$allocator@D@2@@0@ABV10@0@Z 10021fce f   msvcprt:MSVCP80.dll
 0001:00020fd4       ??$?HDU?$char_traits@D@std@@V?$allocator@D@1@@std@@YA?AV?$basic_string@DU?$char_traits@D@std@@V?$allocator@D@2@@0@ABV10@PBD@Z 10021fd4 f   msvcprt:MSVCP80.dll
 0001:00020fda       __invalid_parameter_noinfo 10021fda f   MSVCRT:MSVCR80.dll
 0001:00020fe0       ??8type_info@@QBE_NABV0@@Z 10021fe0 f   MSVCRT:MSVCR80.dll
 0001:00020fe6       __purecall                 10021fe6 f   MSVCRT:MSVCR80.dll
 0001:00020fec       ?what@exception@std@@UBEPBDXZ 10021fec f   MSVCRT:MSVCR80.dll
 0001:00020ff2       _memmove_s                 10021ff2 f   MSVCRT:MSVCR80.dll
 0001:00020ff8       ??1exception@std@@UAE@XZ   10021ff8 f   MSVCRT:MSVCR80.dll
 0001:00020ffe       ??0type_info@@AAE@ABV0@@Z  10021ffe f   MSVCRT:ti_inst.obj
 0001:00021009       ??_Etype_info@@UAEPAXI@Z   10022009 f i MSVCRT:ti_inst.obj
 0001:00021052       ??4type_info@@AAEAAV0@ABV0@@Z 10022052 f   MSVCRT:ti_inst.obj
 0001:00021058       ??0exception@std@@QAE@XZ   10022058 f   MSVCRT:MSVCR80.dll
 0001:0002105e       ??0exception@std@@QAE@ABQBD@Z 1002205e f   MSVCRT:MSVCR80.dll
 0001:00021064       ??0exception@std@@QAE@ABV01@@Z 10022064 f   MSVCRT:MSVCR80.dll
 0001:0002106a       ??3@YAXPAX@Z               1002206a f   MSVCRT:MSVCR80.dll
 0001:00021070       ??2@YAPAXI@Z               10022070 f   MSVCRT:MSVCR80.dll
 0001:00021076       __onexit                   10022076 f   MSVCRT:atonexit.obj
 0001:0002111b       _atexit                    1002211b f   MSVCRT:atonexit.obj
 0001:0002112e       ___RTDynamicCast           1002212e f   MSVCRT:MSVCR80.dll
 0001:00021134       ___clean_type_info_names   10022134 f   MSVCRT:tncleanup.obj
 0001:00021140       _NtCurrentTeb              10022140 f i MSVCRT:crtdll.obj
 0001:00021194       __CRT_INIT@12              10022194 f   MSVCRT:crtdll.obj
 0001:0002146d       __DllMainCRTStartup@12     1002246d f   MSVCRT:crtdll.obj
 0001:0002148e       ___CxxFrameHandler3        1002248e f   MSVCRT:MSVCR80.dll
 0001:00021494       __CxxThrowException@8      10022494 f   MSVCRT:MSVCR80.dll
 0001:0002149a       _getenv                    1002249a f   MSVCRT:MSVCR80.dll
 0001:000214b2       ?__ArrayUnwind@@YGXPAXIHP6EX0@Z@Z 100224b2 f   MSVCRT:ehvecdtr.obj
 0001:00021510       ??_M@YGXPAXIHP6EX0@Z@Z     10022510 f   MSVCRT:ehvecdtr.obj
 0001:00021574       __unlock                   10022574 f   MSVCRT:MSVCR80.dll
 0001:0002157a       ___dllonexit               1002257a f   MSVCRT:MSVCR80.dll
 0001:00021580       __encode_pointer           10022580 f   MSVCRT:MSVCR80.dll
 0001:00021586       __lock                     10022586 f   MSVCRT:MSVCR80.dll
 0001:0002158c       __decode_pointer           1002258c f   MSVCRT:MSVCR80.dll
 0001:00021594       __SEH_prolog4              10022594 f   MSVCRT:sehprolg4.obj
 0001:000215d9       __SEH_epilog4              100225d9 f   MSVCRT:sehprolg4.obj
 0001:000215ed       __except_handler4          100225ed f   MSVCRT:chandler4gs.obj
 0001:00021610       ?_name_internal_method@type_info@@QBEPBDPAU__type_info_node@@@Z 10022610 f   MSVCRT:MSVCR80.dll
 0001:00021616       ___clean_type_info_names_internal 10022616 f   MSVCRT:MSVCR80.dll
 0001:0002161c       __RTC_Initialize           1002261c f   MSVCRT:initsect.obj
 0001:00021640       __RTC_Terminate            10022640 f   MSVCRT:initsect.obj
 0001:00021664       __malloc_crt               10022664 f   MSVCRT:MSVCR80.dll
 0001:0002166a       _free                      1002266a f   MSVCRT:MSVCR80.dll
 0001:00021670       __encoded_null             10022670 f   MSVCRT:MSVCR80.dll
 0001:00021680       __ValidateImageBase        10022680 f   MSVCRT:pesect.obj
 0001:000216b0       __FindPESection            100226b0 f   MSVCRT:pesect.obj
 0001:00021700       __IsNonwritableInCurrentImage 10022700 f   MSVCRT:pesect.obj
 0001:000217bc       __initterm                 100227bc f   MSVCRT:MSVCR80.dll
 0001:000217c2       __initterm_e               100227c2 f   MSVCRT:MSVCR80.dll
 0001:000217c8       __amsg_exit                100227c8 f   MSVCRT:MSVCR80.dll
 0001:000217ce       ___CppXcptFilter           100227ce f   MSVCRT:MSVCR80.dll
 0001:000217d4       _DllMain@12                100227d4 f   MSVCRT:dllmain.obj
 0001:000217f4       ___security_init_cookie    100227f4 f   MSVCRT:gs_support.obj
 0001:00021888       ?terminate@@YAXXZ          10022888 f   MSVCRT:MSVCR80.dll
 0001:0002188e       ??1type_info@@UAE@XZ       1002288e f   MSVCRT:MSVCR80.dll
 0001:0002188e       ?_type_info_dtor_internal_method@type_info@@QAEXXZ 1002288e f   MSVCRT:MSVCR80.dll
 0001:00021894       @__security_check_cookie@4 10022894 f   MSVCRT:secchk.obj
 0001:000218a4       __except_handler4_common   100228a4 f   MSVCRT:MSVCR80.dll
 0001:000218aa       ___report_gsfailure        100228aa f   MSVCRT:gs_report.obj
 0001:000219ae       __crt_debugger_hook        100229ae f   MSVCRT:MSVCR80.dll
 0001:000219b4       ?sender@QObject@@IBEPAV1@XZ 100229b4 f   QtCore4:QtCore4.dll
 0001:000219ba       ?continueFreeData@QMapData@@QAEXH@Z 100229ba f   QtCore4:QtCore4.dll
 0001:000219c0       ?node_create@QMapData@@QAEPAUNode@1@QAPAU21@H@Z 100229c0 f   QtCore4:QtCore4.dll
 0001:000219c6       ?qFree@@YAXPAX@Z           100229c6 f   QtCore4:QtCore4.dll
 0001:000219cc       ?createData@QMapData@@SAPAU1@XZ 100229cc f   QtCore4:QtCore4.dll
 0001:000219d2       ?detach2@QListData@@QAEPAUData@1@XZ 100229d2 f   QtCore4:QtCore4.dll
 0001:000219d8       ?node_delete@QMapData@@QAEXQAPAUNode@1@HPAU21@@Z 100229d8 f   QtCore4:QtCore4.dll
 0001:000219de       ?append@QListData@@QAEPAPAXXZ 100229de f   QtCore4:QtCore4.dll
 0001:000219e4       ?disconnect@QObject@@SA_NPBV1@PBD01@Z 100229e4 f   QtCore4:QtCore4.dll
 0001:000219ea       ?qt_assert_x@@YAXPBD00H@Z  100229ea f   QtCore4:QtCore4.dll
 0001:000219f0       ?contains@QRect@@QBE_NABVQPoint@@_N@Z 100229f0 f   QtCore4:QtCore4.dll
 0001:000219f6       ?installEventFilter@QObject@@QAEXPAV1@@Z 100229f6 f   QtCore4:QtCore4.dll
 0001:000219fc       ?removeEventFilter@QObject@@QAEXPAV1@@Z 100229fc f   QtCore4:QtCore4.dll
 0001:00021a02       ?free@QString@@CAXPAUData@1@@Z 10022a02 f   QtCore4:QtCore4.dll
 0001:00021a08       ?activate@QMetaObject@@SAXPAVQObject@@PBU1@HPAPAX@Z 10022a08 f   QtCore4:QtCore4.dll
 0001:00021a0e       ?addStretch@QBoxLayout@@QAEXH@Z 10022a0e f   QtGui4:QtGui4.dll
 0001:00021a14       ?sizeHint@QScrollArea@@UBE?AVQSize@@XZ 10022a14 f   QtGui4:QtGui4.dll
 0001:00021a1a       ?setStretchFactor@QBoxLayout@@QAE_NPAVQWidget@@H@Z 10022a1a f   QtGui4:QtGui4.dll
 0001:00021a20       ??1QScrollArea@@UAE@XZ     10022a20 f   QtGui4:QtGui4.dll
 0001:00021a26       ?setAutoFillBackground@QWidget@@QAEX_N@Z 10022a26 f   QtGui4:QtGui4.dll
 0001:00021a2c       ?viewport@QAbstractScrollArea@@QBEPAVQWidget@@XZ 10022a2c f   QtGui4:QtGui4.dll
 0001:00021a32       ?setWidgetResizable@QScrollArea@@QAEX_N@Z 10022a32 f   QtGui4:QtGui4.dll
 0001:00021a38       ?setWidget@QScrollArea@@QAEXPAVQWidget@@@Z 10022a38 f   QtGui4:QtGui4.dll
 0001:00021a3e       ?setFrameStyle@QFrame@@QAEXH@Z 10022a3e f   QtGui4:QtGui4.dll
 0001:00021a44       ?setSpacing@QBoxLayout@@QAEXH@Z 10022a44 f   QtGui4:QtGui4.dll
 0001:00021a4a       ?setMargin@QLayout@@QAEXH@Z 10022a4a f   QtGui4:QtGui4.dll
 0001:00021a50       ??0QVBoxLayout@@QAE@PAVQWidget@@@Z 10022a50 f   QtGui4:QtGui4.dll
 0001:00021a56       ??0QScrollArea@@QAE@PAVQWidget@@@Z 10022a56 f   QtGui4:QtGui4.dll
 0001:00021a5c       ?metaObject@QVBoxLayout@@UBEPBUQMetaObject@@XZ 10022a5c f   QtGui4:QtGui4.dll
 0001:00021a62       ?qt_metacast@QVBoxLayout@@UAEPAXPBD@Z 10022a62 f   QtGui4:QtGui4.dll
 0001:00021a68       ?qt_metacall@QVBoxLayout@@UAEHW4Call@QMetaObject@@HPAPAX@Z 10022a68 f   QtGui4:QtGui4.dll
 0001:00021a6e       ?addItem@QBoxLayout@@UAEXPAVQLayoutItem@@@Z 10022a6e f   QtGui4:QtGui4.dll
 0001:00021a74       ?itemAt@QBoxLayout@@UBEPAVQLayoutItem@@H@Z 10022a74 f   QtGui4:QtGui4.dll
 0001:00021a7a       ?takeAt@QBoxLayout@@UAEPAVQLayoutItem@@H@Z 10022a7a f   QtGui4:QtGui4.dll
 0001:00021a80       ?count@QBoxLayout@@UBEHXZ  10022a80 f   QtGui4:QtGui4.dll
 0001:00021a86       ?sizeHint@QBoxLayout@@UBE?AVQSize@@XZ 10022a86 f   QtGui4:QtGui4.dll
 0001:00021a8c       ?minimumSize@QBoxLayout@@UBE?AVQSize@@XZ 10022a8c f   QtGui4:QtGui4.dll
 0001:00021a92       ?maximumSize@QBoxLayout@@UBE?AVQSize@@XZ 10022a92 f   QtGui4:QtGui4.dll
 0001:00021a98       ?expandingDirections@QBoxLayout@@UBE?AV?$QFlags@W4Orientation@Qt@@@@XZ 10022a98 f   QtGui4:QtGui4.dll
 0001:00021a9e       ?setGeometry@QBoxLayout@@UAEXABVQRect@@@Z 10022a9e f   QtGui4:QtGui4.dll
 0001:00021aa4       ?hasHeightForWidth@QBoxLayout@@UBE_NXZ 10022aa4 f   QtGui4:QtGui4.dll
 0001:00021aaa       ?heightForWidth@QBoxLayout@@UBEHH@Z 10022aaa f   QtGui4:QtGui4.dll
 0001:00021ab0       ?minimumHeightForWidth@QBoxLayout@@UBEHH@Z 10022ab0 f   QtGui4:QtGui4.dll
 0001:00021ab6       ?invalidate@QBoxLayout@@UAEXXZ 10022ab6 f   QtGui4:QtGui4.dll
 0001:00021abc       ??1QVBoxLayout@@UAE@XZ     10022abc f   QtGui4:QtGui4.dll
 0001:00021ac2       ?addWidget@QBoxLayout@@QAEXPAVQWidget@@HV?$QFlags@W4AlignmentFlag@Qt@@@@@Z 10022ac2 f   QtGui4:QtGui4.dll
 0001:00021ac8       ?setParent@QWidget@@QAEXPAV1@@Z 10022ac8 f   QtGui4:QtGui4.dll
 0001:00021ace       ?widget@QScrollArea@@QBEPAVQWidget@@XZ 10022ace f   QtGui4:QtGui4.dll
 0001:00021ad4       ?removeWidget@QLayout@@QAEXPAVQWidget@@@Z 10022ad4 f   QtGui4:QtGui4.dll
 0001:00021ada       ?text@QLabel@@QBE?AVQString@@XZ 10022ada f   QtGui4:QtGui4.dll
 0001:00021ae0       ?setText@QLabel@@QAEXABVQString@@@Z 10022ae0 f   QtGui4:QtGui4.dll
 0001:00021ae6       ?hide@QWidget@@QAEXXZ      10022ae6 f   QtGui4:QtGui4.dll
 0001:00021aec       ?show@QWidget@@QAEXXZ      10022aec f   QtGui4:QtGui4.dll
 0001:00021af2       ?pos@QWidget@@QBE?AVQPoint@@XZ 10022af2 f   QtGui4:QtGui4.dll
 0001:00021af8       ??1QPixmap@@UAE@XZ         10022af8 f   QtGui4:QtGui4.dll
 0001:00021afe       ??1QStyleOption@@QAE@XZ    10022afe f   QtGui4:QtGui4.dll
 0001:00021b04       ??1QPainter@@QAE@XZ        10022b04 f   QtGui4:QtGui4.dll
 0001:00021b0a       ?setPixmap@QLabel@@QAEXABVQPixmap@@@Z 10022b0a f   QtGui4:QtGui4.dll
 0001:00021b10       ??0QPainter@@QAE@PAVQPaintDevice@@@Z 10022b10 f   QtGui4:QtGui4.dll
 0001:00021b16       ?rect@QPixmap@@QBE?AVQRect@@XZ 10022b16 f   QtGui4:QtGui4.dll
 0001:00021b1c       ??0QStyleOption@@QAE@HH@Z  10022b1c f   QtGui4:QtGui4.dll
 0001:00021b22       ?fill@QPixmap@@QAEXABVQColor@@@Z 10022b22 f   QtGui4:QtGui4.dll
 0001:00021b28       ??0QColor@@QAE@W4GlobalColor@Qt@@@Z 10022b28 f   QtGui4:QtGui4.dll
 0001:00021b2e       ??0QPixmap@@QAE@HH@Z       10022b2e f   QtGui4:QtGui4.dll
 0001:00021b34       ?style@QWidget@@QBEPAVQStyle@@XZ 10022b34 f   QtGui4:QtGui4.dll
 0001:00021b3a       ?addWidget@QGridLayout@@QAEXPAVQWidget@@HHHHV?$QFlags@W4AlignmentFlag@Qt@@@@@Z 10022b3a f   QtGui4:QtGui4.dll
 0001:00021b40       ?layout@QWidget@@QBEPAVQLayout@@XZ 10022b40 f   QtGui4:QtGui4.dll
 0001:00021b46       ??1QFont@@QAE@XZ           10022b46 f   QtGui4:QtGui4.dll
 0001:00021b4c       ?setColumnStretch@QGridLayout@@QAEXHH@Z 10022b4c f   QtGui4:QtGui4.dll
 0001:00021b52       ?setRowStretch@QGridLayout@@QAEXHH@Z 10022b52 f   QtGui4:QtGui4.dll
 0001:00021b58       ?setSpacing@QGridLayout@@QAEXH@Z 10022b58 f   QtGui4:QtGui4.dll
 0001:00021b5e       ??0QFrame@@QAE@PAVQWidget@@V?$QFlags@W4WindowType@Qt@@@@@Z 10022b5e f   QtGui4:QtGui4.dll
 0001:00021b64       ?setFont@QWidget@@QAEXABVQFont@@@Z 10022b64 f   QtGui4:QtGui4.dll
 0001:00021b6a       ?setWeight@QFont@@QAEXH@Z  10022b6a f   QtGui4:QtGui4.dll
 0001:00021b70       ??0QFont@@QAE@ABV0@@Z      10022b70 f   QtGui4:QtGui4.dll
 0001:00021b76       ??0QLabel@@QAE@PAVQWidget@@V?$QFlags@W4WindowType@Qt@@@@@Z 10022b76 f   QtGui4:QtGui4.dll
 0001:00021b7c       ?metaObject@QFrame@@UBEPBUQMetaObject@@XZ 10022b7c f   QtGui4:QtGui4.dll
 0001:00021b82       ?qt_metacast@QFrame@@UAEPAXPBD@Z 10022b82 f   QtGui4:QtGui4.dll
 0001:00021b88       ?qt_metacall@QFrame@@UAEHW4Call@QMetaObject@@HPAPAX@Z 10022b88 f   QtGui4:QtGui4.dll
 0001:00021b8e       ?event@QFrame@@MAE_NPAVQEvent@@@Z 10022b8e f   QtGui4:QtGui4.dll
 0001:00021b94       ?sizeHint@QFrame@@UBE?AVQSize@@XZ 10022b94 f   QtGui4:QtGui4.dll
 0001:00021b9a       ?paintEvent@QFrame@@MAEXPAVQPaintEvent@@@Z 10022b9a f   QtGui4:QtGui4.dll
 0001:00021ba0       ??1QFrame@@UAE@XZ          10022ba0 f   QtGui4:QtGui4.dll
 0001:00021ba6       ?qt_metacast@QScrollArea@@UAEPAXPBD@Z 10022ba6 f   QtGui4:QtGui4.dll
 0001:00021bac       ?qt_metacall@QScrollArea@@UAEHW4Call@QMetaObject@@HPAPAX@Z 10022bac f   QtGui4:QtGui4.dll
 0001:00021bb2       _InterlockedExchange@8     10022bb2 f   kernel32:KERNEL32.dll
 0001:00021bb8       _Sleep@4                   10022bb8 f   kernel32:KERNEL32.dll
 0001:00021bbe       _InterlockedCompareExchange@12 10022bbe f   kernel32:KERNEL32.dll
 0001:00021bc4       _DisableThreadLibraryCalls@4 10022bc4 f   kernel32:KERNEL32.dll
 0001:00021bca       _QueryPerformanceCounter@4 10022bca f   kernel32:KERNEL32.dll
 0001:00021bd0       _GetTickCount@0            10022bd0 f   kernel32:KERNEL32.dll
 0001:00021bd6       _GetCurrentThreadId@0      10022bd6 f   kernel32:KERNEL32.dll
 0001:00021bdc       _GetCurrentProcessId@0     10022bdc f   kernel32:KERNEL32.dll
 0001:00021be2       _GetSystemTimeAsFileTime@4 10022be2 f   kernel32:KERNEL32.dll
 0001:00021be8       _TerminateProcess@8        10022be8 f   kernel32:KERNEL32.dll
 0001:00021bee       _GetCurrentProcess@0       10022bee f   kernel32:KERNEL32.dll
 0001:00021bf4       _UnhandledExceptionFilter@4 10022bf4 f   kernel32:KERNEL32.dll
 0001:00021bfa       _SetUnhandledExceptionFilter@4 10022bfa f   kernel32:KERNEL32.dll
 0001:00021c00       _IsDebuggerPresent@0       10022c00 f   kernel32:KERNEL32.dll
 0001:00021c10       __CIexp                    10022c10 f   MSVCRT:MSVCR80.dll
 0001:00021c16       __CIsqrt                   10022c16 f   MSVCRT:MSVCR80.dll
 0001:00021c1c       __CIlog                    10022c1c f   MSVCRT:MSVCR80.dll
 0001:00021c30       __ftol2_sse                10022c30 f   MSVCRT:ftol2.obj
 0001:00021c39       __ftol2_pentium4           10022c39 f   MSVCRT:ftol2.obj
 0001:00021c4c       __ftol2_sse_excpt          10022c4c f   MSVCRT:ftol2.obj
 0001:00021c66       __ftol2                    10022c66 f   MSVCRT:ftol2.obj
 0001:00021d2b       __get_sse2_info            10022d2b f   MSVCRT:cpu_disp.obj
 0001:00021d8b       ___sse2_available_init     10022d8b f   MSVCRT:cpu_disp.obj
 0001:00023ae0       ??__Fvar@?1??getDescriptorId@ResamplerOptions@@SAABV?$basic_string@DU?$char_traits@D@std@@V?$allocator@D@2@@std@@XZ@YAXXZ 10024ae0 f i ResamplerOptions.obj
 0001:00023af0       ??__Fvar@?1??getVersion@ResamplerOptions@@SAABV?$basic_string@DU?$char_traits@D@std@@V?$allocator@D@2@@std@@XZ@YAXXZ 10024af0 f i ResamplerOptions.obj
 0001:00023b00       ??__Fvar@?1??getCopyright@ResamplerOptions@@SAABV?$basic_string@DU?$char_traits@D@std@@V?$allocator@D@2@@std@@XZ@YAXXZ 10024b00 f i ResamplerOptions.obj
 0001:00023b10       ??__Fvar@?1??getCreator@ResamplerOptions@@SAABV?$basic_string@DU?$char_traits@D@std@@V?$allocator@D@2@@std@@XZ@YAXXZ 10024b10 f i ResamplerOptions.obj
 0001:00023b20       ??__Fvar@?1??getShortDescription@ResamplerOptions@@SAABV?$basic_string@DU?$char_traits@D@std@@V?$allocator@D@2@@std@@XZ@YAXXZ 10024b20 f i ResamplerOptions.obj
 0001:00023b30       ??__Fvar@?1??getDescription@ResamplerOptions@@SAABV?$basic_string@DU?$char_traits@D@std@@V?$allocator@D@2@@std@@XZ@YAXXZ 10024b30 f i ResamplerOptions.obj
 0001:00023b40       ??__Fvar@?1??getOptionName@ResamplerOptions@@SAABV?$basic_string@DU?$char_traits@D@std@@V?$allocator@D@2@@std@@XZ@YAXXZ 10024b40 f i ResamplerOptions.obj
 0001:00023b50       ??__Fvar@?1??getName@ResamplerOptions@@SAABV?$basic_string@DU?$char_traits@D@std@@V?$allocator@D@2@@std@@XZ@YAXXZ 10024b50 f i ResamplerOptions.obj
 0002:00000000       __imp__InterlockedExchange@8 10025000     kernel32:KERNEL32.dll
 0002:00000004       __imp__InterlockedCompareExchange@12 10025004     kernel32:KERNEL32.dll
 0002:00000008       __imp__DisableThreadLibraryCalls@4 10025008     kernel32:KERNEL32.dll
 0002:0000000c       __imp__QueryPerformanceCounter@4 1002500c     kernel32:KERNEL32.dll
 0002:00000010       __imp__GetTickCount@0      10025010     kernel32:KERNEL32.dll
 0002:00000014       __imp__GetCurrentThreadId@0 10025014     kernel32:KERNEL32.dll
 0002:00000018       __imp__GetCurrentProcessId@0 10025018     kernel32:KERNEL32.dll
 0002:0000001c       __imp__GetSystemTimeAsFileTime@4 1002501c     kernel32:KERNEL32.dll
 0002:00000020       __imp__TerminateProcess@8  10025020     kernel32:KERNEL32.dll
 0002:00000024       __imp__GetCurrentProcess@0 10025024     kernel32:KERNEL32.dll
 0002:00000028       __imp__UnhandledExceptionFilter@4 10025028     kernel32:KERNEL32.dll
 0002:0000002c       __imp__SetUnhandledExceptionFilter@4 1002502c     kernel32:KERNEL32.dll
 0002:00000030       __imp__IsDebuggerPresent@0 10025030     kernel32:KERNEL32.dll
 0002:00000034       __imp__Sleep@4             10025034     kernel32:KERNEL32.dll
 0002:00000038       \177KERNEL32_NULL_THUNK_DATA 10025038     kernel32:KERNEL32.dll
 0002:0000003c       __imp_?length@?$char_traits@D@std@@SAIPBD@Z 1002503c     msvcprt:MSVCP80.dll
 0002:00000040       __imp_?setstate@?$basic_ios@DU?$char_traits@D@std@@@std@@QAEXH_N@Z 10025040     msvcprt:MSVCP80.dll
 0002:00000044       __imp_?max@?$numeric_limits@N@std@@SANXZ 10025044     msvcprt:MSVCP80.dll
 0002:00000048       __imp_?tie@?$basic_ios@DU?$char_traits@D@std@@@std@@QBEPAV?$basic_ostream@DU?$char_traits@D@std@@@2@XZ 10025048     msvcprt:MSVCP80.dll
 0002:0000004c       __imp_?rdbuf@?$basic_ios@DU?$char_traits@D@std@@@std@@QBEPAV?$basic_streambuf@DU?$char_traits@D@std@@@2@XZ 1002504c     msvcprt:MSVCP80.dll
 0002:00000050       __imp_?end@?$basic_string@DU?$char_traits@D@std@@V?$allocator@D@2@@std@@QAE?AV?$_String_iterator@DU?$char_traits@D@std@@V?$allocator@D@2@@2@XZ 10025050     msvcprt:MSVCP80.dll
 0002:00000054       __imp_?swap@?$basic_string@DU?$char_traits@D@std@@V?$allocator@D@2@@std@@QAEXAAV12@@Z 10025054     msvcprt:MSVCP80.dll
 0002:00000058       __imp_??$?MDU?$char_traits@D@std@@V?$allocator@D@1@@std@@YA_NABV?$basic_string@DU?$char_traits@D@std@@V?$allocator@D@2@@0@0@Z 10025058     msvcprt:MSVCP80.dll
 0002:0000005c       __imp_??4?$basic_string@DU?$char_traits@D@std@@V?$allocator@D@2@@std@@QAEAAV01@ABV01@@Z 1002505c     msvcprt:MSVCP80.dll
 0002:00000060       __imp_?begin@?$basic_string@DU?$char_traits@D@std@@V?$allocator@D@2@@std@@QAE?AV?$_String_iterator@DU?$char_traits@D@std@@V?$allocator@D@2@@2@XZ 10025060     msvcprt:MSVCP80.dll
 0002:00000064       __imp_??0?$basic_string@DU?$char_traits@D@std@@V?$allocator@D@2@@std@@QAE@PBD@Z 10025064     msvcprt:MSVCP80.dll
 0002:00000068       __imp_??$?HDU?$char_traits@D@std@@V?$allocator@D@1@@std@@YA?AV?$basic_string@DU?$char_traits@D@std@@V?$allocator@D@2@@0@PBDABV10@@Z 10025068     msvcprt:MSVCP80.dll
 0002:0000006c       __imp_??0?$basic_string@DU?$char_traits@D@std@@V?$allocator@D@2@@std@@QAE@ABV01@@Z 1002506c     msvcprt:MSVCP80.dll
 0002:00000070       __imp_??1?$basic_string@DU?$char_traits@D@std@@V?$allocator@D@2@@std@@QAE@XZ 10025070     msvcprt:MSVCP80.dll
 0002:00000074       __imp_??4?$basic_string@DU?$char_traits@D@std@@V?$allocator@D@2@@std@@QAEAAV01@PBD@Z 10025074     msvcprt:MSVCP80.dll
 0002:00000078       __imp_?_Myptr@?$basic_string@DU?$char_traits@D@std@@V?$allocator@D@2@@std@@IBEPBDXZ 10025078     msvcprt:MSVCP80.dll
 0002:0000007c       __imp_?flags@ios_base@std@@QBEHXZ 1002507c     msvcprt:MSVCP80.dll
 0002:00000080       __imp_?c_str@?$basic_string@DU?$char_traits@D@std@@V?$allocator@D@2@@std@@QBEPBDXZ 10025080     msvcprt:MSVCP80.dll
 0002:00000084       __imp_?good@ios_base@std@@QBE_NXZ 10025084     msvcprt:MSVCP80.dll
 0002:00000088       __imp_?rdstate@ios_base@std@@QBEHXZ 10025088     msvcprt:MSVCP80.dll
 0002:0000008c       __imp_?_Unlock@?$basic_streambuf@DU?$char_traits@D@std@@@std@@QAEXXZ 1002508c     msvcprt:MSVCP80.dll
 0002:00000090       __imp_?sputc@?$basic_streambuf@DU?$char_traits@D@std@@@std@@QAEHD@Z 10025090     msvcprt:MSVCP80.dll
 0002:00000094       __imp_?fill@?$basic_ios@DU?$char_traits@D@std@@@std@@QBEDXZ 10025094     msvcprt:MSVCP80.dll
 0002:00000098       __imp_??$?8DU?$char_traits@D@std@@V?$allocator@D@1@@std@@YA_NABV?$basic_string@DU?$char_traits@D@std@@V?$allocator@D@2@@0@0@Z 10025098     msvcprt:MSVCP80.dll
 0002:0000009c       __imp_??$?9DU?$char_traits@D@std@@V?$allocator@D@1@@std@@YA_NABV?$basic_string@DU?$char_traits@D@std@@V?$allocator@D@2@@0@0@Z 1002509c     msvcprt:MSVCP80.dll
 0002:000000a0       __imp_?sputn@?$basic_streambuf@DU?$char_traits@D@std@@@std@@QAEHPBDH@Z 100250a0     msvcprt:MSVCP80.dll
 0002:000000a4       __imp_?_Lock@?$basic_streambuf@DU?$char_traits@D@std@@@std@@QAEXXZ 100250a4     msvcprt:MSVCP80.dll
 0002:000000a8       __imp_??$?6DU?$char_traits@D@std@@V?$allocator@D@1@@std@@YAAAV?$basic_ostream@DU?$char_traits@D@std@@@0@AAV10@ABV?$basic_string@DU?$char_traits@D@std@@V?$allocator@D@2@@0@@Z 100250a8     msvcprt:MSVCP80.dll
 0002:000000ac       __imp_?empty@?$basic_string@DU?$char_traits@D@std@@V?$allocator@D@2@@std@@QBE_NXZ 100250ac     msvcprt:MSVCP80.dll
 0002:000000b0       __imp_?width@ios_base@std@@QAEHH@Z 100250b0     msvcprt:MSVCP80.dll
 0002:000000b4       __imp_?flush@?$basic_ostream@DU?$char_traits@D@std@@@std@@QAEAAV12@XZ 100250b4     msvcprt:MSVCP80.dll
 0002:000000b8       __imp_?width@ios_base@std@@QBEHXZ 100250b8     msvcprt:MSVCP80.dll
 0002:000000bc       __imp_?eof@?$char_traits@D@std@@SAHXZ 100250bc     msvcprt:MSVCP80.dll
 0002:000000c0       __imp_?eq_int_type@?$char_traits@D@std@@SA_NABH0@Z 100250c0     msvcprt:MSVCP80.dll
 0002:000000c4       __imp_?uncaught_exception@std@@YA_NXZ 100250c4     msvcprt:MSVCP80.dll
 0002:000000c8       __imp_?_Osfx@?$basic_ostream@DU?$char_traits@D@std@@@std@@QAEXXZ 100250c8     msvcprt:MSVCP80.dll
 0002:000000cc       __imp_?_Lock@_Mutex@std@@QAEXXZ 100250cc     msvcprt:MSVCP80.dll
 0002:000000d0       __imp_?_Unlock@_Mutex@std@@QAEXXZ 100250d0     msvcprt:MSVCP80.dll
 0002:000000d4       __imp_??_D?$basic_stringstream@DU?$char_traits@D@std@@V?$allocator@D@2@@std@@QAEXXZ 100250d4     msvcprt:MSVCP80.dll
 0002:000000d8       __imp_?str@?$basic_stringstream@DU?$char_traits@D@std@@V?$allocator@D@2@@std@@QBE?AV?$basic_string@DU?$char_traits@D@std@@V?$allocator@D@2@@2@XZ 100250d8     msvcprt:MSVCP80.dll
 0002:000000dc       __imp_??6?$basic_ostream@DU?$char_traits@D@std@@@std@@QAEAAV01@I@Z 100250dc     msvcprt:MSVCP80.dll
 0002:000000e0       __imp_??0?$basic_stringstream@DU?$char_traits@D@std@@V?$allocator@D@2@@std@@QAE@H@Z 100250e0     msvcprt:MSVCP80.dll
 0002:000000e4       __imp_??$?HDU?$char_traits@D@std@@V?$allocator@D@1@@std@@YA?AV?$basic_string@DU?$char_traits@D@std@@V?$allocator@D@2@@0@ABV10@0@Z 100250e4     msvcprt:MSVCP80.dll
 0002:000000e8       __imp_??$?HDU?$char_traits@D@std@@V?$allocator@D@1@@std@@YA?AV?$basic_string@DU?$char_traits@D@std@@V?$allocator@D@2@@0@ABV10@PBD@Z 100250e8     msvcprt:MSVCP80.dll
 0002:000000ec       __imp_??0?$basic_string@DU?$char_traits@D@std@@V?$allocator@D@2@@std@@QAE@XZ 100250ec     msvcprt:MSVCP80.dll
 0002:000000f0       \177MSVCP80_NULL_THUNK_DATA 100250f0     msvcprt:MSVCP80.dll
 0002:000000f4       __imp___encoded_null       100250f4     MSVCRT:MSVCR80.dll
 0002:000000f8       __imp__free                100250f8     MSVCRT:MSVCR80.dll
 0002:000000fc       __imp___malloc_crt         100250fc     MSVCRT:MSVCR80.dll
 0002:00000100       __imp____clean_type_info_names_internal 10025100     MSVCRT:MSVCR80.dll
 0002:00000104       __imp_?name@type_info@@QBEPBDPAU__type_info_node@@@Z 10025104     MSVCRT:MSVCR80.dll
 0002:00000104       __imp_?_name_internal_method@type_info@@QBEPBDPAU__type_info_node@@@Z 10025104     MSVCRT:MSVCR80.dll
 0002:00000108       __imp___decode_pointer     10025108     MSVCRT:MSVCR80.dll
 0002:0000010c       __imp___onexit             1002510c     MSVCRT:MSVCR80.dll
 0002:00000110       __imp___lock               10025110     MSVCRT:MSVCR80.dll
 0002:00000114       __imp___encode_pointer     10025114     MSVCRT:MSVCR80.dll
 0002:00000118       __imp____dllonexit         10025118     MSVCRT:MSVCR80.dll
 0002:0000011c       __imp___unlock             1002511c     MSVCRT:MSVCR80.dll
 0002:00000120       __imp__getenv              10025120     MSVCRT:MSVCR80.dll
 0002:00000124       __imp___CxxThrowException@8 10025124     MSVCRT:MSVCR80.dll
 0002:00000128       __imp____CxxFrameHandler3  10025128     MSVCRT:MSVCR80.dll
 0002:0000012c       __imp____RTDynamicCast     1002512c     MSVCRT:MSVCR80.dll
 0002:00000130       __imp_??2@YAPAXI@Z         10025130     MSVCRT:MSVCR80.dll
 0002:00000134       __imp_??3@YAXPAX@Z         10025134     MSVCRT:MSVCR80.dll
 0002:00000138       __imp_??0exception@std@@QAE@ABV01@@Z 10025138     MSVCRT:MSVCR80.dll
 0002:0000013c       __imp_??0exception@std@@QAE@ABQBD@Z 1002513c     MSVCRT:MSVCR80.dll
 0002:00000140       __imp_??0exception@std@@QAE@XZ 10025140     MSVCRT:MSVCR80.dll
 0002:00000144       __imp_??1exception@std@@UAE@XZ 10025144     MSVCRT:MSVCR80.dll
 0002:00000148       __imp__memmove_s           10025148     MSVCRT:MSVCR80.dll
 0002:0000014c       __imp_?what@exception@std@@UBEPBDXZ 1002514c     MSVCRT:MSVCR80.dll
 0002:00000150       __imp___purecall           10025150     MSVCRT:MSVCR80.dll
 0002:00000154       __imp_??8type_info@@QBE_NABV0@@Z 10025154     MSVCRT:MSVCR80.dll
 0002:00000158       __imp___invalid_parameter_noinfo 10025158     MSVCRT:MSVCR80.dll
 0002:0000015c       __imp___initterm_e         1002515c     MSVCRT:MSVCR80.dll
 0002:00000160       __imp___amsg_exit          10025160     MSVCRT:MSVCR80.dll
 0002:00000164       __imp___adjust_fdiv        10025164     MSVCRT:MSVCR80.dll
 0002:00000168       __imp____CppXcptFilter     10025168     MSVCRT:MSVCR80.dll
 0002:0000016c       __imp_?terminate@@YAXXZ    1002516c     MSVCRT:MSVCR80.dll
 0002:00000170       __imp_?_type_info_dtor_internal_method@type_info@@QAEXXZ 10025170     MSVCRT:MSVCR80.dll
 0002:00000174       __imp___except_handler4_common 10025174     MSVCRT:MSVCR80.dll
 0002:00000178       __imp___crt_debugger_hook  10025178     MSVCRT:MSVCR80.dll
 0002:0000017c       __imp___CIexp              1002517c     MSVCRT:MSVCR80.dll
 0002:00000180       __imp___CIsqrt             10025180     MSVCRT:MSVCR80.dll
 0002:00000184       __imp___initterm           10025184     MSVCRT:MSVCR80.dll
 0002:00000188       __imp___CIlog              10025188     MSVCRT:MSVCR80.dll
 0002:0000018c       \177MSVCR80_NULL_THUNK_DATA 1002518c     MSVCRT:MSVCR80.dll
 0002:00000190       __imp_?shared_null@QMapData@@2U1@A 10025190     QtCore4:QtCore4.dll
 0002:00000194       __imp_?shared_null@QListData@@2UData@1@A 10025194     QtCore4:QtCore4.dll
 0002:00000198       __imp_?continueFreeData@QMapData@@QAEXH@Z 10025198     QtCore4:QtCore4.dll
 0002:0000019c       __imp_?node_create@QMapData@@QAEPAUNode@1@QAPAU21@H@Z 1002519c     QtCore4:QtCore4.dll
 0002:000001a0       __imp_?qFree@@YAXPAX@Z     100251a0     QtCore4:QtCore4.dll
 0002:000001a4       __imp_?createData@QMapData@@SAPAU1@XZ 100251a4     QtCore4:QtCore4.dll
 0002:000001a8       __imp_?detach2@QListData@@QAEPAUData@1@XZ 100251a8     QtCore4:QtCore4.dll
 0002:000001ac       __imp_?node_delete@QMapData@@QAEXQAPAUNode@1@HPAU21@@Z 100251ac     QtCore4:QtCore4.dll
 0002:000001b0       __imp_?append@QListData@@QAEPAPAXXZ 100251b0     QtCore4:QtCore4.dll
 0002:000001b4       __imp_?disconnect@QObject@@SA_NPBV1@PBD01@Z 100251b4     QtCore4:QtCore4.dll
 0002:000001b8       __imp_?qt_assert_x@@YAXPBD00H@Z 100251b8     QtCore4:QtCore4.dll
 0002:000001bc       __imp_?shared_null@QString@@0UData@1@A 100251bc     QtCore4:QtCore4.dll
 0002:000001c0       __imp_?contains@QRect@@QBE_NABVQPoint@@_N@Z 100251c0     QtCore4:QtCore4.dll
 0002:000001c4       __imp_?installEventFilter@QObject@@QAEXPAV1@@Z 100251c4     QtCore4:QtCore4.dll
 0002:000001c8       __imp_?removeEventFilter@QObject@@QAEXPAV1@@Z 100251c8     QtCore4:QtCore4.dll
 0002:000001cc       __imp_?free@QString@@CAXPAUData@1@@Z 100251cc     QtCore4:QtCore4.dll
 0002:000001d0       __imp_?activate@QMetaObject@@SAXPAVQObject@@PBU1@HPAPAX@Z 100251d0     QtCore4:QtCore4.dll
 0002:000001d4       __imp_?qFlagLocation@@YAPBDPBD@Z 100251d4     QtCore4:QtCore4.dll
 0002:000001d8       __imp_??1QString@@QAE@XZ   100251d8     QtCore4:QtCore4.dll
 0002:000001dc       __imp_?toStdString@QString@@QBE?AV?$basic_string@DU?$char_traits@D@std@@V?$allocator@D@2@@std@@XZ 100251dc     QtCore4:QtCore4.dll
 0002:000001e0       __imp_?fromStdString@QString@@SA?AV1@ABV?$basic_string@DU?$char_traits@D@std@@V?$allocator@D@2@@std@@@Z 100251e0     QtCore4:QtCore4.dll
 0002:000001e4       __imp_??0QString@@QAE@PBD@Z 100251e4     QtCore4:QtCore4.dll
 0002:000001e8       __imp_??0QVariant@@QAE@XZ  100251e8     QtCore4:QtCore4.dll
 0002:000001ec       __imp_?event@QObject@@UAE_NPAVQEvent@@@Z 100251ec     QtCore4:QtCore4.dll
 0002:000001f0       __imp_?eventFilter@QObject@@UAE_NPAV1@PAVQEvent@@@Z 100251f0     QtCore4:QtCore4.dll
 0002:000001f4       __imp_?connect@QObject@@SA_NPBV1@PBD01W4ConnectionType@Qt@@@Z 100251f4     QtCore4:QtCore4.dll
 0002:000001f8       __imp_?timerEvent@QObject@@MAEXPAVQTimerEvent@@@Z 100251f8     QtCore4:QtCore4.dll
 0002:000001fc       __imp_?childEvent@QObject@@MAEXPAVQChildEvent@@@Z 100251fc     QtCore4:QtCore4.dll
 0002:00000200       __imp_?customEvent@QObject@@MAEXPAVQEvent@@@Z 10025200     QtCore4:QtCore4.dll
 0002:00000204       __imp_?connectNotify@QObject@@MAEXPBD@Z 10025204     QtCore4:QtCore4.dll
 0002:00000208       __imp_?disconnectNotify@QObject@@MAEXPBD@Z 10025208     QtCore4:QtCore4.dll
 0002:0000020c       __imp_?sender@QObject@@IBEPAV1@XZ 1002520c     QtCore4:QtCore4.dll
 0002:00000210       __imp_??1QVariant@@QAE@XZ  10025210     QtCore4:QtCore4.dll
 0002:00000214       \177QtCore4_NULL_THUNK_DATA 10025214     QtCore4:QtCore4.dll
 0002:00000218       __imp_?qt_metacast@QWidget@@UAEPAXPBD@Z 10025218     QtGui4:QtGui4.dll
 0002:0000021c       __imp_??1QComboBox@@UAE@XZ 1002521c     QtGui4:QtGui4.dll
 0002:00000220       __imp_?fixup@QDoubleSpinBox@@UBEXAAVQString@@@Z 10025220     QtGui4:QtGui4.dll
 0002:00000224       __imp_?mouseMoveEvent@QAbstractScrollArea@@MAEXPAVQMouseEvent@@@Z 10025224     QtGui4:QtGui4.dll
 0002:00000228       __imp_?paletteChange@QWidget@@MAEXABVQPalette@@@Z 10025228     QtGui4:QtGui4.dll
 0002:0000022c       __imp_?mouseReleaseEvent@QWidget@@MAEXPAVQMouseEvent@@@Z 1002522c     QtGui4:QtGui4.dll
 0002:00000230       __imp_?metaObject@QWidget@@UBEPBUQMetaObject@@XZ 10025230     QtGui4:QtGui4.dll
 0002:00000234       __imp_??0QComboBox@@QAE@PAVQWidget@@@Z 10025234     QtGui4:QtGui4.dll
 0002:00000238       __imp_?textFromValue@QDoubleSpinBox@@UBE?AVQString@@N@Z 10025238     QtGui4:QtGui4.dll
 0002:0000023c       __imp_?changeEvent@QFrame@@MAEXPAVQEvent@@@Z 1002523c     QtGui4:QtGui4.dll
 0002:00000240       __imp_?stepEnabled@QAbstractSpinBox@@MBE?AV?$QFlags@W4StepEnabledFlag@QAbstractSpinBox@@@@XZ 10025240     QtGui4:QtGui4.dll
 0002:00000244       __imp_?mouseDoubleClickEvent@QAbstractScrollArea@@MAEXPAVQMouseEvent@@@Z 10025244     QtGui4:QtGui4.dll
 0002:00000248       __imp_?enabledChange@QWidget@@MAEX_N@Z 10025248     QtGui4:QtGui4.dll
 0002:0000024c       __imp_?mousePressEvent@QWidget@@MAEXPAVQMouseEvent@@@Z 1002524c     QtGui4:QtGui4.dll
 0002:00000250       __imp_?focusNextPrevChild@QLabel@@MAE_N_N@Z 10025250     QtGui4:QtGui4.dll
 0002:00000254       __imp_?qt_metacall@QComboBox@@UAEHW4Call@QMetaObject@@HPAPAX@Z 10025254     QtGui4:QtGui4.dll
 0002:00000258       __imp_?valueFromText@QDoubleSpinBox@@UBENABVQString@@@Z 10025258     QtGui4:QtGui4.dll
 0002:0000025c       __imp_?showEvent@QAbstractSpinBox@@MAEXPAVQShowEvent@@@Z 1002525c     QtGui4:QtGui4.dll
 0002:00000260       __imp_?mouseReleaseEvent@QAbstractScrollArea@@MAEXPAVQMouseEvent@@@Z 10025260     QtGui4:QtGui4.dll
 0002:00000264       __imp_?styleChange@QWidget@@MAEXAAVQStyle@@@Z 10025264     QtGui4:QtGui4.dll
 0002:00000268       __imp_?event@QWidget@@MAE_NPAVQEvent@@@Z 10025268     QtGui4:QtGui4.dll
 0002:0000026c       __imp_?focusOutEvent@QLabel@@MAEXPAVQFocusEvent@@@Z 1002526c     QtGui4:QtGui4.dll
 0002:00000270       __imp_?qt_metacast@QComboBox@@UAEPAXPBD@Z 10025270     QtGui4:QtGui4.dll
 0002:00000274       __imp_?validate@QDoubleSpinBox@@UBE?AW4State@QValidator@@AAVQString@@AAH@Z 10025274     QtGui4:QtGui4.dll
 0002:00000278       __imp_?paintEvent@QAbstractSpinBox@@MAEXPAVQPaintEvent@@@Z 10025278     QtGui4:QtGui4.dll
 0002:0000027c       __imp_?mousePressEvent@QAbstractScrollArea@@MAEXPAVQMouseEvent@@@Z 1002527c     QtGui4:QtGui4.dll
 0002:00000280       __imp_?paintEngine@QWidget@@UBEPAVQPaintEngine@@XZ 10025280     QtGui4:QtGui4.dll
 0002:00000284       __imp_?focusInEvent@QLabel@@MAEXPAVQFocusEvent@@@Z 10025284     QtGui4:QtGui4.dll
 0002:00000288       __imp_?metaObject@QComboBox@@UBEPBUQMetaObject@@XZ 10025288     QtGui4:QtGui4.dll
 0002:0000028c       __imp_?setDecimals@QDoubleSpinBox@@QAEXH@Z 1002528c     QtGui4:QtGui4.dll
 0002:00000290       __imp_?timerEvent@QAbstractSpinBox@@MAEXPAVQTimerEvent@@@Z 10025290     QtGui4:QtGui4.dll
 0002:00000294       __imp_?paintEvent@QAbstractScrollArea@@MAEXPAVQPaintEvent@@@Z 10025294     QtGui4:QtGui4.dll
 0002:00000298       __imp_?spacerItem@QLayoutItem@@UAEPAVQSpacerItem@@XZ 10025298     QtGui4:QtGui4.dll
 0002:0000029c       __imp_?focusNextPrevChild@QWidget@@MAE_N_N@Z 1002529c     QtGui4:QtGui4.dll
 0002:000002a0       __imp_?contextMenuEvent@QLabel@@MAEXPAVQContextMenuEvent@@@Z 100252a0     QtGui4:QtGui4.dll
 0002:000002a4       __imp_?setRange@QDoubleSpinBox@@QAEXNN@Z 100252a4     QtGui4:QtGui4.dll
 0002:000002a8       __imp_?mouseMoveEvent@QAbstractSpinBox@@MAEXPAVQMouseEvent@@@Z 100252a8     QtGui4:QtGui4.dll
 0002:000002ac       __imp_?viewportEvent@QAbstractScrollArea@@MAE_NPAVQEvent@@@Z 100252ac     QtGui4:QtGui4.dll
 0002:000002b0       __imp_?widget@QLayoutItem@@UAEPAVQWidget@@XZ 100252b0     QtGui4:QtGui4.dll
 0002:000002b4       __imp_?inputMethodQuery@QWidget@@UBE?AVQVariant@@W4InputMethodQuery@Qt@@@Z 100252b4     QtGui4:QtGui4.dll
 0002:000002b8       __imp_?releaseDC@QWidget@@UBEXPAUHDC__@@@Z 100252b8     QtGui4:QtGui4.dll
 0002:000002bc       __imp_?mouseReleaseEvent@QLabel@@MAEXPAVQMouseEvent@@@Z 100252bc     QtGui4:QtGui4.dll
 0002:000002c0       __imp_?inputMethodQuery@QComboBox@@MBE?AVQVariant@@W4InputMethodQuery@Qt@@@Z 100252c0     QtGui4:QtGui4.dll
 0002:000002c4       __imp_?setSuffix@QDoubleSpinBox@@QAEXABVQString@@@Z 100252c4     QtGui4:QtGui4.dll
 0002:000002c8       __imp_?mouseReleaseEvent@QAbstractSpinBox@@MAEXPAVQMouseEvent@@@Z 100252c8     QtGui4:QtGui4.dll
 0002:000002cc       __imp_?minimumSizeHint@QAbstractScrollArea@@UBE?AVQSize@@XZ 100252cc     QtGui4:QtGui4.dll
 0002:000002d0       __imp_?inputMethodEvent@QWidget@@MAEXPAVQInputMethodEvent@@@Z 100252d0     QtGui4:QtGui4.dll
 0002:000002d4       __imp_?getDC@QWidget@@UBEPAUHDC__@@XZ 100252d4     QtGui4:QtGui4.dll
 0002:000002d8       __imp_?mouseMoveEvent@QLabel@@MAEXPAVQMouseEvent@@@Z 100252d8     QtGui4:QtGui4.dll
 0002:000002dc       __imp_?inputMethodEvent@QComboBox@@MAEXPAVQInputMethodEvent@@@Z 100252dc     QtGui4:QtGui4.dll
 0002:000002e0       __imp_?value@QDoubleSpinBox@@QBENXZ 100252e0     QtGui4:QtGui4.dll
 0002:000002e4       __imp_?mousePressEvent@QAbstractSpinBox@@MAEXPAVQMouseEvent@@@Z 100252e4     QtGui4:QtGui4.dll
 0002:000002e8       __imp_?metric@QWidget@@MBEHW4PaintDeviceMetric@QPaintDevice@@@Z 100252e8     QtGui4:QtGui4.dll
 0002:000002ec       __imp_?mousePressEvent@QLabel@@MAEXPAVQMouseEvent@@@Z 100252ec     QtGui4:QtGui4.dll
 0002:000002f0       __imp_?addItem@QGridLayout@@MAEXPAVQLayoutItem@@@Z 100252f0     QtGui4:QtGui4.dll
 0002:000002f4       __imp_?contextMenuEvent@QComboBox@@MAEXPAVQContextMenuEvent@@@Z 100252f4     QtGui4:QtGui4.dll
 0002:000002f8       __imp_??0QDoubleSpinBox@@QAE@PAVQWidget@@@Z 100252f8     QtGui4:QtGui4.dll
 0002:000002fc       __imp_?hideEvent@QAbstractSpinBox@@MAEXPAVQHideEvent@@@Z 100252fc     QtGui4:QtGui4.dll
 0002:00000300       __imp_?changeEvent@QWidget@@MAEXPAVQEvent@@@Z 10025300     QtGui4:QtGui4.dll
 0002:00000304       __imp_?mouseDoubleClickEvent@QWidget@@MAEXPAVQMouseEvent@@@Z 10025304     QtGui4:QtGui4.dll
 0002:00000308       __imp_?changeEvent@QLabel@@MAEXPAVQEvent@@@Z 10025308     QtGui4:QtGui4.dll
 0002:0000030c       __imp_?setGeometry@QGridLayout@@UAEXABVQRect@@@Z 1002530c     QtGui4:QtGui4.dll
 0002:00000310       __imp_?fontChange@QWidget@@MAEXABVQFont@@@Z 10025310     QtGui4:QtGui4.dll
 0002:00000314       __imp_?wheelEvent@QAbstractScrollArea@@MAEXPAVQWheelEvent@@@Z 10025314     QtGui4:QtGui4.dll
 0002:00000318       __imp_?setValue@QDoubleSpinBox@@QAEXN@Z 10025318     QtGui4:QtGui4.dll
 0002:0000031c       __imp_?addItem@QComboBox@@QAEXABVQString@@ABVQVariant@@@Z 1002531c     QtGui4:QtGui4.dll
 0002:00000320       __imp_?qt_metacall@QWidget@@UAEHW4Call@QMetaObject@@HPAPAX@Z 10025320     QtGui4:QtGui4.dll
 0002:00000324       __imp_?mouseMoveEvent@QWidget@@MAEXPAVQMouseEvent@@@Z 10025324     QtGui4:QtGui4.dll
 0002:00000328       __imp_?windowActivationChange@QWidget@@MAEX_N@Z 10025328     QtGui4:QtGui4.dll
 0002:0000032c       __imp_?contextMenuEvent@QAbstractScrollArea@@MAEXPAVQContextMenuEvent@@@Z 1002532c     QtGui4:QtGui4.dll
 0002:00000330       __imp_??0QWidget@@QAE@PAV0@V?$QFlags@W4WindowType@Qt@@@@@Z 10025330     QtGui4:QtGui4.dll
 0002:00000334       __imp_?wheelEvent@QWidget@@MAEXPAVQWheelEvent@@@Z 10025334     QtGui4:QtGui4.dll
 0002:00000338       __imp_?languageChange@QWidget@@MAEXXZ 10025338     QtGui4:QtGui4.dll
 0002:0000033c       __imp_?dragEnterEvent@QAbstractScrollArea@@MAEXPAVQDragEnterEvent@@@Z 1002533c     QtGui4:QtGui4.dll
 0002:00000340       __imp_?currentText@QComboBox@@QBE?AVQString@@XZ 10025340     QtGui4:QtGui4.dll
 0002:00000344       __imp_??1QWidget@@UAE@XZ   10025344     QtGui4:QtGui4.dll
 0002:00000348       __imp_?keyPressEvent@QWidget@@MAEXPAVQKeyEvent@@@Z 10025348     QtGui4:QtGui4.dll
 0002:0000034c       __imp_?dragMoveEvent@QAbstractScrollArea@@MAEXPAVQDragMoveEvent@@@Z 1002534c     QtGui4:QtGui4.dll
 0002:00000350       __imp_?devType@QWidget@@UBEHXZ 10025350     QtGui4:QtGui4.dll
 0002:00000354       __imp_?keyReleaseEvent@QWidget@@MAEXPAVQKeyEvent@@@Z 10025354     QtGui4:QtGui4.dll
 0002:00000358       __imp_?dragLeaveEvent@QAbstractScrollArea@@MAEXPAVQDragLeaveEvent@@@Z 10025358     QtGui4:QtGui4.dll
 0002:0000035c       __imp_??1QDoubleSpinBox@@UAE@XZ 1002535c     QtGui4:QtGui4.dll
 0002:00000360       __imp_?setEnabled@QWidget@@QAEX_N@Z 10025360     QtGui4:QtGui4.dll
 0002:00000364       __imp_?focusInEvent@QWidget@@MAEXPAVQFocusEvent@@@Z 10025364     QtGui4:QtGui4.dll
 0002:00000368       __imp_?dropEvent@QAbstractScrollArea@@MAEXPAVQDropEvent@@@Z 10025368     QtGui4:QtGui4.dll
 0002:0000036c       __imp_?sizeHint@QComboBox@@UBE?AVQSize@@XZ 1002536c     QtGui4:QtGui4.dll
 0002:00000370       __imp_?metaObject@QGridLayout@@UBEPBUQMetaObject@@XZ 10025370     QtGui4:QtGui4.dll
 0002:00000374       __imp_?focusOutEvent@QWidget@@MAEXPAVQFocusEvent@@@Z 10025374     QtGui4:QtGui4.dll
 0002:00000378       __imp_?keyPressEvent@QAbstractScrollArea@@MAEXPAVQKeyEvent@@@Z 10025378     QtGui4:QtGui4.dll
 0002:0000037c       __imp_?minimumSizeHint@QComboBox@@UBE?AVQSize@@XZ 1002537c     QtGui4:QtGui4.dll
 0002:00000380       __imp_?qt_metacast@QGridLayout@@UAEPAXPBD@Z 10025380     QtGui4:QtGui4.dll
 0002:00000384       __imp_?enterEvent@QWidget@@MAEXPAVQEvent@@@Z 10025384     QtGui4:QtGui4.dll
 0002:00000388       __imp_?showPopup@QComboBox@@UAEXXZ 10025388     QtGui4:QtGui4.dll
 0002:0000038c       __imp_?qt_metacall@QGridLayout@@UAEHW4Call@QMetaObject@@HPAPAX@Z 1002538c     QtGui4:QtGui4.dll
 0002:00000390       __imp_?leaveEvent@QWidget@@MAEXPAVQEvent@@@Z 10025390     QtGui4:QtGui4.dll
 0002:00000394       __imp_?hidePopup@QComboBox@@UAEXXZ 10025394     QtGui4:QtGui4.dll
 0002:00000398       __imp_??0QGridLayout@@QAE@PAVQWidget@@@Z 10025398     QtGui4:QtGui4.dll
 0002:0000039c       __imp_?focusNextPrevChild@QScrollArea@@UAE_N_N@Z 1002539c     QtGui4:QtGui4.dll
 0002:000003a0       __imp_?paintEvent@QWidget@@MAEXPAVQPaintEvent@@@Z 100253a0     QtGui4:QtGui4.dll
 0002:000003a4       __imp_?sizeHint@QAbstractSpinBox@@UBE?AVQSize@@XZ 100253a4     QtGui4:QtGui4.dll
 0002:000003a8       __imp_?event@QComboBox@@UAE_NPAVQEvent@@@Z 100253a8     QtGui4:QtGui4.dll
 0002:000003ac       __imp_??1QGridLayout@@UAE@XZ 100253ac     QtGui4:QtGui4.dll
 0002:000003b0       __imp_?event@QScrollArea@@MAE_NPAVQEvent@@@Z 100253b0     QtGui4:QtGui4.dll
 0002:000003b4       __imp_?moveEvent@QWidget@@MAEXPAVQMoveEvent@@@Z 100253b4     QtGui4:QtGui4.dll
 0002:000003b8       __imp_?minimumSizeHint@QAbstractSpinBox@@UBE?AVQSize@@XZ 100253b8     QtGui4:QtGui4.dll
 0002:000003bc       __imp_?setCurrentIndex@QComboBox@@QAEXH@Z 100253bc     QtGui4:QtGui4.dll
 0002:000003c0       __imp_?sizeHint@QGridLayout@@UBE?AVQSize@@XZ 100253c0     QtGui4:QtGui4.dll
 0002:000003c4       __imp_?eventFilter@QScrollArea@@MAE_NPAVQObject@@PAVQEvent@@@Z 100253c4     QtGui4:QtGui4.dll
 0002:000003c8       __imp_?resizeEvent@QWidget@@MAEXPAVQResizeEvent@@@Z 100253c8     QtGui4:QtGui4.dll
 0002:000003cc       __imp_?event@QAbstractSpinBox@@UAE_NPAVQEvent@@@Z 100253cc     QtGui4:QtGui4.dll
 0002:000003d0       __imp_?focusInEvent@QComboBox@@MAEXPAVQFocusEvent@@@Z 100253d0     QtGui4:QtGui4.dll
 0002:000003d4       __imp_?minimumSize@QGridLayout@@UBE?AVQSize@@XZ 100253d4     QtGui4:QtGui4.dll
 0002:000003d8       __imp_?resizeEvent@QScrollArea@@MAEXPAVQResizeEvent@@@Z 100253d8     QtGui4:QtGui4.dll
 0002:000003dc       __imp_?metaObject@QLabel@@UBEPBUQMetaObject@@XZ 100253dc     QtGui4:QtGui4.dll
 0002:000003e0       __imp_?closeEvent@QWidget@@MAEXPAVQCloseEvent@@@Z 100253e0     QtGui4:QtGui4.dll
 0002:000003e4       __imp_?geometry@QLayout@@UBE?AVQRect@@XZ 100253e4     QtGui4:QtGui4.dll
 0002:000003e8       __imp_?stepBy@QAbstractSpinBox@@UAEXH@Z 100253e8     QtGui4:QtGui4.dll
 0002:000003ec       __imp_?focusOutEvent@QComboBox@@MAEXPAVQFocusEvent@@@Z 100253ec     QtGui4:QtGui4.dll
 0002:000003f0       __imp_?maximumSize@QGridLayout@@UBE?AVQSize@@XZ 100253f0     QtGui4:QtGui4.dll
 0002:000003f4       __imp_?scrollContentsBy@QScrollArea@@MAEXHH@Z 100253f4     QtGui4:QtGui4.dll
 0002:000003f8       __imp_?qt_metacast@QLabel@@UAEPAXPBD@Z 100253f8     QtGui4:QtGui4.dll
 0002:000003fc       __imp_?contextMenuEvent@QWidget@@MAEXPAVQContextMenuEvent@@@Z 100253fc     QtGui4:QtGui4.dll
 0002:00000400       __imp_?clear@QAbstractSpinBox@@UAEXXZ 10025400     QtGui4:QtGui4.dll
 0002:00000404       __imp_?changeEvent@QComboBox@@MAEXPAVQEvent@@@Z 10025404     QtGui4:QtGui4.dll
 0002:00000408       __imp_?hasHeightForWidth@QGridLayout@@UBE_NXZ 10025408     QtGui4:QtGui4.dll
 0002:0000040c       __imp_?qt_metacall@QLabel@@UAEHW4Call@QMetaObject@@HPAPAX@Z 1002540c     QtGui4:QtGui4.dll
 0002:00000410       __imp_?tabletEvent@QWidget@@MAEXPAVQTabletEvent@@@Z 10025410     QtGui4:QtGui4.dll
 0002:00000414       __imp_?indexOf@QLayout@@UBEHPAVQWidget@@@Z 10025414     QtGui4:QtGui4.dll
 0002:00000418       __imp_?resizeEvent@QAbstractSpinBox@@MAEXPAVQResizeEvent@@@Z 10025418     QtGui4:QtGui4.dll
 0002:0000041c       __imp_?resizeEvent@QComboBox@@MAEXPAVQResizeEvent@@@Z 1002541c     QtGui4:QtGui4.dll
 0002:00000420       __imp_?heightForWidth@QGridLayout@@UBEHH@Z 10025420     QtGui4:QtGui4.dll
 0002:00000424       __imp_??0QLabel@@QAE@ABVQString@@PAVQWidget@@V?$QFlags@W4WindowType@Qt@@@@@Z 10025424     QtGui4:QtGui4.dll
 0002:00000428       __imp_?actionEvent@QWidget@@MAEXPAVQActionEvent@@@Z 10025428     QtGui4:QtGui4.dll
 0002:0000042c       __imp_?isEmpty@QLayout@@UBE_NXZ 1002542c     QtGui4:QtGui4.dll
 0002:00000430       __imp_?keyPressEvent@QAbstractSpinBox@@MAEXPAVQKeyEvent@@@Z 10025430     QtGui4:QtGui4.dll
 0002:00000434       __imp_?paintEvent@QComboBox@@MAEXPAVQPaintEvent@@@Z 10025434     QtGui4:QtGui4.dll
 0002:00000438       __imp_?minimumHeightForWidth@QGridLayout@@UBEHH@Z 10025438     QtGui4:QtGui4.dll
 0002:0000043c       __imp_??1QLabel@@UAE@XZ    1002543c     QtGui4:QtGui4.dll
 0002:00000440       __imp_?setVisible@QWidget@@UAEX_N@Z 10025440     QtGui4:QtGui4.dll
 0002:00000444       __imp_?dragEnterEvent@QWidget@@MAEXPAVQDragEnterEvent@@@Z 10025444     QtGui4:QtGui4.dll
 0002:00000448       __imp_?layout@QLayout@@UAEPAV1@XZ 10025448     QtGui4:QtGui4.dll
 0002:0000044c       __imp_?keyReleaseEvent@QAbstractSpinBox@@MAEXPAVQKeyEvent@@@Z 1002544c     QtGui4:QtGui4.dll
 0002:00000450       __imp_?showEvent@QComboBox@@MAEXPAVQShowEvent@@@Z 10025450     QtGui4:QtGui4.dll
 0002:00000454       __imp_?expandingDirections@QGridLayout@@UBE?AV?$QFlags@W4Orientation@Qt@@@@XZ 10025454     QtGui4:QtGui4.dll
 0002:00000458       __imp_?sizeHint@QLabel@@UBE?AVQSize@@XZ 10025458     QtGui4:QtGui4.dll
 0002:0000045c       __imp_?dragMoveEvent@QWidget@@MAEXPAVQDragMoveEvent@@@Z 1002545c     QtGui4:QtGui4.dll
 0002:00000460       __imp_?childEvent@QLayout@@MAEXPAVQChildEvent@@@Z 10025460     QtGui4:QtGui4.dll
 0002:00000464       __imp_?wheelEvent@QAbstractSpinBox@@MAEXPAVQWheelEvent@@@Z 10025464     QtGui4:QtGui4.dll
 0002:00000468       __imp_?hideEvent@QComboBox@@MAEXPAVQHideEvent@@@Z 10025468     QtGui4:QtGui4.dll
 0002:0000046c       __imp_?invalidate@QGridLayout@@UAEXXZ 1002546c     QtGui4:QtGui4.dll
 0002:00000470       __imp_?minimumSizeHint@QLabel@@UBE?AVQSize@@XZ 10025470     QtGui4:QtGui4.dll
 0002:00000474       __imp_?dragLeaveEvent@QWidget@@MAEXPAVQDragLeaveEvent@@@Z 10025474     QtGui4:QtGui4.dll
 0002:00000478       __imp_?focusInEvent@QAbstractSpinBox@@MAEXPAVQFocusEvent@@@Z 10025478     QtGui4:QtGui4.dll
 0002:0000047c       __imp_?mousePressEvent@QComboBox@@MAEXPAVQMouseEvent@@@Z 1002547c     QtGui4:QtGui4.dll
 0002:00000480       __imp_?addWidget@QGridLayout@@QAEXPAVQWidget@@HHV?$QFlags@W4AlignmentFlag@Qt@@@@@Z 10025480     QtGui4:QtGui4.dll
 0002:00000484       __imp_?heightForWidth@QLabel@@UBEHH@Z 10025484     QtGui4:QtGui4.dll
 0002:00000488       __imp_?dropEvent@QWidget@@MAEXPAVQDropEvent@@@Z 10025488     QtGui4:QtGui4.dll
 0002:0000048c       __imp_?focusOutEvent@QAbstractSpinBox@@MAEXPAVQFocusEvent@@@Z 1002548c     QtGui4:QtGui4.dll
 0002:00000490       __imp_?mouseReleaseEvent@QComboBox@@MAEXPAVQMouseEvent@@@Z 10025490     QtGui4:QtGui4.dll
 0002:00000494       __imp_?itemAt@QGridLayout@@UBEPAVQLayoutItem@@H@Z 10025494     QtGui4:QtGui4.dll
 0002:00000498       __imp_?event@QLabel@@MAE_NPAVQEvent@@@Z 10025498     QtGui4:QtGui4.dll
 0002:0000049c       __imp_?sizeHint@QWidget@@UBE?AVQSize@@XZ 1002549c     QtGui4:QtGui4.dll
 0002:000004a0       __imp_?addStretch@QBoxLayout@@QAEXH@Z 100254a0     QtGui4:QtGui4.dll
 0002:000004a4       __imp_?sizeHint@QScrollArea@@UBE?AVQSize@@XZ 100254a4     QtGui4:QtGui4.dll
 0002:000004a8       __imp_?setStretchFactor@QBoxLayout@@QAE_NPAVQWidget@@H@Z 100254a8     QtGui4:QtGui4.dll
 0002:000004ac       __imp_??1QScrollArea@@UAE@XZ 100254ac     QtGui4:QtGui4.dll
 0002:000004b0       __imp_?setAutoFillBackground@QWidget@@QAEX_N@Z 100254b0     QtGui4:QtGui4.dll
 0002:000004b4       __imp_?viewport@QAbstractScrollArea@@QBEPAVQWidget@@XZ 100254b4     QtGui4:QtGui4.dll
 0002:000004b8       __imp_?setWidgetResizable@QScrollArea@@QAEX_N@Z 100254b8     QtGui4:QtGui4.dll
 0002:000004bc       __imp_?setWidget@QScrollArea@@QAEXPAVQWidget@@@Z 100254bc     QtGui4:QtGui4.dll
 0002:000004c0       __imp_?setFrameStyle@QFrame@@QAEXH@Z 100254c0     QtGui4:QtGui4.dll
 0002:000004c4       __imp_?setSpacing@QBoxLayout@@QAEXH@Z 100254c4     QtGui4:QtGui4.dll
 0002:000004c8       __imp_?setMargin@QLayout@@QAEXH@Z 100254c8     QtGui4:QtGui4.dll
 0002:000004cc       __imp_??0QVBoxLayout@@QAE@PAVQWidget@@@Z 100254cc     QtGui4:QtGui4.dll
 0002:000004d0       __imp_??0QScrollArea@@QAE@PAVQWidget@@@Z 100254d0     QtGui4:QtGui4.dll
 0002:000004d4       __imp_?metaObject@QVBoxLayout@@UBEPBUQMetaObject@@XZ 100254d4     QtGui4:QtGui4.dll
 0002:000004d8       __imp_?qt_metacast@QVBoxLayout@@UAEPAXPBD@Z 100254d8     QtGui4:QtGui4.dll
 0002:000004dc       __imp_?qt_metacall@QVBoxLayout@@UAEHW4Call@QMetaObject@@HPAPAX@Z 100254dc     QtGui4:QtGui4.dll
 0002:000004e0       __imp_?addItem@QBoxLayout@@UAEXPAVQLayoutItem@@@Z 100254e0     QtGui4:QtGui4.dll
 0002:000004e4       __imp_?itemAt@QBoxLayout@@UBEPAVQLayoutItem@@H@Z 100254e4     QtGui4:QtGui4.dll
 0002:000004e8       __imp_?takeAt@QBoxLayout@@UAEPAVQLayoutItem@@H@Z 100254e8     QtGui4:QtGui4.dll
 0002:000004ec       __imp_?count@QBoxLayout@@UBEHXZ 100254ec     QtGui4:QtGui4.dll
 0002:000004f0       __imp_?sizeHint@QBoxLayout@@UBE?AVQSize@@XZ 100254f0     QtGui4:QtGui4.dll
 0002:000004f4       __imp_?minimumSize@QBoxLayout@@UBE?AVQSize@@XZ 100254f4     QtGui4:QtGui4.dll
 0002:000004f8       __imp_?maximumSize@QBoxLayout@@UBE?AVQSize@@XZ 100254f8     QtGui4:QtGui4.dll
 0002:000004fc       __imp_?expandingDirections@QBoxLayout@@UBE?AV?$QFlags@W4Orientation@Qt@@@@XZ 100254fc     QtGui4:QtGui4.dll
 0002:00000500       __imp_?setGeometry@QBoxLayout@@UAEXABVQRect@@@Z 10025500     QtGui4:QtGui4.dll
 0002:00000504       __imp_?hasHeightForWidth@QBoxLayout@@UBE_NXZ 10025504     QtGui4:QtGui4.dll
 0002:00000508       __imp_?heightForWidth@QBoxLayout@@UBEHH@Z 10025508     QtGui4:QtGui4.dll
 0002:0000050c       __imp_?minimumHeightForWidth@QBoxLayout@@UBEHH@Z 1002550c     QtGui4:QtGui4.dll
 0002:00000510       __imp_?invalidate@QBoxLayout@@UAEXXZ 10025510     QtGui4:QtGui4.dll
 0002:00000514       __imp_??1QVBoxLayout@@UAE@XZ 10025514     QtGui4:QtGui4.dll
 0002:00000518       __imp_?addWidget@QBoxLayout@@QAEXPAVQWidget@@HV?$QFlags@W4AlignmentFlag@Qt@@@@@Z 10025518     QtGui4:QtGui4.dll
 0002:0000051c       __imp_?setParent@QWidget@@QAEXPAV1@@Z 1002551c     QtGui4:QtGui4.dll
 0002:00000520       __imp_?widget@QScrollArea@@QBEPAVQWidget@@XZ 10025520     QtGui4:QtGui4.dll
 0002:00000524       __imp_?removeWidget@QLayout@@QAEXPAVQWidget@@@Z 10025524     QtGui4:QtGui4.dll
 0002:00000528       __imp_?text@QLabel@@QBE?AVQString@@XZ 10025528     QtGui4:QtGui4.dll
 0002:0000052c       __imp_?setText@QLabel@@QAEXABVQString@@@Z 1002552c     QtGui4:QtGui4.dll
 0002:00000530       __imp_?hide@QWidget@@QAEXXZ 10025530     QtGui4:QtGui4.dll
 0002:00000534       __imp_?show@QWidget@@QAEXXZ 10025534     QtGui4:QtGui4.dll
 0002:00000538       __imp_?pos@QWidget@@QBE?AVQPoint@@XZ 10025538     QtGui4:QtGui4.dll
 0002:0000053c       __imp_??1QPixmap@@UAE@XZ   1002553c     QtGui4:QtGui4.dll
 0002:00000540       __imp_??1QStyleOption@@QAE@XZ 10025540     QtGui4:QtGui4.dll
 0002:00000544       __imp_??1QPainter@@QAE@XZ  10025544     QtGui4:QtGui4.dll
 0002:00000548       __imp_?setPixmap@QLabel@@QAEXABVQPixmap@@@Z 10025548     QtGui4:QtGui4.dll
 0002:0000054c       __imp_??0QPainter@@QAE@PAVQPaintDevice@@@Z 1002554c     QtGui4:QtGui4.dll
 0002:00000550       __imp_?rect@QPixmap@@QBE?AVQRect@@XZ 10025550     QtGui4:QtGui4.dll
 0002:00000554       __imp_??0QStyleOption@@QAE@HH@Z 10025554     QtGui4:QtGui4.dll
 0002:00000558       __imp_?fill@QPixmap@@QAEXABVQColor@@@Z 10025558     QtGui4:QtGui4.dll
 0002:0000055c       __imp_??0QColor@@QAE@W4GlobalColor@Qt@@@Z 1002555c     QtGui4:QtGui4.dll
 0002:00000560       __imp_??0QPixmap@@QAE@HH@Z 10025560     QtGui4:QtGui4.dll
 0002:00000564       __imp_?style@QWidget@@QBEPAVQStyle@@XZ 10025564     QtGui4:QtGui4.dll
 0002:00000568       __imp_?addWidget@QGridLayout@@QAEXPAVQWidget@@HHHHV?$QFlags@W4AlignmentFlag@Qt@@@@@Z 10025568     QtGui4:QtGui4.dll
 0002:0000056c       __imp_?layout@QWidget@@QBEPAVQLayout@@XZ 1002556c     QtGui4:QtGui4.dll
 0002:00000570       __imp_??1QFont@@QAE@XZ     10025570     QtGui4:QtGui4.dll
 0002:00000574       __imp_?setColumnStretch@QGridLayout@@QAEXHH@Z 10025574     QtGui4:QtGui4.dll
 0002:00000578       __imp_?setRowStretch@QGridLayout@@QAEXHH@Z 10025578     QtGui4:QtGui4.dll
 0002:0000057c       __imp_?setSpacing@QGridLayout@@QAEXH@Z 1002557c     QtGui4:QtGui4.dll
 0002:00000580       __imp_??0QFrame@@QAE@PAVQWidget@@V?$QFlags@W4WindowType@Qt@@@@@Z 10025580     QtGui4:QtGui4.dll
 0002:00000584       __imp_?setFont@QWidget@@QAEXABVQFont@@@Z 10025584     QtGui4:QtGui4.dll
 0002:00000588       __imp_?setWeight@QFont@@QAEXH@Z 10025588     QtGui4:QtGui4.dll
 0002:0000058c       __imp_??0QFont@@QAE@ABV0@@Z 1002558c     QtGui4:QtGui4.dll
 0002:00000590       __imp_??0QLabel@@QAE@PAVQWidget@@V?$QFlags@W4WindowType@Qt@@@@@Z 10025590     QtGui4:QtGui4.dll
 0002:00000594       __imp_?metaObject@QFrame@@UBEPBUQMetaObject@@XZ 10025594     QtGui4:QtGui4.dll
 0002:00000598       __imp_?qt_metacast@QFrame@@UAEPAXPBD@Z 10025598     QtGui4:QtGui4.dll
 0002:0000059c       __imp_?qt_metacall@QFrame@@UAEHW4Call@QMetaObject@@HPAPAX@Z 1002559c     QtGui4:QtGui4.dll
 0002:000005a0       __imp_?event@QFrame@@MAE_NPAVQEvent@@@Z 100255a0     QtGui4:QtGui4.dll
 0002:000005a4       __imp_?sizeHint@QFrame@@UBE?AVQSize@@XZ 100255a4     QtGui4:QtGui4.dll
 0002:000005a8       __imp_?paintEvent@QFrame@@MAEXPAVQPaintEvent@@@Z 100255a8     QtGui4:QtGui4.dll
 0002:000005ac       __imp_??1QFrame@@UAE@XZ    100255ac     QtGui4:QtGui4.dll
 0002:000005b0       __imp_?qt_metacast@QScrollArea@@UAEPAXPBD@Z 100255b0     QtGui4:QtGui4.dll
 0002:000005b4       __imp_?qt_metacall@QScrollArea@@UAEHW4Call@QMetaObject@@HPAPAX@Z 100255b4     QtGui4:QtGui4.dll
 0002:000005b8       __imp_?staticMetaObject@QScrollArea@@2UQMetaObject@@B 100255b8     QtGui4:QtGui4.dll
 0002:000005bc       __imp_?staticMetaObject@QWidget@@2UQMetaObject@@B 100255bc     QtGui4:QtGui4.dll
 0002:000005c0       __imp_?showEvent@QWidget@@MAEXPAVQShowEvent@@@Z 100255c0     QtGui4:QtGui4.dll
 0002:000005c4       __imp_?contextMenuEvent@QAbstractSpinBox@@MAEXPAVQContextMenuEvent@@@Z 100255c4     QtGui4:QtGui4.dll
 0002:000005c8       __imp_?metaObject@QDoubleSpinBox@@UBEPBUQMetaObject@@XZ 100255c8     QtGui4:QtGui4.dll
 0002:000005cc       __imp_?keyPressEvent@QComboBox@@MAEXPAVQKeyEvent@@@Z 100255cc     QtGui4:QtGui4.dll
 0002:000005d0       __imp_?takeAt@QGridLayout@@UAEPAVQLayoutItem@@H@Z 100255d0     QtGui4:QtGui4.dll
 0002:000005d4       __imp_?keyPressEvent@QLabel@@MAEXPAVQKeyEvent@@@Z 100255d4     QtGui4:QtGui4.dll
 0002:000005d8       __imp_?minimumSizeHint@QWidget@@UBE?AVQSize@@XZ 100255d8     QtGui4:QtGui4.dll
 0002:000005dc       __imp_?hideEvent@QWidget@@MAEXPAVQHideEvent@@@Z 100255dc     QtGui4:QtGui4.dll
 0002:000005e0       __imp_?changeEvent@QAbstractSpinBox@@MAEXPAVQEvent@@@Z 100255e0     QtGui4:QtGui4.dll
 0002:000005e4       __imp_?qt_metacast@QDoubleSpinBox@@UAEPAXPBD@Z 100255e4     QtGui4:QtGui4.dll
 0002:000005e8       __imp_?keyReleaseEvent@QComboBox@@MAEXPAVQKeyEvent@@@Z 100255e8     QtGui4:QtGui4.dll
 0002:000005ec       __imp_?count@QGridLayout@@UBEHXZ 100255ec     QtGui4:QtGui4.dll
 0002:000005f0       __imp_?paintEvent@QLabel@@MAEXPAVQPaintEvent@@@Z 100255f0     QtGui4:QtGui4.dll
 0002:000005f4       __imp_?winEvent@QWidget@@MAE_NPAUtagMSG@@PAJ@Z 100255f4     QtGui4:QtGui4.dll
 0002:000005f8       __imp_?closeEvent@QAbstractSpinBox@@MAEXPAVQCloseEvent@@@Z 100255f8     QtGui4:QtGui4.dll
 0002:000005fc       __imp_?qt_metacall@QDoubleSpinBox@@UAEHW4Call@QMetaObject@@HPAPAX@Z 100255fc     QtGui4:QtGui4.dll
 0002:00000600       __imp_?wheelEvent@QComboBox@@MAEXPAVQWheelEvent@@@Z 10025600     QtGui4:QtGui4.dll
 0002:00000604       __imp_?heightForWidth@QWidget@@UBEHH@Z 10025604     QtGui4:QtGui4.dll
 0002:00000608       \177QtGui4_NULL_THUNK_DATA 10025608     QtGui4:QtGui4.dll
 0002:0000060c       ___xc_a                    1002560c     MSVCRT:cinitexe.obj
 0002:00000620       ___xc_z                    10025620     MSVCRT:cinitexe.obj
 0002:00000624       ___xi_a                    10025624     MSVCRT:cinitexe.obj
 0002:00000630       ___xi_z                    10025630     MSVCRT:cinitexe.obj
 0002:00000660       ??_7bad_alloc@std@@6B@     10025660     PlugInLib:PlugInShell.obj
 0002:0000066c       ??_7logic_error@std@@6B@   1002566c     PlugInLib:PlugInShell.obj
 0002:00000678       ??_7length_error@std@@6B@  10025678     PlugInLib:PlugInShell.obj
 0002:00000684       ??_7out_of_range@std@@6B@  10025684     PlugInLib:PlugInShell.obj
 0002:00000690       ??_7SessionItem@@6B@       10025690     PlugInLib:PlugInShell.obj
 0002:000006c0       ??_7SessionItemExt1@@6B@   100256c0     PlugInLib:PlugInShell.obj
 0002:000006cc       ??_7PlugIn@@6B@            100256cc     PlugInLib:PlugInShell.obj
 0002:00000728       ??_C@_0P@JLMCDHHI@pItemExt1?5?$CB?$DN?50?$AA@ 10025728     PlugInLib:PlugInShell.obj
 0002:00000738       ??_C@_0BC@EMCJJKHH@?4?2PlugInShell?4cpp?$AA@ 10025738     PlugInLib:PlugInShell.obj
 0002:00000750       ??_7?$Resource@VSettableSessionItem@@VFactoryObject@@@@6B@ 10025750     PlugInLib:PlugInShell.obj
 0002:00000758       ??_7?$FactoryResource@VSettableSessionItem@@@@6B@ 10025758     PlugInLib:PlugInShell.obj
 0002:0000075c       ??_C@_0BE@JONHPENG@map?1set?$DMT?$DO?5too?5long?$AA@ 1002575c     PlugInLib:PlugInShell.obj
 0002:00000770       ??_C@_0BM@PAPJHAGI@invalid?5map?1set?$DMT?$DO?5iterator?$AA@ 10025770     PlugInLib:PlugInShell.obj
 0002:00000790       ??_7PlugInShell@@6BSessionItemExt1@@@ 10025790     PlugInLib:PlugInShell.obj
 0002:0000079c       ??_7PlugInShell@@6BPlugIn@@@ 1002579c     PlugInLib:PlugInShell.obj
 0002:000007f8       ??_C@_05ILABNDBH@4?43?43?$AA@ 100257f8     PlugInLib:PlugInShell.obj
 0002:00000804       ??_7Option@@6B@            10025804     PlugInLib:OptionShell.obj
 0002:00000814       ??_C@_06CJHLBMGC@Option?$AA@ 10025814     PlugInLib:OptionShell.obj
 0002:00000820       ??_7OptionShell@@6BSessionItemExt1@@@ 10025820     PlugInLib:OptionShell.obj
 0002:0000082c       ??_7OptionShell@@6BPlugIn@@@ 1002582c     PlugInLib:OptionShell.obj
 0002:0000088c       ??_7OptionShell@@6B@       1002588c     PlugInLib:OptionShell.obj
 0002:000008a4       ??_C@_0CF@PMFPIMGN@?5Error?3?5Verification?5Failed?6?6Ver@ 100258a4     PlugInUtilities:AppVerify.obj
 0002:000008cc       ??_C@_0M@DDKFKEBA@?$CJ?6?5?5?5File?3?5?$AA@ 100258cc     PlugInUtilities:AppVerify.obj
 0002:000008d8       ??_C@_0L@HINPDONE@?6?5?5?5Line?3?5?$AA@ 100258d8     PlugInUtilities:AppVerify.obj
 0002:000008e4       ??_C@_0BE@FEIDNADG@OPTICKS_SHOW_VERIFY?$AA@ 100258e4     PlugInUtilities:AppVerify.obj
 0002:000008f8       ??_C@_04LIDDHMOL@Line?$AA@ 100258f8     PlugInUtilities:AppVerify.obj
 0002:00000900       ??_C@_04PBAHLACE@File?$AA@ 10025900     PlugInUtilities:AppVerify.obj
 0002:00000908       ??_C@_06NDEBMOO@Verify?$AA@ 10025908     PlugInUtilities:AppVerify.obj
 0002:00000910       ??_C@_07BEIHKDLJ@Message?$AA@ 10025910     PlugInUtilities:AppVerify.obj
 0002:00000918       ??_C@_07OLJKCMAO@Opticks?$AA@ 10025918     PlugInUtilities:AppVerify.obj
 0002:00000920       ??_C@_09CMNEPOJL@Internal?5?$AA@ 10025920     PlugInUtilities:AppVerify.obj
 0002:0000092c       ??_C@_06OOBNMOBD@?5Error?$AA@ 1002592c     PlugInUtilities:AppVerify.obj
 0002:00000934       ??_C@_03CGOPKBCD@app?$AA@  10025934     PlugInUtilities:AppVerify.obj
 0002:00000938       ??_C@_0CF@GHKIFMDF@94B15D95?94EBC?94ccd?99045?92F89D91C@ 10025938     PlugInUtilities:AppVerify.obj
 0002:00000960       ??_C@_04GKJNKENE@void?$AA@ 10025960     PlugInUtilities:DataVariant.obj
 0002:00000968       ??_C@_0BF@CBGMDFFH@ApplicationServices2?$AA@ 10025968     PlugInUtilities:Service.obj
 0002:00000980       ??_C@_0BB@FJJDPHAA@UtilityServices2?$AA@ 10025980     PlugInUtilities:Service.obj
 0002:00000994       ??_C@_0P@IDKJDNID@ModelServices2?$AA@ 10025994     PlugInUtilities:Service.obj
 0002:000009a4       ??_C@_0BD@NJOLPMIK@AnimationServices2?$AA@ 100259a4     PlugInUtilities:Service.obj
 0002:000009b8       ??_C@_0BB@DCGHPDHL@DesktopServices2?$AA@ 100259b8     PlugInUtilities:Service.obj
 0002:000009cc       ??_C@_0BH@EIOKNJIO@PlugInManagerServices2?$AA@ 100259cc     PlugInUtilities:Service.obj
 0002:000009e8       ??_C@_0FK@BOFLLCAH@Attempting?5to?5use?5SessionExplore@ 100259e8     PlugInUtilities:Service.obj
 0002:00000a44       ??_C@_0BB@ICFKALOH@Session?5Explorer?$AA@ 10025a44     PlugInUtilities:Service.obj
 0002:00000a5c       ??_SQVBoxLayout@@6BQLayoutItem@@@ 10025a5c     PlugInUtilities:LabeledSectionGroup.obj
 0002:00000a9c       ??_SQVBoxLayout@@6BQObject@@@ 10025a9c     PlugInUtilities:LabeledSectionGroup.obj
 0002:00000ae0       ??_SQWidget@@6BQPaintDevice@@@ 10025ae0     PlugInUtilities:LabeledSectionGroup.obj
 0002:00000afc       ??_SQWidget@@6BQObject@@@  10025afc     PlugInUtilities:LabeledSectionGroup.obj
 0002:00000bc8       ??_7LabeledSectionGroup@@6BQPaintDevice@@@ 10025bc8     PlugInUtilities:LabeledSectionGroup.obj
 0002:00000be4       ??_7LabeledSectionGroup@@6BQObject@@@ 10025be4     PlugInUtilities:LabeledSectionGroup.obj
 0002:00000cb8       ??_C@_0LE@NNGDJBAG@connect?$CIpSection?0?5qFlagLocation?$CI@ 10025cb8     PlugInUtilities:LabeledSectionGroup.obj
 0002:00000d6c       ??_C@_0CJ@PADBEDHH@2expanded?$CI?$CJ?$AA?4?2LabeledSectionGrou@ 10025d6c     PlugInUtilities:LabeledSectionGroup.obj
 0002:00000d98       ??_C@_0DF@MPIHLNKC@1enableSectionStretch?$CI?$CJ?$AA?4?2Labele@ 10025d98     PlugInUtilities:LabeledSectionGroup.obj
 0002:00000dd0       ??_C@_0LG@JHDIAPKC@connect?$CIpSection?0?5qFlagLocation?$CI@ 10025dd0     PlugInUtilities:LabeledSectionGroup.obj
 0002:00000e88       ??_C@_0BK@FONLIEHL@?4?2LabeledSectionGroup?4cpp?$AA@ 10025e88     PlugInUtilities:LabeledSectionGroup.obj
 0002:00000ea4       ??_C@_0CK@DDNJNAFD@2collapsed?$CI?$CJ?$AA?4?2LabeledSectionGro@ 10025ea4     PlugInUtilities:LabeledSectionGroup.obj
 0002:00000ed0       ??_C@_0DG@NLCEACOP@1disableSectionStretch?$CI?$CJ?$AA?4?2Label@ 10025ed0     PlugInUtilities:LabeledSectionGroup.obj
 0002:00000f08       ??_C@_0LH@NCCAHNLI@disconnect?$CIpSection?0?5qFlagLocati@ 10025f08     PlugInUtilities:LabeledSectionGroup.obj
 0002:00000fc0       ??_C@_0CJ@EGBLOJFE@2expanded?$CI?$CJ?$AA?4?2LabeledSectionGrou@ 10025fc0     PlugInUtilities:LabeledSectionGroup.obj
 0002:00000fec       ??_C@_0DF@HJKNBHIB@1enableSectionStretch?$CI?$CJ?$AA?4?2Labele@ 10025fec     PlugInUtilities:LabeledSectionGroup.obj
 0002:00001028       ??_C@_0LJ@IKJPHDHH@disconnect?$CIpSection?0?5qFlagLocati@ 10026028     PlugInUtilities:LabeledSectionGroup.obj
 0002:000010e4       ??_C@_0CK@BLHAFHPO@2collapsed?$CI?$CJ?$AA?4?2LabeledSectionGro@ 100260e4     PlugInUtilities:LabeledSectionGroup.obj
 0002:00001110       ??_C@_0DG@PDINIFEC@1disableSectionStretch?$CI?$CJ?$AA?4?2Label@ 10026110     PlugInUtilities:LabeledSectionGroup.obj
 0002:00001148       ??_C@_0BF@MNODFIHK@QList?$DMT?$DO?3?3operator?$FL?$FN?$AA@ 10026148     PlugInUtilities:LabeledSectionGroup.obj
 0002:00001160       ??_C@_0BD@ILOGJALA@index?5out?5of?5range?$AA@ 10026160     PlugInUtilities:LabeledSectionGroup.obj
 0002:00001178       ??_C@_0EB@OJFOJLDD@C?3?2Opticks?2Rollup?2Dependencies?2Q@ 10026178     PlugInUtilities:LabeledSectionGroup.obj
 0002:000011c0       ??_7LabeledSection@@6BQPaintDevice@@@ 100261c0     PlugInUtilities:LabeledSection.obj
 0002:000011dc       ??_7LabeledSection@@6BQObject@@@ 100261dc     PlugInUtilities:LabeledSection.obj
 0002:000012a4       ??_C@_0BB@BJLFKKNH@mpTextLabel?5?$CB?$DN?50?$AA@ 100262a4     PlugInUtilities:LabeledSection.obj
 0002:000012b8       ??_C@_0BF@CNGDCDFN@?4?2LabeledSection?4cpp?$AA@ 100262b8     PlugInUtilities:LabeledSection.obj
 0002:000012d0       ??_C@_0N@IFBKKOHG@pLayout?5?$CB?$DN?50?$AA@ 100262d0     PlugInUtilities:LabeledSection.obj
 0002:000012e4       ??_SQGridLayout@@6BQLayoutItem@@@ 100262e4     PlugInUtilities:LabeledSection.obj
 0002:00001324       ??_SQGridLayout@@6BQObject@@@ 10026324     PlugInUtilities:LabeledSection.obj
 0002:00001368       ??_SQFrame@@6BQPaintDevice@@@ 10026368     PlugInUtilities:LabeledSection.obj
 0002:00001384       ??_SQFrame@@6BQObject@@@   10026384     PlugInUtilities:LabeledSection.obj
 0002:00001454       ??_SQLabel@@6BQObject@@@   10026454     PlugInUtilities:LabeledSection.obj
 0002:00001520       ??_SQLabel@@6BQPaintDevice@@@ 10026520     PlugInUtilities:LabeledSection.obj
 0002:00001654       ??_C@_04DDKJGDCM@bool?$AA@ 10026654     PlugInUtilities:TypeConverter.obj
 0002:0000165c       ??_C@_0N@FDIAEDPI@vector?$DMbool?$DO?$AA@ 1002665c     PlugInUtilities:TypeConverter.obj
 0002:0000166c       ??_C@_04ENMBGAPA@char?$AA@ 1002666c     PlugInUtilities:TypeConverter.obj
 0002:00001674       ??_C@_0N@NMJLLFAE@vector?$DMchar?$DO?$AA@ 10026674     PlugInUtilities:TypeConverter.obj
 0002:00001684       ??_C@_0O@PPAIJIHF@unsigned?5char?$AA@ 10026684     PlugInUtilities:TypeConverter.obj
 0002:00001694       ??_C@_0BG@IPHPNPDM@vector?$DMunsigned?5char?$DO?$AA@ 10026694     PlugInUtilities:TypeConverter.obj
 0002:000016ac       ??_C@_0M@MPLPCMBL@signed?5char?$AA@ 100266ac     PlugInUtilities:TypeConverter.obj
 0002:000016b8       ??_C@_0BE@FHIKMJEO@vector?$DMsigned?5char?$DO?$AA@ 100266b8     PlugInUtilities:TypeConverter.obj
 0002:000016cc       ??_C@_05BFKKPKCG@short?$AA@ 100266cc     PlugInUtilities:TypeConverter.obj
 0002:000016d4       ??_C@_0O@ODJHGOGI@vector?$DMshort?$DO?$AA@ 100266d4     PlugInUtilities:TypeConverter.obj
 0002:000016e4       ??_C@_0P@IIMKEEHB@unsigned?5short?$AA@ 100266e4     PlugInUtilities:TypeConverter.obj
 0002:000016f4       ??_C@_0BH@MLMGDCJM@vector?$DMunsigned?5short?$DO?$AA@ 100266f4     PlugInUtilities:TypeConverter.obj
 0002:0000170c       ??_C@_03JBIPMCLC@int?$AA@  1002670c     PlugInUtilities:TypeConverter.obj
 0002:00001710       ??_C@_0M@KFCDPAGK@vector?$DMint?$DO?$AA@ 10026710     PlugInUtilities:TypeConverter.obj
 0002:0000171c       ??_C@_0N@OFHMGPAL@unsigned?5int?$AA@ 1002671c     PlugInUtilities:TypeConverter.obj
 0002:0000172c       ??_C@_0BF@PCNKPIJI@vector?$DMunsigned?5int?$DO?$AA@ 1002672c     PlugInUtilities:TypeConverter.obj
 0002:00001744       ??_C@_04GOKPGOLB@long?$AA@ 10026744     PlugInUtilities:TypeConverter.obj
 0002:0000174c       ??_C@_0N@NNGDKKAM@vector?$DMlong?$DO?$AA@ 1002674c     PlugInUtilities:TypeConverter.obj
 0002:0000175c       ??_C@_0O@NMGGJGDE@unsigned?5long?$AA@ 1002675c     PlugInUtilities:TypeConverter.obj
 0002:0000176c       ??_C@_0BG@IOIHMADE@vector?$DMunsigned?5long?$DO?$AA@ 1002676c     PlugInUtilities:TypeConverter.obj
 0002:00001784       ??_C@_07GDNIBEMG@int64_t?$AA@ 10026784     PlugInUtilities:TypeConverter.obj
 0002:0000178c       ??_C@_0BA@MAOLBMJP@vector?$DMint64_t?$DO?$AA@ 1002678c     PlugInUtilities:TypeConverter.obj
 0002:0000179c       ??_C@_08FKMHFJJL@uint64_t?$AA@ 1002679c     PlugInUtilities:TypeConverter.obj
 0002:000017a8       ??_C@_0BB@OPLNPMNG@vector?$DMuint64_t?$DO?$AA@ 100267a8     PlugInUtilities:TypeConverter.obj
 0002:000017bc       ??_C@_05KNFBNCOH@float?$AA@ 100267bc     PlugInUtilities:TypeConverter.obj
 0002:000017c4       ??_C@_0O@PEMGHGG@vector?$DMfloat?$DO?$AA@ 100267c4     PlugInUtilities:TypeConverter.obj
 0002:000017d4       ??_C@_06BNJCAIGJ@double?$AA@ 100267d4     PlugInUtilities:TypeConverter.obj
 0002:000017dc       ??_C@_0P@IGHPGLJL@vector?$DMdouble?$DO?$AA@ 100267dc     PlugInUtilities:TypeConverter.obj
 0002:000017ec       ??_C@_0N@OALPANBB@vector?$DMvoid?$DO?$AA@ 100267ec     PlugInUtilities:TypeConverter.obj
 0002:000017fc       ??_C@_06ICGJLFIM@string?$AA@ 100267fc     PlugInUtilities:TypeConverter.obj
 0002:00001804       ??_C@_0P@FGIAIGNB@vector?$DMstring?$DO?$AA@ 10026804     PlugInUtilities:TypeConverter.obj
 0002:00001814       ??_C@_0P@GCFBOKAJ@AnimationCycle?$AA@ 10026814     PlugInUtilities:TypeConverter.obj
 0002:00001824       ??_C@_0BH@JFPCFADM@vector?$DMAnimationCycle?$DO?$AA@ 10026824     PlugInUtilities:TypeConverter.obj
 0002:0000183c       ??_C@_0P@CBCLBGGA@AnimationState?$AA@ 1002683c     PlugInUtilities:TypeConverter.obj
 0002:0000184c       ??_C@_0BH@KBNPPDDM@vector?$DMAnimationState?$DO?$AA@ 1002684c     PlugInUtilities:TypeConverter.obj
 0002:00001864       ??_C@_09NEIGAIIL@ArcRegion?$AA@ 10026864     PlugInUtilities:TypeConverter.obj
 0002:00001870       ??_C@_0BC@PKNDCFBM@vector?$DMArcRegion?$DO?$AA@ 10026870     PlugInUtilities:TypeConverter.obj
 0002:00001884       ??_C@_0BB@DAPCCLPD@ComplexComponent?$AA@ 10026884     PlugInUtilities:TypeConverter.obj
 0002:00001898       ??_C@_0BJ@NKABDJHC@vector?$DMComplexComponent?$DO?$AA@ 10026898     PlugInUtilities:TypeConverter.obj
 0002:000018b4       ??_C@_0L@HMALMJG@DataOrigin?$AA@ 100268b4     PlugInUtilities:TypeConverter.obj
 0002:000018c0       ??_C@_0BD@LEAMLHHE@vector?$DMDataOrigin?$DO?$AA@ 100268c0     PlugInUtilities:TypeConverter.obj
 0002:000018d4       ??_C@_0M@GDNBMJPD@DisplayMode?$AA@ 100268d4     PlugInUtilities:TypeConverter.obj
 0002:000018e0       ??_C@_0BE@PJPHMNOB@vector?$DMDisplayMode?$DO?$AA@ 100268e0     PlugInUtilities:TypeConverter.obj
 0002:000018f4       ??_C@_0O@KEPDKPCL@DistanceUnits?$AA@ 100268f4     PlugInUtilities:TypeConverter.obj
 0002:00001904       ??_C@_0BG@DPHFIPI@vector?$DMDistanceUnits?$DO?$AA@ 10026904     PlugInUtilities:TypeConverter.obj
 0002:0000191c       ??_C@_0O@MNFNLMLH@DmsFormatType?$AA@ 1002691c     PlugInUtilities:TypeConverter.obj
 0002:0000192c       ??_C@_0BG@PKCHCJIE@vector?$DMDmsFormatType?$DO?$AA@ 1002692c     PlugInUtilities:TypeConverter.obj
 0002:00001944       ??_C@_0N@OPBMJJNK@EncodingType?$AA@ 10026944     PlugInUtilities:TypeConverter.obj
 0002:00001954       ??_C@_0BF@DAEHKCM@vector?$DMEncodingType?$DO?$AA@ 10026954     PlugInUtilities:TypeConverter.obj
 0002:0000196c       ??_C@_0L@LKICPMJB@EndianType?$AA@ 1002696c     PlugInUtilities:TypeConverter.obj
 0002:00001978       ??_C@_0BD@CKNFGAJH@vector?$DMEndianType?$DO?$AA@ 10026978     PlugInUtilities:TypeConverter.obj
 0002:0000198c       ??_C@_09HNHLDKBC@FillStyle?$AA@ 1002698c     PlugInUtilities:TypeConverter.obj
 0002:00001998       ??_C@_0BC@HDKJPDMO@vector?$DMFillStyle?$DO?$AA@ 10026998     PlugInUtilities:TypeConverter.obj
 0002:000019ac       ??_C@_0O@LBKMKDP@InsetZoomMode?$AA@ 100269ac     PlugInUtilities:TypeConverter.obj
 0002:000019bc       ??_C@_0BG@BJICGFOA@vector?$DMInsetZoomMode?$DO?$AA@ 100269bc     PlugInUtilities:TypeConverter.obj
 0002:000019d4       ??_C@_0BF@BBDOMFLI@InterleaveFormatType?$AA@ 100269d4     PlugInUtilities:TypeConverter.obj
 0002:000019ec       ??_C@_0BN@DOCOFHKH@vector?$DMInterleaveFormatType?$DO?$AA@ 100269ec     PlugInUtilities:TypeConverter.obj
 0002:00001a0c       ??_C@_09ONPDCMEA@GcpSymbol?$AA@ 10026a0c     PlugInUtilities:TypeConverter.obj
 0002:00001a18       ??_C@_0BC@PGFMELAA@vector?$DMGcpSymbol?$DO?$AA@ 10026a18     PlugInUtilities:TypeConverter.obj
 0002:00001a2c       ??_C@_0N@IMCEOJJI@GeocoordType?$AA@ 10026a2c     PlugInUtilities:TypeConverter.obj
 0002:00001a3c       ??_C@_0BF@JLLFGCOA@vector?$DMGeocoordType?$DO?$AA@ 10026a3c     PlugInUtilities:TypeConverter.obj
 0002:00001a54       ??_C@_0BC@PHECNJGI@GraphicObjectType?$AA@ 10026a54     PlugInUtilities:TypeConverter.obj
 0002:00001a68       ??_C@_0BK@BFCBCLB@vector?$DMGraphicObjectType?$DO?$AA@ 10026a68     PlugInUtilities:TypeConverter.obj
 0002:00001a84       ??_C@_0M@PMGHKEKB@LatLonStyle?$AA@ 10026a84     PlugInUtilities:TypeConverter.obj
 0002:00001a90       ??_C@_0BE@HMANELFE@vector?$DMLatLonStyle?$DO?$AA@ 10026a90     PlugInUtilities:TypeConverter.obj
 0002:00001aa4       ??_C@_09GIEPNBNM@LayerType?$AA@ 10026aa4     PlugInUtilities:TypeConverter.obj
 0002:00001ab0       ??_C@_0BC@PGACIJC@vector?$DMLayerType?$DO?$AA@ 10026ab0     PlugInUtilities:TypeConverter.obj
 0002:00001ac4       ??_C@_09LNOEOIHF@LineStyle?$AA@ 10026ac4     PlugInUtilities:TypeConverter.obj
 0002:00001ad0       ??_C@_0BC@KALPJIOH@vector?$DMLineStyle?$DO?$AA@ 10026ad0     PlugInUtilities:TypeConverter.obj
 0002:00001ae4       ??_C@_0N@GOLOEBKA@PanLimitType?$AA@ 10026ae4     PlugInUtilities:TypeConverter.obj
 0002:00001af4       ??_C@_0BF@LDFFEANG@vector?$DMPanLimitType?$DO?$AA@ 10026af4     PlugInUtilities:TypeConverter.obj
 0002:00001b0c       ??_C@_08LBIMPFBI@PassArea?$AA@ 10026b0c     PlugInUtilities:TypeConverter.obj
 0002:00001b18       ??_C@_0BB@JLOHGFOA@vector?$DMPassArea?$DO?$AA@ 10026b18     PlugInUtilities:TypeConverter.obj
 0002:00001b2c       ??_C@_0P@HCIEEHEP@PlotObjectType?$AA@ 10026b2c     PlugInUtilities:TypeConverter.obj
 0002:00001b3c       ??_C@_0BH@KFNGBDE@vector?$DMPlotObjectType?$DO?$AA@ 10026b3c     PlugInUtilities:TypeConverter.obj
 0002:00001b54       ??_C@_0BH@GNIBEJED@Point?3?3PointSymbolType?$AA@ 10026b54     PlugInUtilities:TypeConverter.obj
 0002:00001b6c       ??_C@_0BP@BGGBEEMC@vector?$DMPoint?3?3PointSymbolType?$DO?$AA@ 10026b6c     PlugInUtilities:TypeConverter.obj
 0002:00001b8c       ??_C@_0N@FDMBGMPN@PositionType?$AA@ 10026b8c     PlugInUtilities:TypeConverter.obj
 0002:00001b9c       ??_C@_0BF@KGLCBCLC@vector?$DMPositionType?$DO?$AA@ 10026b9c     PlugInUtilities:TypeConverter.obj
 0002:00001bb4       ??_C@_0BD@MMBGDGPE@ProcessingLocation?$AA@ 10026bb4     PlugInUtilities:TypeConverter.obj
 0002:00001bc8       ??_C@_0BL@DLGAFOEB@vector?$DMProcessingLocation?$DO?$AA@ 10026bc8     PlugInUtilities:TypeConverter.obj
 0002:00001be4       ??_C@_0BA@LMGFGCOF@SessionSaveType?$AA@ 10026be4     PlugInUtilities:TypeConverter.obj
 0002:00001bf4       ??_C@_0BI@BALPMNL@vector?$DMSessionSaveType?$DO?$AA@ 10026bf4     PlugInUtilities:TypeConverter.obj
 0002:00001c0c       ??_C@_0BC@KGGNDDOL@RasterChannelType?$AA@ 10026c0c     PlugInUtilities:TypeConverter.obj
 0002:00001c20       ??_C@_0BK@HFLCOPMB@vector?$DMRasterChannelType?$DO?$AA@ 10026c20     PlugInUtilities:TypeConverter.obj
 0002:00001c3c       ??_C@_0M@KGOBGCLJ@ReleaseType?$AA@ 10026c3c     PlugInUtilities:TypeConverter.obj
 0002:00001c48       ??_C@_0BE@GPDLFFME@vector?$DMReleaseType?$DO?$AA@ 10026c48     PlugInUtilities:TypeConverter.obj
 0002:00001c5c       ??_C@_0M@IEEADENJ@StretchType?$AA@ 10026c5c     PlugInUtilities:TypeConverter.obj
 0002:00001c68       ??_C@_0BE@CCKLJFMK@vector?$DMStretchType?$DO?$AA@ 10026c68     PlugInUtilities:TypeConverter.obj
 0002:00001c7c       ??_C@_0L@NFINBIND@SymbolType?$AA@ 10026c7c     PlugInUtilities:TypeConverter.obj
 0002:00001c88       ??_C@_0BD@LCGIEPMP@vector?$DMSymbolType?$DO?$AA@ 10026c88     PlugInUtilities:TypeConverter.obj
 0002:00001c9c       ??_C@_0M@PNFGIHI@RegionUnits?$AA@ 10026c9c     PlugInUtilities:TypeConverter.obj
 0002:00001ca8       ??_C@_0BE@IDPBJDOI@vector?$DMRegionUnits?$DO?$AA@ 10026ca8     PlugInUtilities:TypeConverter.obj
 0002:00001cbc       ??_C@_0L@HABFLNPF@UnitSystem?$AA@ 10026cbc     PlugInUtilities:TypeConverter.obj
 0002:00001cc8       ??_C@_0BD@GAMAFCJH@vector?$DMUnitSystem?$DO?$AA@ 10026cc8     PlugInUtilities:TypeConverter.obj
 0002:00001cdc       ??_C@_08PNBAGKKP@UnitType?$AA@ 10026cdc     PlugInUtilities:TypeConverter.obj
 0002:00001ce8       ??_C@_0BB@MOKONPFA@vector?$DMUnitType?$DO?$AA@ 10026ce8     PlugInUtilities:TypeConverter.obj
 0002:00001cfc       ??_C@_0P@BEECLMNP@WindowSizeType?$AA@ 10026cfc     PlugInUtilities:TypeConverter.obj
 0002:00001d0c       ??_C@_0BH@PKDEDEIL@vector?$DMWindowSizeType?$DO?$AA@ 10026d0c     PlugInUtilities:TypeConverter.obj
 0002:00001d24       ??_C@_0L@NEAJCNKD@WindowType?$AA@ 10026d24     PlugInUtilities:TypeConverter.obj
 0002:00001d30       ??_C@_0BD@OCGMLKMG@vector?$DMWindowType?$DO?$AA@ 10026d30     PlugInUtilities:TypeConverter.obj
 0002:00001d44       ??_C@_0BG@FJEAGFDH@AebInstallTransaction?$AA@ 10026d44     PlugInUtilities:TypeConverter.obj
 0002:00001d5c       ??_C@_0BO@FIEKCNCA@vector?$DMAebInstallTransaction?$DO?$AA@ 10026d5c     PlugInUtilities:TypeConverter.obj
 0002:00001d7c       ??_C@_0BC@OOPDAAI@ApplicationWindow?$AA@ 10026d7c     PlugInUtilities:TypeConverter.obj
 0002:00001d90       ??_C@_0BK@EMBJNOAA@vector?$DMApplicationWindow?$DO?$AA@ 10026d90     PlugInUtilities:TypeConverter.obj
 0002:00001dac       ??_C@_09ONEINPNJ@Animation?$AA@ 10026dac     PlugInUtilities:TypeConverter.obj
 0002:00001db8       ??_C@_0BC@HPIPNLBD@vector?$DMAnimation?$DO?$AA@ 10026db8     PlugInUtilities:TypeConverter.obj
 0002:00001dcc       ??_C@_0BE@NPDKGNGO@AnimationController?$AA@ 10026dcc     PlugInUtilities:TypeConverter.obj
 0002:00001de0       ??_C@_0BM@HLGPMJLL@vector?$DMAnimationController?$DO?$AA@ 10026de0     PlugInUtilities:TypeConverter.obj
 0002:00001dfc       ??_C@_0BC@HJKDBGGF@AnnotationElement?$AA@ 10026dfc     PlugInUtilities:TypeConverter.obj
 0002:00001e10       ??_C@_0BK@HPGNIPMD@vector?$DMAnnotationElement?$DO?$AA@ 10026e10     PlugInUtilities:TypeConverter.obj
 0002:00001e2c       ??_C@_0BA@KAAGFGBH@AnnotationLayer?$AA@ 10026e2c     PlugInUtilities:TypeConverter.obj
 0002:00001e3c       ??_C@_0BI@FCKEAMNP@vector?$DMAnnotationLayer?$DO?$AA@ 10026e3c     PlugInUtilities:TypeConverter.obj
 0002:00001e54       ??_C@_03EBKHDLCO@Any?$AA@  10026e54     PlugInUtilities:TypeConverter.obj
 0002:00001e58       ??_C@_0M@FMEKAHPM@vector?$DMAny?$DO?$AA@ 10026e58     PlugInUtilities:TypeConverter.obj
 0002:00001e64       ??_C@_0L@ECIAHKNK@AoiElement?$AA@ 10026e64     PlugInUtilities:TypeConverter.obj
 0002:00001e70       ??_C@_0BD@MLCDPKAJ@vector?$DMAoiElement?$DO?$AA@ 10026e70     PlugInUtilities:TypeConverter.obj
 0002:00001e84       ??_C@_08FOBACOHH@AoiLayer?$AA@ 10026e84     PlugInUtilities:TypeConverter.obj
 0002:00001e90       ??_C@_0BB@EGAFIFPC@vector?$DMAoiLayer?$DO?$AA@ 10026e90     PlugInUtilities:TypeConverter.obj
 0002:00001ea4       ??_C@_07IMLPMLBM@BitMask?$AA@ 10026ea4     PlugInUtilities:TypeConverter.obj
 0002:00001eac       ??_C@_0BA@KGACEAIK@vector?$DMBitMask?$DO?$AA@ 10026eac     PlugInUtilities:TypeConverter.obj
 0002:00001ebc       ??_C@_0O@CJDDHMID@CartesianPlot?$AA@ 10026ebc     PlugInUtilities:TypeConverter.obj
 0002:00001ecc       ??_C@_0BG@NLHHLDPB@vector?$DMCartesianPlot?$DO?$AA@ 10026ecc     PlugInUtilities:TypeConverter.obj
 0002:00001ee4       ??_C@_0P@PEKDEFAE@Classification?$AA@ 10026ee4     PlugInUtilities:TypeConverter.obj
 0002:00001ef4       ??_C@_0BH@OLNFNOCO@vector?$DMClassification?$DO?$AA@ 10026ef4     PlugInUtilities:TypeConverter.obj
 0002:00001f0c       ??_C@_0BE@GLEOKAAM@ClassificationLayer?$AA@ 10026f0c     PlugInUtilities:TypeConverter.obj
 0002:00001f20       ??_C@_0BM@NIGHLNAC@vector?$DMClassificationLayer?$DO?$AA@ 10026f20     PlugInUtilities:TypeConverter.obj
 0002:00001f3c       ??_C@_09MBKNDBMC@ColorType?$AA@ 10026f3c     PlugInUtilities:TypeConverter.obj
 0002:00001f48       ??_C@_0BC@PFMGPHBB@vector?$DMColorType?$DO?$AA@ 10026f48     PlugInUtilities:TypeConverter.obj
 0002:00001f5c       ??_C@_0P@GBNHJIMA@DataDescriptor?$AA@ 10026f5c     PlugInUtilities:TypeConverter.obj
 0002:00001f6c       ??_C@_0BH@HHEJKMFK@vector?$DMDataDescriptor?$DO?$AA@ 10026f6c     PlugInUtilities:TypeConverter.obj
 0002:00001f84       ??_C@_0M@IDLNNGAG@DataElement?$AA@ 10026f84     PlugInUtilities:TypeConverter.obj
 0002:00001f90       ??_C@_0BE@DEMAKHGN@vector?$DMDataElement?$DO?$AA@ 10026f90     PlugInUtilities:TypeConverter.obj
 0002:00001fa4       ??_C@_0BB@NOFIAIEN@DataElementGroup?$AA@ 10026fa4     PlugInUtilities:TypeConverter.obj
 0002:00001fb8       ??_C@_0BJ@PGDGANNK@vector?$DMDataElementGroup?$DO?$AA@ 10026fb8     PlugInUtilities:TypeConverter.obj
 0002:00001fd4       ??_C@_0M@LMHCAHAK@DataRequest?$AA@ 10026fd4     PlugInUtilities:TypeConverter.obj
 0002:00001fe0       ??_C@_0BE@DNEJCEJH@vector?$DMDataRequest?$DO?$AA@ 10026fe0     PlugInUtilities:TypeConverter.obj
 0002:00001ff4       ??_C@_0BD@DLCGCPCN@DataVariantAnyData?$AA@ 10026ff4     PlugInUtilities:TypeConverter.obj
 0002:00002008       ??_C@_0BL@MEJIAECI@vector?$DMDataVariantAnyData?$DO?$AA@ 10027008     PlugInUtilities:TypeConverter.obj
 0002:00002024       ??_C@_08BFOPGFLN@DateTime?$AA@ 10027024     PlugInUtilities:TypeConverter.obj
 0002:00002030       ??_C@_0BB@DNPPFBBH@vector?$DMDateTime?$DO?$AA@ 10027030     PlugInUtilities:TypeConverter.obj
 0002:00002044       ??_C@_0BE@LIEGLNOE@DimensionDescriptor?$AA@ 10027044     PlugInUtilities:TypeConverter.obj
 0002:00002058       ??_C@_0BM@HGGFNPFF@vector?$DMDimensionDescriptor?$DO?$AA@ 10027058     PlugInUtilities:TypeConverter.obj
 0002:00002074       ??_C@_0O@LIHDGLKA@DynamicObject?$AA@ 10027074     PlugInUtilities:TypeConverter.obj
 0002:00002084       ??_C@_0BG@HJIBICJE@vector?$DMDynamicObject?$DO?$AA@ 10027084     PlugInUtilities:TypeConverter.obj
 0002:0000209c       ??_C@_0BA@DPGNDGIL@ExecutableAgent?$AA@ 1002709c     PlugInUtilities:TypeConverter.obj
 0002:000020ac       ??_C@_0BI@KLICLINA@vector?$DMExecutableAgent?$DO?$AA@ 100270ac     PlugInUtilities:TypeConverter.obj
 0002:000020c4       ??_C@_0M@BDOMMID@ExportAgent?$AA@ 100270c4     PlugInUtilities:TypeConverter.obj
 0002:000020d0       ??_C@_0BE@KJJAFDNI@vector?$DMExportAgent?$DO?$AA@ 100270d0     PlugInUtilities:TypeConverter.obj
 0002:000020e4       ??_C@_0P@BHAKHJKP@FileDescriptor?$AA@ 100270e4     PlugInUtilities:TypeConverter.obj
 0002:000020f4       ??_C@_0BH@KKDCANHC@vector?$DMFileDescriptor?$DO?$AA@ 100270f4     PlugInUtilities:TypeConverter.obj
 0002:0000210c       ??_C@_0L@GMFIMLHM@FileFinder?$AA@ 1002710c     PlugInUtilities:TypeConverter.obj
 0002:00002118       ??_C@_0BD@PELICEGF@vector?$DMFileFinder?$DO?$AA@ 10027118     PlugInUtilities:TypeConverter.obj
 0002:0000212c       ??_C@_08JCOIAMOP@Filename?$AA@ 1002712c     PlugInUtilities:TypeConverter.obj
 0002:00002138       ??_C@_0BB@LIBNGGKG@vector?$DMFilename?$DO?$AA@ 10027138     PlugInUtilities:TypeConverter.obj
 0002:0000214c       ??_C@_0N@NPKDPOCM@FloatComplex?$AA@ 1002714c     PlugInUtilities:TypeConverter.obj
 0002:0000215c       ??_C@_0BF@FHOKJCGC@vector?$DMFloatComplex?$DO?$AA@ 1002715c     PlugInUtilities:TypeConverter.obj
 0002:00002174       ??_C@_04IEDBBIIG@Font?$AA@ 10027174     PlugInUtilities:TypeConverter.obj
 0002:0000217c       ??_C@_0N@GFDEJBHF@vector?$DMFont?$DO?$AA@ 1002717c     PlugInUtilities:TypeConverter.obj
 0002:0000218c       ??_C@_08IIODJLKP@GcpLayer?$AA@ 1002718c     PlugInUtilities:TypeConverter.obj
 0002:00002198       ??_C@_0BB@MONLCMKB@vector?$DMGcpLayer?$DO?$AA@ 10027198     PlugInUtilities:TypeConverter.obj
 0002:000021ac       ??_C@_07MODANHOB@GcpList?$AA@ 100271ac     PlugInUtilities:TypeConverter.obj
 0002:000021b4       ??_C@_0BA@GFEMEBDH@vector?$DMGcpList?$DO?$AA@ 100271b4     PlugInUtilities:TypeConverter.obj
 0002:000021c4       ??_C@_0P@DGOBACPK@GraphicElement?$AA@ 100271c4     PlugInUtilities:TypeConverter.obj
 0002:000021d4       ??_C@_0BH@LBBCEDHC@vector?$DMGraphicElement?$DO?$AA@ 100271d4     PlugInUtilities:TypeConverter.obj
 0002:000021ec       ??_C@_0N@JELMFKJC@GraphicLayer?$AA@ 100271ec     PlugInUtilities:TypeConverter.obj
 0002:000021fc       ??_C@_0BF@HLHIBDEN@vector?$DMGraphicLayer?$DO?$AA@ 100271fc     PlugInUtilities:TypeConverter.obj
 0002:00002214       ??_C@_0O@OGOGAEAL@HistogramPlot?$AA@ 10027214     PlugInUtilities:TypeConverter.obj
 0002:00002224       ??_C@_0BG@DINLGNJL@vector?$DMHistogramPlot?$DO?$AA@ 10027224     PlugInUtilities:TypeConverter.obj
 0002:0000223c       ??_C@_0M@NLJFOJIL@ImportAgent?$AA@ 1002723c     PlugInUtilities:TypeConverter.obj
 0002:00002248       ??_C@_0BE@KHJBHAMP@vector?$DMImportAgent?$DO?$AA@ 10027248     PlugInUtilities:TypeConverter.obj
 0002:0000225c       ??_C@_0P@MGHFFHLC@IntegerComplex?$AA@ 1002725c     PlugInUtilities:TypeConverter.obj
 0002:0000226c       ??_C@_0BH@MJOFBOIF@vector?$DMIntegerComplex?$DO?$AA@ 1002726c     PlugInUtilities:TypeConverter.obj
 0002:00002284       ??_C@_05DPPJJBMK@Int64?$AA@ 10027284     PlugInUtilities:TypeConverter.obj
 0002:0000228c       ??_C@_0O@EKABJDFA@vector?$DMInt64?$DO?$AA@ 1002728c     PlugInUtilities:TypeConverter.obj
 0002:0000229c       ??_C@_0M@KMLFLDAE@LatLonLayer?$AA@ 1002729c     PlugInUtilities:TypeConverter.obj
 0002:000022a8       ??_C@_0BE@NKOBMOCE@vector?$DMLatLonLayer?$DO?$AA@ 100272a8     PlugInUtilities:TypeConverter.obj
 0002:000022bc       ??_C@_05NHNHDHBP@Layer?$AA@ 100272bc     PlugInUtilities:TypeConverter.obj
 0002:000022c4       ??_C@_0O@LMFAJLKN@vector?$DMLayer?$DO?$AA@ 100272c4     PlugInUtilities:TypeConverter.obj
 0002:000022d4       ??_C@_0N@MAFNPHOD@LocationType?$AA@ 100272d4     PlugInUtilities:TypeConverter.obj
 0002:000022e4       ??_C@_0BF@FMCOLDEK@vector?$DMLocationType?$DO?$AA@ 100272e4     PlugInUtilities:TypeConverter.obj
 0002:000022fc       ??_C@_0BB@GPFDBOPP@MeasurementLayer?$AA@ 100272fc     PlugInUtilities:TypeConverter.obj
 0002:00002310       ??_C@_0BJ@NDOINEGM@vector?$DMMeasurementLayer?$DO?$AA@ 10027310     PlugInUtilities:TypeConverter.obj
 0002:0000232c       ??_C@_0BB@JHGIIGFI@OrthographicView?$AA@ 1002732c     PlugInUtilities:TypeConverter.obj
 0002:00002340       ??_C@_0BJ@JLKCNJLP@vector?$DMOrthographicView?$DO?$AA@ 10027340     PlugInUtilities:TypeConverter.obj
 0002:0000235c       ??_C@_0BA@PDPHNCFA@PerspectiveView?$AA@ 1002735c     PlugInUtilities:TypeConverter.obj
 0002:0000236c       ??_C@_0BI@LKEPCJGI@vector?$DMPerspectiveView?$DO?$AA@ 1002736c     PlugInUtilities:TypeConverter.obj
 0002:00002384       ??_C@_0BH@GPLFFOBB@Opticks?3?3PixelLocation?$AA@ 10027384     PlugInUtilities:TypeConverter.obj
 0002:0000239c       ??_C@_0BP@JDAGEAAN@vector?$DMOpticks?3?3PixelLocation?$DO?$AA@ 1002739c     PlugInUtilities:TypeConverter.obj
 0002:000023bc       ??_C@_08NOLCAIBA@PlotView?$AA@ 100273bc     PlugInUtilities:TypeConverter.obj
 0002:000023c8       ??_C@_0BB@JFFDNDCP@vector?$DMPlotView?$DO?$AA@ 100273c8     PlugInUtilities:TypeConverter.obj
 0002:000023dc       ??_C@_0L@IKFIIEHD@PlotWidget?$AA@ 100273dc     PlugInUtilities:TypeConverter.obj
 0002:000023e8       ??_C@_0BD@GEOBDJLL@vector?$DMPlotWidget?$DO?$AA@ 100273e8     PlugInUtilities:TypeConverter.obj
 0002:000023fc       ??_C@_0L@PEOHOFCJ@PlotWindow?$AA@ 100273fc     PlugInUtilities:TypeConverter.obj
 0002:00002408       ??_C@_0BD@OPCBDODA@vector?$DMPlotWindow?$DO?$AA@ 10027408     PlugInUtilities:TypeConverter.obj
 0002:0000241c       ??_C@_09ILOPLGEE@PolarPlot?$AA@ 1002741c     PlugInUtilities:TypeConverter.obj
 0002:00002428       ??_C@_0BC@PBFHJDID@vector?$DMPolarPlot?$DO?$AA@ 10027428     PlugInUtilities:TypeConverter.obj
 0002:0000243c       ??_C@_0M@CODOOFLI@ProductView?$AA@ 1002743c     PlugInUtilities:TypeConverter.obj
 0002:00002448       ??_C@_0BE@BILELKNF@vector?$DMProductView?$DO?$AA@ 10027448     PlugInUtilities:TypeConverter.obj
 0002:0000245c       ??_C@_0O@EMICLNIB@ProductWindow?$AA@ 1002745c     PlugInUtilities:TypeConverter.obj
 0002:0000246c       ??_C@_0BG@DFBMGDBM@vector?$DMProductWindow?$DO?$AA@ 1002746c     PlugInUtilities:TypeConverter.obj
 0002:00002484       ??_C@_08DAJBHHIG@Progress?$AA@ 10027484     PlugInUtilities:TypeConverter.obj
 0002:00002490       ??_C@_0BB@IMNBMGCB@vector?$DMProgress?$DO?$AA@ 10027490     PlugInUtilities:TypeConverter.obj
 0002:000024a4       ??_C@_0BB@LJALFHPD@PseudocolorLayer?$AA@ 100274a4     PlugInUtilities:TypeConverter.obj
 0002:000024b8       ??_C@_0BJ@NKIIMAAO@vector?$DMPseudocolorLayer?$DO?$AA@ 100274b8     PlugInUtilities:TypeConverter.obj
 0002:000024d4       ??_C@_0BF@CAHHICLO@RasterDataDescriptor?$AA@ 100274d4     PlugInUtilities:TypeConverter.obj
 0002:000024ec       ??_C@_0BN@NHHMLLNF@vector?$DMRasterDataDescriptor?$DO?$AA@ 100274ec     PlugInUtilities:TypeConverter.obj
 0002:0000250c       ??_C@_0O@NOOCEGCF@RasterElement?$AA@ 1002750c     PlugInUtilities:TypeConverter.obj
 0002:0000251c       ??_C@_0BG@OEDFGEBG@vector?$DMRasterElement?$DO?$AA@ 1002751c     PlugInUtilities:TypeConverter.obj
 0002:00002534       ??_C@_0BF@FGKKGDNB@RasterFileDescriptor?$AA@ 10027534     PlugInUtilities:TypeConverter.obj
 0002:0000254c       ??_C@_0BN@KAHBKPN@vector?$DMRasterFileDescriptor?$DO?$AA@ 1002754c     PlugInUtilities:TypeConverter.obj
 0002:0000256c       ??_C@_0M@PBHBOCH@RasterLayer?$AA@ 1002756c     PlugInUtilities:TypeConverter.obj
 0002:00002578       ??_C@_0BE@HICFBNPL@vector?$DMRasterLayer?$DO?$AA@ 10027578     PlugInUtilities:TypeConverter.obj
 0002:0000258c       ??_C@_0M@JFEJLCPJ@SessionItem?$AA@ 1002758c     PlugInUtilities:TypeConverter.obj
 0002:00002598       ??_C@_0BE@BJNELMIE@vector?$DMSessionItem?$DO?$AA@ 10027598     PlugInUtilities:TypeConverter.obj
 0002:000025ac       ??_C@_0BE@NDMBILLL@SettableSessionItem?$AA@ 100275ac     PlugInUtilities:TypeConverter.obj
 0002:000025c0       ??_C@_0BM@INNKBEAG@vector?$DMSettableSessionItem?$DO?$AA@ 100275c0     PlugInUtilities:TypeConverter.obj
 0002:000025dc       ??_C@_09GDNFOKKF@Signature?$AA@ 100275dc     PlugInUtilities:TypeConverter.obj
 0002:000025e8       ??_C@_0BC@CGLCHLDB@vector?$DMSignature?$DO?$AA@ 100275e8     PlugInUtilities:TypeConverter.obj
 0002:000025fc       ??_C@_0BB@EGOKEBGE@SignatureLibrary?$AA@ 100275fc     PlugInUtilities:TypeConverter.obj
 0002:00002610       ??_C@_0BJ@LEBMCHPP@vector?$DMSignatureLibrary?$DO?$AA@ 10027610     PlugInUtilities:TypeConverter.obj
 0002:0000262c       ??_C@_0O@LHAPAKGG@SignaturePlot?$AA@ 1002762c     PlugInUtilities:TypeConverter.obj
 0002:0000263c       ??_C@_0BG@LIJJJHA@vector?$DMSignaturePlot?$DO?$AA@ 1002763c     PlugInUtilities:TypeConverter.obj
 0002:00002654       ??_C@_0N@FBGMLHKA@SignatureSet?$AA@ 10027654     PlugInUtilities:TypeConverter.obj
 0002:00002664       ??_C@_0BF@LDGKJCCA@vector?$DMSignatureSet?$DO?$AA@ 10027664     PlugInUtilities:TypeConverter.obj
 0002:0000267c       ??_C@_0BA@OLMDCPLD@SpatialDataView?$AA@ 1002767c     PlugInUtilities:TypeConverter.obj
 0002:0000268c       ??_C@_0BI@IDFEKOFH@vector?$DMSpatialDataView?$DO?$AA@ 1002768c     PlugInUtilities:TypeConverter.obj
 0002:000026a4       ??_C@_0BC@NEMHIKBJ@SpatialDataWindow?$AA@ 100276a4     PlugInUtilities:TypeConverter.obj
 0002:000026b8       ??_C@_0BK@CGHDNGEI@vector?$DMSpatialDataWindow?$DO?$AA@ 100276b8     PlugInUtilities:TypeConverter.obj
 0002:000026d4       ??_C@_0P@LOGJLEMD@ThresholdLayer?$AA@ 100276d4     PlugInUtilities:TypeConverter.obj
 0002:000026e4       ??_C@_0BH@OOJPEDMM@vector?$DMThresholdLayer?$DO?$AA@ 100276e4     PlugInUtilities:TypeConverter.obj
 0002:000026fc       ??_C@_0O@MFEKJDME@TiePointLayer?$AA@ 100276fc     PlugInUtilities:TypeConverter.obj
 0002:0000270c       ??_C@_0BG@DDCDBOCN@vector?$DMTiePointLayer?$DO?$AA@ 1002770c     PlugInUtilities:TypeConverter.obj
 0002:00002724       ??_C@_0N@NFFJOEIB@TiePointList?$AA@ 10027724     PlugInUtilities:TypeConverter.obj
 0002:00002734       ??_C@_0BF@PPIHLHCN@vector?$DMTiePointList?$DO?$AA@ 10027734     PlugInUtilities:TypeConverter.obj
 0002:0000274c       ??_C@_06GCLKCJAH@UInt64?$AA@ 1002774c     PlugInUtilities:TypeConverter.obj
 0002:00002754       ??_C@_0P@CMAKAPOF@vector?$DMUInt64?$DO?$AA@ 10027754     PlugInUtilities:TypeConverter.obj
 0002:00002764       ??_C@_05CFLIFMAE@Units?$AA@ 10027764     PlugInUtilities:TypeConverter.obj
 0002:0000276c       ??_C@_0O@DGMHDNCK@vector?$DMUnits?$DO?$AA@ 1002776c     PlugInUtilities:TypeConverter.obj
 0002:0000277c       ??_C@_04OGMCGMPK@View?$AA@ 1002777c     PlugInUtilities:TypeConverter.obj
 0002:00002784       ??_C@_0N@DMOFFPBG@vector?$DMView?$DO?$AA@ 10027784     PlugInUtilities:TypeConverter.obj
 0002:00002794       ??_C@_06BKKJGDHO@Window?$AA@ 10027794     PlugInUtilities:TypeConverter.obj
 0002:0000279c       ??_C@_0P@FKLNFDH@vector?$DMWindow?$DO?$AA@ 1002779c     PlugInUtilities:TypeConverter.obj
 0002:000027ac       ??_C@_0N@LABCPEHB@WizardObject?$AA@ 100277ac     PlugInUtilities:TypeConverter.obj
 0002:000027bc       ??_C@_0BF@ECFPAOCB@vector?$DMWizardObject?$DO?$AA@ 100277bc     PlugInUtilities:TypeConverter.obj
 0002:000027d4       ??_C@_0BA@MEGFCOCI@WorkspaceWindow?$AA@ 100277d4     PlugInUtilities:TypeConverter.obj
 0002:000027e4       ??_C@_0BI@OEKGECJK@vector?$DMWorkspaceWindow?$DO?$AA@ 100277e4     PlugInUtilities:TypeConverter.obj
 0002:000028c4       ??_7type_info@@6B@         100278c4     MSVCRT:ti_inst.obj
 0002:000028c8       ?ProcessDetach@NativeDll@<CrtImplementationDetails>@@0IB 100278c8     MSVCRT:tncleanup.obj
 0002:000028cc       ?ProcessAttach@NativeDll@<CrtImplementationDetails>@@0IB 100278cc     MSVCRT:tncleanup.obj
 0002:000028d0       ?ThreadAttach@NativeDll@<CrtImplementationDetails>@@0IB 100278d0     MSVCRT:tncleanup.obj
 0002:000028d4       ?ThreadDetach@NativeDll@<CrtImplementationDetails>@@0IB 100278d4     MSVCRT:tncleanup.obj
 0002:000028d8       ?ProcessVerifier@NativeDll@<CrtImplementationDetails>@@0IB 100278d8     MSVCRT:tncleanup.obj
 0002:000028dc       __pDefaultRawDllMain       100278dc     MSVCRT:crtdll.obj
 0002:000028dc       __pRawDllMain              100278dc     MSVCRT:crtdll.obj
 0002:000028e8       ??_C@_0P@GHFPNOJB@bad?5allocation?$AA@ 100278e8     GaussianResampler.obj
 0002:000028f8       ?collate@?$_Locbase@H@std@@2HB 100278f8     GaussianResampler.obj
 0002:000028fc       ?ctype@?$_Locbase@H@std@@2HB 100278fc     GaussianResampler.obj
 0002:00002900       ?monetary@?$_Locbase@H@std@@2HB 10027900     GaussianResampler.obj
 0002:00002904       ?numeric@?$_Locbase@H@std@@2HB 10027904     GaussianResampler.obj
 0002:00002908       ?time@?$_Locbase@H@std@@2HB 10027908     GaussianResampler.obj
 0002:0000290c       ?messages@?$_Locbase@H@std@@2HB 1002790c     GaussianResampler.obj
 0002:00002910       ?all@?$_Locbase@H@std@@2HB 10027910     GaussianResampler.obj
 0002:00002914       ?none@?$_Locbase@H@std@@2HB 10027914     GaussianResampler.obj
 0002:00002918       ?skipws@?$_Iosb@H@std@@2W4_Fmtflags@12@B 10027918     GaussianResampler.obj
 0002:0000291c       ?unitbuf@?$_Iosb@H@std@@2W4_Fmtflags@12@B 1002791c     GaussianResampler.obj
 0002:00002920       ?uppercase@?$_Iosb@H@std@@2W4_Fmtflags@12@B 10027920     GaussianResampler.obj
 0002:00002924       ?showbase@?$_Iosb@H@std@@2W4_Fmtflags@12@B 10027924     GaussianResampler.obj
 0002:00002928       ?showpoint@?$_Iosb@H@std@@2W4_Fmtflags@12@B 10027928     GaussianResampler.obj
 0002:0000292c       ?showpos@?$_Iosb@H@std@@2W4_Fmtflags@12@B 1002792c     GaussianResampler.obj
 0002:00002930       ?left@?$_Iosb@H@std@@2W4_Fmtflags@12@B 10027930     GaussianResampler.obj
 0002:00002934       ?right@?$_Iosb@H@std@@2W4_Fmtflags@12@B 10027934     GaussianResampler.obj
 0002:00002938       ?internal@?$_Iosb@H@std@@2W4_Fmtflags@12@B 10027938     GaussianResampler.obj
 0002:0000293c       ?dec@?$_Iosb@H@std@@2W4_Fmtflags@12@B 1002793c     GaussianResampler.obj
 0002:00002940       ?oct@?$_Iosb@H@std@@2W4_Fmtflags@12@B 10027940     GaussianResampler.obj
 0002:00002944       ?hex@?$_Iosb@H@std@@2W4_Fmtflags@12@B 10027944     GaussianResampler.obj
 0002:00002948       ?scientific@?$_Iosb@H@std@@2W4_Fmtflags@12@B 10027948     GaussianResampler.obj
 0002:0000294c       ?fixed@?$_Iosb@H@std@@2W4_Fmtflags@12@B 1002794c     GaussianResampler.obj
 0002:00002950       ?boolalpha@?$_Iosb@H@std@@2W4_Fmtflags@12@B 10027950     GaussianResampler.obj
 0002:00002954       ?_Stdio@?$_Iosb@H@std@@2W4_Fmtflags@12@B 10027954     GaussianResampler.obj
 0002:00002958       ?adjustfield@?$_Iosb@H@std@@2W4_Fmtflags@12@B 10027958     GaussianResampler.obj
 0002:0000295c       ?basefield@?$_Iosb@H@std@@2W4_Fmtflags@12@B 1002795c     GaussianResampler.obj
 0002:00002960       ?floatfield@?$_Iosb@H@std@@2W4_Fmtflags@12@B 10027960     GaussianResampler.obj
 0002:00002964       ?goodbit@?$_Iosb@H@std@@2W4_Iostate@12@B 10027964     GaussianResampler.obj
 0002:00002968       ?eofbit@?$_Iosb@H@std@@2W4_Iostate@12@B 10027968     GaussianResampler.obj
 0002:0000296c       ?failbit@?$_Iosb@H@std@@2W4_Iostate@12@B 1002796c     GaussianResampler.obj
 0002:00002970       ?badbit@?$_Iosb@H@std@@2W4_Iostate@12@B 10027970     GaussianResampler.obj
 0002:00002974       ?_Hardfail@?$_Iosb@H@std@@2W4_Iostate@12@B 10027974     GaussianResampler.obj
 0002:00002978       ?in@?$_Iosb@H@std@@2W4_Openmode@12@B 10027978     GaussianResampler.obj
 0002:0000297c       ?out@?$_Iosb@H@std@@2W4_Openmode@12@B 1002797c     GaussianResampler.obj
 0002:00002980       ?ate@?$_Iosb@H@std@@2W4_Openmode@12@B 10027980     GaussianResampler.obj
 0002:00002984       ?app@?$_Iosb@H@std@@2W4_Openmode@12@B 10027984     GaussianResampler.obj
 0002:00002988       ?trunc@?$_Iosb@H@std@@2W4_Openmode@12@B 10027988     GaussianResampler.obj
 0002:0000298c       ?_Nocreate@?$_Iosb@H@std@@2W4_Openmode@12@B 1002798c     GaussianResampler.obj
 0002:00002990       ?_Noreplace@?$_Iosb@H@std@@2W4_Openmode@12@B 10027990     GaussianResampler.obj
 0002:00002994       ?binary@?$_Iosb@H@std@@2W4_Openmode@12@B 10027994     GaussianResampler.obj
 0002:00002998       ?beg@?$_Iosb@H@std@@2W4_Seekdir@12@B 10027998     GaussianResampler.obj
 0002:0000299c       ?cur@?$_Iosb@H@std@@2W4_Seekdir@12@B 1002799c     GaussianResampler.obj
 0002:000029a0       ?end@?$_Iosb@H@std@@2W4_Seekdir@12@B 100279a0     GaussianResampler.obj
 0002:000029a4       ??_C@_05LAPONLG@false?$AA@ 100279a4     Interpolator.obj
 0002:000029ac       ??_C@_0BL@EDKCIKDI@Resampler?1FullWidthHalfMax?$AA@ 100279ac     Interpolator.obj
 0002:000029c8       ??_C@_0CG@FIPDGIKF@Drop?5Out?5Window?5must?5be?5at?5least@ 100279c8     Interpolator.obj
 0002:000029f0       ??_C@_0BO@GIJHEGDB@Signature?5has?5no?5wavelengths?4?$AA@ 100279f0     Interpolator.obj
 0002:00002a10       ??_C@_0CN@BOAEBKBM@Signature?5wavelengths?5have?5dupli@ 10027a10     Interpolator.obj
 0002:00002a40       ??_C@_0BH@CJBAPGKA@Signature?5has?5no?5data?4?$AA@ 10027a40     Interpolator.obj
 0002:00002a58       ??_C@_0BN@IKEPBNNF@No?5bands?5could?5be?5resampled?4?$AA@ 10027a58     Interpolator.obj
 0002:00002a78       ??_C@_0BH@MJOICKAO@Cannot?5get?5Wavelengths?$AA@ 10027a78     Interpolator.obj
 0002:00002a90       ??_C@_0BD@OLBABOEK@vector?$DMT?$DO?5too?5long?$AA@ 10027a90     Interpolator.obj
 0002:00002aa4       ??_C@_0DC@OKFPFBJG@Invalid?5dv_cast?5when?5provided?5va@ 10027aa4     Interpolator.obj
 0002:00002ad8       ??_C@_0EB@MGDMEICA@D?3?2SDK_HOME?2Application?2PlugInUt@ 10027ad8     Interpolator.obj
 0002:00002b20       ??_7Interpolator@@6B@      10027b20     Interpolator.obj
 0002:00002b28       ??_7LinearInterpolator@@6B@ 10027b28     LinearInterpolator.obj
 0002:00002b2c       ??_C@_0CD@FHLDEKCE@SpectralResamplerInstantiatePlug@ 10027b2c     ModuleManager.obj
 0002:00002b50       ??_C@_0BC@JJKHEECK@SpectralResampler?$AA@ 10027b50     ModuleManager.obj
 0002:00002b64       ??_C@_06LACFBFGA@Linear?$AA@ 10027b64     ResamplerImp.obj
 0002:00002b6c       ??_C@_0N@KMMHMIGO@Cubic?5Spline?$AA@ 10027b6c     ResamplerImp.obj
 0002:00002b7c       ??_C@_08MGJFGAPB@Gaussian?$AA@ 10027b7c     ResamplerImp.obj
 0002:00002b88       ??_C@_0BK@MFCJBBNA@Resampler?1ResamplerMethod?$AA@ 10027b88     ResamplerImp.obj
 0002:00002ba4       ??_C@_0BI@NEIKLPKP@Resampler?1DropOutWindow?$AA@ 10027ba4     ResamplerImp.obj
 0002:00002bbc       ??_C@_09NHCDHCHK@Resampler?$AA@ 10027bbc     ResamplerImp.obj
 0002:00002bc8       ??_C@_0CE@HFPONAJB@Ball?5Aerospace?5?$CG?5Technologies?5Co@ 10027bc8     ResamplerImp.obj
 0002:00002bec       ??_C@_0DF@PKMCMBFI@Copyright?5?$DP2010?0?5Ball?5Aerospace?5@ 10027bec     ResamplerImp.obj
 0002:00002c24       ??_C@_0BA@MIKFIKKA@1?40?41Unofficial?$AA@ 10027c24     ResamplerImp.obj
 0002:00002c34       ??_C@_0N@GPCELBGF@ResamplerImp?$AA@ 10027c34     ResamplerImp.obj
 0002:00002c44       ??_C@_0DG@BHMPKJHA@Resample?5data?5from?5one?5set?5of?5wa@ 10027c44     ResamplerImp.obj
 0002:00002c7c       ??_C@_0CH@JPMGDLMA@?$HL3DDBCE64?912A8?94a84?9B795?9E83ED08@ 10027c7c     ResamplerImp.obj
 0002:00002ca4       ??_C@_0BL@DGDCFGPM@Running?5Resampler?5Tests?4?4?4?$AA@ 10027ca4     ResamplerImp.obj
 0002:00002cc0       ??_C@_0BJ@ELFGMCKD@Resampler?5Tests?5Complete?$AA@ 10027cc0     ResamplerImp.obj
 0002:00002cdc       ??_C@_0BD@DKDAHHJG@ResamplerTestCase1?$AA@ 10027cdc     ResamplerImp.obj
 0002:00002cf0       ??_C@_0BD@BBBNCEFF@ResamplerTestCase2?$AA@ 10027cf0     ResamplerImp.obj
 0002:00002d04       ??_C@_0BD@IAGBFBE@ResamplerTestCase3?$AA@ 10027d04     ResamplerImp.obj
 0002:00002d18       ??_C@_0BD@EHEHIDND@ResamplerTestCase4?$AA@ 10027d18     ResamplerImp.obj
 0002:00002d2c       ??_C@_0BD@FOFMLCJC@ResamplerTestCase5?$AA@ 10027d2c     ResamplerImp.obj
 0002:00002d40       ??_C@_0BD@HFHBOBFB@ResamplerTestCase6?$AA@ 10027d40     ResamplerImp.obj
 0002:00002d54       ??_C@_0BD@GMGKNABA@ResamplerTestCase7?$AA@ 10027d54     ResamplerImp.obj
 0002:00002d68       ??_C@_0BD@OLPCMMNP@ResamplerTestCase8?$AA@ 10027d68     ResamplerImp.obj
 0002:00002d80       ??_C@_0EG@HLHDOCOE@Number?5of?5input?5data?5values?5diff@ 10027d80     ResamplerImp.obj
 0002:00002dc8       ??_C@_0BD@PCOJPNJO@ResamplerTestCase9?$AA@ 10027dc8     ResamplerImp.obj
 0002:00002ddc       ??_C@_0BE@MGBADAPF@ResamplerTestCase10?$AA@ 10027ddc     ResamplerImp.obj
 0002:00002df0       ??_C@_0BE@NPALABLE@ResamplerTestCase11?$AA@ 10027df0     ResamplerImp.obj
 0002:00002e04       ??_C@_0BE@PECGFCHH@ResamplerTestCase12?$AA@ 10027e04     ResamplerImp.obj
 0002:00002e18       ??_C@_0BE@ONDNGDDG@ResamplerTestCase13?$AA@ 10027e18     ResamplerImp.obj
 0002:00002e2c       ??_C@_0BE@KCHMPFPB@ResamplerTestCase14?$AA@ 10027e2c     ResamplerImp.obj
 0002:00002e40       ??_C@_0BE@LLGHMELA@ResamplerTestCase15?$AA@ 10027e40     ResamplerImp.obj
 0002:00002e54       ??_C@_0BE@JAEKJHHD@ResamplerTestCase16?$AA@ 10027e54     ResamplerImp.obj
 0002:00002e68       ??_C@_02DAHALNEP@?$CC?4?$AA@ 10027e68     ResamplerImp.obj
 0002:00002e6c       ??_C@_0BO@HGDKAIPA@?5failed?4?5Resampler?5reported?5?$CC?$AA@ 10027e6c     ResamplerImp.obj
 0002:00002e8c       ??_C@_0CJ@CAJGDEAN@?5returned?5true?0?5but?5Resampler?5re@ 10027e8c     ResamplerImp.obj
 0002:00002eb8       ??_C@_0DC@JLEBJFDI@?5failed?4?5Output?5data?5is?5not?5of?5t@ 10027eb8     ResamplerImp.obj
 0002:00002eec       ??_C@_0DD@GAGCANNL@?5failed?4?5Output?5data?5does?5not?5ma@ 10027eec     ResamplerImp.obj
 0002:00002f20       ??_C@_0DE@DOJFDHGE@?5failed?4?5Output?5bands?5are?5not?5of@ 10027f20     ResamplerImp.obj
 0002:00002f54       ??_C@_0DD@KGMNNLOK@?5failed?4?5Output?5bands?5do?5not?5mat@ 10027f54     ResamplerImp.obj
 0002:00002f88       ??_C@_0BJ@BEKIGPIB@?5passed?5a?5negative?5test?4?$AA@ 10027f88     ResamplerImp.obj
 0002:00002fa4       ??_C@_0CJ@DKNKJOGB@?5returned?5valid?5data?5on?5a?5negati@ 10027fa4     ResamplerImp.obj
 0002:00002fd0       ??_C@_0CD@MPPGPLCD@?0?5but?5should?5have?5reported?5error@ 10027fd0     ResamplerImp.obj
 0002:00002ff4       ??_C@_0BL@EMEFJMJA@?5returned?5reported?5error?5?$CC?$AA@ 10027ff4     ResamplerImp.obj
 0002:00003010       ??_C@_0CO@INILHJHJ@Unable?5to?5create?5interpolator?5fo@ 10028010     ResamplerImp.obj
 0002:00003040       ??_C@_0BM@NMJKDPPO@invalid?5vector?$DMT?$DO?5subscript?$AA@ 10028040     ResamplerImp.obj
 0002:00003060       ??_7GaussianResampler@@6B@ 10028060     ResamplerImp.obj
 0002:00003068       ??_7PlugInFactory@@6B@     10028068     ResamplerImp.obj
 0002:00003074       ??_7BasicPlugInFactory@@6B@ 10028074     ResamplerImp.obj
 0002:00003080       ??_7Resampler@@6B@         10028080     ResamplerImp.obj
 0002:00003088       ??_7Testable@@6B@          10028088     ResamplerImp.obj
 0002:0000309c       ??_7ResamplerImp@@6BPlugIn@@@ 1002809c     ResamplerImp.obj
 0002:000030fc       ??_7ResamplerImp@@6BSessionItemExt1@@@ 100280fc     ResamplerImp.obj
 0002:00003108       ??_7ResamplerImp@@6BResampler@@@ 10028108     ResamplerImp.obj
 0002:00003110       ??_7ResamplerImp@@6BTestable@@@ 10028110     ResamplerImp.obj
 0002:00003120       ??_7ResamplerImpPlugInFactory@SpectralResampler@@6B@ 10028120     ResamplerImp.obj
 0002:00003128       ??_C@_0BC@EDCBGLOD@Resampler?5Options?$AA@ 10028128     ResamplerOptions.obj
 0002:0000313c       ??_C@_0CE@NEAOPEB@Widget?5to?5display?5Resampler?5opti@ 1002813c     ResamplerOptions.obj
 0002:00003160       ??_C@_0CH@OIKBIOJC@?$HL6941EBD3?9C62A?9401f?999E5?9561B7C7@ 10028160     ResamplerOptions.obj
 0002:00003188       ??_C@_0BB@OEKIGJA@ResamplerOptions?$AA@ 10028188     ResamplerOptions.obj
 0002:0000319c       ??_C@_0BC@MHEJNEBM@Resampling?5Method?$AA@ 1002819c     ResamplerOptions.obj
 0002:000031b0       ??_C@_0BA@EGIOOJMM@Drop?5Out?5Window?$AA@ 100281b0     ResamplerOptions.obj
 0002:000031c0       ??_C@_03GNEPKGMM@?5?$LFm?$AA@ 100281c0     ResamplerOptions.obj
 0002:000031c4       ??_C@_04IDOKHPCA@FWHM?$AA@ 100281c4     ResamplerOptions.obj
 0002:000031cc       ??_C@_0DE@KGGOEIDL@1currentIndexChanged?$CIint?$CJ?$AA?4?2Resa@ 100281cc     ResamplerOptions.obj
 0002:00003200       ??_C@_0DE@BMDLEMCM@2currentIndexChanged?$CIint?$CJ?$AA?4?2Resa@ 10028200     ResamplerOptions.obj
 0002:00003234       ??_C@_0BH@MDBDNELN@?4?2ResamplerOptions?4cpp?$AA@ 10028234     ResamplerOptions.obj
 0002:00003250       ??_C@_0LO@IHJOPCDH@connect?$CImpMethod?0?5qFlagLocation?$CI@ 10028250     ResamplerOptions.obj
 0002:00003314       ??_SQComboBox@@6BQObject@@@ 10028314     ResamplerOptions.obj
 0002:000033e8       ??_SQComboBox@@6BQPaintDevice@@@ 100283e8     ResamplerOptions.obj
 0002:00003404       ??_SQDoubleSpinBox@@6BQObject@@@ 10028404     ResamplerOptions.obj
 0002:000034ec       ??_SQDoubleSpinBox@@6BQPaintDevice@@@ 100284ec     ResamplerOptions.obj
 0002:0000350c       ??_7ResamplerOptions@@6BQObject@@@ 1002850c     ResamplerOptions.obj
 0002:000035e0       ??_7ResamplerOptions@@6BQPaintDevice@@@ 100285e0     ResamplerOptions.obj
 0002:000035fc       ??_7ResamplerOptionsPlugInFactory@SpectralResampler@@6B@ 100285fc     ResamplerOptions.obj
 0002:00003608       ??_7?$OptionQWidgetWrapper@VResamplerOptions@@@@6B@ 10028608     ResamplerOptions.obj
 0002:00003624       ??_7?$OptionQWidgetWrapper@VResamplerOptions@@@@6BPlugIn@@@ 10028624     ResamplerOptions.obj
 0002:00003684       ??_7?$OptionQWidgetWrapper@VResamplerOptions@@@@6BSessionItemExt1@@@ 10028684     ResamplerOptions.obj
 0002:00003690       ??_7SplineInterpolator@@6B@ 10028690     SplineInterpolator.obj
 0002:00003718       ?staticMetaObject@ResamplerOptions@@2UQMetaObject@@B 10028718     moc_ResamplerOptions.obj
 0002:00003728       __real@0000000000000000    10028728      CIL library: CIL module
 0002:00003730       __real@4034000000000000    10028730      CIL library: CIL module
 0002:00003738       __real@4014000000000000    10028738      CIL library: CIL module
 0002:00003740       __real@3f847ae147ae147b    10028740      CIL library: CIL module
 0002:00003748       __real@bfe0000000000000    10028748      CIL library: CIL module
 0002:00003750       __real@3ff0000000000000    10028750      CIL library: CIL module
 0002:00003758       __real@401921fb54442d18    10028758      CIL library: CIL module
 0002:00003760       __real@4000000000000000    10028760      CIL library: CIL module
 0002:00003768       __real@4018000000000000    10028768      CIL library: CIL module
 0002:00003770       __real@3fa999999999999a    10028770      CIL library: CIL module
 0002:00003778       __real@7fefffffffffffff    10028778      CIL library: CIL module
 0002:00003780       __real@3fe0000000000000    10028780      CIL library: CIL module
 0002:00003788       __real@4008000000000000    10028788      CIL library: CIL module
 0002:00003790       __real@4628fdb99ce410a0    10028790      CIL library: CIL module
 0002:00003798       __real@46393e5939a08cea    10028798      CIL library: CIL module
 0002:000037a0       __real@4010000000000000    100287a0      CIL library: CIL module
 0002:000037a8       __real@4020000000000000    100287a8      CIL library: CIL module
 0002:000037b0       __real@401c000000000000    100287b0      CIL library: CIL module
 0002:000037b8       __real@4030000000000000    100287b8      CIL library: CIL module
 0002:000037c0       __real@402e000000000000    100287c0      CIL library: CIL module
 0002:000037c8       __real@402c000000000000    100287c8      CIL library: CIL module
 0002:000037d0       __real@402a000000000000    100287d0      CIL library: CIL module
 0002:000037d8       __real@4028000000000000    100287d8      CIL library: CIL module
 0002:000037e0       __real@4026000000000000    100287e0      CIL library: CIL module
 0002:000037e8       __real@4024000000000000    100287e8      CIL library: CIL module
 0002:000037f0       __real@3eb0c6f7a0b5ed8d    100287f0      CIL library: CIL module
 0002:000037f8       __real@3fe999999999999a    100287f8      CIL library: CIL module
 0002:00003800       __real@3feccccccccccccd    10028800      CIL library: CIL module
 0002:00003808       __real@3fe6666666666666    10028808      CIL library: CIL module
 0002:00003810       __real@3fe3333333333333    10028810      CIL library: CIL module
 0002:00003818       __real@3fd999999999999a    10028818      CIL library: CIL module
 0002:00003820       __real@4016000000000000    10028820      CIL library: CIL module
 0002:00003828       __real@4004000000000000    10028828      CIL library: CIL module
 0002:00003830       __real@3fe8000000000000    10028830      CIL library: CIL module
 0002:00003838       __real@3fdbd70a3d70a3d7    10028838      CIL library: CIL module
 0002:00003840       __real@3fdb333333333333    10028840      CIL library: CIL module
 0002:00003848       __real@3fda8f5c28f5c28f    10028848      CIL library: CIL module
 0002:00003850       __real@3fdc7ae147ae147b    10028850      CIL library: CIL module
 0002:00003858       __real@3fda147ae147ae14    10028858      CIL library: CIL module
 0002:00003860       __real@3fdccccccccccccd    10028860      CIL library: CIL module
 0002:00003868       __real@3fdb851eb851eb85    10028868      CIL library: CIL module
 0002:00003870       __real@3fdae147ae147ae1    10028870      CIL library: CIL module
 0002:00003878       __real@3fda3d70a3d70a3d    10028878      CIL library: CIL module
 0002:00003880       __real@3fdc28f5c28f5c29    10028880      CIL library: CIL module
 0002:00003888       __real@40114ce65c0c67ba    10028888      CIL library: CIL module
 0002:00003890       __real@40155e35d7051297    10028890      CIL library: CIL module
 0002:00003898       __real@4013f807ea156e37    10028898      CIL library: CIL module
 0002:000038a0       __real@400451b14ea83fe1    100288a0      CIL library: CIL module
 0002:000038a8       __real@3ff3eb4b85060621    100288a8      CIL library: CIL module
 0002:000038b0       __real@3f9999999999999a    100288b0      CIL library: CIL module
 0002:000038b8       __real@3f8eb851eb851eb8    100288b8      CIL library: CIL module
 0002:000038c0       __real@3f947ae147ae147b    100288c0      CIL library: CIL module
 0002:000038c8       __real@401003fe00f74bd1    100288c8      CIL library: CIL module
 0002:000038d0       __real@4015f807ef0cbda9    100288d0      CIL library: CIL module
 0002:000038d8       __real@400403fc0de09bea    100288d8      CIL library: CIL module
 0002:000038e0       __real@3feadd4434150e0d    100288e0      CIL library: CIL module
 0002:000038e8       __real@3fe0a3d70a3d70a4    100288e8      CIL library: CIL module
 0002:000038f0       __real@3fe051eb851eb852    100288f0      CIL library: CIL module
 0002:000038f8       __real@3fff830fec66ec95    100288f8      CIL library: CIL module
 0002:00003900       __real@40101f3c04e644db    10028900      CIL library: CIL module
 0002:00003908       __real@4017224bf14d2d0a    10028908      CIL library: CIL module
 0002:00003910       __real@4015579435e50b64    10028910      CIL library: CIL module
 0002:00003918       __real@4002fec66e3d4201    10028918      CIL library: CIL module
 0002:00003920       __real@3fd2adeeda074ffd    10028920      CIL library: CIL module
 0002:00003928       __real@bfd2adeeda074ffd    10028928      CIL library: CIL module
 0002:00003930       __real@3fddc28f5c28f5c3    10028930      CIL library: CIL module
 0002:00003938       __real@3fdd1eb851eb851f    10028938      CIL library: CIL module
 0002:00003940       __real@3fd9eb851eb851ec    10028940      CIL library: CIL module
 0002:00003948       __real@3fd947ae147ae148    10028948      CIL library: CIL module
 0002:00003950       __real@3fd8a3d70a3d70a4    10028950      CIL library: CIL module
 0002:00003958       __real@3fe547ae147ae148    10028958      CIL library: CIL module
 0002:00003960       __real@3fe4f5c28f5c28f6    10028960      CIL library: CIL module
 0002:00003968       __real@3fe4a3d70a3d70a4    10028968      CIL library: CIL module
 0002:00003970       __real@3fe451eb851eb852    10028970      CIL library: CIL module
 0002:00003978       __real@3fe2147ae147ae14    10028978      CIL library: CIL module
 0002:00003980       __real@3fe1c28f5c28f5c3    10028980      CIL library: CIL module
 0002:00003988       __real@3fe170a3d70a3d71    10028988      CIL library: CIL module
 0002:00003990       __real@3fe11eb851eb851f    10028990      CIL library: CIL module
 0002:00003998       __real@3fe0cccccccccccd    10028998      CIL library: CIL module
 0002:000039a0       __real@3fe07ae147ae147b    100289a0      CIL library: CIL module
 0002:000039a8       __real@3fe028f5c28f5c29    100289a8      CIL library: CIL module
 0002:000039b0       __real@3fdfae147ae147ae    100289b0      CIL library: CIL module
 0002:000039b8       __real@3fe199999999999a    100289b8      CIL library: CIL module
 0002:000039c0       __real@3fe147ae147ae148    100289c0      CIL library: CIL module
 0002:000039c8       __real@3fe0f5c28f5c28f6    100289c8      CIL library: CIL module
 0002:000039d0       __real@401a000000000000    100289d0      CIL library: CIL module
 0002:000039d8       __real@3fdd70a3d70a3d71    100289d8      CIL library: CIL module
 0002:000039e0       __real@4019000000000000    100289e0      CIL library: CIL module
 0002:000039e8       __load_config_used         100289e8     MSVCRT:loadcfg.obj
 0002:00003a9c       ??_R4SessionItem@@6B@      10028a9c     PlugInLib:PlugInShell.obj
 0002:00003ab0       ??_R4SessionItemExt1@@6B@  10028ab0     PlugInLib:PlugInShell.obj
 0002:00003ac4       ??_R4PlugIn@@6B@           10028ac4     PlugInLib:PlugInShell.obj
 0002:00003ad8       ??_R4?$Resource@VSettableSessionItem@@VFactoryObject@@@@6B@ 10028ad8     PlugInLib:PlugInShell.obj
 0002:00003aec       ??_R3?$Resource@VSettableSessionItem@@VFactoryObject@@@@8 10028aec     PlugInLib:PlugInShell.obj
 0002:00003afc       ??_R2?$Resource@VSettableSessionItem@@VFactoryObject@@@@8 10028afc     PlugInLib:PlugInShell.obj
 0002:00003b04       ??_R1A@?0A@EA@?$Resource@VSettableSessionItem@@VFactoryObject@@@@8 10028b04     PlugInLib:PlugInShell.obj
 0002:00003b20       ??_R4?$FactoryResource@VSettableSessionItem@@@@6B@ 10028b20     PlugInLib:PlugInShell.obj
 0002:00003b34       ??_R3?$FactoryResource@VSettableSessionItem@@@@8 10028b34     PlugInLib:PlugInShell.obj
 0002:00003b44       ??_R2?$FactoryResource@VSettableSessionItem@@@@8 10028b44     PlugInLib:PlugInShell.obj
 0002:00003b50       ??_R1A@?0A@EA@?$FactoryResource@VSettableSessionItem@@@@8 10028b50     PlugInLib:PlugInShell.obj
 0002:00003b6c       ??_R4PlugInShell@@6BPlugIn@@@ 10028b6c     PlugInLib:PlugInShell.obj
 0002:00003b80       ??_R4PlugInShell@@6BSessionItemExt1@@@ 10028b80     PlugInLib:PlugInShell.obj
 0002:00003b94       ??_R4Option@@6B@           10028b94     PlugInLib:OptionShell.obj
 0002:00003ba8       ??_R4OptionShell@@6B@      10028ba8     PlugInLib:OptionShell.obj
 0002:00003bbc       ??_R4OptionShell@@6BPlugIn@@@ 10028bbc     PlugInLib:OptionShell.obj
 0002:00003bd0       ??_R4OptionShell@@6BSessionItemExt1@@@ 10028bd0     PlugInLib:OptionShell.obj
 0002:00003be4       ??_R4LabeledSectionGroup@@6BQObject@@@ 10028be4     PlugInUtilities:LabeledSectionGroup.obj
 0002:00003bf8       ??_R4LabeledSectionGroup@@6BQPaintDevice@@@ 10028bf8     PlugInUtilities:LabeledSectionGroup.obj
 0002:00003c0c       ??_R4QVBoxLayout@@6BQObject@@@ 10028c0c     PlugInUtilities:LabeledSectionGroup.obj
 0002:00003c20       ??_R3QVBoxLayout@@8        10028c20     PlugInUtilities:LabeledSectionGroup.obj
 0002:00003c30       ??_R2QVBoxLayout@@8        10028c30     PlugInUtilities:LabeledSectionGroup.obj
 0002:00003c48       ??_R1A@?0A@EA@QVBoxLayout@@8 10028c48     PlugInUtilities:LabeledSectionGroup.obj
 0002:00003c64       ??_R1A@?0A@EA@QBoxLayout@@8 10028c64     PlugInUtilities:LabeledSectionGroup.obj
 0002:00003c80       ??_R3QBoxLayout@@8         10028c80     PlugInUtilities:LabeledSectionGroup.obj
 0002:00003c90       ??_R2QBoxLayout@@8         10028c90     PlugInUtilities:LabeledSectionGroup.obj
 0002:00003ca4       ??_R4QVBoxLayout@@6BQLayoutItem@@@ 10028ca4     PlugInUtilities:LabeledSectionGroup.obj
 0002:00003cb8       ??_R4LabeledSection@@6BQObject@@@ 10028cb8     PlugInUtilities:LabeledSection.obj
 0002:00003ccc       ??_R3LabeledSection@@8     10028ccc     PlugInUtilities:LabeledSection.obj
 0002:00003cdc       ??_R2LabeledSection@@8     10028cdc     PlugInUtilities:LabeledSection.obj
 0002:00003cf0       ??_R1A@?0A@EA@LabeledSection@@8 10028cf0     PlugInUtilities:LabeledSection.obj
 0002:00003d0c       ??_R4LabeledSection@@6BQPaintDevice@@@ 10028d0c     PlugInUtilities:LabeledSection.obj
 0002:00003d20       ??_R4QFrame@@6BQObject@@@  10028d20     PlugInUtilities:LabeledSection.obj
 0002:00003d34       ??_R4QFrame@@6BQPaintDevice@@@ 10028d34     PlugInUtilities:LabeledSection.obj
 0002:00003d48       ??_R4type_info@@6B@        10028d48     MSVCRT:ti_inst.obj
 0002:00003d5c       ??_R3type_info@@8          10028d5c     MSVCRT:ti_inst.obj
 0002:00003d6c       ??_R2type_info@@8          10028d6c     MSVCRT:ti_inst.obj
 0002:00003d74       ??_R1A@?0A@EA@type_info@@8 10028d74     MSVCRT:ti_inst.obj
 0002:00003d90       ??_R4Interpolator@@6B@     10028d90     Interpolator.obj
 0002:00003da4       ??_R3Interpolator@@8       10028da4     Interpolator.obj
 0002:00003db4       ??_R2Interpolator@@8       10028db4     Interpolator.obj
 0002:00003dbc       ??_R1A@?0A@EA@Interpolator@@8 10028dbc     Interpolator.obj
 0002:00003dd8       ??_R4length_error@std@@6B@ 10028dd8     Interpolator.obj
 0002:00003dec       ??_R3length_error@std@@8   10028dec     Interpolator.obj
 0002:00003dfc       ??_R2length_error@std@@8   10028dfc     Interpolator.obj
 0002:00003e0c       ??_R1A@?0A@EA@length_error@std@@8 10028e0c     Interpolator.obj
 0002:00003e28       ??_R4logic_error@std@@6B@  10028e28     Interpolator.obj
 0002:00003e3c       ??_R3logic_error@std@@8    10028e3c     Interpolator.obj
 0002:00003e4c       ??_R2logic_error@std@@8    10028e4c     Interpolator.obj
 0002:00003e58       ??_R1A@?0A@EA@logic_error@std@@8 10028e58     Interpolator.obj
 0002:00003e74       ??_R4bad_alloc@std@@6B@    10028e74     Interpolator.obj
 0002:00003e88       ??_R3bad_alloc@std@@8      10028e88     Interpolator.obj
 0002:00003e98       ??_R2bad_alloc@std@@8      10028e98     Interpolator.obj
 0002:00003ea4       ??_R1A@?0A@EA@exception@std@@8 10028ea4     Interpolator.obj
 0002:00003ec0       ??_R3exception@std@@8      10028ec0     Interpolator.obj
 0002:00003ed0       ??_R2exception@std@@8      10028ed0     Interpolator.obj
 0002:00003ed8       ??_R1A@?0A@EA@bad_alloc@std@@8 10028ed8     Interpolator.obj
 0002:00003ef4       ??_R4LinearInterpolator@@6B@ 10028ef4     LinearInterpolator.obj
 0002:00003f08       ??_R3LinearInterpolator@@8 10028f08     LinearInterpolator.obj
 0002:00003f18       ??_R2LinearInterpolator@@8 10028f18     LinearInterpolator.obj
 0002:00003f24       ??_R1A@?0A@EA@LinearInterpolator@@8 10028f24     LinearInterpolator.obj
 0002:00003f40       ??_R4ResamplerImpPlugInFactory@SpectralResampler@@6B@ 10028f40     ResamplerImp.obj
 0002:00003f54       ??_R3ResamplerImpPlugInFactory@SpectralResampler@@8 10028f54     ResamplerImp.obj
 0002:00003f64       ??_R2ResamplerImpPlugInFactory@SpectralResampler@@8 10028f64     ResamplerImp.obj
 0002:00003f74       ??_R1A@?0A@EA@ResamplerImpPlugInFactory@SpectralResampler@@8 10028f74     ResamplerImp.obj
 0002:00003f90       ??_R4ResamplerImp@@6BTestable@@@ 10028f90     ResamplerImp.obj
 0002:00003fa4       ??_R4ResamplerImp@@6BResampler@@@ 10028fa4     ResamplerImp.obj
 0002:00003fb8       ??_R4ResamplerImp@@6BSessionItemExt1@@@ 10028fb8     ResamplerImp.obj
 0002:00003fcc       ??_R4ResamplerImp@@6BPlugIn@@@ 10028fcc     ResamplerImp.obj
 0002:00003fe0       ??_R3ResamplerImp@@8       10028fe0     ResamplerImp.obj
 0002:00003ff0       ??_R2ResamplerImp@@8       10028ff0     ResamplerImp.obj
 0002:00004010       ??_R1BCI@?0A@EA@Testable@@8 10029010     ResamplerImp.obj
 0002:0000402c       ??_R1BCE@?0A@EA@Resampler@@8 1002902c     ResamplerImp.obj
 0002:00004048       ??_R1A@?0A@EA@PlugInShell@@8 10029048     ResamplerImp.obj
 0002:00004064       ??_R3PlugInShell@@8        10029064     ResamplerImp.obj
 0002:00004074       ??_R2PlugInShell@@8        10029074     ResamplerImp.obj
 0002:00004088       ??_R13?0A@EA@SessionItemExt1@@8 10029088     ResamplerImp.obj
 0002:000040a4       ??_R3SessionItemExt1@@8    100290a4     ResamplerImp.obj
 0002:000040b4       ??_R2SessionItemExt1@@8    100290b4     ResamplerImp.obj
 0002:000040bc       ??_R1A@?0A@EA@SessionItemExt1@@8 100290bc     ResamplerImp.obj
 0002:000040d8       ??_R1A@?0A@EA@PlugIn@@8    100290d8     ResamplerImp.obj
 0002:000040f4       ??_R3PlugIn@@8             100290f4     ResamplerImp.obj
 0002:00004104       ??_R2PlugIn@@8             10029104     ResamplerImp.obj
 0002:00004110       ??_R1A@?0A@EA@SessionItem@@8 10029110     ResamplerImp.obj
 0002:0000412c       ??_R3SessionItem@@8        1002912c     ResamplerImp.obj
 0002:0000413c       ??_R2SessionItem@@8        1002913c     ResamplerImp.obj
 0002:00004144       ??_R1A@?0A@EA@ResamplerImp@@8 10029144     ResamplerImp.obj
 0002:00004160       ??_R4Testable@@6B@         10029160     ResamplerImp.obj
 0002:00004174       ??_R3Testable@@8           10029174     ResamplerImp.obj
 0002:00004184       ??_R2Testable@@8           10029184     ResamplerImp.obj
 0002:0000418c       ??_R1A@?0A@EA@Testable@@8  1002918c     ResamplerImp.obj
 0002:000041a8       ??_R4Resampler@@6B@        100291a8     ResamplerImp.obj
 0002:000041bc       ??_R3Resampler@@8          100291bc     ResamplerImp.obj
 0002:000041cc       ??_R2Resampler@@8          100291cc     ResamplerImp.obj
 0002:000041d4       ??_R1A@?0A@EA@Resampler@@8 100291d4     ResamplerImp.obj
 0002:000041f0       ??_R4BasicPlugInFactory@@6B@ 100291f0     ResamplerImp.obj
 0002:00004204       ??_R3BasicPlugInFactory@@8 10029204     ResamplerImp.obj
 0002:00004214       ??_R2BasicPlugInFactory@@8 10029214     ResamplerImp.obj
 0002:00004220       ??_R1A@?0A@EA@BasicPlugInFactory@@8 10029220     ResamplerImp.obj
 0002:0000423c       ??_R4PlugInFactory@@6B@    1002923c     ResamplerImp.obj
 0002:00004250       ??_R3PlugInFactory@@8      10029250     ResamplerImp.obj
 0002:00004260       ??_R2PlugInFactory@@8      10029260     ResamplerImp.obj
 0002:00004268       ??_R1A@?0A@EA@PlugInFactory@@8 10029268     ResamplerImp.obj
 0002:00004284       ??_R4GaussianResampler@@6B@ 10029284     ResamplerImp.obj
 0002:00004298       ??_R3GaussianResampler@@8  10029298     ResamplerImp.obj
 0002:000042a8       ??_R2GaussianResampler@@8  100292a8     ResamplerImp.obj
 0002:000042b4       ??_R1A@?0A@EA@GaussianResampler@@8 100292b4     ResamplerImp.obj
 0002:000042d0       ??_R4out_of_range@std@@6B@ 100292d0     ResamplerImp.obj
 0002:000042e4       ??_R3out_of_range@std@@8   100292e4     ResamplerImp.obj
 0002:000042f4       ??_R2out_of_range@std@@8   100292f4     ResamplerImp.obj
 0002:00004304       ??_R1A@?0A@EA@out_of_range@std@@8 10029304     ResamplerImp.obj
 0002:00004320       ??_R4?$OptionQWidgetWrapper@VResamplerOptions@@@@6BSessionItemExt1@@@ 10029320     ResamplerOptions.obj
 0002:00004334       ??_R4?$OptionQWidgetWrapper@VResamplerOptions@@@@6BPlugIn@@@ 10029334     ResamplerOptions.obj
 0002:00004348       ??_R4?$OptionQWidgetWrapper@VResamplerOptions@@@@6B@ 10029348     ResamplerOptions.obj
 0002:0000435c       ??_R3?$OptionQWidgetWrapper@VResamplerOptions@@@@8 1002935c     ResamplerOptions.obj
 0002:0000436c       ??_R2?$OptionQWidgetWrapper@VResamplerOptions@@@@8 1002936c     ResamplerOptions.obj
 0002:0000438c       ??_R1A@?0A@EA@OptionShell@@8 1002938c     ResamplerOptions.obj
 0002:000043a8       ??_R3OptionShell@@8        100293a8     ResamplerOptions.obj
 0002:000043b8       ??_R2OptionShell@@8        100293b8     ResamplerOptions.obj
 0002:000043d4       ??_R17?0A@EA@SessionItemExt1@@8 100293d4     ResamplerOptions.obj
 0002:000043f0       ??_R13?0A@EA@SessionItem@@8 100293f0     ResamplerOptions.obj
 0002:0000440c       ??_R13?0A@EA@PlugIn@@8     1002940c     ResamplerOptions.obj
 0002:00004428       ??_R13?0A@EA@PlugInShell@@8 10029428     ResamplerOptions.obj
 0002:00004444       ??_R1A@?0A@EA@Option@@8    10029444     ResamplerOptions.obj
 0002:00004460       ??_R3Option@@8             10029460     ResamplerOptions.obj
 0002:00004470       ??_R2Option@@8             10029470     ResamplerOptions.obj
 0002:00004478       ??_R1A@?0A@EA@?$OptionQWidgetWrapper@VResamplerOptions@@@@8 10029478     ResamplerOptions.obj
 0002:00004494       ??_R4ResamplerOptionsPlugInFactory@SpectralResampler@@6B@ 10029494     ResamplerOptions.obj
 0002:000044a8       ??_R3ResamplerOptionsPlugInFactory@SpectralResampler@@8 100294a8     ResamplerOptions.obj
 0002:000044b8       ??_R2ResamplerOptionsPlugInFactory@SpectralResampler@@8 100294b8     ResamplerOptions.obj
 0002:000044c8       ??_R1A@?0A@EA@ResamplerOptionsPlugInFactory@SpectralResampler@@8 100294c8     ResamplerOptions.obj
 0002:000044e4       ??_R4ResamplerOptions@@6BQPaintDevice@@@ 100294e4     ResamplerOptions.obj
 0002:000044f8       ??_R4ResamplerOptions@@6BQObject@@@ 100294f8     ResamplerOptions.obj
 0002:0000450c       ??_R3ResamplerOptions@@8   1002950c     ResamplerOptions.obj
 0002:0000451c       ??_R2ResamplerOptions@@8   1002951c     ResamplerOptions.obj
 0002:00004540       ??_R1A@?0A@EA@LabeledSectionGroup@@8 10029540     ResamplerOptions.obj
 0002:0000455c       ??_R3LabeledSectionGroup@@8 1002955c     ResamplerOptions.obj
 0002:0000456c       ??_R2LabeledSectionGroup@@8 1002956c     ResamplerOptions.obj
 0002:0000458c       ??_R1A@?0A@EA@QScrollArea@@8 1002958c     ResamplerOptions.obj
 0002:000045a8       ??_R3QScrollArea@@8        100295a8     ResamplerOptions.obj
 0002:000045b8       ??_R2QScrollArea@@8        100295b8     ResamplerOptions.obj
 0002:000045d4       ??_R1A@?0A@EA@QAbstractScrollArea@@8 100295d4     ResamplerOptions.obj
 0002:000045f0       ??_R3QAbstractScrollArea@@8 100295f0     ResamplerOptions.obj
 0002:00004600       ??_R2QAbstractScrollArea@@8 10029600     ResamplerOptions.obj
 0002:00004618       ??_R1A@?0A@EA@ResamplerOptions@@8 10029618     ResamplerOptions.obj
 0002:00004634       ??_R4QDoubleSpinBox@@6BQPaintDevice@@@ 10029634     ResamplerOptions.obj
 0002:00004648       ??_R4QDoubleSpinBox@@6BQObject@@@ 10029648     ResamplerOptions.obj
 0002:0000465c       ??_R3QDoubleSpinBox@@8     1002965c     ResamplerOptions.obj
 0002:0000466c       ??_R2QDoubleSpinBox@@8     1002966c     ResamplerOptions.obj
 0002:00004684       ??_R1A@?0A@EA@QAbstractSpinBox@@8 10029684     ResamplerOptions.obj
 0002:000046a0       ??_R3QAbstractSpinBox@@8   100296a0     ResamplerOptions.obj
 0002:000046b0       ??_R2QAbstractSpinBox@@8   100296b0     ResamplerOptions.obj
 0002:000046c4       ??_R1A@?0A@EA@QDoubleSpinBox@@8 100296c4     ResamplerOptions.obj
 0002:000046e0       ??_R4QLabel@@6BQPaintDevice@@@ 100296e0     ResamplerOptions.obj
 0002:000046f4       ??_R4QLabel@@6BQObject@@@  100296f4     ResamplerOptions.obj
 0002:00004708       ??_R3QLabel@@8             10029708     ResamplerOptions.obj
 0002:00004718       ??_R2QLabel@@8             10029718     ResamplerOptions.obj
 0002:00004730       ??_R1A@?0A@EA@QFrame@@8    10029730     ResamplerOptions.obj
 0002:0000474c       ??_R3QFrame@@8             1002974c     ResamplerOptions.obj
 0002:0000475c       ??_R2QFrame@@8             1002975c     ResamplerOptions.obj
 0002:00004770       ??_R1A@?0A@EA@QLabel@@8    10029770     ResamplerOptions.obj
 0002:0000478c       ??_R4QGridLayout@@6BQLayoutItem@@@ 1002978c     ResamplerOptions.obj
 0002:000047a0       ??_R4QGridLayout@@6BQObject@@@ 100297a0     ResamplerOptions.obj
 0002:000047b4       ??_R3QGridLayout@@8        100297b4     ResamplerOptions.obj
 0002:000047c4       ??_R2QGridLayout@@8        100297c4     ResamplerOptions.obj
 0002:000047d8       ??_R1A@?0A@EA@QLayout@@8   100297d8     ResamplerOptions.obj
 0002:000047f4       ??_R3QLayout@@8            100297f4     ResamplerOptions.obj
 0002:00004804       ??_R2QLayout@@8            10029804     ResamplerOptions.obj
 0002:00004814       ??_R17?0A@EA@QLayoutItem@@8 10029814     ResamplerOptions.obj
 0002:00004830       ??_R3QLayoutItem@@8        10029830     ResamplerOptions.obj
 0002:00004840       ??_R2QLayoutItem@@8        10029840     ResamplerOptions.obj
 0002:00004848       ??_R1A@?0A@EA@QLayoutItem@@8 10029848     ResamplerOptions.obj
 0002:00004864       ??_R1A@?0A@EA@QGridLayout@@8 10029864     ResamplerOptions.obj
 0002:00004880       ??_R4QComboBox@@6BQPaintDevice@@@ 10029880     ResamplerOptions.obj
 0002:00004894       ??_R4QComboBox@@6BQObject@@@ 10029894     ResamplerOptions.obj
 0002:000048a8       ??_R3QComboBox@@8          100298a8     ResamplerOptions.obj
 0002:000048b8       ??_R2QComboBox@@8          100298b8     ResamplerOptions.obj
 0002:000048cc       ??_R1A@?0A@EA@QComboBox@@8 100298cc     ResamplerOptions.obj
 0002:000048e8       ??_R4QWidget@@6BQPaintDevice@@@ 100298e8     ResamplerOptions.obj
 0002:000048fc       ??_R4QWidget@@6BQObject@@@ 100298fc     ResamplerOptions.obj
 0002:00004910       ??_R3QWidget@@8            10029910     ResamplerOptions.obj
 0002:00004920       ??_R2QWidget@@8            10029920     ResamplerOptions.obj
 0002:00004930       ??_R17?0A@EA@QPaintDevice@@8 10029930     ResamplerOptions.obj
 0002:0000494c       ??_R3QPaintDevice@@8       1002994c     ResamplerOptions.obj
 0002:0000495c       ??_R2QPaintDevice@@8       1002995c     ResamplerOptions.obj
 0002:00004964       ??_R1A@?0A@EA@QPaintDevice@@8 10029964     ResamplerOptions.obj
 0002:00004980       ??_R1A@?0A@EA@QObject@@8   10029980     ResamplerOptions.obj
 0002:0000499c       ??_R3QObject@@8            1002999c     ResamplerOptions.obj
 0002:000049ac       ??_R2QObject@@8            100299ac     ResamplerOptions.obj
 0002:000049b4       ??_R1A@?0A@EA@QWidget@@8   100299b4     ResamplerOptions.obj
 0002:000049d0       ??_R4SplineInterpolator@@6B@ 100299d0     SplineInterpolator.obj
 0002:000049e4       ??_R3SplineInterpolator@@8 100299e4     SplineInterpolator.obj
 0002:000049f4       ??_R2SplineInterpolator@@8 100299f4     SplineInterpolator.obj
 0002:00004a00       ??_R1A@?0A@EA@SplineInterpolator@@8 10029a00     SplineInterpolator.obj
 0002:00004a20       ___safe_se_handler_table   10029a20     <linker-defined>
 0002:00004c3c       ___rtc_iaa                 10029c3c     MSVCRT:initsect.obj
 0002:00004c40       ___rtc_izz                 10029c40     MSVCRT:initsect.obj
 0002:00004c44       ___rtc_taa                 10029c44     MSVCRT:initsect.obj
 0002:00004c48       ___rtc_tzz                 10029c48     MSVCRT:initsect.obj
 0002:00005240       __TI2?AVlogic_error@std@@  1002a240     PlugInUtilities:Service.obj
 0002:00005284       __CTA2?AVlogic_error@std@@ 1002a284     PlugInUtilities:Service.obj
 0002:00005574       __CT??_R0?AVexception@std@@@8??0exception@std@@QAE@ABV01@@Z12 1002a574     Interpolator.obj
 0002:00005590       __CT??_R0?AVlogic_error@std@@@8??0logic_error@std@@QAE@ABV01@@Z40 1002a590     Interpolator.obj
 0002:000055ac       __CT??_R0?AVlength_error@std@@@8??0length_error@std@@QAE@ABV01@@Z40 1002a5ac     Interpolator.obj
 0002:000055c8       __CTA3?AVlength_error@std@@ 1002a5c8     Interpolator.obj
 0002:000055d8       __TI3?AVlength_error@std@@ 1002a5d8     Interpolator.obj
 0002:000055e8       __CT??_R0?AVbad_alloc@std@@@8??0bad_alloc@std@@QAE@ABV01@@Z12 1002a5e8     Interpolator.obj
 0002:00005604       __CTA2?AVbad_alloc@std@@   1002a604     Interpolator.obj
 0002:00005610       __TI2?AVbad_alloc@std@@    1002a610     Interpolator.obj
 0002:00005620       __CT??_R0?AVout_of_range@std@@@8??0out_of_range@std@@QAE@ABV01@@Z40 1002a620     ResamplerImp.obj
 0002:0000563c       __CTA3?AVout_of_range@std@@ 1002a63c     ResamplerImp.obj
 0002:0000564c       __TI3?AVout_of_range@std@@ 1002a64c     ResamplerImp.obj
 0002:000073c4       __IMPORT_DESCRIPTOR_QtCore4 1002c3c4     QtCore4:QtCore4.dll
 0002:000073d8       __IMPORT_DESCRIPTOR_QtGui4 1002c3d8     QtGui4:QtGui4.dll
 0002:000073ec       __IMPORT_DESCRIPTOR_MSVCP80 1002c3ec     msvcprt:MSVCP80.dll
 0002:00007400       __IMPORT_DESCRIPTOR_MSVCR80 1002c400     MSVCRT:MSVCR80.dll
 0002:00007414       __IMPORT_DESCRIPTOR_KERNEL32 1002c414     kernel32:KERNEL32.dll
 0002:00007428       __NULL_IMPORT_DESCRIPTOR   1002c428     QtCore4:QtCore4.dll
 0003:00000008       ??_R0?AVSettableSessionItem@@@8 10031008     PlugInLib:PlugInShell.obj
 0003:0000002c       ??_R0?AVSettableSessionItemExt1@@@8 1003102c     PlugInLib:PlugInShell.obj
 0003:00000058       ??_R0?AV?$Resource@VSettableSessionItem@@VFactoryObject@@@@@8 10031058     PlugInLib:PlugInShell.obj
 0003:00000098       ??_R0?AV?$FactoryResource@VSettableSessionItem@@@@@8 10031098     PlugInLib:PlugInShell.obj
 0003:000000dc       ??_R0X@8                   100310dc     PlugInUtilities:DataVariant.obj
 0003:000000ec       ??_R0?AVWindow@@@8         100310ec     PlugInUtilities:Service.obj
 0003:00000104       ??_R0?AVSessionExplorer@@@8 10031104     PlugInUtilities:Service.obj
 0003:00000128       ??_R0?AVLabeledSection@@@8 10031128     PlugInUtilities:LabeledSectionGroup.obj
 0003:00000148       ??_R0?AVQVBoxLayout@@@8    10031148     PlugInUtilities:LabeledSectionGroup.obj
 0003:00000164       ??_R0?AVQBoxLayout@@@8     10031164     PlugInUtilities:LabeledSectionGroup.obj
 0003:00000188       ?staticMetaObject@LabeledSectionGroup@@2UQMetaObject@@B 10031188     PlugInUtilities:moc_LabeledSectionGroup.obj
 0003:000001a0       ?staticMetaObject@LabeledSection@@2UQMetaObject@@B 100311a0     PlugInUtilities:moc_LabeledSection.obj
 0003:000001b0       ??_R0?AVtype_info@@@8      100311b0     MSVCRT:ti_inst.obj
 0003:000001c8       ___native_dllmain_reason   100311c8     MSVCRT:natstart.obj
 0003:000001cc       ___native_vcclrit_reason   100311cc     MSVCRT:natstart.obj
 0003:000001d0       ___security_cookie         100311d0     MSVCRT:gs_cookie.obj
 0003:000001d4       ___security_cookie_complement 100311d4     MSVCRT:gs_cookie.obj
 0003:000001ec       _SpectralResamplerDescriptor 100311ec     ModuleManager.obj
 0003:00000208       ??_R0?AVInterpolator@@@8   10031208     Interpolator.obj
 0003:00000224       ??_R0?AVexception@std@@@8  10031224     Interpolator.obj
 0003:00000240       ??_R0?AVlogic_error@std@@@8 10031240     Interpolator.obj
 0003:00000260       ??_R0?AVlength_error@std@@@8 10031260     Interpolator.obj
 0003:00000280       ??_R0?AVbad_alloc@std@@@8  10031280     Interpolator.obj
 0003:0000029c       ??_R0N@8                   1003129c     Interpolator.obj
 0003:000002a8       ??_R0?AVLinearInterpolator@@@8 100312a8     LinearInterpolator.obj
 0003:000002cc       ??_R0?AVResamplerImpPlugInFactory@SpectralResampler@@@8 100312cc     ResamplerImp.obj
 0003:00000308       ??_R0?AVSessionItemExt1@@@8 10031308     ResamplerImp.obj
 0003:00000328       ??_R0?AVSessionItem@@@8    10031328     ResamplerImp.obj
 0003:00000344       ??_R0?AVPlugIn@@@8         10031344     ResamplerImp.obj
 0003:0000035c       ??_R0?AVPlugInShell@@@8    1003135c     ResamplerImp.obj
 0003:00000378       ??_R0?AVResamplerImp@@@8   10031378     ResamplerImp.obj
 0003:00000394       ??_R0?AVTestable@@@8       10031394     ResamplerImp.obj
 0003:000003ac       ??_R0?AVResampler@@@8      100313ac     ResamplerImp.obj
 0003:000003c4       ??_R0?AVBasicPlugInFactory@@@8 100313c4     ResamplerImp.obj
 0003:000003e8       ??_R0?AVPlugInFactory@@@8  100313e8     ResamplerImp.obj
 0003:00000404       ??_R0?AVGaussianResampler@@@8 10031404     ResamplerImp.obj
 0003:00000424       ??_R0?AVout_of_range@std@@@8 10031424     ResamplerImp.obj
 0003:00000448       ??_R0?AV?$basic_string@DU?$char_traits@D@std@@V?$allocator@D@2@@std@@@8 10031448     ResamplerImp.obj
 0003:00000494       ??_R0?AVOption@@@8         10031494     ResamplerOptions.obj
 0003:000004ac       ??_R0?AVOptionShell@@@8    100314ac     ResamplerOptions.obj
 0003:000004c8       ??_R0?AV?$OptionQWidgetWrapper@VResamplerOptions@@@@@8 100314c8     ResamplerOptions.obj
 0003:00000504       ??_R0?AVResamplerOptionsPlugInFactory@SpectralResampler@@@8 10031504     ResamplerOptions.obj
 0003:00000544       ??_R0?AVQAbstractScrollArea@@@8 10031544     ResamplerOptions.obj
 0003:00000568       ??_R0?AVQScrollArea@@@8    10031568     ResamplerOptions.obj
 0003:00000584       ??_R0?AVLabeledSectionGroup@@@8 10031584     ResamplerOptions.obj
 0003:000005a8       ??_R0?AVQAbstractSpinBox@@@8 100315a8     ResamplerOptions.obj
 0003:000005c8       ??_R0?AVQDoubleSpinBox@@@8 100315c8     ResamplerOptions.obj
 0003:000005e8       ??_R0?AVQFrame@@@8         100315e8     ResamplerOptions.obj
 0003:00000600       ??_R0?AVQLabel@@@8         10031600     ResamplerOptions.obj
 0003:00000618       ??_R0?AVQLayoutItem@@@8    10031618     ResamplerOptions.obj
 0003:00000634       ??_R0?AVQLayout@@@8        10031634     ResamplerOptions.obj
 0003:0000064c       ??_R0?AVQGridLayout@@@8    1003164c     ResamplerOptions.obj
 0003:00000668       ??_R0?AVQComboBox@@@8      10031668     ResamplerOptions.obj
 0003:00000680       ??_R0?AVQPaintDevice@@@8   10031680     ResamplerOptions.obj
 0003:0000069c       ??_R0?AVQObject@@@8        1003169c     ResamplerOptions.obj
 0003:000006b4       ??_R0?AVQWidget@@@8        100316b4     ResamplerOptions.obj
 0003:000006cc       ??_R0?AVResamplerOptions@@@8 100316cc     ResamplerOptions.obj
 0003:000006ec       ??_R0?AVSplineInterpolator@@@8 100316ec     SplineInterpolator.obj
 0003:00000710       ?mspSingleton@ModuleManager@@0PAV1@A 10031710     PlugInLib:ModuleManagerCommon.obj
 0003:00000714       ?__type_info_root_node@@3U__type_info_node@@A 10031714     MSVCRT:tncleanup.obj
 0003:00000720       __forceCRTManifest         10031720     MSVCRT:crtmanifest.obj
 0003:00000a50       ?mspName@ModuleManager@@0PBDB 10031a50     ModuleManager.obj
 0003:00000a54       ?mspVersion@ModuleManager@@0PBDB 10031a54     ModuleManager.obj
 0003:00000a58       ?mspDescription@ModuleManager@@0PBDB 10031a58     ModuleManager.obj
 0003:00000a5c       ?mspValidationKey@ModuleManager@@0PBDB 10031a5c     ModuleManager.obj
 0003:00000a60       ?mspUniqueId@ModuleManager@@0PBDB 10031a60     ModuleManager.obj
 0003:00000a8c       ??_B?1??getName@ResamplerOptions@@SAABV?$basic_string@DU?$char_traits@D@std@@V?$allocator@D@2@@std@@XZ@51 10031a8c     ResamplerOptions.obj
 0003:00000a90       ?var@?1??getShortDescription@ResamplerOptions@@SAABV?$basic_string@DU?$char_traits@D@std@@V?$allocator@D@2@@std@@XZ@4V34@A 10031a90     ResamplerOptions.obj
 0003:00000aac       ??_B?1??getShortDescription@ResamplerOptions@@SAABV?$basic_string@DU?$char_traits@D@std@@V?$allocator@D@2@@std@@XZ@51 10031aac     ResamplerOptions.obj
 0003:00000ab0       ??_B?1??getOptionName@ResamplerOptions@@SAABV?$basic_string@DU?$char_traits@D@std@@V?$allocator@D@2@@std@@XZ@51 10031ab0     ResamplerOptions.obj
 0003:00000ab4       ??_B?1??getCopyright@ResamplerOptions@@SAABV?$basic_string@DU?$char_traits@D@std@@V?$allocator@D@2@@std@@XZ@51 10031ab4     ResamplerOptions.obj
 0003:00000ab8       ?var@?1??getDescription@ResamplerOptions@@SAABV?$basic_string@DU?$char_traits@D@std@@V?$allocator@D@2@@std@@XZ@4V34@A 10031ab8     ResamplerOptions.obj
 0003:00000ad4       ??_B?1??getDescription@ResamplerOptions@@SAABV?$basic_string@DU?$char_traits@D@std@@V?$allocator@D@2@@std@@XZ@51 10031ad4     ResamplerOptions.obj
 0003:00000ad8       ?var@?1??getCreator@ResamplerOptions@@SAABV?$basic_string@DU?$char_traits@D@std@@V?$allocator@D@2@@std@@XZ@4V34@A 10031ad8     ResamplerOptions.obj
 0003:00000af4       ?var@?1??getName@ResamplerOptions@@SAABV?$basic_string@DU?$char_traits@D@std@@V?$allocator@D@2@@std@@XZ@4V34@A 10031af4     ResamplerOptions.obj
 0003:00000b10       ??_B?1??getCreator@ResamplerOptions@@SAABV?$basic_string@DU?$char_traits@D@std@@V?$allocator@D@2@@std@@XZ@51 10031b10     ResamplerOptions.obj
 0003:00000b14       ??_B?1??getVersion@ResamplerOptions@@SAABV?$basic_string@DU?$char_traits@D@std@@V?$allocator@D@2@@std@@XZ@51 10031b14     ResamplerOptions.obj
 0003:00000b18       ??_B?1??getDescriptorId@ResamplerOptions@@SAABV?$basic_string@DU?$char_traits@D@std@@V?$allocator@D@2@@std@@XZ@51 10031b18     ResamplerOptions.obj
 0003:00000b1c       ?var@?1??getOptionName@ResamplerOptions@@SAABV?$basic_string@DU?$char_traits@D@std@@V?$allocator@D@2@@std@@XZ@4V34@A 10031b1c     ResamplerOptions.obj
 0003:00000b38       ?var@?1??getCopyright@ResamplerOptions@@SAABV?$basic_string@DU?$char_traits@D@std@@V?$allocator@D@2@@std@@XZ@4V34@A 10031b38     ResamplerOptions.obj
 0003:00000b54       ?var@?1??getDescriptorId@ResamplerOptions@@SAABV?$basic_string@DU?$char_traits@D@std@@V?$allocator@D@2@@std@@XZ@4V34@A 10031b54     ResamplerOptions.obj
 0003:00000b70       ?var@?1??getVersion@ResamplerOptions@@SAABV?$basic_string@DU?$char_traits@D@std@@V?$allocator@D@2@@std@@XZ@4V34@A 10031b70     ResamplerOptions.obj
 0003:00000ba0       ___sse2_available          10031ba0     <common>
 0003:00000ba4       __adjust_fdiv              10031ba4     <common>
 0003:00000ba8       ___native_startup_state    10031ba8     <common>
 0003:00000bac       ___native_startup_lock     10031bac     <common>
 0003:00000bb0       ___dyn_tls_init_callback   10031bb0     <common>
 0003:00000bb4       ___onexitend               10031bb4     <common>
 0003:00000bb8       ___onexitbegin             10031bb8     <common>

 entry point at        0001:0002146d

 Static symbols

 0001:fffff000       __unwindfunclet$??1sentry@?$basic_ostream@DU?$char_traits@D@std@@@std@@QAE@XZ$0 10000000 f   PlugInUtilities:AppVerify.obj
 0001:fffff000       __unwindfunclet$??0logic_error@std@@QAE@ABV01@@Z$0 10000000 f   PlugInUtilities:LabeledSectionGroup.obj
 0001:fffff000       __unwindfunclet$??0logic_error@std@@QAE@ABV?$basic_string@DU?$char_traits@D@std@@V?$allocator@D@2@@1@@Z$0 10000000 f   PlugInLib:PlugInShell.obj
 0001:fffff000       __unwindfunclet$??$?6U?$char_traits@D@std@@@std@@YAAAV?$basic_ostream@DU?$char_traits@D@std@@@0@AAV10@PBD@Z$2 10000000 f   PlugInUtilities:AppVerify.obj
 0001:fffff000       __unwindfunclet$??0logic_error@std@@QAE@ABV01@@Z$0 10000000 f   PlugInLib:PlugInShell.obj
 0001:fffff000       __unwindfunclet$??0logic_error@std@@QAE@ABV01@@Z$0 10000000 f   PlugInUtilities:Service.obj
 0001:fffff000       __unwindfunclet$??0sentry@?$basic_ostream@DU?$char_traits@D@std@@@std@@QAE@AAV12@@Z$0 10000000 f   PlugInUtilities:AppVerify.obj
 0001:fffff000       __unwindfunclet$??0logic_error@std@@QAE@ABV?$basic_string@DU?$char_traits@D@std@@V?$allocator@D@2@@1@@Z$0 10000000 f   PlugInUtilities:LabeledSectionGroup.obj
 0001:fffff000       __unwindfunclet$??0logic_error@std@@QAE@ABV?$basic_string@DU?$char_traits@D@std@@V?$allocator@D@2@@1@@Z$0 10000000 f   PlugInUtilities:Service.obj
 0001:fffff008       __ehhandler$??1sentry@?$basic_ostream@DU?$char_traits@D@std@@@std@@QAE@XZ 10000008 f   PlugInUtilities:AppVerify.obj
 0001:fffff008       __unwindfunclet$??$?6U?$char_traits@D@std@@@std@@YAAAV?$basic_ostream@DU?$char_traits@D@std@@@0@AAV10@PBD@Z$3 10000008 f   PlugInUtilities:AppVerify.obj
 0001:fffff008       __ehhandler$??0sentry@?$basic_ostream@DU?$char_traits@D@std@@@std@@QAE@AAV12@@Z 10000008 f   PlugInUtilities:AppVerify.obj
 0001:fffff009       __ehhandler$??0logic_error@std@@QAE@ABV?$basic_string@DU?$char_traits@D@std@@V?$allocator@D@2@@1@@Z 10000009 f   PlugInUtilities:Service.obj
 0001:fffff009       __ehhandler$??0logic_error@std@@QAE@ABV01@@Z 10000009 f   PlugInUtilities:LabeledSectionGroup.obj
 0001:fffff009       __ehhandler$??0logic_error@std@@QAE@ABV?$basic_string@DU?$char_traits@D@std@@V?$allocator@D@2@@1@@Z 10000009 f   PlugInUtilities:LabeledSectionGroup.obj
 0001:fffff009       __ehhandler$??0logic_error@std@@QAE@ABV01@@Z 10000009 f   PlugInUtilities:Service.obj
 0001:fffff009       __ehhandler$??0logic_error@std@@QAE@ABV?$basic_string@DU?$char_traits@D@std@@V?$allocator@D@2@@1@@Z 10000009 f   PlugInLib:PlugInShell.obj
 0001:fffff009       __ehhandler$??0logic_error@std@@QAE@ABV01@@Z 10000009 f   PlugInLib:PlugInShell.obj
 0001:fffff010       __ehhandler$??$?6U?$char_traits@D@std@@@std@@YAAAV?$basic_ostream@DU?$char_traits@D@std@@@0@AAV10@PBD@Z 10000010 f   PlugInUtilities:AppVerify.obj
 0001:fffff195       __catch$??$?6U?$char_traits@D@std@@@std@@YAAAV?$basic_ostream@DU?$char_traits@D@std@@@0@AAV10@PBD@Z$0 10000195 f i PlugInUtilities:AppVerify.obj
 0001:000034b3       __catch$?_Insert_n@?$vector@U?$pair@V?$basic_string@DU?$char_traits@D@std@@V?$allocator@D@2@@std@@PAVPlugInFactory@@@std@@V?$allocator@U?$pair@V?$basic_string@DU?$char_traits@D@std@@V?$allocator@D@2@@std@@PAVPlugInFactory@@@std@@@2@@std@@IAEXV?$_Vector_iterator@U?$pair@V?$basic_string@DU?$char_traits@D@std@@V?$allocator@D@2@@std@@PAVPlugInFactory@@@std@@V?$allocator@U?$pair@V?$basic_string@DU?$char_traits@D@std@@V?$allocator@D@2@@std@@PAVPlugInFactory@@@std@@@2@@2@IABU?$pair@V?$basic_string@DU?$char_traits@D@std@@V?$allocator@D@2@@std@@PAVPlugInFactory@@@2@@Z$0 100044b3 f i  CIL library: CIL module
 0001:0000352f       __catch$?_Insert_n@?$vector@U?$pair@V?$basic_string@DU?$char_traits@D@std@@V?$allocator@D@2@@std@@PAVPlugInFactory@@@std@@V?$allocator@U?$pair@V?$basic_string@DU?$char_traits@D@std@@V?$allocator@D@2@@std@@PAVPlugInFactory@@@std@@@2@@std@@IAEXV?$_Vector_iterator@U?$pair@V?$basic_string@DU?$char_traits@D@std@@V?$allocator@D@2@@std@@PAVPlugInFactory@@@std@@V?$allocator@U?$pair@V?$basic_string@DU?$char_traits@D@std@@V?$allocator@D@2@@std@@PAVPlugInFactory@@@std@@@2@@2@IABU?$pair@V?$basic_string@DU?$char_traits@D@std@@V?$allocator@D@2@@std@@PAVPlugInFactory@@@2@@Z$2 1000452f f i  CIL library: CIL module
 0001:00003c75       __catch$??$_Uninit_fill_n@PAU?$pair@V?$basic_string@DU?$char_traits@D@std@@V?$allocator@D@2@@std@@PAVPlugInFactory@@@std@@IU12@V?$allocator@U?$pair@V?$basic_string@DU?$char_traits@D@std@@V?$allocator@D@2@@std@@PAVPlugInFactory@@@std@@@2@@std@@YAXPAU?$pair@V?$basic_string@DU?$char_traits@D@std@@V?$allocator@D@2@@std@@PAVPlugInFactory@@@0@IABU10@AAV?$allocator@U?$pair@V?$basic_string@DU?$char_traits@D@std@@V?$allocator@D@2@@std@@PAVPlugInFactory@@@std@@@0@U_Nonscalar_ptr_iterator_tag@0@U_Range_checked_iterator_tag@0@@Z$0 10004c75 f i  CIL library: CIL module
 0001:00004b60       __catch$??$_Uninit_copy@PAU?$pair@V?$basic_string@DU?$char_traits@D@std@@V?$allocator@D@2@@std@@PAVPlugInFactory@@@std@@PAU12@V?$allocator@U?$pair@V?$basic_string@DU?$char_traits@D@std@@V?$allocator@D@2@@std@@PAVPlugInFactory@@@std@@@2@@std@@YAPAU?$pair@V?$basic_string@DU?$char_traits@D@std@@V?$allocator@D@2@@std@@PAVPlugInFactory@@@0@PAU10@00AAV?$allocator@U?$pair@V?$basic_string@DU?$char_traits@D@std@@V?$allocator@D@2@@std@@PAVPlugInFactory@@@std@@@0@U_Nonscalar_ptr_iterator_tag@0@U_Range_checked_iterator_tag@0@@Z$0 10005b60 f i  CIL library: CIL module
 0001:00010a3f       __catch$??0?$vector@V?$basic_string@DU?$char_traits@D@std@@V?$allocator@D@2@@std@@V?$allocator@V?$basic_string@DU?$char_traits@D@std@@V?$allocator@D@2@@std@@@2@@std@@QAE@ABV01@@Z$0 10011a3f f i  CIL library: CIL module
 0001:00010df4       __catch$?reserve@?$vector@U?$pair@NN@std@@V?$allocator@U?$pair@NN@std@@@2@@std@@QAEXI@Z$0 10011df4 f i  CIL library: CIL module
 0001:0001109c       __catch$?reserve@?$vector@UTriplet@ResamplerImp@@V?$allocator@UTriplet@ResamplerImp@@@std@@@std@@QAEXI@Z$0 1001209c f i  CIL library: CIL module
 0001:00011344       __catch$?reserve@?$vector@U?$pair@HN@std@@V?$allocator@U?$pair@HN@std@@@2@@std@@QAEXI@Z$0 10012344 f i  CIL library: CIL module
 0001:0001240d       __catch$?_Insert_n@?$vector@V?$basic_string@DU?$char_traits@D@std@@V?$allocator@D@2@@std@@V?$allocator@V?$basic_string@DU?$char_traits@D@std@@V?$allocator@D@2@@std@@@2@@std@@IAEXV?$_Vector_iterator@V?$basic_string@DU?$char_traits@D@std@@V?$allocator@D@2@@std@@V?$allocator@V?$basic_string@DU?$char_traits@D@std@@V?$allocator@D@2@@std@@@2@@2@IABV?$basic_string@DU?$char_traits@D@std@@V?$allocator@D@2@@2@@Z$0 1001340d f i  CIL library: CIL module
 0001:0001249e       __catch$?_Insert_n@?$vector@V?$basic_string@DU?$char_traits@D@std@@V?$allocator@D@2@@std@@V?$allocator@V?$basic_string@DU?$char_traits@D@std@@V?$allocator@D@2@@std@@@2@@std@@IAEXV?$_Vector_iterator@V?$basic_string@DU?$char_traits@D@std@@V?$allocator@D@2@@std@@V?$allocator@V?$basic_string@DU?$char_traits@D@std@@V?$allocator@D@2@@std@@@2@@2@IABV?$basic_string@DU?$char_traits@D@std@@V?$allocator@D@2@@2@@Z$2 1001349e f i  CIL library: CIL module
 0001:00012791       __catch$?_Insert_n@?$vector@U?$pair@NN@std@@V?$allocator@U?$pair@NN@std@@@2@@std@@IAEXV?$_Vector_iterator@U?$pair@NN@std@@V?$allocator@U?$pair@NN@std@@@2@@2@IABU?$pair@NN@2@@Z$0 10013791 f i  CIL library: CIL module
 0001:0001279d       __catch$?_Insert_n@?$vector@U?$pair@NN@std@@V?$allocator@U?$pair@NN@std@@@2@@std@@IAEXV?$_Vector_iterator@U?$pair@NN@std@@V?$allocator@U?$pair@NN@std@@@2@@2@IABU?$pair@NN@2@@Z$2 1001379d f i  CIL library: CIL module
 0001:00012acc       __catch$?_Insert_n@?$vector@UTriplet@ResamplerImp@@V?$allocator@UTriplet@ResamplerImp@@@std@@@std@@IAEXV?$_Vector_iterator@UTriplet@ResamplerImp@@V?$allocator@UTriplet@ResamplerImp@@@std@@@2@IABUTriplet@ResamplerImp@@@Z$0 10013acc f i  CIL library: CIL module
 0001:00012ad8       __catch$?_Insert_n@?$vector@UTriplet@ResamplerImp@@V?$allocator@UTriplet@ResamplerImp@@@std@@@std@@IAEXV?$_Vector_iterator@UTriplet@ResamplerImp@@V?$allocator@UTriplet@ResamplerImp@@@std@@@2@IABUTriplet@ResamplerImp@@@Z$2 10013ad8 f i  CIL library: CIL module
 0001:00012df1       __catch$?_Insert_n@?$vector@U?$pair@HN@std@@V?$allocator@U?$pair@HN@std@@@2@@std@@IAEXV?$_Vector_iterator@U?$pair@HN@std@@V?$allocator@U?$pair@HN@std@@@2@@2@IABU?$pair@HN@2@@Z$0 10013df1 f i  CIL library: CIL module
 0001:00012dfd       __catch$?_Insert_n@?$vector@U?$pair@HN@std@@V?$allocator@U?$pair@HN@std@@@2@@std@@IAEXV?$_Vector_iterator@U?$pair@HN@std@@V?$allocator@U?$pair@HN@std@@@2@@2@IABU?$pair@HN@2@@Z$2 10013dfd f i  CIL library: CIL module
 0001:0001357d       __catch$??$?6U?$char_traits@D@std@@@std@@YAAAV?$basic_ostream@DU?$char_traits@D@std@@@0@AAV10@PBD@Z$0 1001457d f i  CIL library: CIL module
 0001:0001419c       __catch$??$_Uninit_fill_n@PAV?$basic_string@DU?$char_traits@D@std@@V?$allocator@D@2@@std@@IV12@V?$allocator@V?$basic_string@DU?$char_traits@D@std@@V?$allocator@D@2@@std@@@2@@std@@YAXPAV?$basic_string@DU?$char_traits@D@std@@V?$allocator@D@2@@0@IABV10@AAV?$allocator@V?$basic_string@DU?$char_traits@D@std@@V?$allocator@D@2@@std@@@0@U_Nonscalar_ptr_iterator_tag@0@U_Range_checked_iterator_tag@0@@Z$0 1001519c f i  CIL library: CIL module
 0001:00015afa       __catch$??$_Uninit_copy@PBV?$basic_string@DU?$char_traits@D@std@@V?$allocator@D@2@@std@@PAV12@V?$allocator@V?$basic_string@DU?$char_traits@D@std@@V?$allocator@D@2@@std@@@2@@std@@YAPAV?$basic_string@DU?$char_traits@D@std@@V?$allocator@D@2@@0@PBV10@0PAV10@AAV?$allocator@V?$basic_string@DU?$char_traits@D@std@@V?$allocator@D@2@@std@@@0@U_Nonscalar_ptr_iterator_tag@0@U_Range_checked_iterator_tag@0@@Z$0 10016afa f i  CIL library: CIL module
 0001:00015c16       __catch$??$_Uninit_move@PAV?$basic_string@DU?$char_traits@D@std@@V?$allocator@D@2@@std@@PAV12@V?$allocator@V?$basic_string@DU?$char_traits@D@std@@V?$allocator@D@2@@std@@@2@@std@@YAPAV?$basic_string@DU?$char_traits@D@std@@V?$allocator@D@2@@0@PAV10@00AAV?$allocator@V?$basic_string@DU?$char_traits@D@std@@V?$allocator@D@2@@std@@@0@U_Swap_move_tag@0@U_Range_checked_iterator_tag@0@@Z$0 10016c16 f i  CIL library: CIL module
 0001:0001a8ee       __catch$?_Buynode@?$_Tree@V?$_Tmap_traits@V?$basic_string@DU?$char_traits@D@std@@V?$allocator@D@2@@std@@V12@U?$less@V?$basic_string@DU?$char_traits@D@std@@V?$allocator@D@2@@std@@@2@V?$allocator@U?$pair@$$CBV?$basic_string@DU?$char_traits@D@std@@V?$allocator@D@2@@std@@V12@@std@@@2@$0A@@std@@@std@@IAEPAU_Node@?$_Tree_nod@V?$_Tmap_traits@V?$basic_string@DU?$char_traits@D@std@@V?$allocator@D@2@@std@@V12@U?$less@V?$basic_string@DU?$char_traits@D@std@@V?$allocator@D@2@@std@@@2@V?$allocator@U?$pair@$$CBV?$basic_string@DU?$char_traits@D@std@@V?$allocator@D@2@@std@@V12@@std@@@2@$0A@@std@@@2@PAU342@00ABU?$pair@$$CBV?$basic_string@DU?$char_traits@D@std@@V?$allocator@D@2@@std@@V12@@2@D@Z$0 1001b8ee f i PlugInLib:PlugInShell.obj
 0001:0001b262       __catch$?_Copy@?$_Tree@V?$_Tmap_traits@V?$basic_string@DU?$char_traits@D@std@@V?$allocator@D@2@@std@@V12@U?$less@V?$basic_string@DU?$char_traits@D@std@@V?$allocator@D@2@@std@@@2@V?$allocator@U?$pair@$$CBV?$basic_string@DU?$char_traits@D@std@@V?$allocator@D@2@@std@@V12@@std@@@2@$0A@@std@@@std@@IAEPAU_Node@?$_Tree_nod@V?$_Tmap_traits@V?$basic_string@DU?$char_traits@D@std@@V?$allocator@D@2@@std@@V12@U?$less@V?$basic_string@DU?$char_traits@D@std@@V?$allocator@D@2@@std@@@2@V?$allocator@U?$pair@$$CBV?$basic_string@DU?$char_traits@D@std@@V?$allocator@D@2@@std@@V12@@std@@@2@$0A@@std@@@2@PAU342@0@Z$0 1001c262 f i PlugInLib:PlugInShell.obj
 0001:0001b8d1       __catch$??0?$_Tree@V?$_Tmap_traits@V?$basic_string@DU?$char_traits@D@std@@V?$allocator@D@2@@std@@V12@U?$less@V?$basic_string@DU?$char_traits@D@std@@V?$allocator@D@2@@std@@@2@V?$allocator@U?$pair@$$CBV?$basic_string@DU?$char_traits@D@std@@V?$allocator@D@2@@std@@V12@@std@@@2@$0A@@std@@@std@@QAE@ABV01@@Z$0 1001c8d1 f i PlugInLib:PlugInShell.obj
 0001:00021147       _pre_c_init                10022147 f   MSVCRT:crtdll.obj
 0001:00021357       ___DllMainCRTStartup       10022357 f   MSVCRT:crtdll.obj
 0001:000214a0       ?ArrayUnwindFilter@@YAHPAU_EXCEPTION_POINTERS@@@Z 100224a0 f   MSVCRT:ehvecdtr.obj
 0001:00021cdb       _has_osfxsr_set            10022cdb f   MSVCRT:cpu_disp.obj
 0001:00021da0       __unwindfunclet$??1?$pair@$$CBV?$basic_string@DU?$char_traits@D@std@@V?$allocator@D@2@@std@@V12@@std@@QAE@XZ$0 10022da0 f   PlugInLib:PlugInShell.obj
 0001:00021da9       __ehhandler$??1?$pair@$$CBV?$basic_string@DU?$char_traits@D@std@@V?$allocator@D@2@@std@@V12@@std@@QAE@XZ 10022da9 f   PlugInLib:PlugInShell.obj
 0001:00021dc0       __unwindfunclet$??0?$pair@$$CBV?$basic_string@DU?$char_traits@D@std@@V?$allocator@D@2@@std@@V12@@std@@QAE@ABV?$basic_string@DU?$char_traits@D@std@@V?$allocator@D@2@@1@0@Z$0 10022dc0 f   PlugInLib:PlugInShell.obj
 0001:00021dc9       __ehhandler$??0?$pair@$$CBV?$basic_string@DU?$char_traits@D@std@@V?$allocator@D@2@@std@@V12@@std@@QAE@ABV?$basic_string@DU?$char_traits@D@std@@V?$allocator@D@2@@1@0@Z 10022dc9 f   PlugInLib:PlugInShell.obj
 0001:00021de0       __unwindfunclet$??0?$pair@$$CBV?$basic_string@DU?$char_traits@D@std@@V?$allocator@D@2@@std@@V12@@std@@QAE@ABU01@@Z$0 10022de0 f   PlugInLib:PlugInShell.obj
 0001:00021de9       __ehhandler$??0?$pair@$$CBV?$basic_string@DU?$char_traits@D@std@@V?$allocator@D@2@@std@@V12@@std@@QAE@ABU01@@Z 10022de9 f   PlugInLib:PlugInShell.obj
 0001:00021e00       __unwindfunclet$??1ContextMenuAction@@QAE@XZ$0 10022e00 f   PlugInLib:PlugInShell.obj
 0001:00021e0c       __ehhandler$??1ContextMenuAction@@QAE@XZ 10022e0c f   PlugInLib:PlugInShell.obj
 0001:00021e20       __unwindfunclet$?obtainResource@FactoryObject@@QBEPAXABVArgs@FactoryAllocator@@@Z$0 10022e20 f   PlugInLib:PlugInShell.obj
 0001:00021e29       __ehhandler$?obtainResource@FactoryObject@@QBEPAXABVArgs@FactoryAllocator@@@Z 10022e29 f   PlugInLib:PlugInShell.obj
 0001:00021e40       __unwindfunclet$?releaseResource@FactoryObject@@QBEXABVArgs@FactoryAllocator@@PAX@Z$0 10022e40 f   PlugInLib:PlugInShell.obj
 0001:00021e49       __ehhandler$?releaseResource@FactoryObject@@QBEXABVArgs@FactoryAllocator@@PAX@Z 10022e49 f   PlugInLib:PlugInShell.obj
 0001:00021e60       __unwindfunclet$??0?$Resource@VSettableSessionItem@@VFactoryObject@@@@QAE@ABVArgs@FactoryAllocator@@@Z$0 10022e60 f   PlugInLib:PlugInShell.obj
 0001:00021e6b       __ehhandler$??0?$Resource@VSettableSessionItem@@VFactoryObject@@@@QAE@ABVArgs@FactoryAllocator@@@Z 10022e6b f   PlugInLib:PlugInShell.obj
 0001:00021e80       __unwindfunclet$??1?$Resource@VSettableSessionItem@@VFactoryObject@@@@UAE@XZ$0 10022e80 f   PlugInLib:PlugInShell.obj
 0001:00021e8b       __ehhandler$??1?$Resource@VSettableSessionItem@@VFactoryObject@@@@UAE@XZ 10022e8b f   PlugInLib:PlugInShell.obj
 0001:00021ea0       __unwindfunclet$?_Buynode@?$_Tree@V?$_Tmap_traits@V?$basic_string@DU?$char_traits@D@std@@V?$allocator@D@2@@std@@V12@U?$less@V?$basic_string@DU?$char_traits@D@std@@V?$allocator@D@2@@std@@@2@V?$allocator@U?$pair@$$CBV?$basic_string@DU?$char_traits@D@std@@V?$allocator@D@2@@std@@V12@@std@@@2@$0A@@std@@@std@@IAEPAU_Node@?$_Tree_nod@V?$_Tmap_traits@V?$basic_string@DU?$char_traits@D@std@@V?$allocator@D@2@@std@@V12@U?$less@V?$basic_string@DU?$char_traits@D@std@@V?$allocator@D@2@@std@@@2@V?$allocator@U?$pair@$$CBV?$basic_string@DU?$char_traits@D@std@@V?$allocator@D@2@@std@@V12@@std@@@2@$0A@@std@@@2@PAU342@00ABU?$pair@$$CBV?$basic_string@DU?$char_traits@D@std@@V?$allocator@D@2@@std@@V12@@2@D@Z$2 10022ea0 f   PlugInLib:PlugInShell.obj
 0001:00021eb1       __ehhandler$?_Buynode@?$_Tree@V?$_Tmap_traits@V?$basic_string@DU?$char_traits@D@std@@V?$allocator@D@2@@std@@V12@U?$less@V?$basic_string@DU?$char_traits@D@std@@V?$allocator@D@2@@std@@@2@V?$allocator@U?$pair@$$CBV?$basic_string@DU?$char_traits@D@std@@V?$allocator@D@2@@std@@V12@@std@@@2@$0A@@std@@@std@@IAEPAU_Node@?$_Tree_nod@V?$_Tmap_traits@V?$basic_string@DU?$char_traits@D@std@@V?$allocator@D@2@@std@@V12@U?$less@V?$basic_string@DU?$char_traits@D@std@@V?$allocator@D@2@@std@@@2@V?$allocator@U?$pair@$$CBV?$basic_string@DU?$char_traits@D@std@@V?$allocator@D@2@@std@@V12@@std@@@2@$0A@@std@@@2@PAU342@00ABU?$pair@$$CBV?$basic_string@DU?$char_traits@D@std@@V?$allocator@D@2@@std@@V12@@2@D@Z 10022eb1 f   PlugInLib:PlugInShell.obj
 0001:00021ec0       __unwindfunclet$??0?$FactoryResource@VSettableSessionItem@@@@QAE@XZ$0 10022ec0 f   PlugInLib:PlugInShell.obj
 0001:00021ec8       __unwindfunclet$??0?$FactoryResource@VSettableSessionItem@@@@QAE@XZ$1 10022ec8 f   PlugInLib:PlugInShell.obj
 0001:00021ed0       __ehhandler$??0?$FactoryResource@VSettableSessionItem@@@@QAE@XZ 10022ed0 f   PlugInLib:PlugInShell.obj
 0001:00021ee0       __unwindfunclet$?_Insert@?$_Tree@V?$_Tmap_traits@V?$basic_string@DU?$char_traits@D@std@@V?$allocator@D@2@@std@@V12@U?$less@V?$basic_string@DU?$char_traits@D@std@@V?$allocator@D@2@@std@@@2@V?$allocator@U?$pair@$$CBV?$basic_string@DU?$char_traits@D@std@@V?$allocator@D@2@@std@@V12@@std@@@2@$0A@@std@@@std@@IAE?AViterator@12@_NPAU_Node@?$_Tree_nod@V?$_Tmap_traits@V?$basic_string@DU?$char_traits@D@std@@V?$allocator@D@2@@std@@V12@U?$less@V?$basic_string@DU?$char_traits@D@std@@V?$allocator@D@2@@std@@@2@V?$allocator@U?$pair@$$CBV?$basic_string@DU?$char_traits@D@std@@V?$allocator@D@2@@std@@V12@@std@@@2@$0A@@std@@@2@ABU?$pair@$$CBV?$basic_string@DU?$char_traits@D@std@@V?$allocator@D@2@@std@@V12@@2@@Z$0 10022ee0 f   PlugInLib:PlugInShell.obj
 0001:00021ee9       __unwindfunclet$?_Insert@?$_Tree@V?$_Tmap_traits@V?$basic_string@DU?$char_traits@D@std@@V?$allocator@D@2@@std@@V12@U?$less@V?$basic_string@DU?$char_traits@D@std@@V?$allocator@D@2@@std@@@2@V?$allocator@U?$pair@$$CBV?$basic_string@DU?$char_traits@D@std@@V?$allocator@D@2@@std@@V12@@std@@@2@$0A@@std@@@std@@IAE?AViterator@12@_NPAU_Node@?$_Tree_nod@V?$_Tmap_traits@V?$basic_string@DU?$char_traits@D@std@@V?$allocator@D@2@@std@@V12@U?$less@V?$basic_string@DU?$char_traits@D@std@@V?$allocator@D@2@@std@@@2@V?$allocator@U?$pair@$$CBV?$basic_string@DU?$char_traits@D@std@@V?$allocator@D@2@@std@@V12@@std@@@2@$0A@@std@@@2@ABU?$pair@$$CBV?$basic_string@DU?$char_traits@D@std@@V?$allocator@D@2@@std@@V12@@2@@Z$2 10022ee9 f   PlugInLib:PlugInShell.obj
 0001:00021ef2       __ehhandler$?_Insert@?$_Tree@V?$_Tmap_traits@V?$basic_string@DU?$char_traits@D@std@@V?$allocator@D@2@@std@@V12@U?$less@V?$basic_string@DU?$char_traits@D@std@@V?$allocator@D@2@@std@@@2@V?$allocator@U?$pair@$$CBV?$basic_string@DU?$char_traits@D@std@@V?$allocator@D@2@@std@@V12@@std@@@2@$0A@@std@@@std@@IAE?AViterator@12@_NPAU_Node@?$_Tree_nod@V?$_Tmap_traits@V?$basic_string@DU?$char_traits@D@std@@V?$allocator@D@2@@std@@V12@U?$less@V?$basic_string@DU?$char_traits@D@std@@V?$allocator@D@2@@std@@@2@V?$allocator@U?$pair@$$CBV?$basic_string@DU?$char_traits@D@std@@V?$allocator@D@2@@std@@V12@@std@@@2@$0A@@std@@@2@ABU?$pair@$$CBV?$basic_string@DU?$char_traits@D@std@@V?$allocator@D@2@@std@@V12@@2@@Z 10022ef2 f   PlugInLib:PlugInShell.obj
 0001:00021f00       __unwindfunclet$?_Erase@?$_Tree@V?$_Tmap_traits@V?$basic_string@DU?$char_traits@D@std@@V?$allocator@D@2@@std@@V12@U?$less@V?$basic_string@DU?$char_traits@D@std@@V?$allocator@D@2@@std@@@2@V?$allocator@U?$pair@$$CBV?$basic_string@DU?$char_traits@D@std@@V?$allocator@D@2@@std@@V12@@std@@@2@$0A@@std@@@std@@IAEXPAU_Node@?$_Tree_nod@V?$_Tmap_traits@V?$basic_string@DU?$char_traits@D@std@@V?$allocator@D@2@@std@@V12@U?$less@V?$basic_string@DU?$char_traits@D@std@@V?$allocator@D@2@@std@@@2@V?$allocator@U?$pair@$$CBV?$basic_string@DU?$char_traits@D@std@@V?$allocator@D@2@@std@@V12@@std@@@2@$0A@@std@@@2@@Z$1 10022f00 f   PlugInLib:PlugInShell.obj
 0001:00021f09       __ehhandler$?_Erase@?$_Tree@V?$_Tmap_traits@V?$basic_string@DU?$char_traits@D@std@@V?$allocator@D@2@@std@@V12@U?$less@V?$basic_string@DU?$char_traits@D@std@@V?$allocator@D@2@@std@@@2@V?$allocator@U?$pair@$$CBV?$basic_string@DU?$char_traits@D@std@@V?$allocator@D@2@@std@@V12@@std@@@2@$0A@@std@@@std@@IAEXPAU_Node@?$_Tree_nod@V?$_Tmap_traits@V?$basic_string@DU?$char_traits@D@std@@V?$allocator@D@2@@std@@V12@U?$less@V?$basic_string@DU?$char_traits@D@std@@V?$allocator@D@2@@std@@@2@V?$allocator@U?$pair@$$CBV?$basic_string@DU?$char_traits@D@std@@V?$allocator@D@2@@std@@V12@@std@@@2@$0A@@std@@@2@@Z 10022f09 f   PlugInLib:PlugInShell.obj
 0001:00021f20       __unwindfunclet$?erase@?$_Tree@V?$_Tmap_traits@V?$basic_string@DU?$char_traits@D@std@@V?$allocator@D@2@@std@@V12@U?$less@V?$basic_string@DU?$char_traits@D@std@@V?$allocator@D@2@@std@@@2@V?$allocator@U?$pair@$$CBV?$basic_string@DU?$char_traits@D@std@@V?$allocator@D@2@@std@@V12@@std@@@2@$0A@@std@@@std@@QAE?AViterator@12@V312@@Z$0 10022f20 f   PlugInLib:PlugInShell.obj
 0001:00021f29       __unwindfunclet$?erase@?$_Tree@V?$_Tmap_traits@V?$basic_string@DU?$char_traits@D@std@@V?$allocator@D@2@@std@@V12@U?$less@V?$basic_string@DU?$char_traits@D@std@@V?$allocator@D@2@@std@@@2@V?$allocator@U?$pair@$$CBV?$basic_string@DU?$char_traits@D@std@@V?$allocator@D@2@@std@@V12@@std@@@2@$0A@@std@@@std@@QAE?AViterator@12@V312@@Z$2 10022f29 f   PlugInLib:PlugInShell.obj
 0001:00021f32       __unwindfunclet$?erase@?$_Tree@V?$_Tmap_traits@V?$basic_string@DU?$char_traits@D@std@@V?$allocator@D@2@@std@@V12@U?$less@V?$basic_string@DU?$char_traits@D@std@@V?$allocator@D@2@@std@@@2@V?$allocator@U?$pair@$$CBV?$basic_string@DU?$char_traits@D@std@@V?$allocator@D@2@@std@@V12@@std@@@2@$0A@@std@@@std@@QAE?AViterator@12@V312@@Z$5 10022f32 f   PlugInLib:PlugInShell.obj
 0001:00021f3b       __ehhandler$?erase@?$_Tree@V?$_Tmap_traits@V?$basic_string@DU?$char_traits@D@std@@V?$allocator@D@2@@std@@V12@U?$less@V?$basic_string@DU?$char_traits@D@std@@V?$allocator@D@2@@std@@@2@V?$allocator@U?$pair@$$CBV?$basic_string@DU?$char_traits@D@std@@V?$allocator@D@2@@std@@V12@@std@@@2@$0A@@std@@@std@@QAE?AViterator@12@V312@@Z 10022f3b f   PlugInLib:PlugInShell.obj
 0001:00021f50       __ehhandler$?_Copy@?$_Tree@V?$_Tmap_traits@V?$basic_string@DU?$char_traits@D@std@@V?$allocator@D@2@@std@@V12@U?$less@V?$basic_string@DU?$char_traits@D@std@@V?$allocator@D@2@@std@@@2@V?$allocator@U?$pair@$$CBV?$basic_string@DU?$char_traits@D@std@@V?$allocator@D@2@@std@@V12@@std@@@2@$0A@@std@@@std@@IAEPAU_Node@?$_Tree_nod@V?$_Tmap_traits@V?$basic_string@DU?$char_traits@D@std@@V?$allocator@D@2@@std@@V12@U?$less@V?$basic_string@DU?$char_traits@D@std@@V?$allocator@D@2@@std@@@2@V?$allocator@U?$pair@$$CBV?$basic_string@DU?$char_traits@D@std@@V?$allocator@D@2@@std@@V12@@std@@@2@$0A@@std@@@2@PAU342@0@Z 10022f50 f   PlugInLib:PlugInShell.obj
 0001:00021f60       __unwindfunclet$?clear@?$list@UContextMenuAction@@V?$allocator@UContextMenuAction@@@std@@@std@@QAEXXZ$1 10022f60 f   PlugInLib:PlugInShell.obj
 0001:00021f6c       __ehhandler$?clear@?$list@UContextMenuAction@@V?$allocator@UContextMenuAction@@@std@@@std@@QAEXXZ 10022f6c f   PlugInLib:PlugInShell.obj
 0001:00021f80       __unwindfunclet$??A?$map@V?$basic_string@DU?$char_traits@D@std@@V?$allocator@D@2@@std@@V12@U?$less@V?$basic_string@DU?$char_traits@D@std@@V?$allocator@D@2@@std@@@2@V?$allocator@U?$pair@$$CBV?$basic_string@DU?$char_traits@D@std@@V?$allocator@D@2@@std@@V12@@std@@@2@@std@@QAEAAV?$basic_string@DU?$char_traits@D@std@@V?$allocator@D@2@@1@ABV21@@Z$0 10022f80 f   PlugInLib:PlugInShell.obj
 0001:00021f89       __unwindfunclet$??A?$map@V?$basic_string@DU?$char_traits@D@std@@V?$allocator@D@2@@std@@V12@U?$less@V?$basic_string@DU?$char_traits@D@std@@V?$allocator@D@2@@std@@@2@V?$allocator@U?$pair@$$CBV?$basic_string@DU?$char_traits@D@std@@V?$allocator@D@2@@std@@V12@@std@@@2@@std@@QAEAAV?$basic_string@DU?$char_traits@D@std@@V?$allocator@D@2@@1@ABV21@@Z$1 10022f89 f   PlugInLib:PlugInShell.obj
 0001:00021f91       __ehhandler$??A?$map@V?$basic_string@DU?$char_traits@D@std@@V?$allocator@D@2@@std@@V12@U?$less@V?$basic_string@DU?$char_traits@D@std@@V?$allocator@D@2@@std@@@2@V?$allocator@U?$pair@$$CBV?$basic_string@DU?$char_traits@D@std@@V?$allocator@D@2@@std@@V12@@std@@@2@@std@@QAEAAV?$basic_string@DU?$char_traits@D@std@@V?$allocator@D@2@@1@ABV21@@Z 10022f91 f   PlugInLib:PlugInShell.obj
 0001:00021fa0       __ehhandler$??0?$_Tree@V?$_Tmap_traits@V?$basic_string@DU?$char_traits@D@std@@V?$allocator@D@2@@std@@V12@U?$less@V?$basic_string@DU?$char_traits@D@std@@V?$allocator@D@2@@std@@@2@V?$allocator@U?$pair@$$CBV?$basic_string@DU?$char_traits@D@std@@V?$allocator@D@2@@std@@V12@@std@@@2@$0A@@std@@@std@@QAE@ABV01@@Z 10022fa0 f   PlugInLib:PlugInShell.obj
 0001:00021fb0       __unwindfunclet$??1PlugInShell@@UAE@XZ$0 10022fb0 f   PlugInLib:PlugInShell.obj
 0001:00021fb8       __unwindfunclet$??1PlugInShell@@UAE@XZ$1 10022fb8 f   PlugInLib:PlugInShell.obj
 0001:00021fdf       __unwindfunclet$??1PlugInShell@@UAE@XZ$2 10022fdf f   PlugInLib:PlugInShell.obj
 0001:00021fea       __unwindfunclet$??1PlugInShell@@UAE@XZ$3 10022fea f   PlugInLib:PlugInShell.obj
 0001:00021ff6       __unwindfunclet$??1PlugInShell@@UAE@XZ$4 10022ff6 f   PlugInLib:PlugInShell.obj
 0001:00022002       __unwindfunclet$??1PlugInShell@@UAE@XZ$5 10023002 f   PlugInLib:PlugInShell.obj
 0001:0002200e       __unwindfunclet$??1PlugInShell@@UAE@XZ$6 1002300e f   PlugInLib:PlugInShell.obj
 0001:0002201c       __unwindfunclet$??1PlugInShell@@UAE@XZ$7 1002301c f   PlugInLib:PlugInShell.obj
 0001:0002202b       __unwindfunclet$??1PlugInShell@@UAE@XZ$8 1002302b f   PlugInLib:PlugInShell.obj
 0001:0002203a       __unwindfunclet$??1PlugInShell@@UAE@XZ$9 1002303a f   PlugInLib:PlugInShell.obj
 0001:00022049       __unwindfunclet$??1PlugInShell@@UAE@XZ$10 10023049 f   PlugInLib:PlugInShell.obj
 0001:00022058       __ehhandler$??1PlugInShell@@UAE@XZ 10023058 f   PlugInLib:PlugInShell.obj
 0001:00022070       __unwindfunclet$??0PlugInShell@@QAE@XZ$0 10023070 f   PlugInLib:PlugInShell.obj
 0001:00022078       __unwindfunclet$??0PlugInShell@@QAE@XZ$1 10023078 f   PlugInLib:PlugInShell.obj
 0001:00022083       __unwindfunclet$??0PlugInShell@@QAE@XZ$2 10023083 f   PlugInLib:PlugInShell.obj
 0001:0002208e       __unwindfunclet$??0PlugInShell@@QAE@XZ$3 1002308e f   PlugInLib:PlugInShell.obj
 0001:0002209a       __unwindfunclet$??0PlugInShell@@QAE@XZ$4 1002309a f   PlugInLib:PlugInShell.obj
 0001:000220a6       __unwindfunclet$??0PlugInShell@@QAE@XZ$5 100230a6 f   PlugInLib:PlugInShell.obj
 0001:000220b2       __unwindfunclet$??0PlugInShell@@QAE@XZ$6 100230b2 f   PlugInLib:PlugInShell.obj
 0001:000220c0       __unwindfunclet$??0PlugInShell@@QAE@XZ$7 100230c0 f   PlugInLib:PlugInShell.obj
 0001:000220cf       __unwindfunclet$??0PlugInShell@@QAE@XZ$8 100230cf f   PlugInLib:PlugInShell.obj
 0001:000220de       __unwindfunclet$??0PlugInShell@@QAE@XZ$9 100230de f   PlugInLib:PlugInShell.obj
 0001:000220ed       __unwindfunclet$??0PlugInShell@@QAE@XZ$10 100230ed f   PlugInLib:PlugInShell.obj
 0001:000220fc       __ehhandler$??0PlugInShell@@QAE@XZ 100230fc f   PlugInLib:PlugInShell.obj
 0001:00022110       __unwindfunclet$??1OptionShell@@UAE@XZ$0 10023110 f   PlugInLib:OptionShell.obj
 0001:00022118       __unwindfunclet$??1OptionShell@@UAE@XZ$1 10023118 f   PlugInLib:OptionShell.obj
 0001:0002213f       __unwindfunclet$??1OptionShell@@UAE@XZ$2 1002313f f   PlugInLib:OptionShell.obj
 0001:0002214e       __ehhandler$??1OptionShell@@UAE@XZ 1002314e f   PlugInLib:OptionShell.obj
 0001:00022160       __unwindfunclet$??0OptionShell@@QAE@XZ$0 10023160 f   PlugInLib:OptionShell.obj
 0001:00022168       __unwindfunclet$??0OptionShell@@QAE@XZ$1 10023168 f   PlugInLib:OptionShell.obj
 0001:00022173       __unwindfunclet$??0OptionShell@@QAE@XZ$2 10023173 f   PlugInLib:OptionShell.obj
 0001:00022182       __unwindfunclet$??0OptionShell@@QAE@XZ$3 10023182 f   PlugInLib:OptionShell.obj
 0001:0002218b       __ehhandler$??0OptionShell@@QAE@XZ 1002318b f   PlugInLib:OptionShell.obj
 0001:000221a0       __unwindfunclet$?LogVerificationErrorProc@@YAXPBD0I0@Z$0 100231a0 f   PlugInUtilities:AppVerify.obj
 0001:000221ac       __unwindfunclet$?LogVerificationErrorProc@@YAXPBD0I0@Z$1 100231ac f   PlugInUtilities:AppVerify.obj
 0001:000221b8       __unwindfunclet$?LogVerificationErrorProc@@YAXPBD0I0@Z$2 100231b8 f   PlugInUtilities:AppVerify.obj
 0001:000221c4       __unwindfunclet$?LogVerificationErrorProc@@YAXPBD0I0@Z$3 100231c4 f   PlugInUtilities:AppVerify.obj
 0001:000221d0       __unwindfunclet$?LogVerificationErrorProc@@YAXPBD0I0@Z$4 100231d0 f   PlugInUtilities:AppVerify.obj
 0001:000221dc       __unwindfunclet$?LogVerificationErrorProc@@YAXPBD0I0@Z$5 100231dc f   PlugInUtilities:AppVerify.obj
 0001:000221e8       __unwindfunclet$?LogVerificationErrorProc@@YAXPBD0I0@Z$6 100231e8 f   PlugInUtilities:AppVerify.obj
 0001:000221f4       __unwindfunclet$?LogVerificationErrorProc@@YAXPBD0I0@Z$7 100231f4 f   PlugInUtilities:AppVerify.obj
 0001:00022200       __unwindfunclet$?LogVerificationErrorProc@@YAXPBD0I0@Z$8 10023200 f   PlugInUtilities:AppVerify.obj
 0001:0002220c       __unwindfunclet$?LogVerificationErrorProc@@YAXPBD0I0@Z$9 1002320c f   PlugInUtilities:AppVerify.obj
 0001:00022218       __unwindfunclet$?LogVerificationErrorProc@@YAXPBD0I0@Z$10 10023218 f   PlugInUtilities:AppVerify.obj
 0001:00022224       __unwindfunclet$?LogVerificationErrorProc@@YAXPBD0I0@Z$11 10023224 f   PlugInUtilities:AppVerify.obj
 0001:00022230       __unwindfunclet$?LogVerificationErrorProc@@YAXPBD0I0@Z$12 10023230 f   PlugInUtilities:AppVerify.obj
 0001:0002223c       __unwindfunclet$?LogVerificationErrorProc@@YAXPBD0I0@Z$13 1002323c f   PlugInUtilities:AppVerify.obj
 0001:00022248       __unwindfunclet$?LogVerificationErrorProc@@YAXPBD0I0@Z$14 10023248 f   PlugInUtilities:AppVerify.obj
 0001:00022254       __unwindfunclet$?LogVerificationErrorProc@@YAXPBD0I0@Z$15 10023254 f   PlugInUtilities:AppVerify.obj
 0001:00022260       __ehhandler$?LogVerificationErrorProc@@YAXPBD0I0@Z 10023260 f   PlugInUtilities:AppVerify.obj
 0001:00022270       __unwindfunclet$?createWrapper@DataVariant@@ABEPAVDataValueWrapper@@PBXPBD_N@Z$0 10023270 f   PlugInUtilities:DataVariant.obj
 0001:00022279       __ehhandler$?createWrapper@DataVariant@@ABEPAVDataValueWrapper@@PBXPBD_N@Z 10023279 f   PlugInUtilities:DataVariant.obj
 0001:00022290       __unwindfunclet$?get@?$Service@VSessionExplorer@@@@QBEPAVSessionExplorer@@XZ$0 10023290 f   PlugInUtilities:Service.obj
 0001:00022299       __unwindfunclet$?get@?$Service@VSessionExplorer@@@@QBEPAVSessionExplorer@@XZ$1 10023299 f   PlugInUtilities:Service.obj
 0001:000222a2       __ehhandler$?get@?$Service@VSessionExplorer@@@@QBEPAVSessionExplorer@@XZ 100232a2 f   PlugInUtilities:Service.obj
 0001:000222b0       __unwindfunclet$?_Xlen@?$vector@PAVLabeledSection@@V?$allocator@PAVLabeledSection@@@std@@@std@@KAXXZ$0 100232b0 f   PlugInUtilities:LabeledSectionGroup.obj
 0001:000222b9       __unwindfunclet$?_Xlen@?$vector@PAVLabeledSection@@V?$allocator@PAVLabeledSection@@@std@@@std@@KAXXZ$2 100232b9 f   PlugInUtilities:LabeledSectionGroup.obj
 0001:000222c2       __ehhandler$?_Xlen@?$vector@PAVLabeledSection@@V?$allocator@PAVLabeledSection@@@std@@@std@@KAXXZ 100232c2 f   PlugInUtilities:LabeledSectionGroup.obj
 0001:000222d0       __unwindfunclet$??0LabeledSectionGroup@@QAE@PAVQWidget@@@Z$0 100232d0 f   PlugInUtilities:LabeledSectionGroup.obj
 0001:000222d9       __unwindfunclet$??0LabeledSectionGroup@@QAE@PAVQWidget@@@Z$1 100232d9 f   PlugInUtilities:LabeledSectionGroup.obj
 0001:000222e4       __unwindfunclet$??0LabeledSectionGroup@@QAE@PAVQWidget@@@Z$2 100232e4 f   PlugInUtilities:LabeledSectionGroup.obj
 0001:000222ef       __unwindfunclet$??0LabeledSectionGroup@@QAE@PAVQWidget@@@Z$3 100232ef f   PlugInUtilities:LabeledSectionGroup.obj
 0001:000222fa       __ehhandler$??0LabeledSectionGroup@@QAE@PAVQWidget@@@Z 100232fa f   PlugInUtilities:LabeledSectionGroup.obj
 0001:00022310       __unwindfunclet$??1LabeledSectionGroup@@UAE@XZ$0 10023310 f   PlugInUtilities:LabeledSectionGroup.obj
 0001:00022319       __ehhandler$??1LabeledSectionGroup@@UAE@XZ 10023319 f   PlugInUtilities:LabeledSectionGroup.obj
 0001:00022330       __unwindfunclet$?uniqueKeys@?$QMap@PAVLabeledSection@@H@@QBE?AV?$QList@PAVLabeledSection@@@@XZ$1 10023330 f   PlugInUtilities:LabeledSectionGroup.obj
 0001:00022349       __ehhandler$?uniqueKeys@?$QMap@PAVLabeledSection@@H@@QBE?AV?$QList@PAVLabeledSection@@@@XZ 10023349 f   PlugInUtilities:LabeledSectionGroup.obj
 0001:00022360       __unwindfunclet$?clear@LabeledSectionGroup@@QAEXXZ$0 10023360 f   PlugInUtilities:LabeledSectionGroup.obj
 0001:00022368       __ehhandler$?clear@LabeledSectionGroup@@QAEXXZ 10023368 f   PlugInUtilities:LabeledSectionGroup.obj
 0001:00022380       __unwindfunclet$?getSections@LabeledSectionGroup@@QBE?AV?$vector@PAVLabeledSection@@V?$allocator@PAVLabeledSection@@@std@@@std@@XZ$0 10023380 f   PlugInUtilities:LabeledSectionGroup.obj
 0001:00022399       __ehhandler$?getSections@LabeledSectionGroup@@QBE?AV?$vector@PAVLabeledSection@@V?$allocator@PAVLabeledSection@@@std@@@std@@XZ 10023399 f   PlugInUtilities:LabeledSectionGroup.obj
 0001:000223b0       __unwindfunclet$?updateIndicator@LabeledSection@@AAEXXZ$0 100233b0 f   PlugInUtilities:LabeledSection.obj
 0001:000223b9       __unwindfunclet$?updateIndicator@LabeledSection@@AAEXXZ$1 100233b9 f   PlugInUtilities:LabeledSection.obj
 0001:000223c2       __unwindfunclet$?updateIndicator@LabeledSection@@AAEXXZ$2 100233c2 f   PlugInUtilities:LabeledSection.obj
 0001:000223cb       __ehhandler$?updateIndicator@LabeledSection@@AAEXXZ 100233cb f   PlugInUtilities:LabeledSection.obj
 0001:000223e0       __unwindfunclet$?initialize@LabeledSection@@AAEXABVQString@@PAVQWidget@@@Z$0 100233e0 f   PlugInUtilities:LabeledSection.obj
 0001:000223eb       __unwindfunclet$?initialize@LabeledSection@@AAEXABVQString@@PAVQWidget@@@Z$1 100233eb f   PlugInUtilities:LabeledSection.obj
 0001:000223f6       __unwindfunclet$?initialize@LabeledSection@@AAEXABVQString@@PAVQWidget@@@Z$2 100233f6 f   PlugInUtilities:LabeledSection.obj
 0001:000223ff       __unwindfunclet$?initialize@LabeledSection@@AAEXABVQString@@PAVQWidget@@@Z$3 100233ff f   PlugInUtilities:LabeledSection.obj
 0001:0002240a       __unwindfunclet$?initialize@LabeledSection@@AAEXABVQString@@PAVQWidget@@@Z$4 1002340a f   PlugInUtilities:LabeledSection.obj
 0001:00022415       __ehhandler$?initialize@LabeledSection@@AAEXABVQString@@PAVQWidget@@@Z 10023415 f   PlugInUtilities:LabeledSection.obj
 0001:00022420       __unwindfunclet$??0LabeledSection@@QAE@PAVQWidget@@@Z$0 10023420 f   PlugInUtilities:LabeledSection.obj
 0001:00022429       __unwindfunclet$??0LabeledSection@@QAE@PAVQWidget@@@Z$1 10023429 f   PlugInUtilities:LabeledSection.obj
 0001:00022432       __ehhandler$??0LabeledSection@@QAE@PAVQWidget@@@Z 10023432 f   PlugInUtilities:LabeledSection.obj
 0001:00022440       __unwindfunclet$??0LabeledSection@@QAE@ABVQString@@PAVQWidget@@@Z$0 10023440 f   PlugInUtilities:LabeledSection.obj
 0001:00022449       __ehhandler$??0LabeledSection@@QAE@ABVQString@@PAVQWidget@@@Z 10023449 f   PlugInUtilities:LabeledSection.obj
 0001:00022460       __unwindfunclet$??0LabeledSection@@QAE@PAVQWidget@@ABVQString@@0@Z$0 10023460 f   PlugInUtilities:LabeledSection.obj
 0001:00022469       __ehhandler$??0LabeledSection@@QAE@PAVQWidget@@ABVQString@@0@Z 10023469 f   PlugInUtilities:LabeledSection.obj
 0001:00022480       __unwindfunclet$??$setSetting@N@ConfigurationSettings@@QAE_NABV?$basic_string@DU?$char_traits@D@std@@V?$allocator@D@2@@std@@ABN_N@Z$0 10023480 f    CIL library: CIL module
 0001:00022488       __ehhandler$??$setSetting@N@ConfigurationSettings@@QAE_NABV?$basic_string@DU?$char_traits@D@std@@V?$allocator@D@2@@std@@ABN_N@Z 10023488 f    CIL library: CIL module
 0001:000224a0       __unwindfunclet$??$setSetting@V?$basic_string@DU?$char_traits@D@std@@V?$allocator@D@2@@std@@@ConfigurationSettings@@QAE_NABV?$basic_string@DU?$char_traits@D@std@@V?$allocator@D@2@@std@@0_N@Z$0 100234a0 f    CIL library: CIL module
