 DataMerge

 Timestamp is 4c406968 (Fri Jul 16 22:15:04 2010)

 Preferred load address is 10000000

 Start         Length     Name                   Class
 0001:00000000 0002b0d2H .text                   CODE
 0001:0002b0e0 00002083H .text$x                 CODE
 0001:0002d170 0000009bH .text$yc                CODE
 0001:0002d210 0000003bH .text$yd                CODE
 0002:00000000 000001c8H .idata$5                DATA
 0002:000001c8 00000004H .CRT$XCA                DATA
 0002:000001cc 00000008H .CRT$XCU                DATA
 0002:000001d4 00000004H .CRT$XCZ                DATA
 0002:000001d8 00000004H .CRT$XIA                DATA
 0002:000001dc 00000004H .CRT$XIAA               DATA
 0002:000001e0 00000004H .CRT$XIC                DATA
 0002:000001e4 00000004H .CRT$XIZ                DATA
 0002:000001f0 00002070H .rdata                  DATA
 0002:00002260 00000055H .rdata$debug            DATA
 0002:000022b8 00000d6cH .rdata$r                DATA
 0002:00003030 000002f8H .rdata$sxdata           DATA
 0002:00003328 00000004H .rtc$IAA                DATA
 0002:0000332c 00000004H .rtc$IZZ                DATA
 0002:00003330 00000004H .rtc$TAA                DATA
 0002:00003334 00000004H .rtc$TZZ                DATA
 0002:00003338 000032fcH .xdata$x                DATA
 0002:00006634 00000064H .idata$2                DATA
 0002:00006698 00000014H .idata$3                DATA
 0002:000066ac 000001c8H .idata$4                DATA
 0002:00006874 00001342H .idata$6                DATA
 0002:00007bc0 0000008bH .edata                  DATA
 0003:00000000 00000ce0H .data                   DATA
 0003:00000ce0 000003d8H .bss                    DATA

  Address         Publics by Value              Rva+Base       Lib:Object

 0000:00000000       __except_list              00000000     <absolute>
 0000:000000be       ___safe_se_handler_count   000000be     <absolute>
 0000:00009876       __ldused                   00009876     <absolute>
 0000:00009876       __fltused                  00009876     <absolute>
 0000:00000000       ___ImageBase               10000000     <linker-defined>
 0001:00000000       ??CDataAccessor@@QAEPAVDataAccessorImpl@@XZ 10001000 f i DataMerge.obj
 0001:00000010       ??0bad_alloc@std@@QAE@PBD@Z 10001010 f i DataMerge.obj
 0001:00000030       ??1bad_alloc@std@@UAE@XZ   10001030 f i DataMerge.obj
 0001:00000040       ??_Gbad_alloc@std@@UAEPAXI@Z 10001040 f i DataMerge.obj
 0001:00000040       ??_Ebad_alloc@std@@UAEPAXI@Z 10001040 f i DataMerge.obj
 0001:00000070       ??2@YAPAXIPAX@Z            10001070 f i DataMerge.obj
 0001:00000080       ??3@YAXPAX0@Z              10001080 f i DataMerge.obj
 0001:00000090       ??0_Iterator_base@std@@QAE@XZ 10001090 f i DataMerge.obj
 0001:000000a0       ??0logic_error@std@@QAE@ABV?$basic_string@DU?$char_traits@D@std@@V?$allocator@D@2@@1@@Z 100010a0 f i DataMerge.obj
 0001:00000100       ??1logic_error@std@@UAE@XZ 10001100 f i DataMerge.obj
 0001:00000120       ?what@logic_error@std@@UBEPBDXZ 10001120 f i DataMerge.obj
 0001:00000130       ??_Glogic_error@std@@UAEPAXI@Z 10001130 f i DataMerge.obj
 0001:00000130       ??_Elogic_error@std@@UAEPAXI@Z 10001130 f i DataMerge.obj
 0001:00000160       ??0length_error@std@@QAE@ABV?$basic_string@DU?$char_traits@D@std@@V?$allocator@D@2@@1@@Z 10001160 f i DataMerge.obj
 0001:00000180       ??1length_error@std@@UAE@XZ 10001180 f i DataMerge.obj
 0001:000001a0       ??_Glength_error@std@@UAEPAXI@Z 100011a0 f i DataMerge.obj
 0001:000001a0       ??_Elength_error@std@@UAEPAXI@Z 100011a0 f i DataMerge.obj
 0001:000001d0       ??0Args@FactoryAllocator@@QAE@PBD@Z 100011d0 f i DataMerge.obj
 0001:000001f0       ?getColumn@DataAccessorImpl@@QAEPAXXZ 100011f0 f i DataMerge.obj
 0001:00000200       ?updateIfNeeded@DataAccessorImpl@@AAEXXZ 10001200 f i DataMerge.obj
 0001:00000290       ??0logic_error@std@@QAE@ABV01@@Z 10001290 f i DataMerge.obj
 0001:000002f0       ??1Args@MessageObject@@QAE@XZ 100012f0 f i DataMerge.obj
 0001:00000370       ??0PlugInFactory@@QAE@XZ   10001370 f i DataMerge.obj
 0001:00000380       ??0DataMerge@@QAE@XZ       10001380 f   DataMerge.obj
 0001:00000570       ??1DataMerge@@UAE@XZ       10001570 f   DataMerge.obj
 0001:000005e0       ?getWidget@DataMerge@@UBEPAVQWidget@@XZ 100015e0 f   DataMerge.obj
 0001:000005f0       ?dialogClosed@DataMerge@@QAEXXZ 100015f0 f   DataMerge.obj
 0001:00000600       ?serialize@DataMerge@@UBE_NAAVSessionItemSerializer@@@Z 10001600 f   DataMerge.obj
 0001:00000620       ??C?$Service@VApplicationServices@@@@QBEPAVApplicationServices@@XZ 10001620 f i DataMerge.obj
 0001:00000630       ??C?$Service@VModelServices@@@@QBEPAVModelServices@@XZ 10001630 f i DataMerge.obj
 0001:00000640       ?get@?$Resource@VDataRequest@@VFactoryObject@@@@QAEPAVDataRequest@@XZ 10001640 f i DataMerge.obj
 0001:00000650       ??C?$Resource@VDataRequest@@VFactoryObject@@@@QAEPAVDataRequest@@XZ 10001650 f i DataMerge.obj
 0001:00000660       ?release@?$Resource@VDataRequest@@VFactoryObject@@@@QAEPAVDataRequest@@XZ 10001660 f i DataMerge.obj
 0001:00000670       ??0?$EnumWrapper@W4InterleaveFormatTypeEnum@@@@QAE@ABW4InterleaveFormatTypeEnum@@@Z 10001670 f i DataMerge.obj
 0001:00000690       ??0?$EnumWrapper@W4ResultEnum@Message@@@@QAE@ABW4ResultEnum@Message@@@Z 10001690 f i DataMerge.obj
 0001:000006b0       ??C?$Service@VSessionManager@@@@QBEPAVSessionManager@@XZ 100016b0 f i DataMerge.obj
 0001:000006c0       ??C?$Service@VMessageLogMgr@@@@QBEPAVMessageLogMgr@@XZ 100016c0 f i DataMerge.obj
 0001:000006d0       ??B?$EnumWrapper@W4EncodingTypeEnum@@@@QBE?AW4EncodingTypeEnum@@XZ 100016d0 f i DataMerge.obj
 0001:000006e0       ?size@?$vector@PAVDataElement@@V?$allocator@PAVDataElement@@@std@@@std@@QBEIXZ 100016e0 f i DataMerge.obj
 0001:00000700       ??C?$Service@VDesktopServices@@@@QBEPAVDesktopServices@@XZ 10001700 f i DataMerge.obj
 0001:00000710       ??0?$EnumWrapper@W4WindowTypeEnum@@@@QAE@ABW4WindowTypeEnum@@@Z 10001710 f i DataMerge.obj
 0001:00000730       ??0?$EnumWrapper@W4LayerTypeEnum@@@@QAE@ABW4LayerTypeEnum@@@Z 10001730 f i DataMerge.obj
 0001:00000750       ??1Args@FactoryAllocator@@QAE@XZ 10001750 f i DataMerge.obj
 0001:00000760       ??0Args@MessageObject@@QAE@ABU01@@Z 10001760 f i DataMerge.obj
 0001:00000800       ?capacity@?$vector@V?$basic_string@DU?$char_traits@D@std@@V?$allocator@D@2@@std@@V?$allocator@V?$basic_string@DU?$char_traits@D@std@@V?$allocator@D@2@@std@@@2@@std@@QBEIXZ 10001800 f i DataMerge.obj
 0001:00000830       ?size@?$vector@V?$basic_string@DU?$char_traits@D@std@@V?$allocator@D@2@@std@@V?$allocator@V?$basic_string@DU?$char_traits@D@std@@V?$allocator@D@2@@std@@@2@@std@@QBEIXZ 10001830 f i DataMerge.obj
 0001:00000860       ??0?$allocator@V?$basic_string@DU?$char_traits@D@std@@V?$allocator@D@2@@std@@@std@@QAE@XZ 10001860 f i DataMerge.obj
 0001:00000870       ??0?$allocator@V?$basic_string@DU?$char_traits@D@std@@V?$allocator@D@2@@std@@@std@@QAE@ABV01@@Z 10001870 f i DataMerge.obj
 0001:00000880       ?deallocate@?$allocator@V?$basic_string@DU?$char_traits@D@std@@V?$allocator@D@2@@std@@@std@@QAEXPAV?$basic_string@DU?$char_traits@D@std@@V?$allocator@D@2@@2@I@Z 10001880 f i DataMerge.obj
 0001:00000890       ?get@?$Resource@VStep@@VMessageObject@@@@QAEPAVStep@@XZ 10001890 f i DataMerge.obj
 0001:000008a0       ??D?$_Vector_const_iterator@PAVDataElement@@V?$allocator@PAVDataElement@@@std@@@std@@QBEABQAVDataElement@@XZ 100018a0 f i DataMerge.obj
 0001:000008d0       ??E?$_Vector_const_iterator@PAVDataElement@@V?$allocator@PAVDataElement@@@std@@@std@@QAEAAV01@XZ 100018d0 f i DataMerge.obj
 0001:00000900       ??8?$_Vector_const_iterator@PAVDataElement@@V?$allocator@PAVDataElement@@@std@@@std@@QBE_NABV01@@Z 10001900 f i DataMerge.obj
 0001:00000930       ??Bsentry@?$basic_ostream@DU?$char_traits@D@std@@@std@@QBE_NXZ 10001930 f i DataMerge.obj
 0001:00000940       ??0Args@FactoryAllocator@@QAE@ABV01@@Z 10001940 f i DataMerge.obj
 0001:00000960       ?_Xlen@?$vector@V?$basic_string@DU?$char_traits@D@std@@V?$allocator@D@2@@std@@V?$allocator@V?$basic_string@DU?$char_traits@D@std@@V?$allocator@D@2@@std@@@2@@std@@KAXXZ 10001960 f i DataMerge.obj
 0001:000009e0       ??0length_error@std@@QAE@ABV01@@Z 100019e0 f i DataMerge.obj
 0001:00000a00       ?deallocate@?$allocator@PAVDataElement@@@std@@QAEXPAPAVDataElement@@I@Z 10001a00 f i DataMerge.obj
 0001:00000a10       ??0_Sentry_base@?$basic_ostream@DU?$char_traits@D@std@@@std@@QAE@AAV12@@Z 10001a10 f i DataMerge.obj
 0001:00000a40       ??1_Sentry_base@?$basic_ostream@DU?$char_traits@D@std@@@std@@QAE@XZ 10001a40 f i DataMerge.obj
 0001:00000a60       ??0?$_Ranit@PAVDataElement@@HPBQAV1@ABQAV1@@std@@QAE@XZ 10001a60 f i DataMerge.obj
 0001:00000a70       ??0?$_Ranit@V?$basic_string@DU?$char_traits@D@std@@V?$allocator@D@2@@std@@HPBV12@ABV12@@std@@QAE@XZ 10001a70 f i DataMerge.obj
 0001:00000a80       ?max_size@?$allocator@V?$basic_string@DU?$char_traits@D@std@@V?$allocator@D@2@@std@@@std@@QBEIXZ 10001a80 f i DataMerge.obj
 0001:00000a90       ??G?$_Vector_const_iterator@V?$basic_string@DU?$char_traits@D@std@@V?$allocator@D@2@@std@@V?$allocator@V?$basic_string@DU?$char_traits@D@std@@V?$allocator@D@2@@std@@@2@@std@@QBEHABV01@@Z 10001a90 f i DataMerge.obj
 0001:00000ad0       ??Y?$_Vector_const_iterator@V?$basic_string@DU?$char_traits@D@std@@V?$allocator@D@2@@std@@V?$allocator@V?$basic_string@DU?$char_traits@D@std@@V?$allocator@D@2@@std@@@2@@std@@QAEAAV01@H@Z 10001ad0 f i DataMerge.obj
 0001:00000b20       ??$model_cast@PAVRasterElement@@PAVDataElement@@@@YAPAVRasterElement@@PAVDataElement@@@Z 10001b20 f i DataMerge.obj
 0001:00000b90       ??$_Allocate@V?$basic_string@DU?$char_traits@D@std@@V?$allocator@D@2@@std@@@std@@YAPAV?$basic_string@DU?$char_traits@D@std@@V?$allocator@D@2@@0@IPAV10@@Z 10001b90 f i DataMerge.obj
 0001:00000c00       ??0bad_alloc@std@@QAE@ABV01@@Z 10001c00 f i DataMerge.obj
 0001:00000c20       ??$_Iter_random@PAV?$basic_string@DU?$char_traits@D@std@@V?$allocator@D@2@@std@@PAV12@@std@@YA?AUrandom_access_iterator_tag@0@ABQAV?$basic_string@DU?$char_traits@D@std@@V?$allocator@D@2@@0@0@Z 10001c20 f i DataMerge.obj
 0001:00000c30       ??$_Ptr_cat@PAV?$basic_string@DU?$char_traits@D@std@@V?$allocator@D@2@@std@@PAV12@@std@@YA?AU_Nonscalar_ptr_iterator_tag@0@AAPAV?$basic_string@DU?$char_traits@D@std@@V?$allocator@D@2@@0@0@Z 10001c30 f i DataMerge.obj
 0001:00000c40       ??$_Fill@PAV?$basic_string@DU?$char_traits@D@std@@V?$allocator@D@2@@std@@V12@@std@@YAXPAV?$basic_string@DU?$char_traits@D@std@@V?$allocator@D@2@@0@0ABV10@@Z 10001c40 f i DataMerge.obj
 0001:00000c70       ??$_Move_cat@PAV?$basic_string@DU?$char_traits@D@std@@V?$allocator@D@2@@std@@@std@@YA?AU_Swap_move_tag@0@ABQAV?$basic_string@DU?$char_traits@D@std@@V?$allocator@D@2@@0@@Z 10001c70 f i DataMerge.obj
 0001:00000c80       ??$_Ptr_cat@PAPAVDataElement@@PAPAV1@@std@@YA?AU_Scalar_ptr_iterator_tag@0@AAPAPAVDataElement@@0@Z 10001c80 f i DataMerge.obj
 0001:00000c90       ??$_Destroy_range@PAVDataElement@@V?$allocator@PAVDataElement@@@std@@@std@@YAXPAPAVDataElement@@0AAV?$allocator@PAVDataElement@@@0@U_Scalar_ptr_iterator_tag@0@@Z 10001c90 f i DataMerge.obj
 0001:00000ca0       ??$_Checked_base@PAV?$basic_string@DU?$char_traits@D@std@@V?$allocator@D@2@@std@@@std@@YAPAV?$basic_string@DU?$char_traits@D@std@@V?$allocator@D@2@@0@AAPAV10@U_Unchanged_checked_iterator_base_type_tag@0@@Z 10001ca0 f i DataMerge.obj
 0001:00000cb0       ??$_Construct@V?$basic_string@DU?$char_traits@D@std@@V?$allocator@D@2@@std@@V12@@std@@YAXPAV?$basic_string@DU?$char_traits@D@std@@V?$allocator@D@2@@0@ABV10@@Z 10001cb0 f i DataMerge.obj
 0001:00000d00       ??_G?$basic_string@DU?$char_traits@D@std@@V?$allocator@D@2@@std@@QAEPAXI@Z 10001d00 f i DataMerge.obj
 0001:00000d20       ??$swap@DU?$char_traits@D@std@@V?$allocator@D@2@@std@@YAXAAV?$basic_string@DU?$char_traits@D@std@@V?$allocator@D@2@@0@0@Z 10001d20 f i DataMerge.obj
 0001:00000d30       ??_EDataMerge@@WM@AEPAXI@Z 10001d30 f i DataMerge.obj
 0001:00000d40       ??_EDataMerge@@WBA@AEPAXI@Z 10001d40 f i DataMerge.obj
 0001:00000d50       ??_EDataMerge@@W7AEPAXI@Z  10001d50 f i DataMerge.obj
 0001:00000d60       ?getFactory@FactoryAllocator@@IBEPAVObjectFactory@@XZ 10001d60 f i DataMerge.obj
 0001:00000d80       ?obtainResource@FactoryObject@@QBEPAXABVArgs@FactoryAllocator@@@Z 10001d80 f i DataMerge.obj
 0001:00000e10       ?releaseResource@FactoryObject@@QBEXABVArgs@FactoryAllocator@@PAX@Z 10001e10 f i DataMerge.obj
 0001:00000ea0       ?toPixel@DataAccessorImpl@@QAEXHH@Z 10001ea0 f i DataMerge.obj
 0001:00000ed0       ??0Args@MessageObject@@QAE@V?$basic_string@DU?$char_traits@D@std@@V?$allocator@D@2@@std@@0000_N@Z 10001ed0 f i DataMerge.obj
 0001:00001020       ?obtainResource@MessageObject@@QBEPAVMessage@@ABUArgs@1@@Z 10002020 f i DataMerge.obj
 0001:00001090       ?releaseResource@MessageObject@@QBEXABUArgs@1@PAVMessage@@@Z 10002090 f i DataMerge.obj
 0001:000010d0       ??_EDataMerge@@UAEPAXI@Z   100020d0 f i DataMerge.obj
 0001:000010d0       ??_GDataMerge@@UAEPAXI@Z   100020d0 f i DataMerge.obj
 0001:000010f0       ??0?$Resource@VStep@@VMessageObject@@@@QAE@ABUArgs@MessageObject@@@Z 100020f0 f i DataMerge.obj
 0001:00001160       ??C?$Resource@VStep@@VMessageObject@@@@QAEPAVStep@@XZ 10002160 f i DataMerge.obj
 0001:00001170       ??D?$_Vector_iterator@PAVDataElement@@V?$allocator@PAVDataElement@@@std@@@std@@QBEAAPAVDataElement@@XZ 10002170 f i DataMerge.obj
 0001:000011a0       ??E?$_Vector_iterator@PAVDataElement@@V?$allocator@PAVDataElement@@@std@@@std@@QAEAAV01@XZ 100021a0 f i DataMerge.obj
 0001:000011d0       ??9?$_Vector_const_iterator@PAVDataElement@@V?$allocator@PAVDataElement@@@std@@@std@@QBE_NABV01@@Z 100021d0 f i DataMerge.obj
 0001:00001200       ??0?$_Vector_val@V?$basic_string@DU?$char_traits@D@std@@V?$allocator@D@2@@std@@V?$allocator@V?$basic_string@DU?$char_traits@D@std@@V?$allocator@D@2@@std@@@2@@std@@IAE@V?$allocator@V?$basic_string@DU?$char_traits@D@std@@V?$allocator@D@2@@std@@@1@@Z 10002200 f i DataMerge.obj
 0001:00001210       ??0?$Resource@VDataRequest@@VFactoryObject@@@@QAE@ABVArgs@FactoryAllocator@@@Z 10002210 f i DataMerge.obj
 0001:00001270       ?destroyIfOwned@?$Resource@VDataRequest@@VFactoryObject@@@@IAEXXZ 10002270 f i DataMerge.obj
 0001:000012a0       ?destroyIfOwned@?$Resource@VStep@@VMessageObject@@@@IAEXXZ 100022a0 f i DataMerge.obj
 0001:000012f0       ??0sentry@?$basic_ostream@DU?$char_traits@D@std@@@std@@QAE@AAV12@@Z 100022f0 f i DataMerge.obj
 0001:00001380       ??1sentry@?$basic_ostream@DU?$char_traits@D@std@@@std@@QAE@XZ 10002380 f i DataMerge.obj
 0001:000013f0       ?max_size@?$vector@V?$basic_string@DU?$char_traits@D@std@@V?$allocator@D@2@@std@@V?$allocator@V?$basic_string@DU?$char_traits@D@std@@V?$allocator@D@2@@std@@@2@@std@@QBEIXZ 100023f0 f i DataMerge.obj
 0001:00001400       ?allocate@?$allocator@V?$basic_string@DU?$char_traits@D@std@@V?$allocator@D@2@@std@@@std@@QAEPAV?$basic_string@DU?$char_traits@D@std@@V?$allocator@D@2@@2@I@Z 10002400 f i DataMerge.obj
 0001:00001420       ??0?$_Vector_const_iterator@PAVDataElement@@V?$allocator@PAVDataElement@@@std@@@std@@QAE@PAPAVDataElement@@PBU_Container_base@1@@Z 10002420 f i DataMerge.obj
 0001:00001460       ??0?$_Vector_const_iterator@V?$basic_string@DU?$char_traits@D@std@@V?$allocator@D@2@@std@@V?$allocator@V?$basic_string@DU?$char_traits@D@std@@V?$allocator@D@2@@std@@@2@@std@@QAE@PAV?$basic_string@DU?$char_traits@D@std@@V?$allocator@D@2@@1@PBU_Container_base@1@@Z 10002460 f i DataMerge.obj
 0001:000014a0       ??0?$_Vector_iterator@V?$basic_string@DU?$char_traits@D@std@@V?$allocator@D@2@@std@@V?$allocator@V?$basic_string@DU?$char_traits@D@std@@V?$allocator@D@2@@std@@@2@@std@@QAE@PAV?$basic_string@DU?$char_traits@D@std@@V?$allocator@D@2@@1@PBU_Container_base@1@@Z 100024a0 f i DataMerge.obj
 0001:000014e0       ??G?$_Vector_iterator@V?$basic_string@DU?$char_traits@D@std@@V?$allocator@D@2@@std@@V?$allocator@V?$basic_string@DU?$char_traits@D@std@@V?$allocator@D@2@@std@@@2@@std@@QBEHABV?$_Vector_const_iterator@V?$basic_string@DU?$char_traits@D@std@@V?$allocator@D@2@@std@@V?$allocator@V?$basic_string@DU?$char_traits@D@std@@V?$allocator@D@2@@std@@@2@@1@@Z 100024e0 f i DataMerge.obj
 0001:00001520       ??Y?$_Vector_iterator@V?$basic_string@DU?$char_traits@D@std@@V?$allocator@D@2@@std@@V?$allocator@V?$basic_string@DU?$char_traits@D@std@@V?$allocator@D@2@@std@@@2@@std@@QAEAAV01@H@Z 10002520 f i DataMerge.obj
 0001:00001570       ??$_Destroy_range@PAVDataElement@@V?$allocator@PAVDataElement@@@std@@@std@@YAXPAPAVDataElement@@0AAV?$allocator@PAVDataElement@@@0@@Z 10002570 f i DataMerge.obj
 0001:00001580       ??$?6U?$char_traits@D@std@@@std@@YAAAV?$basic_ostream@DU?$char_traits@D@std@@@0@AAV10@PBD@Z 10002580 f i DataMerge.obj
 0001:00001740       ??$_Checked_base@PAV?$basic_string@DU?$char_traits@D@std@@V?$allocator@D@2@@std@@@std@@YAPAV?$basic_string@DU?$char_traits@D@std@@V?$allocator@D@2@@0@AAPAV10@@Z 10002740 f i DataMerge.obj
 0001:00001750       ?construct@?$allocator@V?$basic_string@DU?$char_traits@D@std@@V?$allocator@D@2@@std@@@std@@QAEXPAV?$basic_string@DU?$char_traits@D@std@@V?$allocator@D@2@@2@ABV32@@Z 10002750 f i DataMerge.obj
 0001:000017a0       ??$?6U?$char_traits@D@std@@@std@@YAAAV?$basic_ostream@DU?$char_traits@D@std@@@0@AAV10@D@Z 100027a0 f i DataMerge.obj
 0001:00001940       ??$_Move_backward_opt@PAV?$basic_string@DU?$char_traits@D@std@@V?$allocator@D@2@@std@@PAV12@Uforward_iterator_tag@2@@std@@YAPAV?$basic_string@DU?$char_traits@D@std@@V?$allocator@D@2@@0@PAV10@00Uforward_iterator_tag@0@U_Swap_move_tag@0@U_Range_checked_iterator_tag@0@@Z 10002940 f i DataMerge.obj
 0001:00001980       ??$_Destroy@V?$basic_string@DU?$char_traits@D@std@@V?$allocator@D@2@@std@@@std@@YAXPAV?$basic_string@DU?$char_traits@D@std@@V?$allocator@D@2@@0@@Z 10002980 f i DataMerge.obj
 0001:00001990       ??1?$Resource@VDataRequest@@VFactoryObject@@@@UAE@XZ 10002990 f i DataMerge.obj
 0001:00001a10       ??1?$Resource@VStep@@VMessageObject@@@@UAE@XZ 10002a10 f i DataMerge.obj
 0001:00001a60       ??_G?$Resource@VDataRequest@@VFactoryObject@@@@UAEPAXI@Z 10002a60 f i DataMerge.obj
 0001:00001a60       ??_E?$Resource@VDataRequest@@VFactoryObject@@@@UAEPAXI@Z 10002a60 f i DataMerge.obj
 0001:00001a80       ??_E?$Resource@VStep@@VMessageObject@@@@UAEPAXI@Z 10002a80 f i DataMerge.obj
 0001:00001a80       ??_G?$Resource@VStep@@VMessageObject@@@@UAEPAXI@Z 10002a80 f i DataMerge.obj
 0001:00001aa0       ?end@?$vector@V?$basic_string@DU?$char_traits@D@std@@V?$allocator@D@2@@std@@V?$allocator@V?$basic_string@DU?$char_traits@D@std@@V?$allocator@D@2@@std@@@2@@std@@QAE?AV?$_Vector_iterator@V?$basic_string@DU?$char_traits@D@std@@V?$allocator@D@2@@std@@V?$allocator@V?$basic_string@DU?$char_traits@D@std@@V?$allocator@D@2@@std@@@2@@2@XZ 10002aa0 f i DataMerge.obj
 0001:00001ad0       ?_Buy@?$vector@V?$basic_string@DU?$char_traits@D@std@@V?$allocator@D@2@@std@@V?$allocator@V?$basic_string@DU?$char_traits@D@std@@V?$allocator@D@2@@std@@@2@@std@@IAE_NI@Z 10002ad0 f i DataMerge.obj
 0001:00001b30       ??0?$_Vector_iterator@PAVDataElement@@V?$allocator@PAVDataElement@@@std@@@std@@QAE@PAPAVDataElement@@PBU_Container_base@1@@Z 10002b30 f i DataMerge.obj
 0001:00001b70       ?begin@?$vector@V?$basic_string@DU?$char_traits@D@std@@V?$allocator@D@2@@std@@V?$allocator@V?$basic_string@DU?$char_traits@D@std@@V?$allocator@D@2@@std@@@2@@std@@QAE?AV?$_Vector_iterator@V?$basic_string@DU?$char_traits@D@std@@V?$allocator@D@2@@std@@V?$allocator@V?$basic_string@DU?$char_traits@D@std@@V?$allocator@D@2@@std@@@2@@2@XZ 10002b70 f i DataMerge.obj
 0001:00001ba0       ?_Destroy@?$vector@PAVDataElement@@V?$allocator@PAVDataElement@@@std@@@std@@IAEXPAPAVDataElement@@0@Z 10002ba0 f i DataMerge.obj
 0001:00001bb0       ??H?$_Vector_iterator@V?$basic_string@DU?$char_traits@D@std@@V?$allocator@D@2@@std@@V?$allocator@V?$basic_string@DU?$char_traits@D@std@@V?$allocator@D@2@@std@@@2@@std@@QBE?AV01@H@Z 10002bb0 f i DataMerge.obj
 0001:00001bf0       ??$mergeElement@G@?A0xe9836fa4@@YA_NPAGHHVDataAccessor@@1H@Z 10002bf0 f i DataMerge.obj
 0001:00001db0       ??$mergeElement@F@?A0xe9836fa4@@YA_NPAFHHVDataAccessor@@1H@Z 10002db0 f i DataMerge.obj
 0001:00001f70       ??$mergeElement@I@?A0xe9836fa4@@YA_NPAIHHVDataAccessor@@1H@Z 10002f70 f i DataMerge.obj
 0001:00002130       ??$mergeElement@H@?A0xe9836fa4@@YA_NPAHHHVDataAccessor@@1H@Z 10003130 f i DataMerge.obj
 0001:000022f0       ??$mergeElement@M@?A0xe9836fa4@@YA_NPAMHHVDataAccessor@@1H@Z 100032f0 f i DataMerge.obj
 0001:000024c0       ??$mergeElement@N@?A0xe9836fa4@@YA_NPANHHVDataAccessor@@1H@Z 100034c0 f i DataMerge.obj
 0001:00002680       ??$fill@PAV?$basic_string@DU?$char_traits@D@std@@V?$allocator@D@2@@std@@V12@@std@@YAXPAV?$basic_string@DU?$char_traits@D@std@@V?$allocator@D@2@@0@0ABV10@@Z 10003680 f i DataMerge.obj
 0001:000026b0       ??$?6U?$char_traits@D@std@@@std@@YAAAV?$basic_ostream@DU?$char_traits@D@std@@@0@AAV10@E@Z 100036b0 f i DataMerge.obj
 0001:000026c0       ??$?6U?$char_traits@D@std@@@std@@YAAAV?$basic_ostream@DU?$char_traits@D@std@@@0@AAV10@C@Z 100036c0 f i DataMerge.obj
 0001:000026d0       ??$_Move_backward_opt@PAV?$basic_string@DU?$char_traits@D@std@@V?$allocator@D@2@@std@@PAV12@@std@@YAPAV?$basic_string@DU?$char_traits@D@std@@V?$allocator@D@2@@0@PAV10@00Urandom_access_iterator_tag@0@U_Swap_move_tag@0@U_Range_checked_iterator_tag@0@@Z 100036d0 f i DataMerge.obj
 0001:00002730       ?destroy@?$allocator@V?$basic_string@DU?$char_traits@D@std@@V?$allocator@D@2@@std@@@std@@QAEXPAV?$basic_string@DU?$char_traits@D@std@@V?$allocator@D@2@@2@@Z 10003730 f i DataMerge.obj
 0001:00002740       ??$_Uninit_move@PAV?$basic_string@DU?$char_traits@D@std@@V?$allocator@D@2@@std@@PAV12@V?$allocator@V?$basic_string@DU?$char_traits@D@std@@V?$allocator@D@2@@std@@@2@@std@@YAPAV?$basic_string@DU?$char_traits@D@std@@V?$allocator@D@2@@0@PAV10@00AAV?$allocator@V?$basic_string@DU?$char_traits@D@std@@V?$allocator@D@2@@std@@@0@U_Swap_move_tag@0@U_Range_checked_iterator_tag@0@@Z 10003740 f i DataMerge.obj
 0001:00002800       ??1?$FactoryResource@VDataRequest@@@@UAE@XZ 10003800 f i DataMerge.obj
 0001:00002810       ??0StepResource@@QAE@V?$basic_string@DU?$char_traits@D@std@@V?$allocator@D@2@@std@@0000@Z 10003810 f i DataMerge.obj
 0001:000029a0       ??1StepResource@@UAE@XZ    100039a0 f i DataMerge.obj
 0001:000029b0       ??0?$vector@V?$basic_string@DU?$char_traits@D@std@@V?$allocator@D@2@@std@@V?$allocator@V?$basic_string@DU?$char_traits@D@std@@V?$allocator@D@2@@std@@@2@@std@@QAE@XZ 100039b0 f i DataMerge.obj
 0001:000029c0       ??0?$FactoryResource@VDataRequest@@@@QAE@XZ 100039c0 f i DataMerge.obj
 0001:00002a30       ?begin@?$vector@PAVDataElement@@V?$allocator@PAVDataElement@@@std@@@std@@QAE?AV?$_Vector_iterator@PAVDataElement@@V?$allocator@PAVDataElement@@@std@@@2@XZ 10003a30 f i DataMerge.obj
 0001:00002a60       ?end@?$vector@PAVDataElement@@V?$allocator@PAVDataElement@@@std@@@std@@QAE?AV?$_Vector_iterator@PAVDataElement@@V?$allocator@PAVDataElement@@@std@@@2@XZ 10003a60 f i DataMerge.obj
 0001:00002a90       ??_G?$FactoryResource@VDataRequest@@@@UAEPAXI@Z 10003a90 f i DataMerge.obj
 0001:00002a90       ??_E?$FactoryResource@VDataRequest@@@@UAEPAXI@Z 10003a90 f i DataMerge.obj
 0001:00002ab0       ?_Tidy@?$vector@PAVDataElement@@V?$allocator@PAVDataElement@@@std@@@std@@IAEXXZ 10003ab0 f i DataMerge.obj
 0001:00002ae0       ??$mergeElement@E@?A0xe9836fa4@@YA_NPAEHHVDataAccessor@@1H@Z 10003ae0 f i DataMerge.obj
 0001:00002ca0       ??$mergeElement@C@?A0xe9836fa4@@YA_NPACHHVDataAccessor@@1H@Z 10003ca0 f i DataMerge.obj
 0001:00002e60       ??$_Unchecked_move_backward@PAV?$basic_string@DU?$char_traits@D@std@@V?$allocator@D@2@@std@@PAV12@@stdext@@YAPAV?$basic_string@DU?$char_traits@D@std@@V?$allocator@D@2@@std@@PAV12@00@Z 10003e60 f i DataMerge.obj
 0001:00002e90       ??$_Destroy_range@V?$basic_string@DU?$char_traits@D@std@@V?$allocator@D@2@@std@@V?$allocator@V?$basic_string@DU?$char_traits@D@std@@V?$allocator@D@2@@std@@@2@@std@@YAXPAV?$basic_string@DU?$char_traits@D@std@@V?$allocator@D@2@@0@0AAV?$allocator@V?$basic_string@DU?$char_traits@D@std@@V?$allocator@D@2@@std@@@0@U_Nonscalar_ptr_iterator_tag@0@@Z 10003e90 f i DataMerge.obj
 0001:00002ec0       ??$_Uninit_fill_n@PAV?$basic_string@DU?$char_traits@D@std@@V?$allocator@D@2@@std@@IV12@V?$allocator@V?$basic_string@DU?$char_traits@D@std@@V?$allocator@D@2@@std@@@2@@std@@YAXPAV?$basic_string@DU?$char_traits@D@std@@V?$allocator@D@2@@0@IABV10@AAV?$allocator@V?$basic_string@DU?$char_traits@D@std@@V?$allocator@D@2@@std@@@0@U_Nonscalar_ptr_iterator_tag@0@U_Range_checked_iterator_tag@0@@Z 10003ec0 f i DataMerge.obj
 0001:00002f50       ??$_Unchecked_uninitialized_move@PAV?$basic_string@DU?$char_traits@D@std@@V?$allocator@D@2@@std@@PAV12@V?$allocator@V?$basic_string@DU?$char_traits@D@std@@V?$allocator@D@2@@std@@@2@@stdext@@YAPAV?$basic_string@DU?$char_traits@D@std@@V?$allocator@D@2@@std@@PAV12@00AAV?$allocator@V?$basic_string@DU?$char_traits@D@std@@V?$allocator@D@2@@std@@@2@@Z 10003f50 f i DataMerge.obj
 0001:00002f80       ??_GStepResource@@UAEPAXI@Z 10003f80 f i DataMerge.obj
 0001:00002f80       ??_EStepResource@@UAEPAXI@Z 10003f80 f i DataMerge.obj
 0001:00002fa0       ??1?$vector@PAVDataElement@@V?$allocator@PAVDataElement@@@std@@@std@@QAE@XZ 10003fa0 f i DataMerge.obj
 0001:00002fd0       ??$_Destroy_range@V?$basic_string@DU?$char_traits@D@std@@V?$allocator@D@2@@std@@V?$allocator@V?$basic_string@DU?$char_traits@D@std@@V?$allocator@D@2@@std@@@2@@std@@YAXPAV?$basic_string@DU?$char_traits@D@std@@V?$allocator@D@2@@0@0AAV?$allocator@V?$basic_string@DU?$char_traits@D@std@@V?$allocator@D@2@@std@@@0@@Z 10003fd0 f i DataMerge.obj
 0001:00003000       ??$unchecked_uninitialized_fill_n@PAV?$basic_string@DU?$char_traits@D@std@@V?$allocator@D@2@@std@@IV12@V?$allocator@V?$basic_string@DU?$char_traits@D@std@@V?$allocator@D@2@@std@@@2@@stdext@@YAXPAV?$basic_string@DU?$char_traits@D@std@@V?$allocator@D@2@@std@@IABV12@AAV?$allocator@V?$basic_string@DU?$char_traits@D@std@@V?$allocator@D@2@@std@@@2@@Z 10004000 f i DataMerge.obj
 0001:00003030       ??$_Umove@PAV?$basic_string@DU?$char_traits@D@std@@V?$allocator@D@2@@std@@@?$vector@V?$basic_string@DU?$char_traits@D@std@@V?$allocator@D@2@@std@@V?$allocator@V?$basic_string@DU?$char_traits@D@std@@V?$allocator@D@2@@std@@@2@@std@@IAEPAV?$basic_string@DU?$char_traits@D@std@@V?$allocator@D@2@@1@PAV21@00@Z 10004030 f i DataMerge.obj
 0001:00003060       ?showGui@DataMerge@@AAE_NXZ 10004060 f   DataMerge.obj
 0001:00004040       ?execute@DataMerge@@UAE_NPAVPlugInArgList@@0@Z 10005040 f   DataMerge.obj
 0001:00004050       ?deserialize@DataMerge@@UAE_NAAVSessionItemDeserializer@@@Z 10005050 f   DataMerge.obj
 0001:00004060       ?_Destroy@?$vector@V?$basic_string@DU?$char_traits@D@std@@V?$allocator@D@2@@std@@V?$allocator@V?$basic_string@DU?$char_traits@D@std@@V?$allocator@D@2@@std@@@2@@std@@IAEXPAV?$basic_string@DU?$char_traits@D@std@@V?$allocator@D@2@@2@0@Z 10005060 f i DataMerge.obj
 0001:00004090       ?_Tidy@?$vector@V?$basic_string@DU?$char_traits@D@std@@V?$allocator@D@2@@std@@V?$allocator@V?$basic_string@DU?$char_traits@D@std@@V?$allocator@D@2@@std@@@2@@std@@IAEXXZ 10005090 f i DataMerge.obj
 0001:000040e0       ?_Ufill@?$vector@V?$basic_string@DU?$char_traits@D@std@@V?$allocator@D@2@@std@@V?$allocator@V?$basic_string@DU?$char_traits@D@std@@V?$allocator@D@2@@std@@@2@@std@@IAEPAV?$basic_string@DU?$char_traits@D@std@@V?$allocator@D@2@@2@PAV32@IABV32@@Z 100050e0 f i DataMerge.obj
 0001:00004120       ?_Insert_n@?$vector@V?$basic_string@DU?$char_traits@D@std@@V?$allocator@D@2@@std@@V?$allocator@V?$basic_string@DU?$char_traits@D@std@@V?$allocator@D@2@@std@@@2@@std@@IAEXV?$_Vector_iterator@V?$basic_string@DU?$char_traits@D@std@@V?$allocator@D@2@@std@@V?$allocator@V?$basic_string@DU?$char_traits@D@std@@V?$allocator@D@2@@std@@@2@@2@IABV?$basic_string@DU?$char_traits@D@std@@V?$allocator@D@2@@2@@Z 10005120 f i DataMerge.obj
 0001:00004440       ??1?$vector@V?$basic_string@DU?$char_traits@D@std@@V?$allocator@D@2@@std@@V?$allocator@V?$basic_string@DU?$char_traits@D@std@@V?$allocator@D@2@@std@@@2@@std@@QAE@XZ 10005440 f i DataMerge.obj
 0001:00004450       ?insert@?$vector@V?$basic_string@DU?$char_traits@D@std@@V?$allocator@D@2@@std@@V?$allocator@V?$basic_string@DU?$char_traits@D@std@@V?$allocator@D@2@@std@@@2@@std@@QAE?AV?$_Vector_iterator@V?$basic_string@DU?$char_traits@D@std@@V?$allocator@D@2@@std@@V?$allocator@V?$basic_string@DU?$char_traits@D@std@@V?$allocator@D@2@@std@@@2@@2@V32@ABV?$basic_string@DU?$char_traits@D@std@@V?$allocator@D@2@@2@@Z 10005450 f i DataMerge.obj
 0001:00004510       ??1BasicPlugInFactory@@QAE@XZ 10005510 f i DataMerge.obj
 0001:00004520       ??1DataMergePlugInFactory@SpectralDataMerge@@QAE@XZ 10005520 f i DataMerge.obj
 0001:00004530       ?push_back@?$vector@V?$basic_string@DU?$char_traits@D@std@@V?$allocator@D@2@@std@@V?$allocator@V?$basic_string@DU?$char_traits@D@std@@V?$allocator@D@2@@std@@@2@@std@@QAEXABV?$basic_string@DU?$char_traits@D@std@@V?$allocator@D@2@@2@@Z 10005530 f i DataMerge.obj
 0001:000045e0       ?addPlugInName@BasicPlugInFactory@@AAEXV?$basic_string@DU?$char_traits@D@std@@V?$allocator@D@2@@std@@@Z 100055e0 f i DataMerge.obj
 0001:00004630       ??0BasicPlugInFactory@@QAE@ABV?$basic_string@DU?$char_traits@D@std@@V?$allocator@D@2@@std@@@Z 10005630 f i DataMerge.obj
 0001:000046b0       ??$_Ptr_cat@V?$_Vector_const_iterator@V?$basic_string@DU?$char_traits@D@std@@V?$allocator@D@2@@std@@V?$allocator@V?$basic_string@DU?$char_traits@D@std@@V?$allocator@D@2@@std@@@2@@std@@PAV?$basic_string@DU?$char_traits@D@std@@V?$allocator@D@2@@2@@std@@YA?AU_Nonscalar_ptr_iterator_tag@0@AAV?$_Vector_const_iterator@V?$basic_string@DU?$char_traits@D@std@@V?$allocator@D@2@@std@@V?$allocator@V?$basic_string@DU?$char_traits@D@std@@V?$allocator@D@2@@std@@@2@@0@AAPAV?$basic_string@DU?$char_traits@D@std@@V?$allocator@D@2@@0@@Z 100056b0 f i DataMerge.obj
 0001:000046c0       ?_Checked_iterator_base@?$_Vector_const_iterator@V?$basic_string@DU?$char_traits@D@std@@V?$allocator@D@2@@std@@V?$allocator@V?$basic_string@DU?$char_traits@D@std@@V?$allocator@D@2@@std@@@2@@std@@QBEPBV?$basic_string@DU?$char_traits@D@std@@V?$allocator@D@2@@2@XZ 100056c0 f i DataMerge.obj
 0001:000046d0       ??$_Checked_base@V?$_Vector_const_iterator@V?$basic_string@DU?$char_traits@D@std@@V?$allocator@D@2@@std@@V?$allocator@V?$basic_string@DU?$char_traits@D@std@@V?$allocator@D@2@@std@@@2@@std@@U_Different_checked_iterator_base_type_tag@2@@std@@YAPBV?$basic_string@DU?$char_traits@D@std@@V?$allocator@D@2@@0@AAV?$_Vector_const_iterator@V?$basic_string@DU?$char_traits@D@std@@V?$allocator@D@2@@std@@V?$allocator@V?$basic_string@DU?$char_traits@D@std@@V?$allocator@D@2@@std@@@2@@0@U_Different_checked_iterator_base_type_tag@0@@Z 100056d0 f i DataMerge.obj
 0001:000046e0       ?begin@?$vector@V?$basic_string@DU?$char_traits@D@std@@V?$allocator@D@2@@std@@V?$allocator@V?$basic_string@DU?$char_traits@D@std@@V?$allocator@D@2@@std@@@2@@std@@QBE?AV?$_Vector_const_iterator@V?$basic_string@DU?$char_traits@D@std@@V?$allocator@D@2@@std@@V?$allocator@V?$basic_string@DU?$char_traits@D@std@@V?$allocator@D@2@@std@@@2@@2@XZ 100056e0 f i DataMerge.obj
 0001:00004710       ?end@?$vector@V?$basic_string@DU?$char_traits@D@std@@V?$allocator@D@2@@std@@V?$allocator@V?$basic_string@DU?$char_traits@D@std@@V?$allocator@D@2@@std@@@2@@std@@QBE?AV?$_Vector_const_iterator@V?$basic_string@DU?$char_traits@D@std@@V?$allocator@D@2@@std@@V?$allocator@V?$basic_string@DU?$char_traits@D@std@@V?$allocator@D@2@@std@@@2@@2@XZ 10005710 f i DataMerge.obj
 0001:00004740       ??$_Checked_base@V?$_Vector_const_iterator@V?$basic_string@DU?$char_traits@D@std@@V?$allocator@D@2@@std@@V?$allocator@V?$basic_string@DU?$char_traits@D@std@@V?$allocator@D@2@@std@@@2@@std@@@std@@YAPBV?$basic_string@DU?$char_traits@D@std@@V?$allocator@D@2@@0@AAV?$_Vector_const_iterator@V?$basic_string@DU?$char_traits@D@std@@V?$allocator@D@2@@std@@V?$allocator@V?$basic_string@DU?$char_traits@D@std@@V?$allocator@D@2@@std@@@2@@0@@Z 10005740 f i DataMerge.obj
 0001:00004750       ??$_Uninit_copy@PBV?$basic_string@DU?$char_traits@D@std@@V?$allocator@D@2@@std@@PAV12@V?$allocator@V?$basic_string@DU?$char_traits@D@std@@V?$allocator@D@2@@std@@@2@@std@@YAPAV?$basic_string@DU?$char_traits@D@std@@V?$allocator@D@2@@0@PBV10@0PAV10@AAV?$allocator@V?$basic_string@DU?$char_traits@D@std@@V?$allocator@D@2@@std@@@0@U_Nonscalar_ptr_iterator_tag@0@U_Range_checked_iterator_tag@0@@Z 10005750 f i DataMerge.obj
 0001:000047e0       ??$unchecked_uninitialized_copy@V?$_Vector_const_iterator@V?$basic_string@DU?$char_traits@D@std@@V?$allocator@D@2@@std@@V?$allocator@V?$basic_string@DU?$char_traits@D@std@@V?$allocator@D@2@@std@@@2@@std@@PAV?$basic_string@DU?$char_traits@D@std@@V?$allocator@D@2@@2@V?$allocator@V?$basic_string@DU?$char_traits@D@std@@V?$allocator@D@2@@std@@@2@@stdext@@YAPAV?$basic_string@DU?$char_traits@D@std@@V?$allocator@D@2@@std@@V?$_Vector_const_iterator@V?$basic_string@DU?$char_traits@D@std@@V?$allocator@D@2@@std@@V?$allocator@V?$basic_string@DU?$char_traits@D@std@@V?$allocator@D@2@@std@@@2@@2@0PAV12@AAV?$allocator@V?$basic_string@DU?$char_traits@D@std@@V?$allocator@D@2@@std@@@2@@Z 100057e0 f i DataMerge.obj
 0001:00004810       ??$_Ucopy@V?$_Vector_const_iterator@V?$basic_string@DU?$char_traits@D@std@@V?$allocator@D@2@@std@@V?$allocator@V?$basic_string@DU?$char_traits@D@std@@V?$allocator@D@2@@std@@@2@@std@@@?$vector@V?$basic_string@DU?$char_traits@D@std@@V?$allocator@D@2@@std@@V?$allocator@V?$basic_string@DU?$char_traits@D@std@@V?$allocator@D@2@@std@@@2@@std@@IAEPAV?$basic_string@DU?$char_traits@D@std@@V?$allocator@D@2@@1@V?$_Vector_const_iterator@V?$basic_string@DU?$char_traits@D@std@@V?$allocator@D@2@@std@@V?$allocator@V?$basic_string@DU?$char_traits@D@std@@V?$allocator@D@2@@std@@@2@@1@0PAV21@@Z 10005810 f i DataMerge.obj
 0001:00004840       ??0?$vector@V?$basic_string@DU?$char_traits@D@std@@V?$allocator@D@2@@std@@V?$allocator@V?$basic_string@DU?$char_traits@D@std@@V?$allocator@D@2@@std@@@2@@std@@QAE@ABV01@@Z 10005840 f i DataMerge.obj
 0001:00004910       ?getPlugInNames@BasicPlugInFactory@@UAE?AV?$vector@V?$basic_string@DU?$char_traits@D@std@@V?$allocator@D@2@@std@@V?$allocator@V?$basic_string@DU?$char_traits@D@std@@V?$allocator@D@2@@std@@@2@@std@@XZ 10005910 f i DataMerge.obj
 0001:00004930       ??0DataMergePlugInFactory@SpectralDataMerge@@QAE@ABV?$basic_string@DU?$char_traits@D@std@@V?$allocator@D@2@@std@@@Z 10005930 f i DataMerge.obj
 0001:00004990       ?createPlugIn@DataMergePlugInFactory@SpectralDataMerge@@UAEPAVPlugIn@@ABV?$basic_string@DU?$char_traits@D@std@@V?$allocator@D@2@@std@@@Z 10005990 f i DataMerge.obj
 0001:00004a00       ??1?$pair@V?$basic_string@DU?$char_traits@D@std@@V?$allocator@D@2@@std@@PAVPlugInFactory@@@std@@QAE@XZ 10005a00 f i ModuleManager.obj
 0001:00004a10       ?setService@ModuleManager@@QAEXPAVExternal@@@Z 10005a10 f i ModuleManager.obj
 0001:00004a20       _opticks_get_module_descriptor 10005a20 f   ModuleManager.obj
 0001:00004a30       ?getTotalPlugIns@ModuleManager@@SAIXZ 10005a30 f   ModuleManager.obj
 0001:00004a40       ?getPlugIn@ModuleManager@@QAEPAVPlugIn@@I@Z 10005a40 f   ModuleManager.obj
 0001:00004a50       ?size@?$vector@U?$pair@V?$basic_string@DU?$char_traits@D@std@@V?$allocator@D@2@@std@@PAVPlugInFactory@@@std@@V?$allocator@U?$pair@V?$basic_string@DU?$char_traits@D@std@@V?$allocator@D@2@@std@@PAVPlugInFactory@@@std@@@2@@std@@QBEIXZ 10005a50 f i ModuleManager.obj
 0001:00004a70       ??A?$vector@U?$pair@V?$basic_string@DU?$char_traits@D@std@@V?$allocator@D@2@@std@@PAVPlugInFactory@@@std@@V?$allocator@U?$pair@V?$basic_string@DU?$char_traits@D@std@@V?$allocator@D@2@@std@@PAVPlugInFactory@@@std@@@2@@std@@QAEAAU?$pair@V?$basic_string@DU?$char_traits@D@std@@V?$allocator@D@2@@std@@PAVPlugInFactory@@@1@I@Z 10005a70 f i ModuleManager.obj
 0001:00004aa0       ?capacity@?$vector@U?$pair@V?$basic_string@DU?$char_traits@D@std@@V?$allocator@D@2@@std@@PAVPlugInFactory@@@std@@V?$allocator@U?$pair@V?$basic_string@DU?$char_traits@D@std@@V?$allocator@D@2@@std@@PAVPlugInFactory@@@std@@@2@@std@@QBEIXZ 10005aa0 f i ModuleManager.obj
 0001:00004ac0       ??0?$allocator@U?$pair@V?$basic_string@DU?$char_traits@D@std@@V?$allocator@D@2@@std@@PAVPlugInFactory@@@std@@@std@@QAE@XZ 10005ac0 f i ModuleManager.obj
 0001:00004ad0       ??D?$_Vector_const_iterator@V?$basic_string@DU?$char_traits@D@std@@V?$allocator@D@2@@std@@V?$allocator@V?$basic_string@DU?$char_traits@D@std@@V?$allocator@D@2@@std@@@2@@std@@QBEABV?$basic_string@DU?$char_traits@D@std@@V?$allocator@D@2@@1@XZ 10005ad0 f i ModuleManager.obj
 0001:00004b00       ??E?$_Vector_const_iterator@V?$basic_string@DU?$char_traits@D@std@@V?$allocator@D@2@@std@@V?$allocator@V?$basic_string@DU?$char_traits@D@std@@V?$allocator@D@2@@std@@@2@@std@@QAEAAV01@XZ 10005b00 f i ModuleManager.obj
 0001:00004b30       ??8?$_Vector_const_iterator@V?$basic_string@DU?$char_traits@D@std@@V?$allocator@D@2@@std@@V?$allocator@V?$basic_string@DU?$char_traits@D@std@@V?$allocator@D@2@@std@@@2@@std@@QBE_NABV01@@Z 10005b30 f i ModuleManager.obj
 0001:00004b60       ?_Xlen@?$vector@U?$pair@V?$basic_string@DU?$char_traits@D@std@@V?$allocator@D@2@@std@@PAVPlugInFactory@@@std@@V?$allocator@U?$pair@V?$basic_string@DU?$char_traits@D@std@@V?$allocator@D@2@@std@@PAVPlugInFactory@@@std@@@2@@std@@KAXXZ 10005b60 f i ModuleManager.obj
 0001:00004be0       ??0?$allocator@U?$pair@V?$basic_string@DU?$char_traits@D@std@@V?$allocator@D@2@@std@@PAVPlugInFactory@@@std@@@std@@QAE@ABV01@@Z 10005be0 f i ModuleManager.obj
 0001:00004bf0       ?deallocate@?$allocator@U?$pair@V?$basic_string@DU?$char_traits@D@std@@V?$allocator@D@2@@std@@PAVPlugInFactory@@@std@@@std@@QAEXPAU?$pair@V?$basic_string@DU?$char_traits@D@std@@V?$allocator@D@2@@std@@PAVPlugInFactory@@@2@I@Z 10005bf0 f i ModuleManager.obj
 0001:00004c00       ??0?$pair@V?$basic_string@DU?$char_traits@D@std@@V?$allocator@D@2@@std@@PAVPlugInFactory@@@std@@QAE@ABU01@@Z 10005c00 f i ModuleManager.obj
 0001:00004c20       ??0?$_Ranit@U?$pair@V?$basic_string@DU?$char_traits@D@std@@V?$allocator@D@2@@std@@PAVPlugInFactory@@@std@@HPBU12@ABU12@@std@@QAE@XZ 10005c20 f i ModuleManager.obj
 0001:00004c30       ?max_size@?$allocator@U?$pair@V?$basic_string@DU?$char_traits@D@std@@V?$allocator@D@2@@std@@PAVPlugInFactory@@@std@@@std@@QBEIXZ 10005c30 f i ModuleManager.obj
 0001:00004c40       ??G?$_Vector_const_iterator@U?$pair@V?$basic_string@DU?$char_traits@D@std@@V?$allocator@D@2@@std@@PAVPlugInFactory@@@std@@V?$allocator@U?$pair@V?$basic_string@DU?$char_traits@D@std@@V?$allocator@D@2@@std@@PAVPlugInFactory@@@std@@@2@@std@@QBEHABV01@@Z 10005c40 f i ModuleManager.obj
 0001:00004c70       ??Y?$_Vector_const_iterator@U?$pair@V?$basic_string@DU?$char_traits@D@std@@V?$allocator@D@2@@std@@PAVPlugInFactory@@@std@@V?$allocator@U?$pair@V?$basic_string@DU?$char_traits@D@std@@V?$allocator@D@2@@std@@PAVPlugInFactory@@@std@@@2@@std@@QAEAAV01@H@Z 10005c70 f i ModuleManager.obj
 0001:00004cb0       ??$_Allocate@U?$pair@V?$basic_string@DU?$char_traits@D@std@@V?$allocator@D@2@@std@@PAVPlugInFactory@@@std@@@std@@YAPAU?$pair@V?$basic_string@DU?$char_traits@D@std@@V?$allocator@D@2@@std@@PAVPlugInFactory@@@0@IPAU10@@Z 10005cb0 f i ModuleManager.obj
 0001:00004d10       ??0?$pair@V?$basic_string@DU?$char_traits@D@std@@V?$allocator@D@2@@std@@PAVPlugInFactory@@@std@@QAE@ABV?$basic_string@DU?$char_traits@D@std@@V?$allocator@D@2@@1@ABQAVPlugInFactory@@@Z 10005d10 f i ModuleManager.obj
 0001:00004d30       ??$_Count@PADD@std@@YAHPAD0ABD@Z 10005d30 f i ModuleManager.obj
 0001:00004d60       ??$_Ptr_cat@PAU?$pair@V?$basic_string@DU?$char_traits@D@std@@V?$allocator@D@2@@std@@PAVPlugInFactory@@@std@@PAU12@@std@@YA?AU_Nonscalar_ptr_iterator_tag@0@AAPAU?$pair@V?$basic_string@DU?$char_traits@D@std@@V?$allocator@D@2@@std@@PAVPlugInFactory@@@0@0@Z 10005d60 f i ModuleManager.obj
 0001:00004d70       ??$_Iter_random@PAU?$pair@V?$basic_string@DU?$char_traits@D@std@@V?$allocator@D@2@@std@@PAVPlugInFactory@@@std@@PAU12@@std@@YA?AUrandom_access_iterator_tag@0@ABQAU?$pair@V?$basic_string@DU?$char_traits@D@std@@V?$allocator@D@2@@std@@PAVPlugInFactory@@@0@0@Z 10005d70 f i ModuleManager.obj
 0001:00004d80       ??$_Move_cat@PAU?$pair@V?$basic_string@DU?$char_traits@D@std@@V?$allocator@D@2@@std@@PAVPlugInFactory@@@std@@@std@@YA?AU_Undefined_move_tag@0@ABQAU?$pair@V?$basic_string@DU?$char_traits@D@std@@V?$allocator@D@2@@std@@PAVPlugInFactory@@@0@@Z 10005d80 f i ModuleManager.obj
 0001:00004d90       ??4?$pair@V?$basic_string@DU?$char_traits@D@std@@V?$allocator@D@2@@std@@PAVPlugInFactory@@@std@@QAEAAU01@ABU01@@Z 10005d90 f i ModuleManager.obj
 0001:00004db0       ??$_Checked_base@PAU?$pair@V?$basic_string@DU?$char_traits@D@std@@V?$allocator@D@2@@std@@PAVPlugInFactory@@@std@@@std@@YAPAU?$pair@V?$basic_string@DU?$char_traits@D@std@@V?$allocator@D@2@@std@@PAVPlugInFactory@@@0@AAPAU10@U_Unchanged_checked_iterator_base_type_tag@0@@Z 10005db0 f i ModuleManager.obj
 0001:00004dc0       ??$_Construct@U?$pair@V?$basic_string@DU?$char_traits@D@std@@V?$allocator@D@2@@std@@PAVPlugInFactory@@@std@@U12@@std@@YAXPAU?$pair@V?$basic_string@DU?$char_traits@D@std@@V?$allocator@D@2@@std@@PAVPlugInFactory@@@0@ABU10@@Z 10005dc0 f i ModuleManager.obj
 0001:00004e20       ??_G?$pair@V?$basic_string@DU?$char_traits@D@std@@V?$allocator@D@2@@std@@PAVPlugInFactory@@@std@@QAEPAXI@Z 10005e20 f i ModuleManager.obj
 0001:00004e40       ?_Checked_iterator_base@?$_String_iterator@DU?$char_traits@D@std@@V?$allocator@D@2@@std@@QBEPADXZ 10005e40 f i ModuleManager.obj
 0001:00004e50       ?_Checked_iterator_base@?$_Vector_iterator@U?$pair@V?$basic_string@DU?$char_traits@D@std@@V?$allocator@D@2@@std@@PAVPlugInFactory@@@std@@V?$allocator@U?$pair@V?$basic_string@DU?$char_traits@D@std@@V?$allocator@D@2@@std@@PAVPlugInFactory@@@std@@@2@@std@@QBEPAU?$pair@V?$basic_string@DU?$char_traits@D@std@@V?$allocator@D@2@@std@@PAVPlugInFactory@@@2@XZ 10005e50 f i ModuleManager.obj
 0001:00004e60       ??0?$pair@PAU?$pair@V?$basic_string@DU?$char_traits@D@std@@V?$allocator@D@2@@std@@PAVPlugInFactory@@@std@@PAU12@@std@@QAE@ABQAU?$pair@V?$basic_string@DU?$char_traits@D@std@@V?$allocator@D@2@@std@@PAVPlugInFactory@@@1@0@Z 10005e60 f i ModuleManager.obj
 0001:00004e80       ??$_Dist_type@PAU?$pair@V?$basic_string@DU?$char_traits@D@std@@V?$allocator@D@2@@std@@PAVPlugInFactory@@@std@@@std@@YAPAHPAU?$pair@V?$basic_string@DU?$char_traits@D@std@@V?$allocator@D@2@@std@@PAVPlugInFactory@@@0@@Z 10005e80 f i ModuleManager.obj
 0001:00004e90       ??$_Val_type@PAU?$pair@V?$basic_string@DU?$char_traits@D@std@@V?$allocator@D@2@@std@@PAVPlugInFactory@@@std@@@std@@YAPAU?$pair@V?$basic_string@DU?$char_traits@D@std@@V?$allocator@D@2@@std@@PAVPlugInFactory@@@0@PAU10@@Z 10005e90 f i ModuleManager.obj
 0001:00004ea0       ??$_Copy_backward_opt@PAU?$pair@V?$basic_string@DU?$char_traits@D@std@@V?$allocator@D@2@@std@@PAVPlugInFactory@@@std@@PAU12@Uforward_iterator_tag@2@@std@@YAPAU?$pair@V?$basic_string@DU?$char_traits@D@std@@V?$allocator@D@2@@std@@PAVPlugInFactory@@@0@PAU10@00Uforward_iterator_tag@0@U_Nonscalar_ptr_iterator_tag@0@U_Range_checked_iterator_tag@0@@Z 10005ea0 f i ModuleManager.obj
 0001:00004ee0       ??$_Iter_cat@PAU?$pair@V?$basic_string@DU?$char_traits@D@std@@V?$allocator@D@2@@std@@PAVPlugInFactory@@@std@@@std@@YA?AUrandom_access_iterator_tag@0@ABQAU?$pair@V?$basic_string@DU?$char_traits@D@std@@V?$allocator@D@2@@std@@PAVPlugInFactory@@@0@@Z 10005ee0 f i ModuleManager.obj
 0001:00004ef0       ??$_Rotate@PAU?$pair@V?$basic_string@DU?$char_traits@D@std@@V?$allocator@D@2@@std@@PAVPlugInFactory@@@std@@HU12@@std@@YAXPAU?$pair@V?$basic_string@DU?$char_traits@D@std@@V?$allocator@D@2@@std@@PAVPlugInFactory@@@0@00PAH0@Z 10005ef0 f i ModuleManager.obj
 0001:00005030       ??$swap@PAVPlugInFactory@@@std@@YAXAAPAVPlugInFactory@@0@Z 10006030 f i ModuleManager.obj
 0001:00005050       ??D?$_Vector_iterator@V?$basic_string@DU?$char_traits@D@std@@V?$allocator@D@2@@std@@V?$allocator@V?$basic_string@DU?$char_traits@D@std@@V?$allocator@D@2@@std@@@2@@std@@QBEAAV?$basic_string@DU?$char_traits@D@std@@V?$allocator@D@2@@1@XZ 10006050 f i ModuleManager.obj
 0001:00005080       ??E?$_Vector_iterator@V?$basic_string@DU?$char_traits@D@std@@V?$allocator@D@2@@std@@V?$allocator@V?$basic_string@DU?$char_traits@D@std@@V?$allocator@D@2@@std@@@2@@std@@QAEAAV01@XZ 10006080 f i ModuleManager.obj
 0001:000050b0       ??9?$_Vector_const_iterator@V?$basic_string@DU?$char_traits@D@std@@V?$allocator@D@2@@std@@V?$allocator@V?$basic_string@DU?$char_traits@D@std@@V?$allocator@D@2@@std@@@2@@std@@QBE_NABV01@@Z 100060b0 f i ModuleManager.obj
 0001:000050e0       ??0?$_Vector_val@U?$pair@V?$basic_string@DU?$char_traits@D@std@@V?$allocator@D@2@@std@@PAVPlugInFactory@@@std@@V?$allocator@U?$pair@V?$basic_string@DU?$char_traits@D@std@@V?$allocator@D@2@@std@@PAVPlugInFactory@@@std@@@2@@std@@IAE@V?$allocator@U?$pair@V?$basic_string@DU?$char_traits@D@std@@V?$allocator@D@2@@std@@PAVPlugInFactory@@@std@@@1@@Z 100060e0 f i ModuleManager.obj
 0001:000050f0       ?max_size@?$vector@U?$pair@V?$basic_string@DU?$char_traits@D@std@@V?$allocator@D@2@@std@@PAVPlugInFactory@@@std@@V?$allocator@U?$pair@V?$basic_string@DU?$char_traits@D@std@@V?$allocator@D@2@@std@@PAVPlugInFactory@@@std@@@2@@std@@QBEIXZ 100060f0 f i ModuleManager.obj
 0001:00005100       ?allocate@?$allocator@U?$pair@V?$basic_string@DU?$char_traits@D@std@@V?$allocator@D@2@@std@@PAVPlugInFactory@@@std@@@std@@QAEPAU?$pair@V?$basic_string@DU?$char_traits@D@std@@V?$allocator@D@2@@std@@PAVPlugInFactory@@@2@I@Z 10006100 f i ModuleManager.obj
 0001:00005120       ??G?$_Vector_iterator@U?$pair@V?$basic_string@DU?$char_traits@D@std@@V?$allocator@D@2@@std@@PAVPlugInFactory@@@std@@V?$allocator@U?$pair@V?$basic_string@DU?$char_traits@D@std@@V?$allocator@D@2@@std@@PAVPlugInFactory@@@std@@@2@@std@@QBEHABV?$_Vector_const_iterator@U?$pair@V?$basic_string@DU?$char_traits@D@std@@V?$allocator@D@2@@std@@PAVPlugInFactory@@@std@@V?$allocator@U?$pair@V?$basic_string@DU?$char_traits@D@std@@V?$allocator@D@2@@std@@PAVPlugInFactory@@@std@@@2@@1@@Z 10006120 f i ModuleManager.obj
 0001:00005150       ??0?$_Vector_const_iterator@U?$pair@V?$basic_string@DU?$char_traits@D@std@@V?$allocator@D@2@@std@@PAVPlugInFactory@@@std@@V?$allocator@U?$pair@V?$basic_string@DU?$char_traits@D@std@@V?$allocator@D@2@@std@@PAVPlugInFactory@@@std@@@2@@std@@QAE@PAU?$pair@V?$basic_string@DU?$char_traits@D@std@@V?$allocator@D@2@@std@@PAVPlugInFactory@@@1@PBU_Container_base@1@@Z 10006150 f i ModuleManager.obj
 0001:00005190       ??Y?$_Vector_iterator@U?$pair@V?$basic_string@DU?$char_traits@D@std@@V?$allocator@D@2@@std@@PAVPlugInFactory@@@std@@V?$allocator@U?$pair@V?$basic_string@DU?$char_traits@D@std@@V?$allocator@D@2@@std@@PAVPlugInFactory@@@std@@@2@@std@@QAEAAV01@H@Z 10006190 f i ModuleManager.obj
 0001:000051d0       ??$make_pair@V?$basic_string@DU?$char_traits@D@std@@V?$allocator@D@2@@std@@PAVPlugInFactory@@@std@@YA?AU?$pair@V?$basic_string@DU?$char_traits@D@std@@V?$allocator@D@2@@std@@PAVPlugInFactory@@@0@V?$basic_string@DU?$char_traits@D@std@@V?$allocator@D@2@@0@PAVPlugInFactory@@@Z 100061d0 f i ModuleManager.obj
 0001:00005240       ??$_Checked_base@PAU?$pair@V?$basic_string@DU?$char_traits@D@std@@V?$allocator@D@2@@std@@PAVPlugInFactory@@@std@@@std@@YAPAU?$pair@V?$basic_string@DU?$char_traits@D@std@@V?$allocator@D@2@@std@@PAVPlugInFactory@@@0@AAPAU10@@Z 10006240 f i ModuleManager.obj
 0001:00005250       ??$_Fill@PAU?$pair@V?$basic_string@DU?$char_traits@D@std@@V?$allocator@D@2@@std@@PAVPlugInFactory@@@std@@U12@@std@@YAXPAU?$pair@V?$basic_string@DU?$char_traits@D@std@@V?$allocator@D@2@@std@@PAVPlugInFactory@@@0@0ABU10@@Z 10006250 f i ModuleManager.obj
 0001:00005280       ?construct@?$allocator@U?$pair@V?$basic_string@DU?$char_traits@D@std@@V?$allocator@D@2@@std@@PAVPlugInFactory@@@std@@@std@@QAEXPAU?$pair@V?$basic_string@DU?$char_traits@D@std@@V?$allocator@D@2@@std@@PAVPlugInFactory@@@2@ABU32@@Z 10006280 f i ModuleManager.obj
 0001:000052a0       ??$_Checked_base@V?$_String_iterator@DU?$char_traits@D@std@@V?$allocator@D@2@@std@@U_Different_checked_iterator_base_type_tag@2@@std@@YAPADAAV?$_String_iterator@DU?$char_traits@D@std@@V?$allocator@D@2@@0@U_Different_checked_iterator_base_type_tag@0@@Z 100062a0 f i ModuleManager.obj
 0001:000052b0       ??$_Checked_base@V?$_Vector_iterator@U?$pair@V?$basic_string@DU?$char_traits@D@std@@V?$allocator@D@2@@std@@PAVPlugInFactory@@@std@@V?$allocator@U?$pair@V?$basic_string@DU?$char_traits@D@std@@V?$allocator@D@2@@std@@PAVPlugInFactory@@@std@@@2@@std@@U_Different_checked_iterator_base_type_tag@2@@std@@YAPAU?$pair@V?$basic_string@DU?$char_traits@D@std@@V?$allocator@D@2@@std@@PAVPlugInFactory@@@0@AAV?$_Vector_iterator@U?$pair@V?$basic_string@DU?$char_traits@D@std@@V?$allocator@D@2@@std@@PAVPlugInFactory@@@std@@V?$allocator@U?$pair@V?$basic_string@DU?$char_traits@D@std@@V?$allocator@D@2@@std@@PAVPlugInFactory@@@std@@@2@@0@U_Different_checked_iterator_base_type_tag@0@@Z 100062b0 f i ModuleManager.obj
 0001:000052c0       ??$_Copy_backward_opt@PAU?$pair@V?$basic_string@DU?$char_traits@D@std@@V?$allocator@D@2@@std@@PAVPlugInFactory@@@std@@PAU12@@std@@YAPAU?$pair@V?$basic_string@DU?$char_traits@D@std@@V?$allocator@D@2@@std@@PAVPlugInFactory@@@0@PAU10@00Urandom_access_iterator_tag@0@U_Nonscalar_ptr_iterator_tag@0@U_Range_checked_iterator_tag@0@@Z 100062c0 f i ModuleManager.obj
 0001:00005310       ??$_Destroy@U?$pair@V?$basic_string@DU?$char_traits@D@std@@V?$allocator@D@2@@std@@PAVPlugInFactory@@@std@@@std@@YAXPAU?$pair@V?$basic_string@DU?$char_traits@D@std@@V?$allocator@D@2@@std@@PAVPlugInFactory@@@0@@Z 10006310 f i ModuleManager.obj
 0001:00005320       ??$_Rotate@PAU?$pair@V?$basic_string@DU?$char_traits@D@std@@V?$allocator@D@2@@std@@PAVPlugInFactory@@@std@@@std@@YAXPAU?$pair@V?$basic_string@DU?$char_traits@D@std@@V?$allocator@D@2@@std@@PAVPlugInFactory@@@0@00Urandom_access_iterator_tag@0@@Z 10006320 f i ModuleManager.obj
 0001:00005340       ?swap@?$pair@V?$basic_string@DU?$char_traits@D@std@@V?$allocator@D@2@@std@@PAVPlugInFactory@@@std@@QAEXAAU12@@Z 10006340 f i ModuleManager.obj
 0001:00005360       ?_Buy@?$vector@U?$pair@V?$basic_string@DU?$char_traits@D@std@@V?$allocator@D@2@@std@@PAVPlugInFactory@@@std@@V?$allocator@U?$pair@V?$basic_string@DU?$char_traits@D@std@@V?$allocator@D@2@@std@@PAVPlugInFactory@@@std@@@2@@std@@IAE_NI@Z 10006360 f i ModuleManager.obj
 0001:000053b0       ??0?$_Vector_iterator@U?$pair@V?$basic_string@DU?$char_traits@D@std@@V?$allocator@D@2@@std@@PAVPlugInFactory@@@std@@V?$allocator@U?$pair@V?$basic_string@DU?$char_traits@D@std@@V?$allocator@D@2@@std@@PAVPlugInFactory@@@std@@@2@@std@@QAE@PAU?$pair@V?$basic_string@DU?$char_traits@D@std@@V?$allocator@D@2@@std@@PAVPlugInFactory@@@1@PBU_Container_base@1@@Z 100063b0 f i ModuleManager.obj
 0001:000053f0       ??H?$_Vector_iterator@U?$pair@V?$basic_string@DU?$char_traits@D@std@@V?$allocator@D@2@@std@@PAVPlugInFactory@@@std@@V?$allocator@U?$pair@V?$basic_string@DU?$char_traits@D@std@@V?$allocator@D@2@@std@@PAVPlugInFactory@@@std@@@2@@std@@QBE?AV01@H@Z 100063f0 f i ModuleManager.obj
 0001:00005430       ??$fill@PAU?$pair@V?$basic_string@DU?$char_traits@D@std@@V?$allocator@D@2@@std@@PAVPlugInFactory@@@std@@U12@@std@@YAXPAU?$pair@V?$basic_string@DU?$char_traits@D@std@@V?$allocator@D@2@@std@@PAVPlugInFactory@@@0@0ABU10@@Z 10006430 f i ModuleManager.obj
 0001:00005460       ??$_Checked_base@V?$_String_iterator@DU?$char_traits@D@std@@V?$allocator@D@2@@std@@@std@@YAPADAAV?$_String_iterator@DU?$char_traits@D@std@@V?$allocator@D@2@@0@@Z 10006460 f i ModuleManager.obj
 0001:00005470       ??$_Checked_base@V?$_Vector_iterator@U?$pair@V?$basic_string@DU?$char_traits@D@std@@V?$allocator@D@2@@std@@PAVPlugInFactory@@@std@@V?$allocator@U?$pair@V?$basic_string@DU?$char_traits@D@std@@V?$allocator@D@2@@std@@PAVPlugInFactory@@@std@@@2@@std@@@std@@YAPAU?$pair@V?$basic_string@DU?$char_traits@D@std@@V?$allocator@D@2@@std@@PAVPlugInFactory@@@0@AAV?$_Vector_iterator@U?$pair@V?$basic_string@DU?$char_traits@D@std@@V?$allocator@D@2@@std@@PAVPlugInFactory@@@std@@V?$allocator@U?$pair@V?$basic_string@DU?$char_traits@D@std@@V?$allocator@D@2@@std@@PAVPlugInFactory@@@std@@@2@@0@@Z 10006470 f i ModuleManager.obj
 0001:00005480       ??$_Move_backward_opt@PAU?$pair@V?$basic_string@DU?$char_traits@D@std@@V?$allocator@D@2@@std@@PAVPlugInFactory@@@std@@PAU12@Urandom_access_iterator_tag@2@U_Undefined_move_tag@2@@std@@YAPAU?$pair@V?$basic_string@DU?$char_traits@D@std@@V?$allocator@D@2@@std@@PAVPlugInFactory@@@0@PAU10@00Urandom_access_iterator_tag@0@U_Undefined_move_tag@0@U_Range_checked_iterator_tag@0@@Z 10006480 f i ModuleManager.obj
 0001:000054d0       ?destroy@?$allocator@U?$pair@V?$basic_string@DU?$char_traits@D@std@@V?$allocator@D@2@@std@@PAVPlugInFactory@@@std@@@std@@QAEXPAU?$pair@V?$basic_string@DU?$char_traits@D@std@@V?$allocator@D@2@@std@@PAVPlugInFactory@@@2@@Z 100064d0 f i ModuleManager.obj
 0001:000054e0       ??$rotate@PAU?$pair@V?$basic_string@DU?$char_traits@D@std@@V?$allocator@D@2@@std@@PAVPlugInFactory@@@std@@@std@@YAXPAU?$pair@V?$basic_string@DU?$char_traits@D@std@@V?$allocator@D@2@@std@@PAVPlugInFactory@@@0@00@Z 100064e0 f i ModuleManager.obj
 0001:00005510       ??$swap@V?$basic_string@DU?$char_traits@D@std@@V?$allocator@D@2@@std@@PAVPlugInFactory@@@std@@YAXAAU?$pair@V?$basic_string@DU?$char_traits@D@std@@V?$allocator@D@2@@std@@PAVPlugInFactory@@@0@0@Z 10006510 f i ModuleManager.obj
 0001:00005540       ??$_Uninit_copy@PAU?$pair@V?$basic_string@DU?$char_traits@D@std@@V?$allocator@D@2@@std@@PAVPlugInFactory@@@std@@PAU12@V?$allocator@U?$pair@V?$basic_string@DU?$char_traits@D@std@@V?$allocator@D@2@@std@@PAVPlugInFactory@@@std@@@2@@std@@YAPAU?$pair@V?$basic_string@DU?$char_traits@D@std@@V?$allocator@D@2@@std@@PAVPlugInFactory@@@0@PAU10@00AAV?$allocator@U?$pair@V?$basic_string@DU?$char_traits@D@std@@V?$allocator@D@2@@std@@PAVPlugInFactory@@@std@@@0@U_Nonscalar_ptr_iterator_tag@0@U_Range_checked_iterator_tag@0@@Z 10006540 f i ModuleManager.obj
 0001:000055e0       ??0?$vector@U?$pair@V?$basic_string@DU?$char_traits@D@std@@V?$allocator@D@2@@std@@PAVPlugInFactory@@@std@@V?$allocator@U?$pair@V?$basic_string@DU?$char_traits@D@std@@V?$allocator@D@2@@std@@PAVPlugInFactory@@@std@@@2@@std@@QAE@XZ 100065e0 f i ModuleManager.obj
 0001:000055f0       ?begin@?$vector@U?$pair@V?$basic_string@DU?$char_traits@D@std@@V?$allocator@D@2@@std@@PAVPlugInFactory@@@std@@V?$allocator@U?$pair@V?$basic_string@DU?$char_traits@D@std@@V?$allocator@D@2@@std@@PAVPlugInFactory@@@std@@@2@@std@@QAE?AV?$_Vector_iterator@U?$pair@V?$basic_string@DU?$char_traits@D@std@@V?$allocator@D@2@@std@@PAVPlugInFactory@@@std@@V?$allocator@U?$pair@V?$basic_string@DU?$char_traits@D@std@@V?$allocator@D@2@@std@@PAVPlugInFactory@@@std@@@2@@2@XZ 100065f0 f i ModuleManager.obj
 0001:00005620       ?end@?$vector@U?$pair@V?$basic_string@DU?$char_traits@D@std@@V?$allocator@D@2@@std@@PAVPlugInFactory@@@std@@V?$allocator@U?$pair@V?$basic_string@DU?$char_traits@D@std@@V?$allocator@D@2@@std@@PAVPlugInFactory@@@std@@@2@@std@@QAE?AV?$_Vector_iterator@U?$pair@V?$basic_string@DU?$char_traits@D@std@@V?$allocator@D@2@@std@@PAVPlugInFactory@@@std@@V?$allocator@U?$pair@V?$basic_string@DU?$char_traits@D@std@@V?$allocator@D@2@@std@@PAVPlugInFactory@@@std@@@2@@2@XZ 10006620 f i ModuleManager.obj
 0001:00005650       ??$count@V?$_String_iterator@DU?$char_traits@D@std@@V?$allocator@D@2@@std@@D@std@@YAHV?$_String_iterator@DU?$char_traits@D@std@@V?$allocator@D@2@@0@0ABD@Z 10006650 f i ModuleManager.obj
 0001:00005680       ??$_Unchecked_move_backward@PAU?$pair@V?$basic_string@DU?$char_traits@D@std@@V?$allocator@D@2@@std@@PAVPlugInFactory@@@std@@PAU12@@stdext@@YAPAU?$pair@V?$basic_string@DU?$char_traits@D@std@@V?$allocator@D@2@@std@@PAVPlugInFactory@@@std@@PAU12@00@Z 10006680 f i ModuleManager.obj
 0001:000056d0       ??$_Uninit_fill_n@PAU?$pair@V?$basic_string@DU?$char_traits@D@std@@V?$allocator@D@2@@std@@PAVPlugInFactory@@@std@@IU12@V?$allocator@U?$pair@V?$basic_string@DU?$char_traits@D@std@@V?$allocator@D@2@@std@@PAVPlugInFactory@@@std@@@2@@std@@YAXPAU?$pair@V?$basic_string@DU?$char_traits@D@std@@V?$allocator@D@2@@std@@PAVPlugInFactory@@@0@IABU10@AAV?$allocator@U?$pair@V?$basic_string@DU?$char_traits@D@std@@V?$allocator@D@2@@std@@PAVPlugInFactory@@@std@@@0@U_Nonscalar_ptr_iterator_tag@0@U_Range_checked_iterator_tag@0@@Z 100066d0 f i ModuleManager.obj
 0001:00005770       ??$_Destroy_range@U?$pair@V?$basic_string@DU?$char_traits@D@std@@V?$allocator@D@2@@std@@PAVPlugInFactory@@@std@@V?$allocator@U?$pair@V?$basic_string@DU?$char_traits@D@std@@V?$allocator@D@2@@std@@PAVPlugInFactory@@@std@@@2@@std@@YAXPAU?$pair@V?$basic_string@DU?$char_traits@D@std@@V?$allocator@D@2@@std@@PAVPlugInFactory@@@0@0AAV?$allocator@U?$pair@V?$basic_string@DU?$char_traits@D@std@@V?$allocator@D@2@@std@@PAVPlugInFactory@@@std@@@0@U_Nonscalar_ptr_iterator_tag@0@@Z 10006770 f i ModuleManager.obj
 0001:000057a0       ??$iter_swap@PAU?$pair@V?$basic_string@DU?$char_traits@D@std@@V?$allocator@D@2@@std@@PAVPlugInFactory@@@std@@PAU12@@std@@YAXPAU?$pair@V?$basic_string@DU?$char_traits@D@std@@V?$allocator@D@2@@std@@PAVPlugInFactory@@@0@0@Z 100067a0 f i ModuleManager.obj
 0001:000057d0       ??$unchecked_uninitialized_copy@PAU?$pair@V?$basic_string@DU?$char_traits@D@std@@V?$allocator@D@2@@std@@PAVPlugInFactory@@@std@@PAU12@V?$allocator@U?$pair@V?$basic_string@DU?$char_traits@D@std@@V?$allocator@D@2@@std@@PAVPlugInFactory@@@std@@@2@@stdext@@YAPAU?$pair@V?$basic_string@DU?$char_traits@D@std@@V?$allocator@D@2@@std@@PAVPlugInFactory@@@std@@PAU12@00AAV?$allocator@U?$pair@V?$basic_string@DU?$char_traits@D@std@@V?$allocator@D@2@@std@@PAVPlugInFactory@@@std@@@2@@Z 100067d0 f i ModuleManager.obj
 0001:00005800       ??RFactoryPtrComparator@@QAE_NU?$pair@V?$basic_string@DU?$char_traits@D@std@@V?$allocator@D@2@@std@@PAVPlugInFactory@@@std@@0@Z 10006800 f i ModuleManager.obj
 0001:00005950       ??$unchecked_uninitialized_fill_n@PAU?$pair@V?$basic_string@DU?$char_traits@D@std@@V?$allocator@D@2@@std@@PAVPlugInFactory@@@std@@IU12@V?$allocator@U?$pair@V?$basic_string@DU?$char_traits@D@std@@V?$allocator@D@2@@std@@PAVPlugInFactory@@@std@@@2@@stdext@@YAXPAU?$pair@V?$basic_string@DU?$char_traits@D@std@@V?$allocator@D@2@@std@@PAVPlugInFactory@@@std@@IABU12@AAV?$allocator@U?$pair@V?$basic_string@DU?$char_traits@D@std@@V?$allocator@D@2@@std@@PAVPlugInFactory@@@std@@@2@@Z 10006950 f i ModuleManager.obj
 0001:00005980       ??$_Destroy_range@U?$pair@V?$basic_string@DU?$char_traits@D@std@@V?$allocator@D@2@@std@@PAVPlugInFactory@@@std@@V?$allocator@U?$pair@V?$basic_string@DU?$char_traits@D@std@@V?$allocator@D@2@@std@@PAVPlugInFactory@@@std@@@2@@std@@YAXPAU?$pair@V?$basic_string@DU?$char_traits@D@std@@V?$allocator@D@2@@std@@PAVPlugInFactory@@@0@0AAV?$allocator@U?$pair@V?$basic_string@DU?$char_traits@D@std@@V?$allocator@D@2@@std@@PAVPlugInFactory@@@std@@@0@@Z 10006980 f i ModuleManager.obj
 0001:000059b0       ??$_Insertion_sort@PAU?$pair@V?$basic_string@DU?$char_traits@D@std@@V?$allocator@D@2@@std@@PAVPlugInFactory@@@std@@UFactoryPtrComparator@@@std@@YAXPAU?$pair@V?$basic_string@DU?$char_traits@D@std@@V?$allocator@D@2@@std@@PAVPlugInFactory@@@0@0UFactoryPtrComparator@@@Z 100069b0 f i ModuleManager.obj
 0001:00005b00       ??$_Uninit_move@PAU?$pair@V?$basic_string@DU?$char_traits@D@std@@V?$allocator@D@2@@std@@PAVPlugInFactory@@@std@@PAU12@V?$allocator@U?$pair@V?$basic_string@DU?$char_traits@D@std@@V?$allocator@D@2@@std@@PAVPlugInFactory@@@std@@@2@U_Undefined_move_tag@2@@std@@YAPAU?$pair@V?$basic_string@DU?$char_traits@D@std@@V?$allocator@D@2@@std@@PAVPlugInFactory@@@0@PAU10@00AAV?$allocator@U?$pair@V?$basic_string@DU?$char_traits@D@std@@V?$allocator@D@2@@std@@PAVPlugInFactory@@@std@@@0@U_Undefined_move_tag@0@U_Range_checked_iterator_tag@0@@Z 10006b00 f i ModuleManager.obj
 0001:00005b20       ??$_Med3@PAU?$pair@V?$basic_string@DU?$char_traits@D@std@@V?$allocator@D@2@@std@@PAVPlugInFactory@@@std@@UFactoryPtrComparator@@@std@@YAXPAU?$pair@V?$basic_string@DU?$char_traits@D@std@@V?$allocator@D@2@@std@@PAVPlugInFactory@@@0@00UFactoryPtrComparator@@@Z 10006b20 f i ModuleManager.obj
 0001:00005c80       ??$_Push_heap@PAU?$pair@V?$basic_string@DU?$char_traits@D@std@@V?$allocator@D@2@@std@@PAVPlugInFactory@@@std@@HU12@UFactoryPtrComparator@@@std@@YAXPAU?$pair@V?$basic_string@DU?$char_traits@D@std@@V?$allocator@D@2@@std@@PAVPlugInFactory@@@0@HHU10@UFactoryPtrComparator@@@Z 10006c80 f i ModuleManager.obj
 0001:00005d90       ?_Ufill@?$vector@U?$pair@V?$basic_string@DU?$char_traits@D@std@@V?$allocator@D@2@@std@@PAVPlugInFactory@@@std@@V?$allocator@U?$pair@V?$basic_string@DU?$char_traits@D@std@@V?$allocator@D@2@@std@@PAVPlugInFactory@@@std@@@2@@std@@IAEPAU?$pair@V?$basic_string@DU?$char_traits@D@std@@V?$allocator@D@2@@std@@PAVPlugInFactory@@@2@PAU32@IABU32@@Z 10006d90 f i ModuleManager.obj
 0001:00005dd0       ?_Destroy@?$vector@U?$pair@V?$basic_string@DU?$char_traits@D@std@@V?$allocator@D@2@@std@@PAVPlugInFactory@@@std@@V?$allocator@U?$pair@V?$basic_string@DU?$char_traits@D@std@@V?$allocator@D@2@@std@@PAVPlugInFactory@@@std@@@2@@std@@IAEXPAU?$pair@V?$basic_string@DU?$char_traits@D@std@@V?$allocator@D@2@@std@@PAVPlugInFactory@@@2@0@Z 10006dd0 f i ModuleManager.obj
 0001:00005e00       ??$_Unchecked_uninitialized_move@PAU?$pair@V?$basic_string@DU?$char_traits@D@std@@V?$allocator@D@2@@std@@PAVPlugInFactory@@@std@@PAU12@V?$allocator@U?$pair@V?$basic_string@DU?$char_traits@D@std@@V?$allocator@D@2@@std@@PAVPlugInFactory@@@std@@@2@@stdext@@YAPAU?$pair@V?$basic_string@DU?$char_traits@D@std@@V?$allocator@D@2@@std@@PAVPlugInFactory@@@std@@PAU12@00AAV?$allocator@U?$pair@V?$basic_string@DU?$char_traits@D@std@@V?$allocator@D@2@@std@@PAVPlugInFactory@@@std@@@2@@Z 10006e00 f i ModuleManager.obj
 0001:00005e30       ??$_Median@PAU?$pair@V?$basic_string@DU?$char_traits@D@std@@V?$allocator@D@2@@std@@PAVPlugInFactory@@@std@@UFactoryPtrComparator@@@std@@YAXPAU?$pair@V?$basic_string@DU?$char_traits@D@std@@V?$allocator@D@2@@std@@PAVPlugInFactory@@@0@00UFactoryPtrComparator@@@Z 10006e30 f i ModuleManager.obj
 0001:00005ee0       ??$_Adjust_heap@PAU?$pair@V?$basic_string@DU?$char_traits@D@std@@V?$allocator@D@2@@std@@PAVPlugInFactory@@@std@@HU12@UFactoryPtrComparator@@@std@@YAXPAU?$pair@V?$basic_string@DU?$char_traits@D@std@@V?$allocator@D@2@@std@@PAVPlugInFactory@@@0@HHU10@UFactoryPtrComparator@@@Z 10006ee0 f i ModuleManager.obj
 0001:00006050       ??$_Pop_heap@PAU?$pair@V?$basic_string@DU?$char_traits@D@std@@V?$allocator@D@2@@std@@PAVPlugInFactory@@@std@@HU12@UFactoryPtrComparator@@@std@@YAXPAU?$pair@V?$basic_string@DU?$char_traits@D@std@@V?$allocator@D@2@@std@@PAVPlugInFactory@@@0@00U10@UFactoryPtrComparator@@PAH@Z 10007050 f i ModuleManager.obj
 0001:000060e0       ?_Tidy@?$vector@U?$pair@V?$basic_string@DU?$char_traits@D@std@@V?$allocator@D@2@@std@@PAVPlugInFactory@@@std@@V?$allocator@U?$pair@V?$basic_string@DU?$char_traits@D@std@@V?$allocator@D@2@@std@@PAVPlugInFactory@@@std@@@2@@std@@IAEXXZ 100070e0 f i ModuleManager.obj
 0001:00006130       ??$_Umove@PAU?$pair@V?$basic_string@DU?$char_traits@D@std@@V?$allocator@D@2@@std@@PAVPlugInFactory@@@std@@@?$vector@U?$pair@V?$basic_string@DU?$char_traits@D@std@@V?$allocator@D@2@@std@@PAVPlugInFactory@@@std@@V?$allocator@U?$pair@V?$basic_string@DU?$char_traits@D@std@@V?$allocator@D@2@@std@@PAVPlugInFactory@@@std@@@2@@std@@IAEPAU?$pair@V?$basic_string@DU?$char_traits@D@std@@V?$allocator@D@2@@std@@PAVPlugInFactory@@@1@PAU21@00@Z 10007130 f i ModuleManager.obj
 0001:00006160       ??$_Unguarded_partition@PAU?$pair@V?$basic_string@DU?$char_traits@D@std@@V?$allocator@D@2@@std@@PAVPlugInFactory@@@std@@UFactoryPtrComparator@@@std@@YA?AU?$pair@PAU?$pair@V?$basic_string@DU?$char_traits@D@std@@V?$allocator@D@2@@std@@PAVPlugInFactory@@@std@@PAU12@@0@PAU?$pair@V?$basic_string@DU?$char_traits@D@std@@V?$allocator@D@2@@std@@PAVPlugInFactory@@@0@0UFactoryPtrComparator@@@Z 10007160 f i ModuleManager.obj
 0001:000065d0       ??$_Make_heap@PAU?$pair@V?$basic_string@DU?$char_traits@D@std@@V?$allocator@D@2@@std@@PAVPlugInFactory@@@std@@HU12@UFactoryPtrComparator@@@std@@YAXPAU?$pair@V?$basic_string@DU?$char_traits@D@std@@V?$allocator@D@2@@std@@PAVPlugInFactory@@@0@0UFactoryPtrComparator@@PAH0@Z 100075d0 f i ModuleManager.obj
 0001:00006630       ??$_Pop_heap_0@PAU?$pair@V?$basic_string@DU?$char_traits@D@std@@V?$allocator@D@2@@std@@PAVPlugInFactory@@@std@@U12@UFactoryPtrComparator@@@std@@YAXPAU?$pair@V?$basic_string@DU?$char_traits@D@std@@V?$allocator@D@2@@std@@PAVPlugInFactory@@@0@0UFactoryPtrComparator@@0@Z 10007630 f i ModuleManager.obj
 0001:00006670       ??1?$vector@U?$pair@V?$basic_string@DU?$char_traits@D@std@@V?$allocator@D@2@@std@@PAVPlugInFactory@@@std@@V?$allocator@U?$pair@V?$basic_string@DU?$char_traits@D@std@@V?$allocator@D@2@@std@@PAVPlugInFactory@@@std@@@2@@std@@QAE@XZ 10007670 f i ModuleManager.obj
 0001:00006680       ?_Insert_n@?$vector@U?$pair@V?$basic_string@DU?$char_traits@D@std@@V?$allocator@D@2@@std@@PAVPlugInFactory@@@std@@V?$allocator@U?$pair@V?$basic_string@DU?$char_traits@D@std@@V?$allocator@D@2@@std@@PAVPlugInFactory@@@std@@@2@@std@@IAEXV?$_Vector_iterator@U?$pair@V?$basic_string@DU?$char_traits@D@std@@V?$allocator@D@2@@std@@PAVPlugInFactory@@@std@@V?$allocator@U?$pair@V?$basic_string@DU?$char_traits@D@std@@V?$allocator@D@2@@std@@PAVPlugInFactory@@@std@@@2@@2@IABU?$pair@V?$basic_string@DU?$char_traits@D@std@@V?$allocator@D@2@@std@@PAVPlugInFactory@@@2@@Z 10007680 f i ModuleManager.obj
 0001:00006910       ??$make_heap@PAU?$pair@V?$basic_string@DU?$char_traits@D@std@@V?$allocator@D@2@@std@@PAVPlugInFactory@@@std@@UFactoryPtrComparator@@@std@@YAXPAU?$pair@V?$basic_string@DU?$char_traits@D@std@@V?$allocator@D@2@@std@@PAVPlugInFactory@@@0@0UFactoryPtrComparator@@@Z 10007910 f i ModuleManager.obj
 0001:00006940       ??$pop_heap@PAU?$pair@V?$basic_string@DU?$char_traits@D@std@@V?$allocator@D@2@@std@@PAVPlugInFactory@@@std@@UFactoryPtrComparator@@@std@@YAXPAU?$pair@V?$basic_string@DU?$char_traits@D@std@@V?$allocator@D@2@@std@@PAVPlugInFactory@@@0@0UFactoryPtrComparator@@@Z 10007940 f i ModuleManager.obj
 0001:00006990       ?insert@?$vector@U?$pair@V?$basic_string@DU?$char_traits@D@std@@V?$allocator@D@2@@std@@PAVPlugInFactory@@@std@@V?$allocator@U?$pair@V?$basic_string@DU?$char_traits@D@std@@V?$allocator@D@2@@std@@PAVPlugInFactory@@@std@@@2@@std@@QAE?AV?$_Vector_iterator@U?$pair@V?$basic_string@DU?$char_traits@D@std@@V?$allocator@D@2@@std@@PAVPlugInFactory@@@std@@V?$allocator@U?$pair@V?$basic_string@DU?$char_traits@D@std@@V?$allocator@D@2@@std@@PAVPlugInFactory@@@std@@@2@@2@V32@ABU?$pair@V?$basic_string@DU?$char_traits@D@std@@V?$allocator@D@2@@std@@PAVPlugInFactory@@@2@@Z 10007990 f i ModuleManager.obj
 0001:00006a20       ??$_Sort_heap@PAU?$pair@V?$basic_string@DU?$char_traits@D@std@@V?$allocator@D@2@@std@@PAVPlugInFactory@@@std@@UFactoryPtrComparator@@@std@@YAXPAU?$pair@V?$basic_string@DU?$char_traits@D@std@@V?$allocator@D@2@@std@@PAVPlugInFactory@@@0@0UFactoryPtrComparator@@@Z 10007a20 f i ModuleManager.obj
 0001:00006a90       ?factories@SpectralDataMerge@@YAAAV?$vector@U?$pair@V?$basic_string@DU?$char_traits@D@std@@V?$allocator@D@2@@std@@PAVPlugInFactory@@@std@@V?$allocator@U?$pair@V?$basic_string@DU?$char_traits@D@std@@V?$allocator@D@2@@std@@PAVPlugInFactory@@@std@@@2@@std@@XZ 10007a90 f   ModuleManager.obj
 0001:00006af0       ?push_back@?$vector@U?$pair@V?$basic_string@DU?$char_traits@D@std@@V?$allocator@D@2@@std@@PAVPlugInFactory@@@std@@V?$allocator@U?$pair@V?$basic_string@DU?$char_traits@D@std@@V?$allocator@D@2@@std@@PAVPlugInFactory@@@std@@@2@@std@@QAEXABU?$pair@V?$basic_string@DU?$char_traits@D@std@@V?$allocator@D@2@@std@@PAVPlugInFactory@@@2@@Z 10007af0 f i ModuleManager.obj
 0001:00006b80       ??$sort_heap@PAU?$pair@V?$basic_string@DU?$char_traits@D@std@@V?$allocator@D@2@@std@@PAVPlugInFactory@@@std@@UFactoryPtrComparator@@@std@@YAXPAU?$pair@V?$basic_string@DU?$char_traits@D@std@@V?$allocator@D@2@@std@@PAVPlugInFactory@@@0@0UFactoryPtrComparator@@@Z 10007b80 f i ModuleManager.obj
 0001:00006b90       ?addFactory@SpectralDataMerge@@YAXPAVPlugInFactory@@@Z 10007b90 f   ModuleManager.obj
 0001:00006cf0       ??$_Sort@PAU?$pair@V?$basic_string@DU?$char_traits@D@std@@V?$allocator@D@2@@std@@PAVPlugInFactory@@@std@@HUFactoryPtrComparator@@@std@@YAXPAU?$pair@V?$basic_string@DU?$char_traits@D@std@@V?$allocator@D@2@@std@@PAVPlugInFactory@@@0@0HUFactoryPtrComparator@@@Z 10007cf0 f i ModuleManager.obj
 0001:00006de0       ??$sort@V?$_Vector_iterator@U?$pair@V?$basic_string@DU?$char_traits@D@std@@V?$allocator@D@2@@std@@PAVPlugInFactory@@@std@@V?$allocator@U?$pair@V?$basic_string@DU?$char_traits@D@std@@V?$allocator@D@2@@std@@PAVPlugInFactory@@@std@@@2@@std@@UFactoryPtrComparator@@@std@@YAXV?$_Vector_iterator@U?$pair@V?$basic_string@DU?$char_traits@D@std@@V?$allocator@D@2@@std@@PAVPlugInFactory@@@std@@V?$allocator@U?$pair@V?$basic_string@DU?$char_traits@D@std@@V?$allocator@D@2@@std@@PAVPlugInFactory@@@std@@@2@@0@0UFactoryPtrComparator@@@Z 10007de0 f i ModuleManager.obj
 0001:00006e20       ?getPlugIn@SpectralDataMerge@@YAPAVPlugIn@@I@Z 10007e20 f   ModuleManager.obj
 0001:00006ee0       _SpectralDataMergeInstantiatePlugIn 10007ee0 f   ModuleManager.obj
 0001:00006f10       ?metaObject@DataMerge@@UBEPBUQMetaObject@@XZ 10007f10 f   moc_DataMerge.obj
 0001:00006f20       ?qt_metacast@DataMerge@@UAEPAXPBD@Z 10007f20 f   moc_DataMerge.obj
 0001:00006fa0       ?qt_metacall@DataMerge@@UAEHW4Call@QMetaObject@@HPAPAX@Z 10007fa0 f   moc_DataMerge.obj
 0001:00006fdc       ??1QObject@@UAE@XZ         10007fdc f   QtCore4:QtCore4.dll
 0001:00006fe2       ??0QObject@@QAE@PAV0@@Z    10007fe2 f   QtCore4:QtCore4.dll
 0001:00006fe8       ?event@QObject@@UAE_NPAVQEvent@@@Z 10007fe8 f   QtCore4:QtCore4.dll
 0001:00006fee       ?eventFilter@QObject@@UAE_NPAV1@PAVQEvent@@@Z 10007fee f   QtCore4:QtCore4.dll
 0001:00006ff4       ?timerEvent@QObject@@MAEXPAVQTimerEvent@@@Z 10007ff4 f   QtCore4:QtCore4.dll
 0001:00006ffa       ?childEvent@QObject@@MAEXPAVQChildEvent@@@Z 10007ffa f   QtCore4:QtCore4.dll
 0001:00007000       ?customEvent@QObject@@MAEXPAVQEvent@@@Z 10008000 f   QtCore4:QtCore4.dll
 0001:00007006       ?connectNotify@QObject@@MAEXPBD@Z 10008006 f   QtCore4:QtCore4.dll
 0001:0000700c       ?disconnectNotify@QObject@@MAEXPBD@Z 1000800c f   QtCore4:QtCore4.dll
 0001:00007012       ??1QString@@QAE@XZ         10008012 f   QtCore4:QtCore4.dll
 0001:00007018       ?free@QString@@CAXPAUData@1@@Z 10008018 f   QtCore4:QtCore4.dll
 0001:0000701e       ?fromAscii_helper@QString@@CAPAUData@1@PBDH@Z 1000801e f   QtCore4:QtCore4.dll
 0001:00007024       ?qt_metacast@QObject@@UAEPAXPBD@Z 10008024 f   QtCore4:QtCore4.dll
 0001:0000702a       ?qt_metacall@QObject@@UAEHW4Call@QMetaObject@@HPAPAX@Z 1000802a f   QtCore4:QtCore4.dll
 0001:00007030       ?critical@QMessageBox@@SAHPAVQWidget@@ABVQString@@1111HH@Z 10008030 f   QtGui4:QtGui4.dll
 0001:00007040       ?isValid@Slot@@QBE_NXZ     10008040 f i PlugInLib:ViewerShell.obj
 0001:00007050       ??1Slot@@QAE@XZ            10008050 f i PlugInLib:ViewerShell.obj
 0001:00007070       ??0SlotWrapper@Slot@@QAE@XZ 10008070 f i PlugInLib:ViewerShell.obj
 0001:00007080       ??1PlugInCallback@@UAE@XZ  10008080 f i PlugInLib:ViewerShell.obj
 0001:00007090       ??_GPlugInCallback@@UAEPAXI@Z 10008090 f i PlugInLib:ViewerShell.obj
 0001:00007090       ??_EPlugInCallback@@UAEPAXI@Z 10008090 f i PlugInLib:ViewerShell.obj
 0001:000070b0       ?ViewerType@PlugInManagerServices@@SA?AV?$basic_string@DU?$char_traits@D@std@@V?$allocator@D@2@@std@@XZ 100080b0 f i PlugInLib:ViewerShell.obj
 0001:000070d0       ?getInputSpecification@ViewerShell@@UAE_NAAPAVPlugInArgList@@@Z 100080d0 f   PlugInLib:ViewerShell.obj
 0001:000070e0       ?getOutputSpecification@ViewerShell@@UAE_NAAPAVPlugInArgList@@@Z 100080e0 f   PlugInLib:ViewerShell.obj
 0001:000070f0       ??0PlugInCallback@@QAE@XZ  100080f0 f i PlugInLib:ViewerShell.obj
 0001:00007100       ?cleanupWidget@ViewerShell@@QAEXAAVSubject@@ABV?$basic_string@DU?$char_traits@D@std@@V?$allocator@D@2@@std@@ABVany@boost@@@Z 10008100 f   PlugInLib:ViewerShell.obj
 0001:00007130       ??0?$EnumWrapper@W4PlugInCallbackTypeEnum@@@@QAE@ABW4PlugInCallbackTypeEnum@@@Z 10008130 f i PlugInLib:ViewerShell.obj
 0001:00007150       ??1?$pair@V?$basic_string@DU?$char_traits@D@std@@V?$allocator@D@2@@std@@VSlot@@@std@@QAE@XZ 10008150 f i PlugInLib:ViewerShell.obj
 0001:00007180       ?get@?$SafePtr@VApplicationServices@@@@QAEPAVApplicationServices@@XZ 10008180 f i PlugInLib:ViewerShell.obj
 0001:00007190       ?attach@?$SafePtr@VApplicationServices@@@@IAEXABV?$basic_string@DU?$char_traits@D@std@@V?$allocator@D@2@@std@@ABVSlot@@@Z 10008190 f i PlugInLib:ViewerShell.obj
 0001:000071b0       ?detach@?$SafePtr@VApplicationServices@@@@IAEXABV?$basic_string@DU?$char_traits@D@std@@V?$allocator@D@2@@std@@ABVSlot@@@Z 100081b0 f i PlugInLib:ViewerShell.obj
 0001:000071d0       ??E?$_Vector_const_iterator@U?$pair@V?$basic_string@DU?$char_traits@D@std@@V?$allocator@D@2@@std@@VSlot@@@std@@V?$allocator@U?$pair@V?$basic_string@DU?$char_traits@D@std@@V?$allocator@D@2@@std@@VSlot@@@std@@@2@@std@@QAEAAV01@XZ 100081d0 f i PlugInLib:ViewerShell.obj
 0001:00007200       ?capacity@?$vector@U?$pair@V?$basic_string@DU?$char_traits@D@std@@V?$allocator@D@2@@std@@VSlot@@@std@@V?$allocator@U?$pair@V?$basic_string@DU?$char_traits@D@std@@V?$allocator@D@2@@std@@VSlot@@@std@@@2@@std@@QBEIXZ 10008200 f i PlugInLib:ViewerShell.obj
 0001:00007220       ?size@?$vector@U?$pair@V?$basic_string@DU?$char_traits@D@std@@V?$allocator@D@2@@std@@VSlot@@@std@@V?$allocator@U?$pair@V?$basic_string@DU?$char_traits@D@std@@V?$allocator@D@2@@std@@VSlot@@@std@@@2@@std@@QBEIXZ 10008220 f i PlugInLib:ViewerShell.obj
 0001:00007240       ??0?$allocator@U?$pair@V?$basic_string@DU?$char_traits@D@std@@V?$allocator@D@2@@std@@VSlot@@@std@@@std@@QAE@XZ 10008240 f i PlugInLib:ViewerShell.obj
 0001:00007250       ?subjectDeleted@?$SafePtr@VApplicationServices@@@@AAEXAAVSubject@@ABV?$basic_string@DU?$char_traits@D@std@@V?$allocator@D@2@@std@@ABVany@boost@@@Z 10008250 f i PlugInLib:ViewerShell.obj
 0001:00007270       ??D?$_Vector_const_iterator@U?$pair@V?$basic_string@DU?$char_traits@D@std@@V?$allocator@D@2@@std@@VSlot@@@std@@V?$allocator@U?$pair@V?$basic_string@DU?$char_traits@D@std@@V?$allocator@D@2@@std@@VSlot@@@std@@@2@@std@@QBEABU?$pair@V?$basic_string@DU?$char_traits@D@std@@V?$allocator@D@2@@std@@VSlot@@@1@XZ 10008270 f i PlugInLib:ViewerShell.obj
 0001:000072a0       ??8?$_Vector_const_iterator@U?$pair@V?$basic_string@DU?$char_traits@D@std@@V?$allocator@D@2@@std@@VSlot@@@std@@V?$allocator@U?$pair@V?$basic_string@DU?$char_traits@D@std@@V?$allocator@D@2@@std@@VSlot@@@std@@@2@@std@@QBE_NABV01@@Z 100082a0 f i PlugInLib:ViewerShell.obj
 0001:000072d0       ?_Xlen@?$vector@U?$pair@V?$basic_string@DU?$char_traits@D@std@@V?$allocator@D@2@@std@@VSlot@@@std@@V?$allocator@U?$pair@V?$basic_string@DU?$char_traits@D@std@@V?$allocator@D@2@@std@@VSlot@@@std@@@2@@std@@KAXXZ 100082d0 f i PlugInLib:ViewerShell.obj
 0001:00007350       ??0?$allocator@U?$pair@V?$basic_string@DU?$char_traits@D@std@@V?$allocator@D@2@@std@@VSlot@@@std@@@std@@QAE@ABV01@@Z 10008350 f i PlugInLib:ViewerShell.obj
 0001:00007360       ?deallocate@?$allocator@U?$pair@V?$basic_string@DU?$char_traits@D@std@@V?$allocator@D@2@@std@@VSlot@@@std@@@std@@QAEXPAU?$pair@V?$basic_string@DU?$char_traits@D@std@@V?$allocator@D@2@@std@@VSlot@@@2@I@Z 10008360 f i PlugInLib:ViewerShell.obj
 0001:00007370       ??0?$_Ranit@U?$pair@V?$basic_string@DU?$char_traits@D@std@@V?$allocator@D@2@@std@@VSlot@@@std@@HPBU12@ABU12@@std@@QAE@XZ 10008370 f i PlugInLib:ViewerShell.obj
 0001:00007380       ?max_size@?$allocator@U?$pair@V?$basic_string@DU?$char_traits@D@std@@V?$allocator@D@2@@std@@VSlot@@@std@@@std@@QBEIXZ 10008380 f i PlugInLib:ViewerShell.obj
 0001:00007390       ??G?$_Vector_const_iterator@U?$pair@V?$basic_string@DU?$char_traits@D@std@@V?$allocator@D@2@@std@@VSlot@@@std@@V?$allocator@U?$pair@V?$basic_string@DU?$char_traits@D@std@@V?$allocator@D@2@@std@@VSlot@@@std@@@2@@std@@QBEHABV01@@Z 10008390 f i PlugInLib:ViewerShell.obj
 0001:000073c0       ??Y?$_Vector_const_iterator@U?$pair@V?$basic_string@DU?$char_traits@D@std@@V?$allocator@D@2@@std@@VSlot@@@std@@V?$allocator@U?$pair@V?$basic_string@DU?$char_traits@D@std@@V?$allocator@D@2@@std@@VSlot@@@std@@@2@@std@@QAEAAV01@H@Z 100083c0 f i PlugInLib:ViewerShell.obj
 0001:00007400       ??$_Allocate@U?$pair@V?$basic_string@DU?$char_traits@D@std@@V?$allocator@D@2@@std@@VSlot@@@std@@@std@@YAPAU?$pair@V?$basic_string@DU?$char_traits@D@std@@V?$allocator@D@2@@std@@VSlot@@@0@IPAU10@@Z 10008400 f i PlugInLib:ViewerShell.obj
 0001:00007460       ??0?$SlotValue@VViewerShell@@@Slot@@QAE@PAVViewerShell@@P82@AEXAAVSubject@@ABV?$basic_string@DU?$char_traits@D@std@@V?$allocator@D@2@@std@@ABVany@boost@@@Z@Z 10008460 f i PlugInLib:ViewerShell.obj
 0001:00007480       ?update@?$SlotValue@VViewerShell@@@Slot@@UBEXAAVSubject@@ABV?$basic_string@DU?$char_traits@D@std@@V?$allocator@D@2@@std@@ABVany@boost@@@Z 10008480 f i PlugInLib:ViewerShell.obj
 0001:00007500       ?callAttachMethod@?$SlotValue@VViewerShell@@@Slot@@UAEXAAVSubject@@ABV?$basic_string@DU?$char_traits@D@std@@V?$allocator@D@2@@std@@ABV2@@Z 10008500 f i PlugInLib:ViewerShell.obj
 0001:00007530       ?callDetachMethod@?$SlotValue@VViewerShell@@@Slot@@UAEXAAVSubject@@ABV?$basic_string@DU?$char_traits@D@std@@V?$allocator@D@2@@std@@ABV2@@Z 10008530 f i PlugInLib:ViewerShell.obj
 0001:00007560       ?clone@?$SlotValue@VViewerShell@@@Slot@@UBEPAVSlotWrapper@2@XZ 10008560 f i PlugInLib:ViewerShell.obj
 0001:00007590       ?getType@?$SlotValue@VViewerShell@@@Slot@@UBEABVtype_info@@XZ 10008590 f i PlugInLib:ViewerShell.obj
 0001:000075a0       ?matches@?$SlotValue@VViewerShell@@@Slot@@UBE_NABVSlotWrapper@2@@Z 100085a0 f i PlugInLib:ViewerShell.obj
 0001:00007600       ??0?$SlotValue@V?$SafePtr@VApplicationServices@@@@@Slot@@QAE@PAV?$SafePtr@VApplicationServices@@@@P82@AEXAAVSubject@@ABV?$basic_string@DU?$char_traits@D@std@@V?$allocator@D@2@@std@@ABVany@boost@@@Z@Z 10008600 f i PlugInLib:ViewerShell.obj
 0001:00007620       ?update@?$SlotValue@V?$SafePtr@VApplicationServices@@@@@Slot@@UBEXAAVSubject@@ABV?$basic_string@DU?$char_traits@D@std@@V?$allocator@D@2@@std@@ABVany@boost@@@Z 10008620 f i PlugInLib:ViewerShell.obj
 0001:000076a0       ?callAttachMethod@?$SlotValue@V?$SafePtr@VApplicationServices@@@@@Slot@@UAEXAAVSubject@@ABV?$basic_string@DU?$char_traits@D@std@@V?$allocator@D@2@@std@@ABV2@@Z 100086a0 f i PlugInLib:ViewerShell.obj
 0001:000076d0       ?callDetachMethod@?$SlotValue@V?$SafePtr@VApplicationServices@@@@@Slot@@UAEXAAVSubject@@ABV?$basic_string@DU?$char_traits@D@std@@V?$allocator@D@2@@std@@ABV2@@Z 100086d0 f i PlugInLib:ViewerShell.obj
 0001:00007700       ?clone@?$SlotValue@V?$SafePtr@VApplicationServices@@@@@Slot@@UBEPAVSlotWrapper@2@XZ 10008700 f i PlugInLib:ViewerShell.obj
 0001:00007730       ?getType@?$SlotValue@V?$SafePtr@VApplicationServices@@@@@Slot@@UBEABVtype_info@@XZ 10008730 f i PlugInLib:ViewerShell.obj
 0001:00007740       ?matches@?$SlotValue@V?$SafePtr@VApplicationServices@@@@@Slot@@UBE_NABVSlotWrapper@2@@Z 10008740 f i PlugInLib:ViewerShell.obj
 0001:00007790       ??$_Ptr_cat@PAU?$pair@V?$basic_string@DU?$char_traits@D@std@@V?$allocator@D@2@@std@@VSlot@@@std@@PAU12@@std@@YA?AU_Nonscalar_ptr_iterator_tag@0@AAPAU?$pair@V?$basic_string@DU?$char_traits@D@std@@V?$allocator@D@2@@std@@VSlot@@@0@0@Z 10008790 f i PlugInLib:ViewerShell.obj
 0001:000077a0       ??$_Iter_random@PAU?$pair@V?$basic_string@DU?$char_traits@D@std@@V?$allocator@D@2@@std@@VSlot@@@std@@PAU12@@std@@YA?AUrandom_access_iterator_tag@0@ABQAU?$pair@V?$basic_string@DU?$char_traits@D@std@@V?$allocator@D@2@@std@@VSlot@@@0@0@Z 100087a0 f i PlugInLib:ViewerShell.obj
 0001:000077b0       ??$_Move_cat@PAU?$pair@V?$basic_string@DU?$char_traits@D@std@@V?$allocator@D@2@@std@@VSlot@@@std@@@std@@YA?AU_Undefined_move_tag@0@ABQAU?$pair@V?$basic_string@DU?$char_traits@D@std@@V?$allocator@D@2@@std@@VSlot@@@0@@Z 100087b0 f i PlugInLib:ViewerShell.obj
 0001:000077c0       ??$_Checked_base@PAU?$pair@V?$basic_string@DU?$char_traits@D@std@@V?$allocator@D@2@@std@@VSlot@@@std@@@std@@YAPAU?$pair@V?$basic_string@DU?$char_traits@D@std@@V?$allocator@D@2@@std@@VSlot@@@0@AAPAU10@U_Unchanged_checked_iterator_base_type_tag@0@@Z 100087c0 f i PlugInLib:ViewerShell.obj
 0001:000077d0       ??_G?$pair@V?$basic_string@DU?$char_traits@D@std@@V?$allocator@D@2@@std@@VSlot@@@std@@QAEPAXI@Z 100087d0 f i PlugInLib:ViewerShell.obj
 0001:00007810       ??0Slot@@QAE@ABV0@@Z       10008810 f i PlugInLib:ViewerShell.obj
 0001:00007840       ??4Slot@@QAEAAV0@ABV0@@Z   10008840 f i PlugInLib:ViewerShell.obj
 0001:00007880       ?signalDeleted@Subject@@SAABV?$basic_string@DU?$char_traits@D@std@@V?$allocator@D@2@@std@@XZ 10008880 f i PlugInLib:ViewerShell.obj
 0001:000078e0       ?signalSessionClosed@ApplicationServices@@SAABV?$basic_string@DU?$char_traits@D@std@@V?$allocator@D@2@@std@@XZ 100088e0 f i PlugInLib:ViewerShell.obj
 0001:00007940       ??0ViewerCallback@@QAE@PAVPlugIn@@PAVQWidget@@@Z 10008940 f i PlugInLib:ViewerShell.obj
 0001:00007960       ??1ViewerCallback@@UAE@XZ  10008960 f i PlugInLib:ViewerShell.obj
 0001:00007970       ??RViewerCallback@@UAEXXZ  10008970 f i PlugInLib:ViewerShell.obj
 0001:000079a0       ?finish@ViewerCallback@@UAE_NXZ 100089a0 f i PlugInLib:ViewerShell.obj
 0001:000079b0       ?getPlugIn@ViewerCallback@@UBEPAVPlugIn@@XZ 100089b0 f i PlugInLib:ViewerShell.obj
 0001:000079c0       ?progress@ViewerCallback@@UBEPAVProgress@@XZ 100089c0 f i PlugInLib:ViewerShell.obj
 0001:000079d0       ??_GViewerCallback@@UAEPAXI@Z 100089d0 f i PlugInLib:ViewerShell.obj
 0001:000079d0       ??_EViewerCallback@@UAEPAXI@Z 100089d0 f i PlugInLib:ViewerShell.obj
 0001:000079f0       ?abort@ViewerShell@@UAE_NXZ 100089f0 f   PlugInLib:ViewerShell.obj
 0001:00007ab0       ??C?$_Vector_const_iterator@U?$pair@V?$basic_string@DU?$char_traits@D@std@@V?$allocator@D@2@@std@@VSlot@@@std@@V?$allocator@U?$pair@V?$basic_string@DU?$char_traits@D@std@@V?$allocator@D@2@@std@@VSlot@@@std@@@2@@std@@QBEPBU?$pair@V?$basic_string@DU?$char_traits@D@std@@V?$allocator@D@2@@std@@VSlot@@@1@XZ 10008ab0 f i PlugInLib:ViewerShell.obj
 0001:00007ae0       ??9?$_Vector_const_iterator@U?$pair@V?$basic_string@DU?$char_traits@D@std@@V?$allocator@D@2@@std@@VSlot@@@std@@V?$allocator@U?$pair@V?$basic_string@DU?$char_traits@D@std@@V?$allocator@D@2@@std@@VSlot@@@std@@@2@@std@@QBE_NABV01@@Z 10008ae0 f i PlugInLib:ViewerShell.obj
 0001:00007b10       ??0?$_Vector_val@U?$pair@V?$basic_string@DU?$char_traits@D@std@@V?$allocator@D@2@@std@@VSlot@@@std@@V?$allocator@U?$pair@V?$basic_string@DU?$char_traits@D@std@@V?$allocator@D@2@@std@@VSlot@@@std@@@2@@std@@IAE@V?$allocator@U?$pair@V?$basic_string@DU?$char_traits@D@std@@V?$allocator@D@2@@std@@VSlot@@@std@@@1@@Z 10008b10 f i PlugInLib:ViewerShell.obj
 0001:00007b20       ?max_size@?$vector@U?$pair@V?$basic_string@DU?$char_traits@D@std@@V?$allocator@D@2@@std@@VSlot@@@std@@V?$allocator@U?$pair@V?$basic_string@DU?$char_traits@D@std@@V?$allocator@D@2@@std@@VSlot@@@std@@@2@@std@@QBEIXZ 10008b20 f i PlugInLib:ViewerShell.obj
 0001:00007b30       ?allocate@?$allocator@U?$pair@V?$basic_string@DU?$char_traits@D@std@@V?$allocator@D@2@@std@@VSlot@@@std@@@std@@QAEPAU?$pair@V?$basic_string@DU?$char_traits@D@std@@V?$allocator@D@2@@std@@VSlot@@@2@I@Z 10008b30 f i PlugInLib:ViewerShell.obj
 0001:00007b50       ??0?$_Vector_const_iterator@U?$pair@V?$basic_string@DU?$char_traits@D@std@@V?$allocator@D@2@@std@@VSlot@@@std@@V?$allocator@U?$pair@V?$basic_string@DU?$char_traits@D@std@@V?$allocator@D@2@@std@@VSlot@@@std@@@2@@std@@QAE@PAU?$pair@V?$basic_string@DU?$char_traits@D@std@@V?$allocator@D@2@@std@@VSlot@@@1@PBU_Container_base@1@@Z 10008b50 f i PlugInLib:ViewerShell.obj
 0001:00007b90       ??G?$_Vector_iterator@U?$pair@V?$basic_string@DU?$char_traits@D@std@@V?$allocator@D@2@@std@@VSlot@@@std@@V?$allocator@U?$pair@V?$basic_string@DU?$char_traits@D@std@@V?$allocator@D@2@@std@@VSlot@@@std@@@2@@std@@QBEHABV?$_Vector_const_iterator@U?$pair@V?$basic_string@DU?$char_traits@D@std@@V?$allocator@D@2@@std@@VSlot@@@std@@V?$allocator@U?$pair@V?$basic_string@DU?$char_traits@D@std@@V?$allocator@D@2@@std@@VSlot@@@std@@@2@@1@@Z 10008b90 f i PlugInLib:ViewerShell.obj
 0001:00007bc0       ??0?$pair@V?$basic_string@DU?$char_traits@D@std@@V?$allocator@D@2@@std@@VSlot@@@std@@QAE@ABU01@@Z 10008bc0 f i PlugInLib:ViewerShell.obj
 0001:00007c20       ??Y?$_Vector_iterator@U?$pair@V?$basic_string@DU?$char_traits@D@std@@V?$allocator@D@2@@std@@VSlot@@@std@@V?$allocator@U?$pair@V?$basic_string@DU?$char_traits@D@std@@V?$allocator@D@2@@std@@VSlot@@@std@@@2@@std@@QAEAAV01@H@Z 10008c20 f i PlugInLib:ViewerShell.obj
 0001:00007c60       ??$?0VViewerShell@@P80@AEXAAVSubject@@ABV?$basic_string@DU?$char_traits@D@std@@V?$allocator@D@2@@std@@ABVany@boost@@@Z@Slot@@QAE@PAVViewerShell@@P81@AEXAAVSubject@@ABV?$basic_string@DU?$char_traits@D@std@@V?$allocator@D@2@@std@@ABVany@boost@@@Z@Z 10008c60 f i PlugInLib:ViewerShell.obj
 0001:00007cd0       ??$?0V?$SafePtr@VApplicationServices@@@@P80@AEXAAVSubject@@ABV?$basic_string@DU?$char_traits@D@std@@V?$allocator@D@2@@std@@ABVany@boost@@@Z@Slot@@QAE@PAV?$SafePtr@VApplicationServices@@@@P81@AEXAAVSubject@@ABV?$basic_string@DU?$char_traits@D@std@@V?$allocator@D@2@@std@@ABVany@boost@@@Z@Z 10008cd0 f i PlugInLib:ViewerShell.obj
 0001:00007d40       ??0?$pair@V?$basic_string@DU?$char_traits@D@std@@V?$allocator@D@2@@std@@VSlot@@@std@@QAE@ABV?$basic_string@DU?$char_traits@D@std@@V?$allocator@D@2@@1@ABVSlot@@@Z 10008d40 f i PlugInLib:ViewerShell.obj
 0001:00007da0       ??$_Checked_base@PAU?$pair@V?$basic_string@DU?$char_traits@D@std@@V?$allocator@D@2@@std@@VSlot@@@std@@@std@@YAPAU?$pair@V?$basic_string@DU?$char_traits@D@std@@V?$allocator@D@2@@std@@VSlot@@@0@AAPAU10@@Z 10008da0 f i PlugInLib:ViewerShell.obj
 0001:00007db0       ??4?$pair@V?$basic_string@DU?$char_traits@D@std@@V?$allocator@D@2@@std@@VSlot@@@std@@QAEAAU01@ABU01@@Z 10008db0 f i PlugInLib:ViewerShell.obj
 0001:00007df0       ??$_Construct@U?$pair@V?$basic_string@DU?$char_traits@D@std@@V?$allocator@D@2@@std@@VSlot@@@std@@U12@@std@@YAXPAU?$pair@V?$basic_string@DU?$char_traits@D@std@@V?$allocator@D@2@@std@@VSlot@@@0@ABU10@@Z 10008df0 f i PlugInLib:ViewerShell.obj
 0001:00007e40       ??$_Destroy@U?$pair@V?$basic_string@DU?$char_traits@D@std@@V?$allocator@D@2@@std@@VSlot@@@std@@@std@@YAXPAU?$pair@V?$basic_string@DU?$char_traits@D@std@@V?$allocator@D@2@@std@@VSlot@@@0@@Z 10008e40 f i PlugInLib:ViewerShell.obj
 0001:00007e70       ??$_Copy_backward_opt@PAU?$pair@V?$basic_string@DU?$char_traits@D@std@@V?$allocator@D@2@@std@@VSlot@@@std@@PAU12@Uforward_iterator_tag@2@@std@@YAPAU?$pair@V?$basic_string@DU?$char_traits@D@std@@V?$allocator@D@2@@std@@VSlot@@@0@PAU10@00Uforward_iterator_tag@0@U_Nonscalar_ptr_iterator_tag@0@U_Range_checked_iterator_tag@0@@Z 10008e70 f i PlugInLib:ViewerShell.obj
 0001:00007ed0       ?detachFromDeleted@?$SafePtr@VApplicationServices@@@@AAEXXZ 10008ed0 f i PlugInLib:ViewerShell.obj
 0001:00007f40       ?_Buy@?$vector@U?$pair@V?$basic_string@DU?$char_traits@D@std@@V?$allocator@D@2@@std@@VSlot@@@std@@V?$allocator@U?$pair@V?$basic_string@DU?$char_traits@D@std@@V?$allocator@D@2@@std@@VSlot@@@std@@@2@@std@@IAE_NI@Z 10008f40 f i PlugInLib:ViewerShell.obj
 0001:00007f90       ?attachToDeleted@?$SafePtr@VApplicationServices@@@@AAEXXZ 10008f90 f i PlugInLib:ViewerShell.obj
 0001:00008000       ??0?$_Vector_iterator@U?$pair@V?$basic_string@DU?$char_traits@D@std@@V?$allocator@D@2@@std@@VSlot@@@std@@V?$allocator@U?$pair@V?$basic_string@DU?$char_traits@D@std@@V?$allocator@D@2@@std@@VSlot@@@std@@@2@@std@@QAE@PAU?$pair@V?$basic_string@DU?$char_traits@D@std@@V?$allocator@D@2@@std@@VSlot@@@1@PBU_Container_base@1@@Z 10009000 f i PlugInLib:ViewerShell.obj
 0001:00008040       ??H?$_Vector_iterator@U?$pair@V?$basic_string@DU?$char_traits@D@std@@V?$allocator@D@2@@std@@VSlot@@@std@@V?$allocator@U?$pair@V?$basic_string@DU?$char_traits@D@std@@V?$allocator@D@2@@std@@VSlot@@@std@@@2@@std@@QBE?AV01@H@Z 10009040 f i PlugInLib:ViewerShell.obj
 0001:00008080       ??$make_pair@V?$basic_string@DU?$char_traits@D@std@@V?$allocator@D@2@@std@@VSlot@@@std@@YA?AU?$pair@V?$basic_string@DU?$char_traits@D@std@@V?$allocator@D@2@@std@@VSlot@@@0@V?$basic_string@DU?$char_traits@D@std@@V?$allocator@D@2@@0@VSlot@@@Z 10009080 f i PlugInLib:ViewerShell.obj
 0001:00008100       ??$_Fill@PAU?$pair@V?$basic_string@DU?$char_traits@D@std@@V?$allocator@D@2@@std@@VSlot@@@std@@U12@@std@@YAXPAU?$pair@V?$basic_string@DU?$char_traits@D@std@@V?$allocator@D@2@@std@@VSlot@@@0@0ABU10@@Z 10009100 f i PlugInLib:ViewerShell.obj
 0001:00008150       ?construct@?$allocator@U?$pair@V?$basic_string@DU?$char_traits@D@std@@V?$allocator@D@2@@std@@VSlot@@@std@@@std@@QAEXPAU?$pair@V?$basic_string@DU?$char_traits@D@std@@V?$allocator@D@2@@std@@VSlot@@@2@ABU32@@Z 10009150 f i PlugInLib:ViewerShell.obj
 0001:000081a0       ?destroy@?$allocator@U?$pair@V?$basic_string@DU?$char_traits@D@std@@V?$allocator@D@2@@std@@VSlot@@@std@@@std@@QAEXPAU?$pair@V?$basic_string@DU?$char_traits@D@std@@V?$allocator@D@2@@std@@VSlot@@@2@@Z 100091a0 f i PlugInLib:ViewerShell.obj
 0001:000081d0       ??$_Copy_backward_opt@PAU?$pair@V?$basic_string@DU?$char_traits@D@std@@V?$allocator@D@2@@std@@VSlot@@@std@@PAU12@@std@@YAPAU?$pair@V?$basic_string@DU?$char_traits@D@std@@V?$allocator@D@2@@std@@VSlot@@@0@PAU10@00Urandom_access_iterator_tag@0@U_Nonscalar_ptr_iterator_tag@0@U_Range_checked_iterator_tag@0@@Z 100091d0 f i PlugInLib:ViewerShell.obj
 0001:00008220       ??$_Uninit_copy@PAU?$pair@V?$basic_string@DU?$char_traits@D@std@@V?$allocator@D@2@@std@@VSlot@@@std@@PAU12@V?$allocator@U?$pair@V?$basic_string@DU?$char_traits@D@std@@V?$allocator@D@2@@std@@VSlot@@@std@@@2@@std@@YAPAU?$pair@V?$basic_string@DU?$char_traits@D@std@@V?$allocator@D@2@@std@@VSlot@@@0@PAU10@00AAV?$allocator@U?$pair@V?$basic_string@DU?$char_traits@D@std@@V?$allocator@D@2@@std@@VSlot@@@std@@@0@U_Nonscalar_ptr_iterator_tag@0@U_Range_checked_iterator_tag@0@@Z 10009220 f i PlugInLib:ViewerShell.obj
 0001:000082d0       ??1?$SafePtr@VApplicationServices@@@@UAE@XZ 100092d0 f i PlugInLib:ViewerShell.obj
 0001:000082f0       ??_E?$SafePtr@VApplicationServices@@@@UAEPAXI@Z 100092f0 f i PlugInLib:ViewerShell.obj
 0001:000082f0       ??_G?$SafePtr@VApplicationServices@@@@UAEPAXI@Z 100092f0 f i PlugInLib:ViewerShell.obj
 0001:00008320       ??0?$vector@U?$pair@V?$basic_string@DU?$char_traits@D@std@@V?$allocator@D@2@@std@@VSlot@@@std@@V?$allocator@U?$pair@V?$basic_string@DU?$char_traits@D@std@@V?$allocator@D@2@@std@@VSlot@@@std@@@2@@std@@QAE@XZ 10009320 f i PlugInLib:ViewerShell.obj
 0001:00008330       ?begin@?$vector@U?$pair@V?$basic_string@DU?$char_traits@D@std@@V?$allocator@D@2@@std@@VSlot@@@std@@V?$allocator@U?$pair@V?$basic_string@DU?$char_traits@D@std@@V?$allocator@D@2@@std@@VSlot@@@std@@@2@@std@@QAE?AV?$_Vector_iterator@U?$pair@V?$basic_string@DU?$char_traits@D@std@@V?$allocator@D@2@@std@@VSlot@@@std@@V?$allocator@U?$pair@V?$basic_string@DU?$char_traits@D@std@@V?$allocator@D@2@@std@@VSlot@@@std@@@2@@2@XZ 10009330 f i PlugInLib:ViewerShell.obj
 0001:00008360       ?end@?$vector@U?$pair@V?$basic_string@DU?$char_traits@D@std@@V?$allocator@D@2@@std@@VSlot@@@std@@V?$allocator@U?$pair@V?$basic_string@DU?$char_traits@D@std@@V?$allocator@D@2@@std@@VSlot@@@std@@@2@@std@@QAE?AV?$_Vector_iterator@U?$pair@V?$basic_string@DU?$char_traits@D@std@@V?$allocator@D@2@@std@@VSlot@@@std@@V?$allocator@U?$pair@V?$basic_string@DU?$char_traits@D@std@@V?$allocator@D@2@@std@@VSlot@@@std@@@2@@2@XZ 10009360 f i PlugInLib:ViewerShell.obj
 0001:00008390       ??0?$SafePtr@VApplicationServices@@@@QAE@PAVApplicationServices@@@Z 10009390 f i PlugInLib:ViewerShell.obj
 0001:000083b0       ?reset@?$SafePtr@VApplicationServices@@@@QAEXPAVApplicationServices@@@Z 100093b0 f i PlugInLib:ViewerShell.obj
 0001:000083e0       ??$fill@PAU?$pair@V?$basic_string@DU?$char_traits@D@std@@V?$allocator@D@2@@std@@VSlot@@@std@@U12@@std@@YAXPAU?$pair@V?$basic_string@DU?$char_traits@D@std@@V?$allocator@D@2@@std@@VSlot@@@0@0ABU10@@Z 100093e0 f i PlugInLib:ViewerShell.obj
 0001:000083f0       ??$_Uninit_fill_n@PAU?$pair@V?$basic_string@DU?$char_traits@D@std@@V?$allocator@D@2@@std@@VSlot@@@std@@IU12@V?$allocator@U?$pair@V?$basic_string@DU?$char_traits@D@std@@V?$allocator@D@2@@std@@VSlot@@@std@@@2@@std@@YAXPAU?$pair@V?$basic_string@DU?$char_traits@D@std@@V?$allocator@D@2@@std@@VSlot@@@0@IABU10@AAV?$allocator@U?$pair@V?$basic_string@DU?$char_traits@D@std@@V?$allocator@D@2@@std@@VSlot@@@std@@@0@U_Nonscalar_ptr_iterator_tag@0@U_Range_checked_iterator_tag@0@@Z 100093f0 f i PlugInLib:ViewerShell.obj
 0001:000084a0       ??$_Destroy_range@U?$pair@V?$basic_string@DU?$char_traits@D@std@@V?$allocator@D@2@@std@@VSlot@@@std@@V?$allocator@U?$pair@V?$basic_string@DU?$char_traits@D@std@@V?$allocator@D@2@@std@@VSlot@@@std@@@2@@std@@YAXPAU?$pair@V?$basic_string@DU?$char_traits@D@std@@V?$allocator@D@2@@std@@VSlot@@@0@0AAV?$allocator@U?$pair@V?$basic_string@DU?$char_traits@D@std@@V?$allocator@D@2@@std@@VSlot@@@std@@@0@U_Nonscalar_ptr_iterator_tag@0@@Z 100094a0 f i PlugInLib:ViewerShell.obj
 0001:000084e0       ??$_Move_backward_opt@PAU?$pair@V?$basic_string@DU?$char_traits@D@std@@V?$allocator@D@2@@std@@VSlot@@@std@@PAU12@Urandom_access_iterator_tag@2@U_Undefined_move_tag@2@@std@@YAPAU?$pair@V?$basic_string@DU?$char_traits@D@std@@V?$allocator@D@2@@std@@VSlot@@@0@PAU10@00Urandom_access_iterator_tag@0@U_Undefined_move_tag@0@U_Range_checked_iterator_tag@0@@Z 100094e0 f i PlugInLib:ViewerShell.obj
 0001:00008530       ??$unchecked_uninitialized_copy@PAU?$pair@V?$basic_string@DU?$char_traits@D@std@@V?$allocator@D@2@@std@@VSlot@@@std@@PAU12@V?$allocator@U?$pair@V?$basic_string@DU?$char_traits@D@std@@V?$allocator@D@2@@std@@VSlot@@@std@@@2@@stdext@@YAPAU?$pair@V?$basic_string@DU?$char_traits@D@std@@V?$allocator@D@2@@std@@VSlot@@@std@@PAU12@00AAV?$allocator@U?$pair@V?$basic_string@DU?$char_traits@D@std@@V?$allocator@D@2@@std@@VSlot@@@std@@@2@@Z 10009530 f i PlugInLib:ViewerShell.obj
 0001:00008560       ?reset@?$AttachmentPtr@VApplicationServices@@@@QAEXPAVApplicationServices@@@Z 10009560 f i PlugInLib:ViewerShell.obj
 0001:00008680       ??$unchecked_uninitialized_fill_n@PAU?$pair@V?$basic_string@DU?$char_traits@D@std@@V?$allocator@D@2@@std@@VSlot@@@std@@IU12@V?$allocator@U?$pair@V?$basic_string@DU?$char_traits@D@std@@V?$allocator@D@2@@std@@VSlot@@@std@@@2@@stdext@@YAXPAU?$pair@V?$basic_string@DU?$char_traits@D@std@@V?$allocator@D@2@@std@@VSlot@@@std@@IABU12@AAV?$allocator@U?$pair@V?$basic_string@DU?$char_traits@D@std@@V?$allocator@D@2@@std@@VSlot@@@std@@@2@@Z 10009680 f i PlugInLib:ViewerShell.obj
 0001:000086b0       ??$_Destroy_range@U?$pair@V?$basic_string@DU?$char_traits@D@std@@V?$allocator@D@2@@std@@VSlot@@@std@@V?$allocator@U?$pair@V?$basic_string@DU?$char_traits@D@std@@V?$allocator@D@2@@std@@VSlot@@@std@@@2@@std@@YAXPAU?$pair@V?$basic_string@DU?$char_traits@D@std@@V?$allocator@D@2@@std@@VSlot@@@0@0AAV?$allocator@U?$pair@V?$basic_string@DU?$char_traits@D@std@@V?$allocator@D@2@@std@@VSlot@@@std@@@0@@Z 100096b0 f i PlugInLib:ViewerShell.obj
 0001:000086d0       ??$_Unchecked_move_backward@PAU?$pair@V?$basic_string@DU?$char_traits@D@std@@V?$allocator@D@2@@std@@VSlot@@@std@@PAU12@@stdext@@YAPAU?$pair@V?$basic_string@DU?$char_traits@D@std@@V?$allocator@D@2@@std@@VSlot@@@std@@PAU12@00@Z 100096d0 f i PlugInLib:ViewerShell.obj
 0001:00008720       ??$_Uninit_move@PAU?$pair@V?$basic_string@DU?$char_traits@D@std@@V?$allocator@D@2@@std@@VSlot@@@std@@PAU12@V?$allocator@U?$pair@V?$basic_string@DU?$char_traits@D@std@@V?$allocator@D@2@@std@@VSlot@@@std@@@2@U_Undefined_move_tag@2@@std@@YAPAU?$pair@V?$basic_string@DU?$char_traits@D@std@@V?$allocator@D@2@@std@@VSlot@@@0@PAU10@00AAV?$allocator@U?$pair@V?$basic_string@DU?$char_traits@D@std@@V?$allocator@D@2@@std@@VSlot@@@std@@@0@U_Undefined_move_tag@0@U_Range_checked_iterator_tag@0@@Z 10009720 f i PlugInLib:ViewerShell.obj
 0001:00008740       ?_Ufill@?$vector@U?$pair@V?$basic_string@DU?$char_traits@D@std@@V?$allocator@D@2@@std@@VSlot@@@std@@V?$allocator@U?$pair@V?$basic_string@DU?$char_traits@D@std@@V?$allocator@D@2@@std@@VSlot@@@std@@@2@@std@@IAEPAU?$pair@V?$basic_string@DU?$char_traits@D@std@@V?$allocator@D@2@@std@@VSlot@@@2@PAU32@IABU32@@Z 10009740 f i PlugInLib:ViewerShell.obj
 0001:00008780       ?_Destroy@?$vector@U?$pair@V?$basic_string@DU?$char_traits@D@std@@V?$allocator@D@2@@std@@VSlot@@@std@@V?$allocator@U?$pair@V?$basic_string@DU?$char_traits@D@std@@V?$allocator@D@2@@std@@VSlot@@@std@@@2@@std@@IAEXPAU?$pair@V?$basic_string@DU?$char_traits@D@std@@V?$allocator@D@2@@std@@VSlot@@@2@0@Z 10009780 f i PlugInLib:ViewerShell.obj
 0001:000087a0       ??$_Unchecked_uninitialized_move@PAU?$pair@V?$basic_string@DU?$char_traits@D@std@@V?$allocator@D@2@@std@@VSlot@@@std@@PAU12@V?$allocator@U?$pair@V?$basic_string@DU?$char_traits@D@std@@V?$allocator@D@2@@std@@VSlot@@@std@@@2@@stdext@@YAPAU?$pair@V?$basic_string@DU?$char_traits@D@std@@V?$allocator@D@2@@std@@VSlot@@@std@@PAU12@00AAV?$allocator@U?$pair@V?$basic_string@DU?$char_traits@D@std@@V?$allocator@D@2@@std@@VSlot@@@std@@@2@@Z 100097a0 f i PlugInLib:ViewerShell.obj
 0001:000087d0       ?_Tidy@?$vector@U?$pair@V?$basic_string@DU?$char_traits@D@std@@V?$allocator@D@2@@std@@VSlot@@@std@@V?$allocator@U?$pair@V?$basic_string@DU?$char_traits@D@std@@V?$allocator@D@2@@std@@VSlot@@@std@@@2@@std@@IAEXXZ 100097d0 f i PlugInLib:ViewerShell.obj
 0001:00008810       ??$_Umove@PAU?$pair@V?$basic_string@DU?$char_traits@D@std@@V?$allocator@D@2@@std@@VSlot@@@std@@@?$vector@U?$pair@V?$basic_string@DU?$char_traits@D@std@@V?$allocator@D@2@@std@@VSlot@@@std@@V?$allocator@U?$pair@V?$basic_string@DU?$char_traits@D@std@@V?$allocator@D@2@@std@@VSlot@@@std@@@2@@std@@IAEPAU?$pair@V?$basic_string@DU?$char_traits@D@std@@V?$allocator@D@2@@std@@VSlot@@@1@PAU21@00@Z 10009810 f i PlugInLib:ViewerShell.obj
 0001:00008840       ??1?$vector@U?$pair@V?$basic_string@DU?$char_traits@D@std@@V?$allocator@D@2@@std@@VSlot@@@std@@V?$allocator@U?$pair@V?$basic_string@DU?$char_traits@D@std@@V?$allocator@D@2@@std@@VSlot@@@std@@@2@@std@@QAE@XZ 10009840 f i PlugInLib:ViewerShell.obj
 0001:00008880       ?_Insert_n@?$vector@U?$pair@V?$basic_string@DU?$char_traits@D@std@@V?$allocator@D@2@@std@@VSlot@@@std@@V?$allocator@U?$pair@V?$basic_string@DU?$char_traits@D@std@@V?$allocator@D@2@@std@@VSlot@@@std@@@2@@std@@IAEXV?$_Vector_iterator@U?$pair@V?$basic_string@DU?$char_traits@D@std@@V?$allocator@D@2@@std@@VSlot@@@std@@V?$allocator@U?$pair@V?$basic_string@DU?$char_traits@D@std@@V?$allocator@D@2@@std@@VSlot@@@std@@@2@@2@IABU?$pair@V?$basic_string@DU?$char_traits@D@std@@V?$allocator@D@2@@std@@VSlot@@@2@@Z 10009880 f i PlugInLib:ViewerShell.obj
 0001:00008b20       ??0?$AttachmentPtr@VApplicationServices@@@@QAE@XZ 10009b20 f i PlugInLib:ViewerShell.obj
 0001:00008b70       ??1?$AttachmentPtr@VApplicationServices@@@@UAE@XZ 10009b70 f i PlugInLib:ViewerShell.obj
 0001:00008c10       ??_E?$AttachmentPtr@VApplicationServices@@@@UAEPAXI@Z 10009c10 f i PlugInLib:ViewerShell.obj
 0001:00008c10       ??_G?$AttachmentPtr@VApplicationServices@@@@UAEPAXI@Z 10009c10 f i PlugInLib:ViewerShell.obj
 0001:00008c30       ?insert@?$vector@U?$pair@V?$basic_string@DU?$char_traits@D@std@@V?$allocator@D@2@@std@@VSlot@@@std@@V?$allocator@U?$pair@V?$basic_string@DU?$char_traits@D@std@@V?$allocator@D@2@@std@@VSlot@@@std@@@2@@std@@QAE?AV?$_Vector_iterator@U?$pair@V?$basic_string@DU?$char_traits@D@std@@V?$allocator@D@2@@std@@VSlot@@@std@@V?$allocator@U?$pair@V?$basic_string@DU?$char_traits@D@std@@V?$allocator@D@2@@std@@VSlot@@@std@@@2@@2@V32@ABU?$pair@V?$basic_string@DU?$char_traits@D@std@@V?$allocator@D@2@@std@@VSlot@@@2@@Z 10009c30 f i PlugInLib:ViewerShell.obj
 0001:00008cc0       ??1ViewerShell@@UAE@XZ     10009cc0 f   PlugInLib:ViewerShell.obj
 0001:00008d30       ??_EViewerShell@@W3AEPAXI@Z 10009d30 f i PlugInLib:ViewerShell.obj
 0001:00008d40       ??_EViewerShell@@W7AEPAXI@Z 10009d40 f i PlugInLib:ViewerShell.obj
 0001:00008d50       ?push_back@?$vector@U?$pair@V?$basic_string@DU?$char_traits@D@std@@V?$allocator@D@2@@std@@VSlot@@@std@@V?$allocator@U?$pair@V?$basic_string@DU?$char_traits@D@std@@V?$allocator@D@2@@std@@VSlot@@@std@@@2@@std@@QAEXABU?$pair@V?$basic_string@DU?$char_traits@D@std@@V?$allocator@D@2@@std@@VSlot@@@2@@Z 10009d50 f i PlugInLib:ViewerShell.obj
 0001:00008de0       ??_GViewerShell@@UAEPAXI@Z 10009de0 f i PlugInLib:ViewerShell.obj
 0001:00008de0       ??_EViewerShell@@UAEPAXI@Z 10009de0 f i PlugInLib:ViewerShell.obj
 0001:00008e00       ?addSignal@?$AttachmentPtr@VApplicationServices@@@@QAEXABV?$basic_string@DU?$char_traits@D@std@@V?$allocator@D@2@@std@@ABVSlot@@@Z 10009e00 f i PlugInLib:ViewerShell.obj
 0001:00008ee0       ??0ViewerShell@@QAE@XZ     10009ee0 f   PlugInLib:ViewerShell.obj
 0001:00008ff0       ??1Executable@@MAE@XZ      10009ff0 f i PlugInLib:ExecutableShell.obj
 0001:00009000       ??_GExecutable@@MAEPAXI@Z  1000a000 f i PlugInLib:ExecutableShell.obj
 0001:00009000       ??_EExecutable@@MAEPAXI@Z  1000a000 f i PlugInLib:ExecutableShell.obj
 0001:00009020       ??0Executable@@QAE@XZ      1000a020 f i PlugInLib:ExecutableShell.obj
 0001:00009030       ?isExecutedOnStartup@ExecutableShell@@UBE_NXZ 1000a030 f   PlugInLib:ExecutableShell.obj
 0001:00009040       ?isDestroyedAfterExecute@ExecutableShell@@UBE_NXZ 1000a040 f   PlugInLib:ExecutableShell.obj
 0001:00009050       ?getMenuLocations@ExecutableShell@@UBEABV?$vector@V?$basic_string@DU?$char_traits@D@std@@V?$allocator@D@2@@std@@V?$allocator@V?$basic_string@DU?$char_traits@D@std@@V?$allocator@D@2@@std@@@2@@std@@XZ 1000a050 f   PlugInLib:ExecutableShell.obj
 0001:00009060       ?setBatch@ExecutableShell@@UAE_NXZ 1000a060 f   PlugInLib:ExecutableShell.obj
 0001:00009070       ?setInteractive@ExecutableShell@@UAE_NXZ 1000a070 f   PlugInLib:ExecutableShell.obj
 0001:00009080       ?initialize@ExecutableShell@@UAE_NXZ 1000a080 f   PlugInLib:ExecutableShell.obj
 0001:00009090       ?abort@ExecutableShell@@UAE_NXZ 1000a090 f   PlugInLib:ExecutableShell.obj
 0001:000090b0       ?hasAbort@ExecutableShell@@UAE_NXZ 1000a0b0 f   PlugInLib:ExecutableShell.obj
 0001:000090c0       ?isBackground@ExecutableShell@@UBE_NXZ 1000a0c0 f   PlugInLib:ExecutableShell.obj
 0001:000090d0       ?isBatch@ExecutableShell@@QBE_NXZ 1000a0d0 f   PlugInLib:ExecutableShell.obj
 0001:000090e0       ?isAborted@ExecutableShell@@QBE_NXZ 1000a0e0 f   PlugInLib:ExecutableShell.obj
 0001:000090f0       ?hasWizardSupport@ExecutableShell@@UBE_NXZ 1000a0f0 f   PlugInLib:ExecutableShell.obj
 0001:00009100       ?executeOnStartup@ExecutableShell@@IAEX_N@Z 1000a100 f   PlugInLib:ExecutableShell.obj
 0001:00009110       ?destroyAfterExecute@ExecutableShell@@IAEX_N@Z 1000a110 f   PlugInLib:ExecutableShell.obj
 0001:00009120       ?setAbortSupported@ExecutableShell@@IAEX_N@Z 1000a120 f   PlugInLib:ExecutableShell.obj
 0001:00009130       ?setBackground@ExecutableShell@@IAEX_N@Z 1000a130 f   PlugInLib:ExecutableShell.obj
 0001:00009140       ?setWizardSupported@ExecutableShell@@IAEX_N@Z 1000a140 f   PlugInLib:ExecutableShell.obj
 0001:00009150       ??$_Copy_opt@PAV?$basic_string@DU?$char_traits@D@std@@V?$allocator@D@2@@std@@PAV12@Uforward_iterator_tag@2@@std@@YAPAV?$basic_string@DU?$char_traits@D@std@@V?$allocator@D@2@@0@PAV10@00Uforward_iterator_tag@0@U_Nonscalar_ptr_iterator_tag@0@U_Range_checked_iterator_tag@0@@Z 1000a150 f i PlugInLib:ExecutableShell.obj
 0001:00009190       ??$_Copy_opt@PAV?$basic_string@DU?$char_traits@D@std@@V?$allocator@D@2@@std@@PAV12@@std@@YAPAV?$basic_string@DU?$char_traits@D@std@@V?$allocator@D@2@@0@PAV10@00Urandom_access_iterator_tag@0@U_Nonscalar_ptr_iterator_tag@0@U_Range_checked_iterator_tag@0@@Z 1000a190 f i PlugInLib:ExecutableShell.obj
 0001:000091f0       ??$unchecked_copy@PAV?$basic_string@DU?$char_traits@D@std@@V?$allocator@D@2@@std@@PAV12@@stdext@@YAPAV?$basic_string@DU?$char_traits@D@std@@V?$allocator@D@2@@std@@PAV12@00@Z 1000a1f0 f i PlugInLib:ExecutableShell.obj
 0001:00009220       ?erase@?$vector@V?$basic_string@DU?$char_traits@D@std@@V?$allocator@D@2@@std@@V?$allocator@V?$basic_string@DU?$char_traits@D@std@@V?$allocator@D@2@@std@@@2@@std@@QAE?AV?$_Vector_iterator@V?$basic_string@DU?$char_traits@D@std@@V?$allocator@D@2@@std@@V?$allocator@V?$basic_string@DU?$char_traits@D@std@@V?$allocator@D@2@@std@@@2@@2@V32@0@Z 1000a220 f i PlugInLib:ExecutableShell.obj
 0001:000092a0       ?clear@?$vector@V?$basic_string@DU?$char_traits@D@std@@V?$allocator@D@2@@std@@V?$allocator@V?$basic_string@DU?$char_traits@D@std@@V?$allocator@D@2@@std@@@2@@std@@QAEXXZ 1000a2a0 f i PlugInLib:ExecutableShell.obj
 0001:000092e0       ??0ExecutableShell@@QAE@XZ 1000a2e0 f   PlugInLib:ExecutableShell.obj
 0001:00009380       ??_EExecutableShell@@W7AEPAXI@Z 1000a380 f i PlugInLib:ExecutableShell.obj
 0001:00009390       ??_EExecutableShell@@W3AEPAXI@Z 1000a390 f i PlugInLib:ExecutableShell.obj
 0001:000093a0       ??1ExecutableShell@@UAE@XZ 1000a3a0 f   PlugInLib:ExecutableShell.obj
 0001:00009410       ?addMenuLocation@ExecutableShell@@IAEXABV?$basic_string@DU?$char_traits@D@std@@V?$allocator@D@2@@std@@@Z 1000a410 f   PlugInLib:ExecutableShell.obj
 0001:00009420       ??_GExecutableShell@@UAEPAXI@Z 1000a420 f i PlugInLib:ExecutableShell.obj
 0001:00009420       ??_EExecutableShell@@UAEPAXI@Z 1000a420 f i PlugInLib:ExecutableShell.obj
 0001:00009440       ?setMenuLocation@ExecutableShell@@IAEXABV?$basic_string@DU?$char_traits@D@std@@V?$allocator@D@2@@std@@@Z 1000a440 f   PlugInLib:ExecutableShell.obj
 0001:00009490       ??0out_of_range@std@@QAE@ABV?$basic_string@DU?$char_traits@D@std@@V?$allocator@D@2@@1@@Z 1000a490 f i PlugInLib:PlugInShell.obj
 0001:000094b0       ??1out_of_range@std@@UAE@XZ 1000a4b0 f i PlugInLib:PlugInShell.obj
 0001:000094d0       ??_Eout_of_range@std@@UAEPAXI@Z 1000a4d0 f i PlugInLib:PlugInShell.obj
 0001:000094d0       ??_Gout_of_range@std@@UAEPAXI@Z 1000a4d0 f i PlugInLib:PlugInShell.obj
 0001:00009500       ??1SessionItem@@MAE@XZ     1000a500 f i PlugInLib:PlugInShell.obj
 0001:00009510       ??_GSessionItem@@MAEPAXI@Z 1000a510 f i PlugInLib:PlugInShell.obj
 0001:00009510       ??_ESessionItem@@MAEPAXI@Z 1000a510 f i PlugInLib:PlugInShell.obj
 0001:00009530       ??1SessionItemExt1@@MAE@XZ 1000a530 f i PlugInLib:PlugInShell.obj
 0001:00009540       ??_GSessionItemExt1@@MAEPAXI@Z 1000a540 f i PlugInLib:PlugInShell.obj
 0001:00009540       ??_ESessionItemExt1@@MAEPAXI@Z 1000a540 f i PlugInLib:PlugInShell.obj
 0001:00009560       ??1PlugIn@@MAE@XZ          1000a560 f i PlugInLib:PlugInShell.obj
 0001:00009570       ??0SessionItemExt1@@QAE@XZ 1000a570 f i PlugInLib:PlugInShell.obj
 0001:00009580       ??0SessionItem@@QAE@XZ     1000a580 f i PlugInLib:PlugInShell.obj
 0001:00009590       ?serialize@PlugInShell@@UBE_NAAVSessionItemSerializer@@@Z 1000a590 f   PlugInLib:PlugInShell.obj
 0001:000095a0       ?deserialize@PlugInShell@@UAE_NAAVSessionItemDeserializer@@@Z 1000a5a0 f   PlugInLib:PlugInShell.obj
 0001:000095b0       ?getVersion@PlugInShell@@UBE?AV?$basic_string@DU?$char_traits@D@std@@V?$allocator@D@2@@std@@XZ 1000a5b0 f   PlugInLib:PlugInShell.obj
 0001:000095e0       ?isProduction@PlugInShell@@UBE_NXZ 1000a5e0 f   PlugInLib:PlugInShell.obj
 0001:000095f0       ?getCreator@PlugInShell@@UBE?AV?$basic_string@DU?$char_traits@D@std@@V?$allocator@D@2@@std@@XZ 1000a5f0 f   PlugInLib:PlugInShell.obj
 0001:00009620       ?getCopyright@PlugInShell@@UBE?AV?$basic_string@DU?$char_traits@D@std@@V?$allocator@D@2@@std@@XZ 1000a620 f   PlugInLib:PlugInShell.obj
 0001:00009650       ?getDescription@PlugInShell@@UBE?AV?$basic_string@DU?$char_traits@D@std@@V?$allocator@D@2@@std@@XZ 1000a650 f   PlugInLib:PlugInShell.obj
 0001:00009680       ?getShortDescription@PlugInShell@@UBE?AV?$basic_string@DU?$char_traits@D@std@@V?$allocator@D@2@@std@@XZ 1000a680 f   PlugInLib:PlugInShell.obj
 0001:000096b0       ?getDescriptorId@PlugInShell@@UBE?AV?$basic_string@DU?$char_traits@D@std@@V?$allocator@D@2@@std@@XZ 1000a6b0 f   PlugInLib:PlugInShell.obj
 0001:000096e0       ?getType@PlugInShell@@UBE?AV?$basic_string@DU?$char_traits@D@std@@V?$allocator@D@2@@std@@XZ 1000a6e0 f   PlugInLib:PlugInShell.obj
 0001:00009710       ?getSubtype@PlugInShell@@UBE?AV?$basic_string@DU?$char_traits@D@std@@V?$allocator@D@2@@std@@XZ 1000a710 f   PlugInLib:PlugInShell.obj
 0001:00009740       ?areMultipleInstancesAllowed@PlugInShell@@UBE_NXZ 1000a740 f   PlugInLib:PlugInShell.obj
 0001:00009750       ?setVersion@PlugInShell@@IAEXABV?$basic_string@DU?$char_traits@D@std@@V?$allocator@D@2@@std@@@Z 1000a750 f   PlugInLib:PlugInShell.obj
 0001:00009760       ?setProductionStatus@PlugInShell@@IAEX_N@Z 1000a760 f   PlugInLib:PlugInShell.obj
 0001:00009770       ?setCreator@PlugInShell@@IAEXABV?$basic_string@DU?$char_traits@D@std@@V?$allocator@D@2@@std@@@Z 1000a770 f   PlugInLib:PlugInShell.obj
 0001:00009780       ?setCopyright@PlugInShell@@IAEXABV?$basic_string@DU?$char_traits@D@std@@V?$allocator@D@2@@std@@@Z 1000a780 f   PlugInLib:PlugInShell.obj
 0001:00009790       ?setDescription@PlugInShell@@IAEXABV?$basic_string@DU?$char_traits@D@std@@V?$allocator@D@2@@std@@@Z 1000a790 f   PlugInLib:PlugInShell.obj
 0001:000097a0       ?setShortDescription@PlugInShell@@IAEXABV?$basic_string@DU?$char_traits@D@std@@V?$allocator@D@2@@std@@@Z 1000a7a0 f   PlugInLib:PlugInShell.obj
 0001:000097b0       ?setDescriptorId@PlugInShell@@IAEXABV?$basic_string@DU?$char_traits@D@std@@V?$allocator@D@2@@std@@@Z 1000a7b0 f   PlugInLib:PlugInShell.obj
 0001:000097c0       ?setType@PlugInShell@@IAEXABV?$basic_string@DU?$char_traits@D@std@@V?$allocator@D@2@@std@@@Z 1000a7c0 f   PlugInLib:PlugInShell.obj
 0001:000097d0       ?setSubtype@PlugInShell@@IAEXABV?$basic_string@DU?$char_traits@D@std@@V?$allocator@D@2@@std@@@Z 1000a7d0 f   PlugInLib:PlugInShell.obj
 0001:000097e0       ?allowMultipleInstances@PlugInShell@@IAEX_N@Z 1000a7e0 f   PlugInLib:PlugInShell.obj
 0001:000097f0       ?get@?$Resource@VSettableSessionItem@@VFactoryObject@@@@QBEPBVSettableSessionItem@@XZ 1000a7f0 f i PlugInLib:PlugInShell.obj
 0001:00009800       ?get@?$Resource@VSettableSessionItem@@VFactoryObject@@@@QAEPAVSettableSessionItem@@XZ 1000a800 f i PlugInLib:PlugInShell.obj
 0001:00009810       ??C?$Resource@VSettableSessionItem@@VFactoryObject@@@@QBEPBVSettableSessionItem@@XZ 1000a810 f i PlugInLib:PlugInShell.obj
 0001:00009820       ??C?$Resource@VSettableSessionItem@@VFactoryObject@@@@QAEPAVSettableSessionItem@@XZ 1000a820 f i PlugInLib:PlugInShell.obj
 0001:00009830       ??1?$pair@$$CBV?$basic_string@DU?$char_traits@D@std@@V?$allocator@D@2@@std@@V12@@std@@QAE@XZ 1000a830 f i PlugInLib:PlugInShell.obj
 0001:00009880       ?_Color@?$_Tree@V?$_Tmap_traits@V?$basic_string@DU?$char_traits@D@std@@V?$allocator@D@2@@std@@V12@U?$less@V?$basic_string@DU?$char_traits@D@std@@V?$allocator@D@2@@std@@@2@V?$allocator@U?$pair@$$CBV?$basic_string@DU?$char_traits@D@std@@V?$allocator@D@2@@std@@V12@@std@@@2@$0A@@std@@@std@@KAAADPAU_Node@?$_Tree_nod@V?$_Tmap_traits@V?$basic_string@DU?$char_traits@D@std@@V?$allocator@D@2@@std@@V12@U?$less@V?$basic_string@DU?$char_traits@D@std@@V?$allocator@D@2@@std@@@2@V?$allocator@U?$pair@$$CBV?$basic_string@DU?$char_traits@D@std@@V?$allocator@D@2@@std@@V12@@std@@@2@$0A@@std@@@2@@Z 1000a880 f i PlugInLib:PlugInShell.obj
 0001:00009890       ?_Isnil@?$_Tree@V?$_Tmap_traits@V?$basic_string@DU?$char_traits@D@std@@V?$allocator@D@2@@std@@V12@U?$less@V?$basic_string@DU?$char_traits@D@std@@V?$allocator@D@2@@std@@@2@V?$allocator@U?$pair@$$CBV?$basic_string@DU?$char_traits@D@std@@V?$allocator@D@2@@std@@V12@@std@@@2@$0A@@std@@@std@@KAAADPAU_Node@?$_Tree_nod@V?$_Tmap_traits@V?$basic_string@DU?$char_traits@D@std@@V?$allocator@D@2@@std@@V12@U?$less@V?$basic_string@DU?$char_traits@D@std@@V?$allocator@D@2@@std@@@2@V?$allocator@U?$pair@$$CBV?$basic_string@DU?$char_traits@D@std@@V?$allocator@D@2@@std@@V12@@std@@@2@$0A@@std@@@2@@Z 1000a890 f i PlugInLib:PlugInShell.obj
 0001:000098a0       ?_Left@?$_Tree@V?$_Tmap_traits@V?$basic_string@DU?$char_traits@D@std@@V?$allocator@D@2@@std@@V12@U?$less@V?$basic_string@DU?$char_traits@D@std@@V?$allocator@D@2@@std@@@2@V?$allocator@U?$pair@$$CBV?$basic_string@DU?$char_traits@D@std@@V?$allocator@D@2@@std@@V12@@std@@@2@$0A@@std@@@std@@KAAAPAU_Node@?$_Tree_nod@V?$_Tmap_traits@V?$basic_string@DU?$char_traits@D@std@@V?$allocator@D@2@@std@@V12@U?$less@V?$basic_string@DU?$char_traits@D@std@@V?$allocator@D@2@@std@@@2@V?$allocator@U?$pair@$$CBV?$basic_string@DU?$char_traits@D@std@@V?$allocator@D@2@@std@@V12@@std@@@2@$0A@@std@@@2@PAU342@@Z 1000a8a0 f i PlugInLib:PlugInShell.obj
 0001:000098b0       ?_Parent@?$_Tree@V?$_Tmap_traits@V?$basic_string@DU?$char_traits@D@std@@V?$allocator@D@2@@std@@V12@U?$less@V?$basic_string@DU?$char_traits@D@std@@V?$allocator@D@2@@std@@@2@V?$allocator@U?$pair@$$CBV?$basic_string@DU?$char_traits@D@std@@V?$allocator@D@2@@std@@V12@@std@@@2@$0A@@std@@@std@@KAAAPAU_Node@?$_Tree_nod@V?$_Tmap_traits@V?$basic_string@DU?$char_traits@D@std@@V?$allocator@D@2@@std@@V12@U?$less@V?$basic_string@DU?$char_traits@D@std@@V?$allocator@D@2@@std@@@2@V?$allocator@U?$pair@$$CBV?$basic_string@DU?$char_traits@D@std@@V?$allocator@D@2@@std@@V12@@std@@@2@$0A@@std@@@2@PAU342@@Z 1000a8b0 f i PlugInLib:PlugInShell.obj
 0001:000098c0       ?_Right@?$_Tree@V?$_Tmap_traits@V?$basic_string@DU?$char_traits@D@std@@V?$allocator@D@2@@std@@V12@U?$less@V?$basic_string@DU?$char_traits@D@std@@V?$allocator@D@2@@std@@@2@V?$allocator@U?$pair@$$CBV?$basic_string@DU?$char_traits@D@std@@V?$allocator@D@2@@std@@V12@@std@@@2@$0A@@std@@@std@@KAAAPAU_Node@?$_Tree_nod@V?$_Tmap_traits@V?$basic_string@DU?$char_traits@D@std@@V?$allocator@D@2@@std@@V12@U?$less@V?$basic_string@DU?$char_traits@D@std@@V?$allocator@D@2@@std@@@2@V?$allocator@U?$pair@$$CBV?$basic_string@DU?$char_traits@D@std@@V?$allocator@D@2@@std@@V12@@std@@@2@$0A@@std@@@2@PAU342@@Z 1000a8c0 f i PlugInLib:PlugInShell.obj
 0001:000098d0       ?key_comp@?$_Tree@V?$_Tmap_traits@V?$basic_string@DU?$char_traits@D@std@@V?$allocator@D@2@@std@@V12@U?$less@V?$basic_string@DU?$char_traits@D@std@@V?$allocator@D@2@@std@@@2@V?$allocator@U?$pair@$$CBV?$basic_string@DU?$char_traits@D@std@@V?$allocator@D@2@@std@@V12@@std@@@2@$0A@@std@@@std@@QBE?AU?$less@V?$basic_string@DU?$char_traits@D@std@@V?$allocator@D@2@@std@@@2@XZ 1000a8d0 f i PlugInLib:PlugInShell.obj
 0001:000098e0       ?_Lmost@?$_Tree@V?$_Tmap_traits@V?$basic_string@DU?$char_traits@D@std@@V?$allocator@D@2@@std@@V12@U?$less@V?$basic_string@DU?$char_traits@D@std@@V?$allocator@D@2@@std@@@2@V?$allocator@U?$pair@$$CBV?$basic_string@DU?$char_traits@D@std@@V?$allocator@D@2@@std@@V12@@std@@@2@$0A@@std@@@std@@IBEAAPAU_Node@?$_Tree_nod@V?$_Tmap_traits@V?$basic_string@DU?$char_traits@D@std@@V?$allocator@D@2@@std@@V12@U?$less@V?$basic_string@DU?$char_traits@D@std@@V?$allocator@D@2@@std@@@2@V?$allocator@U?$pair@$$CBV?$basic_string@DU?$char_traits@D@std@@V?$allocator@D@2@@std@@V12@@std@@@2@$0A@@std@@@2@XZ 1000a8e0 f i PlugInLib:PlugInShell.obj
 0001:000098f0       ?_Max@?$_Tree@V?$_Tmap_traits@V?$basic_string@DU?$char_traits@D@std@@V?$allocator@D@2@@std@@V12@U?$less@V?$basic_string@DU?$char_traits@D@std@@V?$allocator@D@2@@std@@@2@V?$allocator@U?$pair@$$CBV?$basic_string@DU?$char_traits@D@std@@V?$allocator@D@2@@std@@V12@@std@@@2@$0A@@std@@@std@@KAPAU_Node@?$_Tree_nod@V?$_Tmap_traits@V?$basic_string@DU?$char_traits@D@std@@V?$allocator@D@2@@std@@V12@U?$less@V?$basic_string@DU?$char_traits@D@std@@V?$allocator@D@2@@std@@@2@V?$allocator@U?$pair@$$CBV?$basic_string@DU?$char_traits@D@std@@V?$allocator@D@2@@std@@V12@@std@@@2@$0A@@std@@@2@PAU342@@Z 1000a8f0 f i PlugInLib:PlugInShell.obj
 0001:00009910       ?_Min@?$_Tree@V?$_Tmap_traits@V?$basic_string@DU?$char_traits@D@std@@V?$allocator@D@2@@std@@V12@U?$less@V?$basic_string@DU?$char_traits@D@std@@V?$allocator@D@2@@std@@@2@V?$allocator@U?$pair@$$CBV?$basic_string@DU?$char_traits@D@std@@V?$allocator@D@2@@std@@V12@@std@@@2@$0A@@std@@@std@@KAPAU_Node@?$_Tree_nod@V?$_Tmap_traits@V?$basic_string@DU?$char_traits@D@std@@V?$allocator@D@2@@std@@V12@U?$less@V?$basic_string@DU?$char_traits@D@std@@V?$allocator@D@2@@std@@@2@V?$allocator@U?$pair@$$CBV?$basic_string@DU?$char_traits@D@std@@V?$allocator@D@2@@std@@V12@@std@@@2@$0A@@std@@@2@PAU342@@Z 1000a910 f i PlugInLib:PlugInShell.obj
 0001:00009930       ?_Rmost@?$_Tree@V?$_Tmap_traits@V?$basic_string@DU?$char_traits@D@std@@V?$allocator@D@2@@std@@V12@U?$less@V?$basic_string@DU?$char_traits@D@std@@V?$allocator@D@2@@std@@@2@V?$allocator@U?$pair@$$CBV?$basic_string@DU?$char_traits@D@std@@V?$allocator@D@2@@std@@V12@@std@@@2@$0A@@std@@@std@@IBEAAPAU_Node@?$_Tree_nod@V?$_Tmap_traits@V?$basic_string@DU?$char_traits@D@std@@V?$allocator@D@2@@std@@V12@U?$less@V?$basic_string@DU?$char_traits@D@std@@V?$allocator@D@2@@std@@@2@V?$allocator@U?$pair@$$CBV?$basic_string@DU?$char_traits@D@std@@V?$allocator@D@2@@std@@V12@@std@@@2@$0A@@std@@@2@XZ 1000a930 f i PlugInLib:PlugInShell.obj
 0001:00009940       ?_Root@?$_Tree@V?$_Tmap_traits@V?$basic_string@DU?$char_traits@D@std@@V?$allocator@D@2@@std@@V12@U?$less@V?$basic_string@DU?$char_traits@D@std@@V?$allocator@D@2@@std@@@2@V?$allocator@U?$pair@$$CBV?$basic_string@DU?$char_traits@D@std@@V?$allocator@D@2@@std@@V12@@std@@@2@$0A@@std@@@std@@IBEAAPAU_Node@?$_Tree_nod@V?$_Tmap_traits@V?$basic_string@DU?$char_traits@D@std@@V?$allocator@D@2@@std@@V12@U?$less@V?$basic_string@DU?$char_traits@D@std@@V?$allocator@D@2@@std@@@2@V?$allocator@U?$pair@$$CBV?$basic_string@DU?$char_traits@D@std@@V?$allocator@D@2@@std@@V12@@std@@@2@$0A@@std@@@2@XZ 1000a940 f i PlugInLib:PlugInShell.obj
 0001:00009950       ?_Rrotate@?$_Tree@V?$_Tmap_traits@V?$basic_string@DU?$char_traits@D@std@@V?$allocator@D@2@@std@@V12@U?$less@V?$basic_string@DU?$char_traits@D@std@@V?$allocator@D@2@@std@@@2@V?$allocator@U?$pair@$$CBV?$basic_string@DU?$char_traits@D@std@@V?$allocator@D@2@@std@@V12@@std@@@2@$0A@@std@@@std@@IAEXPAU_Node@?$_Tree_nod@V?$_Tmap_traits@V?$basic_string@DU?$char_traits@D@std@@V?$allocator@D@2@@std@@V12@U?$less@V?$basic_string@DU?$char_traits@D@std@@V?$allocator@D@2@@std@@@2@V?$allocator@U?$pair@$$CBV?$basic_string@DU?$char_traits@D@std@@V?$allocator@D@2@@std@@V12@@std@@@2@$0A@@std@@@2@@Z 1000a950 f i PlugInLib:PlugInShell.obj
 0001:000099b0       ??0?$allocator@U?$pair@$$CBV?$basic_string@DU?$char_traits@D@std@@V?$allocator@D@2@@std@@V12@@std@@@std@@QAE@XZ 1000a9b0 f i PlugInLib:PlugInShell.obj
 0001:000099c0       ??R?$less@V?$basic_string@DU?$char_traits@D@std@@V?$allocator@D@2@@std@@@std@@QBE_NABV?$basic_string@DU?$char_traits@D@std@@V?$allocator@D@2@@1@0@Z 1000a9c0 f i PlugInLib:PlugInShell.obj
 0001:000099e0       ?deallocate@?$allocator@U_Node@?$_Tree_nod@V?$_Tmap_traits@V?$basic_string@DU?$char_traits@D@std@@V?$allocator@D@2@@std@@V12@U?$less@V?$basic_string@DU?$char_traits@D@std@@V?$allocator@D@2@@std@@@2@V?$allocator@U?$pair@$$CBV?$basic_string@DU?$char_traits@D@std@@V?$allocator@D@2@@std@@V12@@std@@@2@$0A@@std@@@std@@@std@@QAEXPAU_Node@?$_Tree_nod@V?$_Tmap_traits@V?$basic_string@DU?$char_traits@D@std@@V?$allocator@D@2@@std@@V12@U?$less@V?$basic_string@DU?$char_traits@D@std@@V?$allocator@D@2@@std@@@2@V?$allocator@U?$pair@$$CBV?$basic_string@DU?$char_traits@D@std@@V?$allocator@D@2@@std@@V12@@std@@@2@$0A@@std@@@2@I@Z 1000a9e0 f i PlugInLib:PlugInShell.obj
 0001:000099f0       ??8const_iterator@?$_Tree@V?$_Tmap_traits@V?$basic_string@DU?$char_traits@D@std@@V?$allocator@D@2@@std@@V12@U?$less@V?$basic_string@DU?$char_traits@D@std@@V?$allocator@D@2@@std@@@2@V?$allocator@U?$pair@$$CBV?$basic_string@DU?$char_traits@D@std@@V?$allocator@D@2@@std@@V12@@std@@@2@$0A@@std@@@std@@QBE_NABV012@@Z 1000a9f0 f i PlugInLib:PlugInShell.obj
 0001:00009a20       ?_Mynode@const_iterator@?$_Tree@V?$_Tmap_traits@V?$basic_string@DU?$char_traits@D@std@@V?$allocator@D@2@@std@@V12@U?$less@V?$basic_string@DU?$char_traits@D@std@@V?$allocator@D@2@@std@@@2@V?$allocator@U?$pair@$$CBV?$basic_string@DU?$char_traits@D@std@@V?$allocator@D@2@@std@@V12@@std@@@2@$0A@@std@@@std@@QBEPAU_Node@?$_Tree_nod@V?$_Tmap_traits@V?$basic_string@DU?$char_traits@D@std@@V?$allocator@D@2@@std@@V12@U?$less@V?$basic_string@DU?$char_traits@D@std@@V?$allocator@D@2@@std@@@2@V?$allocator@U?$pair@$$CBV?$basic_string@DU?$char_traits@D@std@@V?$allocator@D@2@@std@@V12@@std@@@2@$0A@@std@@@3@XZ 1000aa20 f i PlugInLib:PlugInShell.obj
 0001:00009a30       ??0?$pair@$$CBV?$basic_string@DU?$char_traits@D@std@@V?$allocator@D@2@@std@@V12@@std@@QAE@ABV?$basic_string@DU?$char_traits@D@std@@V?$allocator@D@2@@1@0@Z 1000aa30 f i PlugInLib:PlugInShell.obj
 0001:00009a90       ?_Myval@?$_Tree@V?$_Tmap_traits@V?$basic_string@DU?$char_traits@D@std@@V?$allocator@D@2@@std@@V12@U?$less@V?$basic_string@DU?$char_traits@D@std@@V?$allocator@D@2@@std@@@2@V?$allocator@U?$pair@$$CBV?$basic_string@DU?$char_traits@D@std@@V?$allocator@D@2@@std@@V12@@std@@@2@$0A@@std@@@std@@KAAAU?$pair@$$CBV?$basic_string@DU?$char_traits@D@std@@V?$allocator@D@2@@std@@V12@@2@PAU_Node@?$_Tree_nod@V?$_Tmap_traits@V?$basic_string@DU?$char_traits@D@std@@V?$allocator@D@2@@std@@V12@U?$less@V?$basic_string@DU?$char_traits@D@std@@V?$allocator@D@2@@std@@@2@V?$allocator@U?$pair@$$CBV?$basic_string@DU?$char_traits@D@std@@V?$allocator@D@2@@std@@V12@@std@@@2@$0A@@std@@@2@@Z 1000aa90 f i PlugInLib:PlugInShell.obj
 0001:00009aa0       ?size@?$_Tree@V?$_Tmap_traits@V?$basic_string@DU?$char_traits@D@std@@V?$allocator@D@2@@std@@V12@U?$less@V?$basic_string@DU?$char_traits@D@std@@V?$allocator@D@2@@std@@@2@V?$allocator@U?$pair@$$CBV?$basic_string@DU?$char_traits@D@std@@V?$allocator@D@2@@std@@V12@@std@@@2@$0A@@std@@@std@@QBEIXZ 1000aaa0 f i PlugInLib:PlugInShell.obj
 0001:00009ab0       ?_Kfn@?$_Tmap_traits@V?$basic_string@DU?$char_traits@D@std@@V?$allocator@D@2@@std@@V12@U?$less@V?$basic_string@DU?$char_traits@D@std@@V?$allocator@D@2@@std@@@2@V?$allocator@U?$pair@$$CBV?$basic_string@DU?$char_traits@D@std@@V?$allocator@D@2@@std@@V12@@std@@@2@$0A@@std@@SAABV?$basic_string@DU?$char_traits@D@std@@V?$allocator@D@2@@2@ABU?$pair@$$CBV?$basic_string@DU?$char_traits@D@std@@V?$allocator@D@2@@std@@V12@@2@@Z 1000aab0 f i PlugInLib:PlugInShell.obj
 0001:00009ac0       ??0?$allocator@U?$pair@$$CBV?$basic_string@DU?$char_traits@D@std@@V?$allocator@D@2@@std@@V12@@std@@@std@@QAE@ABV01@@Z 1000aac0 f i PlugInLib:PlugInShell.obj
 0001:00009ad0       ?_Nextnode@?$list@UContextMenuAction@@V?$allocator@UContextMenuAction@@@std@@@std@@KAAAPAU_Node@?$_List_nod@UContextMenuAction@@V?$allocator@UContextMenuAction@@@std@@@2@PAU342@@Z 1000aad0 f i PlugInLib:PlugInShell.obj
 0001:00009ae0       ?_Prevnode@?$list@UContextMenuAction@@V?$allocator@UContextMenuAction@@@std@@@std@@KAAAPAU_Node@?$_List_nod@UContextMenuAction@@V?$allocator@UContextMenuAction@@@std@@@2@PAU342@@Z 1000aae0 f i PlugInLib:PlugInShell.obj
 0001:00009af0       ?deallocate@?$allocator@U_Node@?$_List_nod@UContextMenuAction@@V?$allocator@UContextMenuAction@@@std@@@std@@@std@@QAEXPAU_Node@?$_List_nod@UContextMenuAction@@V?$allocator@UContextMenuAction@@@std@@@2@I@Z 1000aaf0 f i PlugInLib:PlugInShell.obj
 0001:00009b00       ??Dconst_iterator@?$_Tree@V?$_Tmap_traits@V?$basic_string@DU?$char_traits@D@std@@V?$allocator@D@2@@std@@V12@U?$less@V?$basic_string@DU?$char_traits@D@std@@V?$allocator@D@2@@std@@@2@V?$allocator@U?$pair@$$CBV?$basic_string@DU?$char_traits@D@std@@V?$allocator@D@2@@std@@V12@@std@@@2@$0A@@std@@@std@@QBEABU?$pair@$$CBV?$basic_string@DU?$char_traits@D@std@@V?$allocator@D@2@@std@@V12@@2@XZ 1000ab00 f i PlugInLib:PlugInShell.obj
 0001:00009b30       ??0?$_Bidit@U?$pair@$$CBV?$basic_string@DU?$char_traits@D@std@@V?$allocator@D@2@@std@@V12@@std@@HPBU12@ABU12@@std@@QAE@XZ 1000ab30 f i PlugInLib:PlugInShell.obj
 0001:00009b40       ??0const_iterator@?$_Tree@V?$_Tmap_traits@V?$basic_string@DU?$char_traits@D@std@@V?$allocator@D@2@@std@@V12@U?$less@V?$basic_string@DU?$char_traits@D@std@@V?$allocator@D@2@@std@@@2@V?$allocator@U?$pair@$$CBV?$basic_string@DU?$char_traits@D@std@@V?$allocator@D@2@@std@@V12@@std@@@2@$0A@@std@@@std@@QAE@XZ 1000ab40 f i PlugInLib:PlugInShell.obj
 0001:00009b50       ?_Inc@const_iterator@?$_Tree@V?$_Tmap_traits@V?$basic_string@DU?$char_traits@D@std@@V?$allocator@D@2@@std@@V12@U?$less@V?$basic_string@DU?$char_traits@D@std@@V?$allocator@D@2@@std@@@2@V?$allocator@U?$pair@$$CBV?$basic_string@DU?$char_traits@D@std@@V?$allocator@D@2@@std@@V12@@std@@@2@$0A@@std@@@std@@QAEXXZ 1000ab50 f i PlugInLib:PlugInShell.obj
 0001:00009bc0       ??0?$pair@Viterator@?$_Tree@V?$_Tmap_traits@V?$basic_string@DU?$char_traits@D@std@@V?$allocator@D@2@@std@@V12@U?$less@V?$basic_string@DU?$char_traits@D@std@@V?$allocator@D@2@@std@@@2@V?$allocator@U?$pair@$$CBV?$basic_string@DU?$char_traits@D@std@@V?$allocator@D@2@@std@@V12@@std@@@2@$0A@@std@@@std@@_N@std@@QAE@ABViterator@?$_Tree@V?$_Tmap_traits@V?$basic_string@DU?$char_traits@D@std@@V?$allocator@D@2@@std@@V12@U?$less@V?$basic_string@DU?$char_traits@D@std@@V?$allocator@D@2@@std@@@2@V?$allocator@U?$pair@$$CBV?$basic_string@DU?$char_traits@D@std@@V?$allocator@D@2@@std@@V12@@std@@@2@$0A@@std@@@1@AB_N@Z 1000abc0 f i PlugInLib:PlugInShell.obj
 0001:00009be0       ??0?$_Tmap_traits@V?$basic_string@DU?$char_traits@D@std@@V?$allocator@D@2@@std@@V12@U?$less@V?$basic_string@DU?$char_traits@D@std@@V?$allocator@D@2@@std@@@2@V?$allocator@U?$pair@$$CBV?$basic_string@DU?$char_traits@D@std@@V?$allocator@D@2@@std@@V12@@std@@@2@$0A@@std@@QAE@U?$less@V?$basic_string@DU?$char_traits@D@std@@V?$allocator@D@2@@std@@@1@@Z 1000abe0 f i PlugInLib:PlugInShell.obj
 0001:00009bf0       ?max_size@?$allocator@U?$pair@$$CBV?$basic_string@DU?$char_traits@D@std@@V?$allocator@D@2@@std@@V12@@std@@@std@@QBEIXZ 1000abf0 f i PlugInLib:PlugInShell.obj
 0001:00009c00       ?_Dec@const_iterator@?$_Tree@V?$_Tmap_traits@V?$basic_string@DU?$char_traits@D@std@@V?$allocator@D@2@@std@@V12@U?$less@V?$basic_string@DU?$char_traits@D@std@@V?$allocator@D@2@@std@@@2@V?$allocator@U?$pair@$$CBV?$basic_string@DU?$char_traits@D@std@@V?$allocator@D@2@@std@@V12@@std@@@2@$0A@@std@@@std@@QAEXXZ 1000ac00 f i PlugInLib:PlugInShell.obj
 0001:00009c90       ??0?$pair@$$CBV?$basic_string@DU?$char_traits@D@std@@V?$allocator@D@2@@std@@V12@@std@@QAE@ABU01@@Z 1000ac90 f i PlugInLib:PlugInShell.obj
 0001:00009cf0       ??$swap@D@std@@YAXAAD0@Z   1000acf0 f i PlugInLib:PlugInShell.obj
 0001:00009d10       ??$?0U?$pair@$$CBV?$basic_string@DU?$char_traits@D@std@@V?$allocator@D@2@@std@@V12@@std@@@?$allocator@PAU_Node@?$_Tree_nod@V?$_Tmap_traits@V?$basic_string@DU?$char_traits@D@std@@V?$allocator@D@2@@std@@V12@U?$less@V?$basic_string@DU?$char_traits@D@std@@V?$allocator@D@2@@std@@@2@V?$allocator@U?$pair@$$CBV?$basic_string@DU?$char_traits@D@std@@V?$allocator@D@2@@std@@V12@@std@@@2@$0A@@std@@@std@@@std@@QAE@ABV?$allocator@U?$pair@$$CBV?$basic_string@DU?$char_traits@D@std@@V?$allocator@D@2@@std@@V12@@std@@@1@@Z 1000ad10 f i PlugInLib:PlugInShell.obj
 0001:00009d20       ??$_Destroy@PAU_Node@?$_Tree_nod@V?$_Tmap_traits@V?$basic_string@DU?$char_traits@D@std@@V?$allocator@D@2@@std@@V12@U?$less@V?$basic_string@DU?$char_traits@D@std@@V?$allocator@D@2@@std@@@2@V?$allocator@U?$pair@$$CBV?$basic_string@DU?$char_traits@D@std@@V?$allocator@D@2@@std@@V12@@std@@@2@$0A@@std@@@std@@@std@@YAXPAPAU_Node@?$_Tree_nod@V?$_Tmap_traits@V?$basic_string@DU?$char_traits@D@std@@V?$allocator@D@2@@std@@V12@U?$less@V?$basic_string@DU?$char_traits@D@std@@V?$allocator@D@2@@std@@@2@V?$allocator@U?$pair@$$CBV?$basic_string@DU?$char_traits@D@std@@V?$allocator@D@2@@std@@V12@@std@@@2@$0A@@std@@@0@@Z 1000ad20 f i PlugInLib:PlugInShell.obj
 0001:00009d30       ??$_Destroy@PAU_Node@?$_List_nod@UContextMenuAction@@V?$allocator@UContextMenuAction@@@std@@@std@@@std@@YAXPAPAU_Node@?$_List_nod@UContextMenuAction@@V?$allocator@UContextMenuAction@@@std@@@0@@Z 1000ad30 f i PlugInLib:PlugInShell.obj
 0001:00009d40       ??$?0U?$pair@$$CBV?$basic_string@DU?$char_traits@D@std@@V?$allocator@D@2@@std@@V12@@std@@@?$allocator@U_Node@?$_Tree_nod@V?$_Tmap_traits@V?$basic_string@DU?$char_traits@D@std@@V?$allocator@D@2@@std@@V12@U?$less@V?$basic_string@DU?$char_traits@D@std@@V?$allocator@D@2@@std@@@2@V?$allocator@U?$pair@$$CBV?$basic_string@DU?$char_traits@D@std@@V?$allocator@D@2@@std@@V12@@std@@@2@$0A@@std@@@std@@@std@@QAE@ABV?$allocator@U?$pair@$$CBV?$basic_string@DU?$char_traits@D@std@@V?$allocator@D@2@@std@@V12@@std@@@1@@Z 1000ad40 f i PlugInLib:PlugInShell.obj
 0001:00009d50       ??$_Allocate@U_Node@?$_Tree_nod@V?$_Tmap_traits@V?$basic_string@DU?$char_traits@D@std@@V?$allocator@D@2@@std@@V12@U?$less@V?$basic_string@DU?$char_traits@D@std@@V?$allocator@D@2@@std@@@2@V?$allocator@U?$pair@$$CBV?$basic_string@DU?$char_traits@D@std@@V?$allocator@D@2@@std@@V12@@std@@@2@$0A@@std@@@std@@@std@@YAPAU_Node@?$_Tree_nod@V?$_Tmap_traits@V?$basic_string@DU?$char_traits@D@std@@V?$allocator@D@2@@std@@V12@U?$less@V?$basic_string@DU?$char_traits@D@std@@V?$allocator@D@2@@std@@@2@V?$allocator@U?$pair@$$CBV?$basic_string@DU?$char_traits@D@std@@V?$allocator@D@2@@std@@V12@@std@@@2@$0A@@std@@@0@IPAU120@@Z 1000ad50 f i PlugInLib:PlugInShell.obj
 0001:00009db0       ??$_Construct@PAU_Node@?$_Tree_nod@V?$_Tmap_traits@V?$basic_string@DU?$char_traits@D@std@@V?$allocator@D@2@@std@@V12@U?$less@V?$basic_string@DU?$char_traits@D@std@@V?$allocator@D@2@@std@@@2@V?$allocator@U?$pair@$$CBV?$basic_string@DU?$char_traits@D@std@@V?$allocator@D@2@@std@@V12@@std@@@2@$0A@@std@@@std@@PAU123@@std@@YAXPAPAU_Node@?$_Tree_nod@V?$_Tmap_traits@V?$basic_string@DU?$char_traits@D@std@@V?$allocator@D@2@@std@@V12@U?$less@V?$basic_string@DU?$char_traits@D@std@@V?$allocator@D@2@@std@@@2@V?$allocator@U?$pair@$$CBV?$basic_string@DU?$char_traits@D@std@@V?$allocator@D@2@@std@@V12@@std@@@2@$0A@@std@@@0@ABQAU120@@Z 1000adb0 f i PlugInLib:PlugInShell.obj
 0001:00009dd0       ??1_Node@?$_Tree_nod@V?$_Tmap_traits@V?$basic_string@DU?$char_traits@D@std@@V?$allocator@D@2@@std@@V12@U?$less@V?$basic_string@DU?$char_traits@D@std@@V?$allocator@D@2@@std@@@2@V?$allocator@U?$pair@$$CBV?$basic_string@DU?$char_traits@D@std@@V?$allocator@D@2@@std@@V12@@std@@@2@$0A@@std@@@std@@QAE@XZ 1000add0 f i PlugInLib:PlugInShell.obj
 0001:00009de0       ??1ContextMenuAction@@QAE@XZ 1000ade0 f i PlugInLib:PlugInShell.obj
 0001:00009e30       ??0PlugIn@@QAE@XZ          1000ae30 f i PlugInLib:PlugInShell.obj
 0001:00009e40       ??_GPlugIn@@MAEPAXI@Z      1000ae40 f i PlugInLib:PlugInShell.obj
 0001:00009e40       ??_EPlugIn@@MAEPAXI@Z      1000ae40 f i PlugInLib:PlugInShell.obj
 0001:00009e60       ?getId@PlugInShell@@UBEABV?$basic_string@DU?$char_traits@D@std@@V?$allocator@D@2@@std@@XZ 1000ae60 f   PlugInLib:PlugInShell.obj
 0001:00009e70       ?getIcon@PlugInShell@@UBEABVQIcon@@XZ 1000ae70 f   PlugInLib:PlugInShell.obj
 0001:00009e80       ?getName@PlugInShell@@UBEABV?$basic_string@DU?$char_traits@D@std@@V?$allocator@D@2@@std@@XZ 1000ae80 f   PlugInLib:PlugInShell.obj
 0001:00009e90       ?getDisplayName@PlugInShell@@UBEABV?$basic_string@DU?$char_traits@D@std@@V?$allocator@D@2@@std@@XZ 1000ae90 f   PlugInLib:PlugInShell.obj
 0001:00009ea0       ?getDisplayText@PlugInShell@@UBEABV?$basic_string@DU?$char_traits@D@std@@V?$allocator@D@2@@std@@XZ 1000aea0 f   PlugInLib:PlugInShell.obj
 0001:00009eb0       ?hasFilenameDisplay@PlugInShell@@UBE_NXZ 1000aeb0 f   PlugInLib:PlugInShell.obj
 0001:00009ec0       ?setId@PlugInShell@@UAE_NABVSessionItemId@@@Z 1000aec0 f   PlugInLib:PlugInShell.obj
 0001:00009ed0       ?setName@PlugInShell@@IAEXABV?$basic_string@DU?$char_traits@D@std@@V?$allocator@D@2@@std@@@Z 1000aed0 f   PlugInLib:PlugInShell.obj
 0001:00009ee0       ?setDisplayName@PlugInShell@@IAEXABV?$basic_string@DU?$char_traits@D@std@@V?$allocator@D@2@@std@@@Z 1000aee0 f   PlugInLib:PlugInShell.obj
 0001:00009ef0       ?setDisplayText@PlugInShell@@IAEXABV?$basic_string@DU?$char_traits@D@std@@V?$allocator@D@2@@std@@@Z 1000aef0 f   PlugInLib:PlugInShell.obj
 0001:00009f00       ?addContextMenuAction@PlugInShell@@IAEXABUContextMenuAction@@@Z 1000af00 f   PlugInLib:PlugInShell.obj
 0001:00009f10       ?setContextMenuActions@PlugInShell@@IAEXABV?$list@UContextMenuAction@@V?$allocator@UContextMenuAction@@@std@@@std@@@Z 1000af10 f   PlugInLib:PlugInShell.obj
 0001:00009f20       ?setFilenameDisplay@PlugInShell@@IAEX_N@Z 1000af20 f   PlugInLib:PlugInShell.obj
 0001:00009f30       ?addPropertiesPage@PlugInShell@@IAEXABV?$basic_string@DU?$char_traits@D@std@@V?$allocator@D@2@@std@@@Z 1000af30 f   PlugInLib:PlugInShell.obj
 0001:00009f40       ?removePropertiesPage@PlugInShell@@IAEXABV?$basic_string@DU?$char_traits@D@std@@V?$allocator@D@2@@std@@@Z 1000af40 f   PlugInLib:PlugInShell.obj
 0001:00009f50       ?setPropertiesPages@PlugInShell@@IAEXABV?$vector@V?$basic_string@DU?$char_traits@D@std@@V?$allocator@D@2@@std@@V?$allocator@V?$basic_string@DU?$char_traits@D@std@@V?$allocator@D@2@@std@@@2@@std@@@Z 1000af50 f   PlugInLib:PlugInShell.obj
 0001:00009f60       ?isValidSessionSaveItem@PlugInShell@@UBE_NXZ 1000af60 f   PlugInLib:PlugInShell.obj
 0001:00009fb0       ?setValidSessionSaveItem@PlugInShell@@IAEX_N@Z 1000afb0 f   PlugInLib:PlugInShell.obj
 0001:0000a000       ??9const_iterator@?$_Tree@V?$_Tmap_traits@V?$basic_string@DU?$char_traits@D@std@@V?$allocator@D@2@@std@@V12@U?$less@V?$basic_string@DU?$char_traits@D@std@@V?$allocator@D@2@@std@@@2@V?$allocator@U?$pair@$$CBV?$basic_string@DU?$char_traits@D@std@@V?$allocator@D@2@@std@@V12@@std@@@2@$0A@@std@@@std@@QBE_NABV012@@Z 1000b000 f i PlugInLib:PlugInShell.obj
 0001:0000a030       ??0?$Resource@VSettableSessionItem@@VFactoryObject@@@@QAE@ABVArgs@FactoryAllocator@@@Z 1000b030 f i PlugInLib:PlugInShell.obj
 0001:0000a090       ?destroyIfOwned@?$Resource@VSettableSessionItem@@VFactoryObject@@@@IAEXXZ 1000b090 f i PlugInLib:PlugInShell.obj
 0001:0000a0c0       ?_Key@?$_Tree@V?$_Tmap_traits@V?$basic_string@DU?$char_traits@D@std@@V?$allocator@D@2@@std@@V12@U?$less@V?$basic_string@DU?$char_traits@D@std@@V?$allocator@D@2@@std@@@2@V?$allocator@U?$pair@$$CBV?$basic_string@DU?$char_traits@D@std@@V?$allocator@D@2@@std@@V12@@std@@@2@$0A@@std@@@std@@KAABV?$basic_string@DU?$char_traits@D@std@@V?$allocator@D@2@@2@PAU_Node@?$_Tree_nod@V?$_Tmap_traits@V?$basic_string@DU?$char_traits@D@std@@V?$allocator@D@2@@std@@V12@U?$less@V?$basic_string@DU?$char_traits@D@std@@V?$allocator@D@2@@std@@@2@V?$allocator@U?$pair@$$CBV?$basic_string@DU?$char_traits@D@std@@V?$allocator@D@2@@std@@V12@@std@@@2@$0A@@std@@@2@@Z 1000b0c0 f i PlugInLib:PlugInShell.obj
 0001:0000a0d0       ?get_allocator@?$_Tree@V?$_Tmap_traits@V?$basic_string@DU?$char_traits@D@std@@V?$allocator@D@2@@std@@V12@U?$less@V?$basic_string@DU?$char_traits@D@std@@V?$allocator@D@2@@std@@@2@V?$allocator@U?$pair@$$CBV?$basic_string@DU?$char_traits@D@std@@V?$allocator@D@2@@std@@V12@@std@@@2@$0A@@std@@@std@@QBE?AV?$allocator@U?$pair@$$CBV?$basic_string@DU?$char_traits@D@std@@V?$allocator@D@2@@std@@V12@@std@@@2@XZ 1000b0d0 f i PlugInLib:PlugInShell.obj
 0001:0000a0e0       ?_Lrotate@?$_Tree@V?$_Tmap_traits@V?$basic_string@DU?$char_traits@D@std@@V?$allocator@D@2@@std@@V12@U?$less@V?$basic_string@DU?$char_traits@D@std@@V?$allocator@D@2@@std@@@2@V?$allocator@U?$pair@$$CBV?$basic_string@DU?$char_traits@D@std@@V?$allocator@D@2@@std@@V12@@std@@@2@$0A@@std@@@std@@IAEXPAU_Node@?$_Tree_nod@V?$_Tmap_traits@V?$basic_string@DU?$char_traits@D@std@@V?$allocator@D@2@@std@@V12@U?$less@V?$basic_string@DU?$char_traits@D@std@@V?$allocator@D@2@@std@@@2@V?$allocator@U?$pair@$$CBV?$basic_string@DU?$char_traits@D@std@@V?$allocator@D@2@@std@@V12@@std@@@2@$0A@@std@@@2@@Z 1000b0e0 f i PlugInLib:PlugInShell.obj
 0001:0000a130       ??Diterator@?$_Tree@V?$_Tmap_traits@V?$basic_string@DU?$char_traits@D@std@@V?$allocator@D@2@@std@@V12@U?$less@V?$basic_string@DU?$char_traits@D@std@@V?$allocator@D@2@@std@@@2@V?$allocator@U?$pair@$$CBV?$basic_string@DU?$char_traits@D@std@@V?$allocator@D@2@@std@@V12@@std@@@2@$0A@@std@@@std@@QBEAAU?$pair@$$CBV?$basic_string@DU?$char_traits@D@std@@V?$allocator@D@2@@std@@V12@@2@XZ 1000b130 f i PlugInLib:PlugInShell.obj
 0001:0000a160       ?_Lbound@?$_Tree@V?$_Tmap_traits@V?$basic_string@DU?$char_traits@D@std@@V?$allocator@D@2@@std@@V12@U?$less@V?$basic_string@DU?$char_traits@D@std@@V?$allocator@D@2@@std@@@2@V?$allocator@U?$pair@$$CBV?$basic_string@DU?$char_traits@D@std@@V?$allocator@D@2@@std@@V12@@std@@@2@$0A@@std@@@std@@IBEPAU_Node@?$_Tree_nod@V?$_Tmap_traits@V?$basic_string@DU?$char_traits@D@std@@V?$allocator@D@2@@std@@V12@U?$less@V?$basic_string@DU?$char_traits@D@std@@V?$allocator@D@2@@std@@@2@V?$allocator@U?$pair@$$CBV?$basic_string@DU?$char_traits@D@std@@V?$allocator@D@2@@std@@V12@@std@@@2@$0A@@std@@@2@ABV?$basic_string@DU?$char_traits@D@std@@V?$allocator@D@2@@2@@Z 1000b160 f i PlugInLib:PlugInShell.obj
 0001:0000a1b0       ?destroy@?$allocator@PAU_Node@?$_Tree_nod@V?$_Tmap_traits@V?$basic_string@DU?$char_traits@D@std@@V?$allocator@D@2@@std@@V12@U?$less@V?$basic_string@DU?$char_traits@D@std@@V?$allocator@D@2@@std@@@2@V?$allocator@U?$pair@$$CBV?$basic_string@DU?$char_traits@D@std@@V?$allocator@D@2@@std@@V12@@std@@@2@$0A@@std@@@std@@@std@@QAEXPAPAU_Node@?$_Tree_nod@V?$_Tmap_traits@V?$basic_string@DU?$char_traits@D@std@@V?$allocator@D@2@@std@@V12@U?$less@V?$basic_string@DU?$char_traits@D@std@@V?$allocator@D@2@@std@@@2@V?$allocator@U?$pair@$$CBV?$basic_string@DU?$char_traits@D@std@@V?$allocator@D@2@@std@@V12@@std@@@2@$0A@@std@@@2@@Z 1000b1b0 f i PlugInLib:PlugInShell.obj
 0001:0000a1c0       ?destroy@?$allocator@PAU_Node@?$_List_nod@UContextMenuAction@@V?$allocator@UContextMenuAction@@@std@@@std@@@std@@QAEXPAPAU_Node@?$_List_nod@UContextMenuAction@@V?$allocator@UContextMenuAction@@@std@@@2@@Z 1000b1c0 f i PlugInLib:PlugInShell.obj
 0001:0000a1d0       ??0iterator@?$_Tree@V?$_Tmap_traits@V?$basic_string@DU?$char_traits@D@std@@V?$allocator@D@2@@std@@V12@U?$less@V?$basic_string@DU?$char_traits@D@std@@V?$allocator@D@2@@std@@@2@V?$allocator@U?$pair@$$CBV?$basic_string@DU?$char_traits@D@std@@V?$allocator@D@2@@std@@V12@@std@@@2@$0A@@std@@@std@@QAE@XZ 1000b1d0 f i PlugInLib:PlugInShell.obj
 0001:0000a1e0       ??0const_iterator@?$_Tree@V?$_Tmap_traits@V?$basic_string@DU?$char_traits@D@std@@V?$allocator@D@2@@std@@V12@U?$less@V?$basic_string@DU?$char_traits@D@std@@V?$allocator@D@2@@std@@@2@V?$allocator@U?$pair@$$CBV?$basic_string@DU?$char_traits@D@std@@V?$allocator@D@2@@std@@V12@@std@@@2@$0A@@std@@@std@@QAE@PAU_Node@?$_Tree_nod@V?$_Tmap_traits@V?$basic_string@DU?$char_traits@D@std@@V?$allocator@D@2@@std@@V12@U?$less@V?$basic_string@DU?$char_traits@D@std@@V?$allocator@D@2@@std@@@2@V?$allocator@U?$pair@$$CBV?$basic_string@DU?$char_traits@D@std@@V?$allocator@D@2@@std@@V12@@std@@@2@$0A@@std@@@2@PBV12@@Z 1000b1e0 f i PlugInLib:PlugInShell.obj
 0001:0000a210       ??Econst_iterator@?$_Tree@V?$_Tmap_traits@V?$basic_string@DU?$char_traits@D@std@@V?$allocator@D@2@@std@@V12@U?$less@V?$basic_string@DU?$char_traits@D@std@@V?$allocator@D@2@@std@@@2@V?$allocator@U?$pair@$$CBV?$basic_string@DU?$char_traits@D@std@@V?$allocator@D@2@@std@@V12@@std@@@2@$0A@@std@@@std@@QAEAAV012@XZ 1000b210 f i PlugInLib:PlugInShell.obj
 0001:0000a220       ?max_size@?$_Tree@V?$_Tmap_traits@V?$basic_string@DU?$char_traits@D@std@@V?$allocator@D@2@@std@@V12@U?$less@V?$basic_string@DU?$char_traits@D@std@@V?$allocator@D@2@@std@@@2@V?$allocator@U?$pair@$$CBV?$basic_string@DU?$char_traits@D@std@@V?$allocator@D@2@@std@@V12@@std@@@2@$0A@@std@@@std@@QBEIXZ 1000b220 f i PlugInLib:PlugInShell.obj
 0001:0000a230       ??0?$_Tree_nod@V?$_Tmap_traits@V?$basic_string@DU?$char_traits@D@std@@V?$allocator@D@2@@std@@V12@U?$less@V?$basic_string@DU?$char_traits@D@std@@V?$allocator@D@2@@std@@@2@V?$allocator@U?$pair@$$CBV?$basic_string@DU?$char_traits@D@std@@V?$allocator@D@2@@std@@V12@@std@@@2@$0A@@std@@@std@@IAE@ABU?$less@V?$basic_string@DU?$char_traits@D@std@@V?$allocator@D@2@@std@@@1@V?$allocator@U?$pair@$$CBV?$basic_string@DU?$char_traits@D@std@@V?$allocator@D@2@@std@@V12@@std@@@1@@Z 1000b230 f i PlugInLib:PlugInShell.obj
 0001:0000a240       ?allocate@?$allocator@U_Node@?$_Tree_nod@V?$_Tmap_traits@V?$basic_string@DU?$char_traits@D@std@@V?$allocator@D@2@@std@@V12@U?$less@V?$basic_string@DU?$char_traits@D@std@@V?$allocator@D@2@@std@@@2@V?$allocator@U?$pair@$$CBV?$basic_string@DU?$char_traits@D@std@@V?$allocator@D@2@@std@@V12@@std@@@2@$0A@@std@@@std@@@std@@QAEPAU_Node@?$_Tree_nod@V?$_Tmap_traits@V?$basic_string@DU?$char_traits@D@std@@V?$allocator@D@2@@std@@V12@U?$less@V?$basic_string@DU?$char_traits@D@std@@V?$allocator@D@2@@std@@@2@V?$allocator@U?$pair@$$CBV?$basic_string@DU?$char_traits@D@std@@V?$allocator@D@2@@std@@V12@@std@@@2@$0A@@std@@@2@I@Z 1000b240 f i PlugInLib:PlugInShell.obj
 0001:0000a260       ?construct@?$allocator@PAU_Node@?$_Tree_nod@V?$_Tmap_traits@V?$basic_string@DU?$char_traits@D@std@@V?$allocator@D@2@@std@@V12@U?$less@V?$basic_string@DU?$char_traits@D@std@@V?$allocator@D@2@@std@@@2@V?$allocator@U?$pair@$$CBV?$basic_string@DU?$char_traits@D@std@@V?$allocator@D@2@@std@@V12@@std@@@2@$0A@@std@@@std@@@std@@QAEXPAPAU_Node@?$_Tree_nod@V?$_Tmap_traits@V?$basic_string@DU?$char_traits@D@std@@V?$allocator@D@2@@std@@V12@U?$less@V?$basic_string@DU?$char_traits@D@std@@V?$allocator@D@2@@std@@@2@V?$allocator@U?$pair@$$CBV?$basic_string@DU?$char_traits@D@std@@V?$allocator@D@2@@std@@V12@@std@@@2@$0A@@std@@@2@ABQAU342@@Z 1000b260 f i PlugInLib:PlugInShell.obj
 0001:0000a280       ??Fconst_iterator@?$_Tree@V?$_Tmap_traits@V?$basic_string@DU?$char_traits@D@std@@V?$allocator@D@2@@std@@V12@U?$less@V?$basic_string@DU?$char_traits@D@std@@V?$allocator@D@2@@std@@@2@V?$allocator@U?$pair@$$CBV?$basic_string@DU?$char_traits@D@std@@V?$allocator@D@2@@std@@V12@@std@@@2@$0A@@std@@@std@@QAEAAV012@XZ 1000b280 f i PlugInLib:PlugInShell.obj
 0001:0000a290       ??0_Node@?$_Tree_nod@V?$_Tmap_traits@V?$basic_string@DU?$char_traits@D@std@@V?$allocator@D@2@@std@@V12@U?$less@V?$basic_string@DU?$char_traits@D@std@@V?$allocator@D@2@@std@@@2@V?$allocator@U?$pair@$$CBV?$basic_string@DU?$char_traits@D@std@@V?$allocator@D@2@@std@@V12@@std@@@2@$0A@@std@@@std@@QAE@PAU012@00ABU?$pair@$$CBV?$basic_string@DU?$char_traits@D@std@@V?$allocator@D@2@@std@@V12@@2@D@Z 1000b290 f i PlugInLib:PlugInShell.obj
 0001:0000a2d0       ??_G_Node@?$_Tree_nod@V?$_Tmap_traits@V?$basic_string@DU?$char_traits@D@std@@V?$allocator@D@2@@std@@V12@U?$less@V?$basic_string@DU?$char_traits@D@std@@V?$allocator@D@2@@std@@@2@V?$allocator@U?$pair@$$CBV?$basic_string@DU?$char_traits@D@std@@V?$allocator@D@2@@std@@V12@@std@@@2@$0A@@std@@@std@@QAEPAXI@Z 1000b2d0 f i PlugInLib:PlugInShell.obj
 0001:0000a300       ??1_Node@?$_List_nod@UContextMenuAction@@V?$allocator@UContextMenuAction@@@std@@@std@@QAE@XZ 1000b300 f i PlugInLib:PlugInShell.obj
 0001:0000a310       ??1?$Resource@VSettableSessionItem@@VFactoryObject@@@@UAE@XZ 1000b310 f i PlugInLib:PlugInShell.obj
 0001:0000a390       ??_G?$Resource@VSettableSessionItem@@VFactoryObject@@@@UAEPAXI@Z 1000b390 f i PlugInLib:PlugInShell.obj
 0001:0000a390       ??_E?$Resource@VSettableSessionItem@@VFactoryObject@@@@UAEPAXI@Z 1000b390 f i PlugInLib:PlugInShell.obj
 0001:0000a3b0       ??0iterator@?$_Tree@V?$_Tmap_traits@V?$basic_string@DU?$char_traits@D@std@@V?$allocator@D@2@@std@@V12@U?$less@V?$basic_string@DU?$char_traits@D@std@@V?$allocator@D@2@@std@@@2@V?$allocator@U?$pair@$$CBV?$basic_string@DU?$char_traits@D@std@@V?$allocator@D@2@@std@@V12@@std@@@2@$0A@@std@@@std@@QAE@PAU_Node@?$_Tree_nod@V?$_Tmap_traits@V?$basic_string@DU?$char_traits@D@std@@V?$allocator@D@2@@std@@V12@U?$less@V?$basic_string@DU?$char_traits@D@std@@V?$allocator@D@2@@std@@@2@V?$allocator@U?$pair@$$CBV?$basic_string@DU?$char_traits@D@std@@V?$allocator@D@2@@std@@V12@@std@@@2@$0A@@std@@@2@PBV12@@Z 1000b3b0 f i PlugInLib:PlugInShell.obj
 0001:0000a3e0       ??Eiterator@?$_Tree@V?$_Tmap_traits@V?$basic_string@DU?$char_traits@D@std@@V?$allocator@D@2@@std@@V12@U?$less@V?$basic_string@DU?$char_traits@D@std@@V?$allocator@D@2@@std@@@2@V?$allocator@U?$pair@$$CBV?$basic_string@DU?$char_traits@D@std@@V?$allocator@D@2@@std@@V12@@std@@@2@$0A@@std@@@std@@QAEAAV012@XZ 1000b3e0 f i PlugInLib:PlugInShell.obj
 0001:0000a3f0       ?begin@?$_Tree@V?$_Tmap_traits@V?$basic_string@DU?$char_traits@D@std@@V?$allocator@D@2@@std@@V12@U?$less@V?$basic_string@DU?$char_traits@D@std@@V?$allocator@D@2@@std@@@2@V?$allocator@U?$pair@$$CBV?$basic_string@DU?$char_traits@D@std@@V?$allocator@D@2@@std@@V12@@std@@@2@$0A@@std@@@std@@QAE?AViterator@12@XZ 1000b3f0 f i PlugInLib:PlugInShell.obj
 0001:0000a410       ?_Buynode@?$_Tree@V?$_Tmap_traits@V?$basic_string@DU?$char_traits@D@std@@V?$allocator@D@2@@std@@V12@U?$less@V?$basic_string@DU?$char_traits@D@std@@V?$allocator@D@2@@std@@@2@V?$allocator@U?$pair@$$CBV?$basic_string@DU?$char_traits@D@std@@V?$allocator@D@2@@std@@V12@@std@@@2@$0A@@std@@@std@@IAEPAU_Node@?$_Tree_nod@V?$_Tmap_traits@V?$basic_string@DU?$char_traits@D@std@@V?$allocator@D@2@@std@@V12@U?$less@V?$basic_string@DU?$char_traits@D@std@@V?$allocator@D@2@@std@@@2@V?$allocator@U?$pair@$$CBV?$basic_string@DU?$char_traits@D@std@@V?$allocator@D@2@@std@@V12@@std@@@2@$0A@@std@@@2@XZ 1000b410 f i PlugInLib:PlugInShell.obj
 0001:0000a450       ??0?$_Tree_ptr@V?$_Tmap_traits@V?$basic_string@DU?$char_traits@D@std@@V?$allocator@D@2@@std@@V12@U?$less@V?$basic_string@DU?$char_traits@D@std@@V?$allocator@D@2@@std@@@2@V?$allocator@U?$pair@$$CBV?$basic_string@DU?$char_traits@D@std@@V?$allocator@D@2@@std@@V12@@std@@@2@$0A@@std@@@std@@IAE@ABU?$less@V?$basic_string@DU?$char_traits@D@std@@V?$allocator@D@2@@std@@@1@V?$allocator@U?$pair@$$CBV?$basic_string@DU?$char_traits@D@std@@V?$allocator@D@2@@std@@V12@@std@@@1@@Z 1000b450 f i PlugInLib:PlugInShell.obj
 0001:0000a460       ??Fiterator@?$_Tree@V?$_Tmap_traits@V?$basic_string@DU?$char_traits@D@std@@V?$allocator@D@2@@std@@V12@U?$less@V?$basic_string@DU?$char_traits@D@std@@V?$allocator@D@2@@std@@@2@V?$allocator@U?$pair@$$CBV?$basic_string@DU?$char_traits@D@std@@V?$allocator@D@2@@std@@V12@@std@@@2@$0A@@std@@@std@@QAEAAV012@XZ 1000b460 f i PlugInLib:PlugInShell.obj
 0001:0000a470       ?_Buynode@?$_Tree@V?$_Tmap_traits@V?$basic_string@DU?$char_traits@D@std@@V?$allocator@D@2@@std@@V12@U?$less@V?$basic_string@DU?$char_traits@D@std@@V?$allocator@D@2@@std@@@2@V?$allocator@U?$pair@$$CBV?$basic_string@DU?$char_traits@D@std@@V?$allocator@D@2@@std@@V12@@std@@@2@$0A@@std@@@std@@IAEPAU_Node@?$_Tree_nod@V?$_Tmap_traits@V?$basic_string@DU?$char_traits@D@std@@V?$allocator@D@2@@std@@V12@U?$less@V?$basic_string@DU?$char_traits@D@std@@V?$allocator@D@2@@std@@@2@V?$allocator@U?$pair@$$CBV?$basic_string@DU?$char_traits@D@std@@V?$allocator@D@2@@std@@V12@@std@@@2@$0A@@std@@@2@PAU342@00ABU?$pair@$$CBV?$basic_string@DU?$char_traits@D@std@@V?$allocator@D@2@@std@@V12@@2@D@Z 1000b470 f i PlugInLib:PlugInShell.obj
 0001:0000a510       ??Eiterator@?$_Tree@V?$_Tmap_traits@V?$basic_string@DU?$char_traits@D@std@@V?$allocator@D@2@@std@@V12@U?$less@V?$basic_string@DU?$char_traits@D@std@@V?$allocator@D@2@@std@@@2@V?$allocator@U?$pair@$$CBV?$basic_string@DU?$char_traits@D@std@@V?$allocator@D@2@@std@@V12@@std@@@2@$0A@@std@@@std@@QAE?AV012@H@Z 1000b510 f i PlugInLib:PlugInShell.obj
 0001:0000a530       ??$_Destroy@U_Node@?$_Tree_nod@V?$_Tmap_traits@V?$basic_string@DU?$char_traits@D@std@@V?$allocator@D@2@@std@@V12@U?$less@V?$basic_string@DU?$char_traits@D@std@@V?$allocator@D@2@@std@@@2@V?$allocator@U?$pair@$$CBV?$basic_string@DU?$char_traits@D@std@@V?$allocator@D@2@@std@@V12@@std@@@2@$0A@@std@@@std@@@std@@YAXPAU_Node@?$_Tree_nod@V?$_Tmap_traits@V?$basic_string@DU?$char_traits@D@std@@V?$allocator@D@2@@std@@V12@U?$less@V?$basic_string@DU?$char_traits@D@std@@V?$allocator@D@2@@std@@@2@V?$allocator@U?$pair@$$CBV?$basic_string@DU?$char_traits@D@std@@V?$allocator@D@2@@std@@V12@@std@@@2@$0A@@std@@@0@@Z 1000b530 f i PlugInLib:PlugInShell.obj
 0001:0000a540       ??_G_Node@?$_List_nod@UContextMenuAction@@V?$allocator@UContextMenuAction@@@std@@@std@@QAEPAXI@Z 1000b540 f i PlugInLib:PlugInShell.obj
 0001:0000a570       ??1?$FactoryResource@VSettableSessionItem@@@@UAE@XZ 1000b570 f i PlugInLib:PlugInShell.obj
 0001:0000a580       ??0?$FactoryResource@VSettableSessionItem@@@@QAE@XZ 1000b580 f i PlugInLib:PlugInShell.obj
 0001:0000a5f0       ?end@?$_Tree@V?$_Tmap_traits@V?$basic_string@DU?$char_traits@D@std@@V?$allocator@D@2@@std@@V12@U?$less@V?$basic_string@DU?$char_traits@D@std@@V?$allocator@D@2@@std@@@2@V?$allocator@U?$pair@$$CBV?$basic_string@DU?$char_traits@D@std@@V?$allocator@D@2@@std@@V12@@std@@@2@$0A@@std@@@std@@QAE?AViterator@12@XZ 1000b5f0 f i PlugInLib:PlugInShell.obj
 0001:0000a600       ??_E?$FactoryResource@VSettableSessionItem@@@@UAEPAXI@Z 1000b600 f i PlugInLib:PlugInShell.obj
 0001:0000a600       ??_G?$FactoryResource@VSettableSessionItem@@@@UAEPAXI@Z 1000b600 f i PlugInLib:PlugInShell.obj
 0001:0000a620       ?lower_bound@?$_Tree@V?$_Tmap_traits@V?$basic_string@DU?$char_traits@D@std@@V?$allocator@D@2@@std@@V12@U?$less@V?$basic_string@DU?$char_traits@D@std@@V?$allocator@D@2@@std@@@2@V?$allocator@U?$pair@$$CBV?$basic_string@DU?$char_traits@D@std@@V?$allocator@D@2@@std@@V12@@std@@@2@$0A@@std@@@std@@QAE?AViterator@12@ABV?$basic_string@DU?$char_traits@D@std@@V?$allocator@D@2@@2@@Z 1000b620 f i PlugInLib:PlugInShell.obj
 0001:0000a650       ?_Init@?$_Tree@V?$_Tmap_traits@V?$basic_string@DU?$char_traits@D@std@@V?$allocator@D@2@@std@@V12@U?$less@V?$basic_string@DU?$char_traits@D@std@@V?$allocator@D@2@@std@@@2@V?$allocator@U?$pair@$$CBV?$basic_string@DU?$char_traits@D@std@@V?$allocator@D@2@@std@@V12@@std@@@2@$0A@@std@@@std@@IAEXXZ 1000b650 f i PlugInLib:PlugInShell.obj
 0001:0000a680       ??0?$_Tree_val@V?$_Tmap_traits@V?$basic_string@DU?$char_traits@D@std@@V?$allocator@D@2@@std@@V12@U?$less@V?$basic_string@DU?$char_traits@D@std@@V?$allocator@D@2@@std@@@2@V?$allocator@U?$pair@$$CBV?$basic_string@DU?$char_traits@D@std@@V?$allocator@D@2@@std@@V12@@std@@@2@$0A@@std@@@std@@IAE@ABU?$less@V?$basic_string@DU?$char_traits@D@std@@V?$allocator@D@2@@std@@@1@V?$allocator@U?$pair@$$CBV?$basic_string@DU?$char_traits@D@std@@V?$allocator@D@2@@std@@V12@@std@@@1@@Z 1000b680 f i PlugInLib:PlugInShell.obj
 0001:0000a690       ?destroy@?$allocator@U_Node@?$_Tree_nod@V?$_Tmap_traits@V?$basic_string@DU?$char_traits@D@std@@V?$allocator@D@2@@std@@V12@U?$less@V?$basic_string@DU?$char_traits@D@std@@V?$allocator@D@2@@std@@@2@V?$allocator@U?$pair@$$CBV?$basic_string@DU?$char_traits@D@std@@V?$allocator@D@2@@std@@V12@@std@@@2@$0A@@std@@@std@@@std@@QAEXPAU_Node@?$_Tree_nod@V?$_Tmap_traits@V?$basic_string@DU?$char_traits@D@std@@V?$allocator@D@2@@std@@V12@U?$less@V?$basic_string@DU?$char_traits@D@std@@V?$allocator@D@2@@std@@@2@V?$allocator@U?$pair@$$CBV?$basic_string@DU?$char_traits@D@std@@V?$allocator@D@2@@std@@V12@@std@@@2@$0A@@std@@@2@@Z 1000b690 f i PlugInLib:PlugInShell.obj
 0001:0000a6a0       ?_Insert@?$_Tree@V?$_Tmap_traits@V?$basic_string@DU?$char_traits@D@std@@V?$allocator@D@2@@std@@V12@U?$less@V?$basic_string@DU?$char_traits@D@std@@V?$allocator@D@2@@std@@@2@V?$allocator@U?$pair@$$CBV?$basic_string@DU?$char_traits@D@std@@V?$allocator@D@2@@std@@V12@@std@@@2@$0A@@std@@@std@@IAE?AViterator@12@_NPAU_Node@?$_Tree_nod@V?$_Tmap_traits@V?$basic_string@DU?$char_traits@D@std@@V?$allocator@D@2@@std@@V12@U?$less@V?$basic_string@DU?$char_traits@D@std@@V?$allocator@D@2@@std@@@2@V?$allocator@U?$pair@$$CBV?$basic_string@DU?$char_traits@D@std@@V?$allocator@D@2@@std@@V12@@std@@@2@$0A@@std@@@2@ABU?$pair@$$CBV?$basic_string@DU?$char_traits@D@std@@V?$allocator@D@2@@std@@V12@@2@@Z 1000b6a0 f i PlugInLib:PlugInShell.obj
 0001:0000a8a0       ?_Erase@?$_Tree@V?$_Tmap_traits@V?$basic_string@DU?$char_traits@D@std@@V?$allocator@D@2@@std@@V12@U?$less@V?$basic_string@DU?$char_traits@D@std@@V?$allocator@D@2@@std@@@2@V?$allocator@U?$pair@$$CBV?$basic_string@DU?$char_traits@D@std@@V?$allocator@D@2@@std@@V12@@std@@@2@$0A@@std@@@std@@IAEXPAU_Node@?$_Tree_nod@V?$_Tmap_traits@V?$basic_string@DU?$char_traits@D@std@@V?$allocator@D@2@@std@@V12@U?$less@V?$basic_string@DU?$char_traits@D@std@@V?$allocator@D@2@@std@@@2@V?$allocator@U?$pair@$$CBV?$basic_string@DU?$char_traits@D@std@@V?$allocator@D@2@@std@@V12@@std@@@2@$0A@@std@@@2@@Z 1000b8a0 f i PlugInLib:PlugInShell.obj
 0001:0000a930       ??$_Destroy@U_Node@?$_List_nod@UContextMenuAction@@V?$allocator@UContextMenuAction@@@std@@@std@@@std@@YAXPAU_Node@?$_List_nod@UContextMenuAction@@V?$allocator@UContextMenuAction@@@std@@@0@@Z 1000b930 f i PlugInLib:PlugInShell.obj
 0001:0000a940       ?erase@?$_Tree@V?$_Tmap_traits@V?$basic_string@DU?$char_traits@D@std@@V?$allocator@D@2@@std@@V12@U?$less@V?$basic_string@DU?$char_traits@D@std@@V?$allocator@D@2@@std@@@2@V?$allocator@U?$pair@$$CBV?$basic_string@DU?$char_traits@D@std@@V?$allocator@D@2@@std@@V12@@std@@@2@$0A@@std@@@std@@QAE?AViterator@12@V312@@Z 1000b940 f i PlugInLib:PlugInShell.obj
 0001:0000ac30       ??0out_of_range@std@@QAE@ABV01@@Z 1000bc30 f i PlugInLib:PlugInShell.obj
 0001:0000ac50       ?find@?$_Tree@V?$_Tmap_traits@V?$basic_string@DU?$char_traits@D@std@@V?$allocator@D@2@@std@@V12@U?$less@V?$basic_string@DU?$char_traits@D@std@@V?$allocator@D@2@@std@@@2@V?$allocator@U?$pair@$$CBV?$basic_string@DU?$char_traits@D@std@@V?$allocator@D@2@@std@@V12@@std@@@2@$0A@@std@@@std@@QAE?AViterator@12@ABV?$basic_string@DU?$char_traits@D@std@@V?$allocator@D@2@@2@@Z 1000bc50 f i PlugInLib:PlugInShell.obj
 0001:0000acc0       ??0?$_Tree@V?$_Tmap_traits@V?$basic_string@DU?$char_traits@D@std@@V?$allocator@D@2@@std@@V12@U?$less@V?$basic_string@DU?$char_traits@D@std@@V?$allocator@D@2@@std@@@2@V?$allocator@U?$pair@$$CBV?$basic_string@DU?$char_traits@D@std@@V?$allocator@D@2@@std@@V12@@std@@@2@$0A@@std@@@std@@QAE@ABU?$less@V?$basic_string@DU?$char_traits@D@std@@V?$allocator@D@2@@std@@@1@ABV?$allocator@U?$pair@$$CBV?$basic_string@DU?$char_traits@D@std@@V?$allocator@D@2@@std@@V12@@std@@@1@@Z 1000bcc0 f i PlugInLib:PlugInShell.obj
 0001:0000acf0       ?insert@?$_Tree@V?$_Tmap_traits@V?$basic_string@DU?$char_traits@D@std@@V?$allocator@D@2@@std@@V12@U?$less@V?$basic_string@DU?$char_traits@D@std@@V?$allocator@D@2@@std@@@2@V?$allocator@U?$pair@$$CBV?$basic_string@DU?$char_traits@D@std@@V?$allocator@D@2@@std@@V12@@std@@@2@$0A@@std@@@std@@QAE?AU?$pair@Viterator@?$_Tree@V?$_Tmap_traits@V?$basic_string@DU?$char_traits@D@std@@V?$allocator@D@2@@std@@V12@U?$less@V?$basic_string@DU?$char_traits@D@std@@V?$allocator@D@2@@std@@@2@V?$allocator@U?$pair@$$CBV?$basic_string@DU?$char_traits@D@std@@V?$allocator@D@2@@std@@V12@@std@@@2@$0A@@std@@@std@@_N@2@ABU?$pair@$$CBV?$basic_string@DU?$char_traits@D@std@@V?$allocator@D@2@@std@@V12@@2@@Z 1000bcf0 f i PlugInLib:PlugInShell.obj
 0001:0000adf0       ?_Copy@?$_Tree@V?$_Tmap_traits@V?$basic_string@DU?$char_traits@D@std@@V?$allocator@D@2@@std@@V12@U?$less@V?$basic_string@DU?$char_traits@D@std@@V?$allocator@D@2@@std@@@2@V?$allocator@U?$pair@$$CBV?$basic_string@DU?$char_traits@D@std@@V?$allocator@D@2@@std@@V12@@std@@@2@$0A@@std@@@std@@IAEPAU_Node@?$_Tree_nod@V?$_Tmap_traits@V?$basic_string@DU?$char_traits@D@std@@V?$allocator@D@2@@std@@V12@U?$less@V?$basic_string@DU?$char_traits@D@std@@V?$allocator@D@2@@std@@@2@V?$allocator@U?$pair@$$CBV?$basic_string@DU?$char_traits@D@std@@V?$allocator@D@2@@std@@V12@@std@@@2@$0A@@std@@@2@PAU342@0@Z 1000bdf0 f i PlugInLib:PlugInShell.obj
 0001:0000aea0       ?clear@?$_Tree@V?$_Tmap_traits@V?$basic_string@DU?$char_traits@D@std@@V?$allocator@D@2@@std@@V12@U?$less@V?$basic_string@DU?$char_traits@D@std@@V?$allocator@D@2@@std@@@2@V?$allocator@U?$pair@$$CBV?$basic_string@DU?$char_traits@D@std@@V?$allocator@D@2@@std@@V12@@std@@@2@$0A@@std@@@std@@QAEXXZ 1000bea0 f i PlugInLib:PlugInShell.obj
 0001:0000aed0       ?destroy@?$allocator@U_Node@?$_List_nod@UContextMenuAction@@V?$allocator@UContextMenuAction@@@std@@@std@@@std@@QAEXPAU_Node@?$_List_nod@UContextMenuAction@@V?$allocator@UContextMenuAction@@@std@@@2@@Z 1000bed0 f i PlugInLib:PlugInShell.obj
 0001:0000aee0       ?insert@?$_Tree@V?$_Tmap_traits@V?$basic_string@DU?$char_traits@D@std@@V?$allocator@D@2@@std@@V12@U?$less@V?$basic_string@DU?$char_traits@D@std@@V?$allocator@D@2@@std@@@2@V?$allocator@U?$pair@$$CBV?$basic_string@DU?$char_traits@D@std@@V?$allocator@D@2@@std@@V12@@std@@@2@$0A@@std@@@std@@QAE?AViterator@12@V312@ABU?$pair@$$CBV?$basic_string@DU?$char_traits@D@std@@V?$allocator@D@2@@std@@V12@@2@@Z 1000bee0 f i PlugInLib:PlugInShell.obj
 0001:0000b0f0       ?_Copy@?$_Tree@V?$_Tmap_traits@V?$basic_string@DU?$char_traits@D@std@@V?$allocator@D@2@@std@@V12@U?$less@V?$basic_string@DU?$char_traits@D@std@@V?$allocator@D@2@@std@@@2@V?$allocator@U?$pair@$$CBV?$basic_string@DU?$char_traits@D@std@@V?$allocator@D@2@@std@@V12@@std@@@2@$0A@@std@@@std@@IAEXABV12@@Z 1000c0f0 f i PlugInLib:PlugInShell.obj
 0001:0000b170       ?erase@?$_Tree@V?$_Tmap_traits@V?$basic_string@DU?$char_traits@D@std@@V?$allocator@D@2@@std@@V12@U?$less@V?$basic_string@DU?$char_traits@D@std@@V?$allocator@D@2@@std@@@2@V?$allocator@U?$pair@$$CBV?$basic_string@DU?$char_traits@D@std@@V?$allocator@D@2@@std@@V12@@std@@@2@$0A@@std@@@std@@QAE?AViterator@12@V312@0@Z 1000c170 f i PlugInLib:PlugInShell.obj
 0001:0000b240       ?clear@?$list@UContextMenuAction@@V?$allocator@UContextMenuAction@@@std@@@std@@QAEXXZ 1000c240 f i PlugInLib:PlugInShell.obj
 0001:0000b2d0       ??A?$map@V?$basic_string@DU?$char_traits@D@std@@V?$allocator@D@2@@std@@V12@U?$less@V?$basic_string@DU?$char_traits@D@std@@V?$allocator@D@2@@std@@@2@V?$allocator@U?$pair@$$CBV?$basic_string@DU?$char_traits@D@std@@V?$allocator@D@2@@std@@V12@@std@@@2@@std@@QAEAAV?$basic_string@DU?$char_traits@D@std@@V?$allocator@D@2@@1@ABV21@@Z 1000c2d0 f i PlugInLib:PlugInShell.obj
 0001:0000b3a0       ?_Tidy@?$_Tree@V?$_Tmap_traits@V?$basic_string@DU?$char_traits@D@std@@V?$allocator@D@2@@std@@V12@U?$less@V?$basic_string@DU?$char_traits@D@std@@V?$allocator@D@2@@std@@@2@V?$allocator@U?$pair@$$CBV?$basic_string@DU?$char_traits@D@std@@V?$allocator@D@2@@std@@V12@@std@@@2@$0A@@std@@@std@@IAEXXZ 1000c3a0 f i PlugInLib:PlugInShell.obj
 0001:0000b3e0       ?_Tidy@?$list@UContextMenuAction@@V?$allocator@UContextMenuAction@@@std@@@std@@IAEXXZ 1000c3e0 f i PlugInLib:PlugInShell.obj
 0001:0000b400       ?addDependencyCopyright@PlugInShell@@IAEXABV?$basic_string@DU?$char_traits@D@std@@V?$allocator@D@2@@std@@0@Z 1000c400 f   PlugInLib:PlugInShell.obj
 0001:0000b480       ??0?$_Tree@V?$_Tmap_traits@V?$basic_string@DU?$char_traits@D@std@@V?$allocator@D@2@@std@@V12@U?$less@V?$basic_string@DU?$char_traits@D@std@@V?$allocator@D@2@@std@@@2@V?$allocator@U?$pair@$$CBV?$basic_string@DU?$char_traits@D@std@@V?$allocator@D@2@@std@@V12@@std@@@2@$0A@@std@@@std@@QAE@ABV01@@Z 1000c480 f i PlugInLib:PlugInShell.obj
 0001:0000b510       ??1?$_Tree@V?$_Tmap_traits@V?$basic_string@DU?$char_traits@D@std@@V?$allocator@D@2@@std@@V12@U?$less@V?$basic_string@DU?$char_traits@D@std@@V?$allocator@D@2@@std@@@2@V?$allocator@U?$pair@$$CBV?$basic_string@DU?$char_traits@D@std@@V?$allocator@D@2@@std@@V12@@std@@@2@$0A@@std@@@std@@QAE@XZ 1000c510 f i PlugInLib:PlugInShell.obj
 0001:0000b550       ??1?$list@UContextMenuAction@@V?$allocator@UContextMenuAction@@@std@@@std@@QAE@XZ 1000c550 f i PlugInLib:PlugInShell.obj
 0001:0000b570       ??1?$map@V?$basic_string@DU?$char_traits@D@std@@V?$allocator@D@2@@std@@V12@U?$less@V?$basic_string@DU?$char_traits@D@std@@V?$allocator@D@2@@std@@@2@V?$allocator@U?$pair@$$CBV?$basic_string@DU?$char_traits@D@std@@V?$allocator@D@2@@std@@V12@@std@@@2@@std@@QAE@XZ 1000c570 f i PlugInLib:PlugInShell.obj
 0001:0000b5b0       ??1PlugInShell@@UAE@XZ     1000c5b0 f   PlugInLib:PlugInShell.obj
 0001:0000b6d0       ??_EPlugInShell@@W3AEPAXI@Z 1000c6d0 f i PlugInLib:PlugInShell.obj
 0001:0000b6e0       ?getContextMenuActions@PlugInShell@@UBE?AV?$list@UContextMenuAction@@V?$allocator@UContextMenuAction@@@std@@@std@@XZ 1000c6e0 f   PlugInLib:PlugInShell.obj
 0001:0000b700       ?getPropertiesPages@PlugInShell@@UBE?AV?$vector@V?$basic_string@DU?$char_traits@D@std@@V?$allocator@D@2@@std@@V?$allocator@V?$basic_string@DU?$char_traits@D@std@@V?$allocator@D@2@@std@@@2@@std@@XZ 1000c700 f   PlugInLib:PlugInShell.obj
 0001:0000b720       ??0?$map@V?$basic_string@DU?$char_traits@D@std@@V?$allocator@D@2@@std@@V12@U?$less@V?$basic_string@DU?$char_traits@D@std@@V?$allocator@D@2@@std@@@2@V?$allocator@U?$pair@$$CBV?$basic_string@DU?$char_traits@D@std@@V?$allocator@D@2@@std@@V12@@std@@@2@@std@@QAE@ABV01@@Z 1000c720 f i PlugInLib:PlugInShell.obj
 0001:0000b740       ??0?$map@V?$basic_string@DU?$char_traits@D@std@@V?$allocator@D@2@@std@@V12@U?$less@V?$basic_string@DU?$char_traits@D@std@@V?$allocator@D@2@@std@@@2@V?$allocator@U?$pair@$$CBV?$basic_string@DU?$char_traits@D@std@@V?$allocator@D@2@@std@@V12@@std@@@2@@std@@QAE@XZ 1000c740 f i PlugInLib:PlugInShell.obj
 0001:0000b770       ??0PlugInShell@@QAE@XZ     1000c770 f   PlugInLib:PlugInShell.obj
 0001:0000b890       ??_GPlugInShell@@UAEPAXI@Z 1000c890 f i PlugInLib:PlugInShell.obj
 0001:0000b890       ??_EPlugInShell@@UAEPAXI@Z 1000c890 f i PlugInLib:PlugInShell.obj
 0001:0000b8b0       ?getDependencyCopyright@PlugInShell@@UBE?AV?$map@V?$basic_string@DU?$char_traits@D@std@@V?$allocator@D@2@@std@@V12@U?$less@V?$basic_string@DU?$char_traits@D@std@@V?$allocator@D@2@@std@@@2@V?$allocator@U?$pair@$$CBV?$basic_string@DU?$char_traits@D@std@@V?$allocator@D@2@@std@@V12@@std@@@2@@std@@XZ 1000c8b0 f   PlugInLib:PlugInShell.obj
 0001:0000b8e0       ?isValid@DataAccessorImpl@@QBE_NXZ 1000c8e0 f i PlugInLib:DataAccessor.obj
 0001:0000b8f0       ?incrementRefCount@DataAccessorImpl@@QAEHXZ 1000c8f0 f i PlugInLib:DataAccessor.obj
 0001:0000b900       ?decrementRefCount@DataAccessorImpl@@QAEHXZ 1000c900 f i PlugInLib:DataAccessor.obj
 0001:0000b910       ?isValid@DataAccessor@@QBE_NXZ 1000c910 f   PlugInLib:DataAccessor.obj
 0001:0000b930       ?incrementRefCount@DataAccessor@@AAEXXZ 1000c930 f   PlugInLib:DataAccessor.obj
 0001:0000b940       ?decrementRefCount@DataAccessor@@AAEXXZ 1000c940 f   PlugInLib:DataAccessor.obj
 0001:0000b980       ??0DataAccessor@@QAE@PAVDataAccessorDeleter@@PAVDataAccessorImpl@@@Z 1000c980 f   PlugInLib:DataAccessor.obj
 0001:0000b9a0       ??0DataAccessor@@QAE@ABV0@@Z 1000c9a0 f   PlugInLib:DataAccessor.obj
 0001:0000b9c0       ??1DataAccessor@@QAE@XZ    1000c9c0 f   PlugInLib:DataAccessor.obj
 0001:0000ba00       ??4DataAccessor@@QAEAAV0@ABV0@@Z 1000ca00 f   PlugInLib:DataAccessor.obj
 0001:0000ba60       ??0ModuleManager@@IAE@XZ   1000ca60 f   PlugInLib:ModuleManagerCommon.obj
 0001:0000ba70       ??1ModuleManager@@IAE@XZ   1000ca70 f   PlugInLib:ModuleManagerCommon.obj
 0001:0000ba80       ?instance@ModuleManager@@SAPAV1@XZ 1000ca80 f   PlugInLib:ModuleManagerCommon.obj
 0001:0000bab0       ?getService@ModuleManager@@QAEPAVExternal@@XZ 1000cab0 f i PlugInUtilities:Service.obj
 0001:0000bac0       ?get@?$Service@VApplicationServices@@@@QBEPAVApplicationServices@@XZ 1000cac0 f   PlugInUtilities:Service.obj
 0001:0000baf0       ?get@?$Service@VUtilityServices@@@@QBEPAVUtilityServices@@XZ 1000caf0 f   PlugInUtilities:Service.obj
 0001:0000bb20       ?get@?$Service@VModelServices@@@@QBEPAVModelServices@@XZ 1000cb20 f   PlugInUtilities:Service.obj
 0001:0000bb50       ?get@?$Service@VAnimationServices@@@@QBEPAVAnimationServices@@XZ 1000cb50 f   PlugInUtilities:Service.obj
 0001:0000bb80       ?get@?$Service@VDesktopServices@@@@QBEPAVDesktopServices@@XZ 1000cb80 f   PlugInUtilities:Service.obj
 0001:0000bbb0       ?get@?$Service@VPlugInManagerServices@@@@QBEPAVPlugInManagerServices@@XZ 1000cbb0 f   PlugInUtilities:Service.obj
 0001:0000bbe0       ??C?$Service@VUtilityServices@@@@QBEPAVUtilityServices@@XZ 1000cbe0 f i PlugInUtilities:Service.obj
 0001:0000bc10       ?get@?$Service@VSessionManager@@@@QBEPAVSessionManager@@XZ 1000cc10 f   PlugInUtilities:Service.obj
 0001:0000bc40       ?get@?$Service@VConfigurationSettings@@@@QBEPAVConfigurationSettings@@XZ 1000cc40 f   PlugInUtilities:Service.obj
 0001:0000bc70       ?get@?$Service@VObjectFactory@@@@QBEPAVObjectFactory@@XZ 1000cc70 f   PlugInUtilities:Service.obj
 0001:0000bca0       ?get@?$Service@VDataVariantFactory@@@@QBEPAVDataVariantFactory@@XZ 1000cca0 f   PlugInUtilities:Service.obj
 0001:0000bcd0       ?get@?$Service@VMessageLogMgr@@@@QBEPAVMessageLogMgr@@XZ 1000ccd0 f   PlugInUtilities:Service.obj
 0001:0000bd00       ?get@?$Service@VSessionExplorer@@@@QBEPAVSessionExplorer@@XZ 1000cd00 f   PlugInUtilities:Service.obj
 0001:0000bdf0       ??$toString@_N@TypeConverter@@YAPBDXZ 1000cdf0 f   PlugInUtilities:TypeConverter.obj
 0001:0000be00       ??$toString@V?$vector@PA_NV?$allocator@PA_N@std@@@std@@@TypeConverter@@YAPBDXZ 1000ce00 f   PlugInUtilities:TypeConverter.obj
 0001:0000be10       ??$toString@V?$vector@_NV?$allocator@_N@std@@@std@@@TypeConverter@@YAPBDXZ 1000ce10 f   PlugInUtilities:TypeConverter.obj
 0001:0000be20       ??$toString@D@TypeConverter@@YAPBDXZ 1000ce20 f   PlugInUtilities:TypeConverter.obj
 0001:0000be30       ??$toString@V?$vector@PADV?$allocator@PAD@std@@@std@@@TypeConverter@@YAPBDXZ 1000ce30 f   PlugInUtilities:TypeConverter.obj
 0001:0000be40       ??$toString@V?$vector@DV?$allocator@D@std@@@std@@@TypeConverter@@YAPBDXZ 1000ce40 f   PlugInUtilities:TypeConverter.obj
 0001:0000be50       ??$toString@E@TypeConverter@@YAPBDXZ 1000ce50 f   PlugInUtilities:TypeConverter.obj
 0001:0000be60       ??$toString@V?$vector@PAEV?$allocator@PAE@std@@@std@@@TypeConverter@@YAPBDXZ 1000ce60 f   PlugInUtilities:TypeConverter.obj
 0001:0000be70       ??$toString@V?$vector@EV?$allocator@E@std@@@std@@@TypeConverter@@YAPBDXZ 1000ce70 f   PlugInUtilities:TypeConverter.obj
 0001:0000be80       ??$toString@C@TypeConverter@@YAPBDXZ 1000ce80 f   PlugInUtilities:TypeConverter.obj
 0001:0000be90       ??$toString@V?$vector@PACV?$allocator@PAC@std@@@std@@@TypeConverter@@YAPBDXZ 1000ce90 f   PlugInUtilities:TypeConverter.obj
 0001:0000bea0       ??$toString@V?$vector@CV?$allocator@C@std@@@std@@@TypeConverter@@YAPBDXZ 1000cea0 f   PlugInUtilities:TypeConverter.obj
 0001:0000beb0       ??$toString@F@TypeConverter@@YAPBDXZ 1000ceb0 f   PlugInUtilities:TypeConverter.obj
 0001:0000bec0       ??$toString@V?$vector@PAFV?$allocator@PAF@std@@@std@@@TypeConverter@@YAPBDXZ 1000cec0 f   PlugInUtilities:TypeConverter.obj
 0001:0000bed0       ??$toString@V?$vector@FV?$allocator@F@std@@@std@@@TypeConverter@@YAPBDXZ 1000ced0 f   PlugInUtilities:TypeConverter.obj
 0001:0000bee0       ??$toString@G@TypeConverter@@YAPBDXZ 1000cee0 f   PlugInUtilities:TypeConverter.obj
 0001:0000bef0       ??$toString@V?$vector@PAGV?$allocator@PAG@std@@@std@@@TypeConverter@@YAPBDXZ 1000cef0 f   PlugInUtilities:TypeConverter.obj
 0001:0000bf00       ??$toString@V?$vector@GV?$allocator@G@std@@@std@@@TypeConverter@@YAPBDXZ 1000cf00 f   PlugInUtilities:TypeConverter.obj
 0001:0000bf10       ??$toString@H@TypeConverter@@YAPBDXZ 1000cf10 f   PlugInUtilities:TypeConverter.obj
 0001:0000bf20       ??$toString@V?$vector@PAHV?$allocator@PAH@std@@@std@@@TypeConverter@@YAPBDXZ 1000cf20 f   PlugInUtilities:TypeConverter.obj
 0001:0000bf30       ??$toString@V?$vector@HV?$allocator@H@std@@@std@@@TypeConverter@@YAPBDXZ 1000cf30 f   PlugInUtilities:TypeConverter.obj
 0001:0000bf40       ??$toString@I@TypeConverter@@YAPBDXZ 1000cf40 f   PlugInUtilities:TypeConverter.obj
 0001:0000bf50       ??$toString@V?$vector@PAIV?$allocator@PAI@std@@@std@@@TypeConverter@@YAPBDXZ 1000cf50 f   PlugInUtilities:TypeConverter.obj
 0001:0000bf60       ??$toString@V?$vector@IV?$allocator@I@std@@@std@@@TypeConverter@@YAPBDXZ 1000cf60 f   PlugInUtilities:TypeConverter.obj
 0001:0000bf70       ??$toString@J@TypeConverter@@YAPBDXZ 1000cf70 f   PlugInUtilities:TypeConverter.obj
 0001:0000bf80       ??$toString@V?$vector@PAJV?$allocator@PAJ@std@@@std@@@TypeConverter@@YAPBDXZ 1000cf80 f   PlugInUtilities:TypeConverter.obj
 0001:0000bf90       ??$toString@V?$vector@JV?$allocator@J@std@@@std@@@TypeConverter@@YAPBDXZ 1000cf90 f   PlugInUtilities:TypeConverter.obj
 0001:0000bfa0       ??$toString@K@TypeConverter@@YAPBDXZ 1000cfa0 f   PlugInUtilities:TypeConverter.obj
 0001:0000bfb0       ??$toString@V?$vector@PAKV?$allocator@PAK@std@@@std@@@TypeConverter@@YAPBDXZ 1000cfb0 f   PlugInUtilities:TypeConverter.obj
 0001:0000bfc0       ??$toString@V?$vector@KV?$allocator@K@std@@@std@@@TypeConverter@@YAPBDXZ 1000cfc0 f   PlugInUtilities:TypeConverter.obj
 0001:0000bfd0       ??$toString@_J@TypeConverter@@YAPBDXZ 1000cfd0 f   PlugInUtilities:TypeConverter.obj
 0001:0000bfe0       ??$toString@V?$vector@PA_JV?$allocator@PA_J@std@@@std@@@TypeConverter@@YAPBDXZ 1000cfe0 f   PlugInUtilities:TypeConverter.obj
 0001:0000bff0       ??$toString@V?$vector@_JV?$allocator@_J@std@@@std@@@TypeConverter@@YAPBDXZ 1000cff0 f   PlugInUtilities:TypeConverter.obj
 0001:0000c000       ??$toString@_K@TypeConverter@@YAPBDXZ 1000d000 f   PlugInUtilities:TypeConverter.obj
 0001:0000c010       ??$toString@V?$vector@PA_KV?$allocator@PA_K@std@@@std@@@TypeConverter@@YAPBDXZ 1000d010 f   PlugInUtilities:TypeConverter.obj
 0001:0000c020       ??$toString@V?$vector@_KV?$allocator@_K@std@@@std@@@TypeConverter@@YAPBDXZ 1000d020 f   PlugInUtilities:TypeConverter.obj
 0001:0000c030       ??$toString@M@TypeConverter@@YAPBDXZ 1000d030 f   PlugInUtilities:TypeConverter.obj
 0001:0000c040       ??$toString@V?$vector@PAMV?$allocator@PAM@std@@@std@@@TypeConverter@@YAPBDXZ 1000d040 f   PlugInUtilities:TypeConverter.obj
 0001:0000c050       ??$toString@V?$vector@MV?$allocator@M@std@@@std@@@TypeConverter@@YAPBDXZ 1000d050 f   PlugInUtilities:TypeConverter.obj
 0001:0000c060       ??$toString@N@TypeConverter@@YAPBDXZ 1000d060 f   PlugInUtilities:TypeConverter.obj
 0001:0000c070       ??$toString@V?$vector@PANV?$allocator@PAN@std@@@std@@@TypeConverter@@YAPBDXZ 1000d070 f   PlugInUtilities:TypeConverter.obj
 0001:0000c080       ??$toString@V?$vector@NV?$allocator@N@std@@@std@@@TypeConverter@@YAPBDXZ 1000d080 f   PlugInUtilities:TypeConverter.obj
 0001:0000c090       ??$toString@X@TypeConverter@@YAPBDXZ 1000d090 f   PlugInUtilities:TypeConverter.obj
 0001:0000c0a0       ??$toString@V?$vector@PAXV?$allocator@PAX@std@@@std@@@TypeConverter@@YAPBDXZ 1000d0a0 f   PlugInUtilities:TypeConverter.obj
 0001:0000c0b0       ??$toString@V?$vector@XV?$allocator@X@std@@@std@@@TypeConverter@@YAPBDXZ 1000d0b0 f   PlugInUtilities:TypeConverter.obj
 0001:0000c0c0       ??$toString@V?$basic_string@DU?$char_traits@D@std@@V?$allocator@D@2@@std@@@TypeConverter@@YAPBDXZ 1000d0c0 f   PlugInUtilities:TypeConverter.obj
 0001:0000c0d0       ??$toString@V?$vector@PAV?$basic_string@DU?$char_traits@D@std@@V?$allocator@D@2@@std@@V?$allocator@PAV?$basic_string@DU?$char_traits@D@std@@V?$allocator@D@2@@std@@@2@@std@@@TypeConverter@@YAPBDXZ 1000d0d0 f   PlugInUtilities:TypeConverter.obj
 0001:0000c0e0       ??$toString@V?$vector@V?$basic_string@DU?$char_traits@D@std@@V?$allocator@D@2@@std@@V?$allocator@V?$basic_string@DU?$char_traits@D@std@@V?$allocator@D@2@@std@@@2@@std@@@TypeConverter@@YAPBDXZ 1000d0e0 f   PlugInUtilities:TypeConverter.obj
 0001:0000c0f0       ??$toString@V?$EnumWrapper@W4AnimationCycleEnum@@@@@TypeConverter@@YAPBDXZ 1000d0f0 f   PlugInUtilities:TypeConverter.obj
 0001:0000c100       ??$toString@V?$vector@PAV?$EnumWrapper@W4AnimationCycleEnum@@@@V?$allocator@PAV?$EnumWrapper@W4AnimationCycleEnum@@@@@std@@@std@@@TypeConverter@@YAPBDXZ 1000d100 f   PlugInUtilities:TypeConverter.obj
 0001:0000c110       ??$toString@V?$vector@V?$EnumWrapper@W4AnimationCycleEnum@@@@V?$allocator@V?$EnumWrapper@W4AnimationCycleEnum@@@@@std@@@std@@@TypeConverter@@YAPBDXZ 1000d110 f   PlugInUtilities:TypeConverter.obj
 0001:0000c120       ??$toString@V?$EnumWrapper@W4AnimationStateEnum@@@@@TypeConverter@@YAPBDXZ 1000d120 f   PlugInUtilities:TypeConverter.obj
 0001:0000c130       ??$toString@V?$vector@PAV?$EnumWrapper@W4AnimationStateEnum@@@@V?$allocator@PAV?$EnumWrapper@W4AnimationStateEnum@@@@@std@@@std@@@TypeConverter@@YAPBDXZ 1000d130 f   PlugInUtilities:TypeConverter.obj
 0001:0000c140       ??$toString@V?$vector@V?$EnumWrapper@W4AnimationStateEnum@@@@V?$allocator@V?$EnumWrapper@W4AnimationStateEnum@@@@@std@@@std@@@TypeConverter@@YAPBDXZ 1000d140 f   PlugInUtilities:TypeConverter.obj
 0001:0000c150       ??$toString@V?$EnumWrapper@W4ArcRegionEnum@@@@@TypeConverter@@YAPBDXZ 1000d150 f   PlugInUtilities:TypeConverter.obj
 0001:0000c160       ??$toString@V?$vector@PAV?$EnumWrapper@W4ArcRegionEnum@@@@V?$allocator@PAV?$EnumWrapper@W4ArcRegionEnum@@@@@std@@@std@@@TypeConverter@@YAPBDXZ 1000d160 f   PlugInUtilities:TypeConverter.obj
 0001:0000c170       ??$toString@V?$vector@V?$EnumWrapper@W4ArcRegionEnum@@@@V?$allocator@V?$EnumWrapper@W4ArcRegionEnum@@@@@std@@@std@@@TypeConverter@@YAPBDXZ 1000d170 f   PlugInUtilities:TypeConverter.obj
 0001:0000c180       ??$toString@V?$EnumWrapper@W4ComplexComponentEnum@@@@@TypeConverter@@YAPBDXZ 1000d180 f   PlugInUtilities:TypeConverter.obj
 0001:0000c190       ??$toString@V?$vector@PAV?$EnumWrapper@W4ComplexComponentEnum@@@@V?$allocator@PAV?$EnumWrapper@W4ComplexComponentEnum@@@@@std@@@std@@@TypeConverter@@YAPBDXZ 1000d190 f   PlugInUtilities:TypeConverter.obj
 0001:0000c1a0       ??$toString@V?$vector@V?$EnumWrapper@W4ComplexComponentEnum@@@@V?$allocator@V?$EnumWrapper@W4ComplexComponentEnum@@@@@std@@@std@@@TypeConverter@@YAPBDXZ 1000d1a0 f   PlugInUtilities:TypeConverter.obj
 0001:0000c1b0       ??$toString@V?$EnumWrapper@W4DataOriginEnum@@@@@TypeConverter@@YAPBDXZ 1000d1b0 f   PlugInUtilities:TypeConverter.obj
 0001:0000c1c0       ??$toString@V?$vector@PAV?$EnumWrapper@W4DataOriginEnum@@@@V?$allocator@PAV?$EnumWrapper@W4DataOriginEnum@@@@@std@@@std@@@TypeConverter@@YAPBDXZ 1000d1c0 f   PlugInUtilities:TypeConverter.obj
 0001:0000c1d0       ??$toString@V?$vector@V?$EnumWrapper@W4DataOriginEnum@@@@V?$allocator@V?$EnumWrapper@W4DataOriginEnum@@@@@std@@@std@@@TypeConverter@@YAPBDXZ 1000d1d0 f   PlugInUtilities:TypeConverter.obj
 0001:0000c1e0       ??$toString@V?$EnumWrapper@W4DisplayModeEnum@@@@@TypeConverter@@YAPBDXZ 1000d1e0 f   PlugInUtilities:TypeConverter.obj
 0001:0000c1f0       ??$toString@V?$vector@PAV?$EnumWrapper@W4DisplayModeEnum@@@@V?$allocator@PAV?$EnumWrapper@W4DisplayModeEnum@@@@@std@@@std@@@TypeConverter@@YAPBDXZ 1000d1f0 f   PlugInUtilities:TypeConverter.obj
 0001:0000c200       ??$toString@V?$vector@V?$EnumWrapper@W4DisplayModeEnum@@@@V?$allocator@V?$EnumWrapper@W4DisplayModeEnum@@@@@std@@@std@@@TypeConverter@@YAPBDXZ 1000d200 f   PlugInUtilities:TypeConverter.obj
 0001:0000c210       ??$toString@V?$EnumWrapper@W4DistanceUnitsEnum@@@@@TypeConverter@@YAPBDXZ 1000d210 f   PlugInUtilities:TypeConverter.obj
 0001:0000c220       ??$toString@V?$vector@PAV?$EnumWrapper@W4DistanceUnitsEnum@@@@V?$allocator@PAV?$EnumWrapper@W4DistanceUnitsEnum@@@@@std@@@std@@@TypeConverter@@YAPBDXZ 1000d220 f   PlugInUtilities:TypeConverter.obj
 0001:0000c230       ??$toString@V?$vector@V?$EnumWrapper@W4DistanceUnitsEnum@@@@V?$allocator@V?$EnumWrapper@W4DistanceUnitsEnum@@@@@std@@@std@@@TypeConverter@@YAPBDXZ 1000d230 f   PlugInUtilities:TypeConverter.obj
 0001:0000c240       ??$toString@V?$EnumWrapper@W4DmsFormatTypeEnum@@@@@TypeConverter@@YAPBDXZ 1000d240 f   PlugInUtilities:TypeConverter.obj
 0001:0000c250       ??$toString@V?$vector@PAV?$EnumWrapper@W4DmsFormatTypeEnum@@@@V?$allocator@PAV?$EnumWrapper@W4DmsFormatTypeEnum@@@@@std@@@std@@@TypeConverter@@YAPBDXZ 1000d250 f   PlugInUtilities:TypeConverter.obj
 0001:0000c260       ??$toString@V?$vector@V?$EnumWrapper@W4DmsFormatTypeEnum@@@@V?$allocator@V?$EnumWrapper@W4DmsFormatTypeEnum@@@@@std@@@std@@@TypeConverter@@YAPBDXZ 1000d260 f   PlugInUtilities:TypeConverter.obj
 0001:0000c270       ??$toString@V?$EnumWrapper@W4EncodingTypeEnum@@@@@TypeConverter@@YAPBDXZ 1000d270 f   PlugInUtilities:TypeConverter.obj
 0001:0000c280       ??$toString@V?$vector@PAV?$EnumWrapper@W4EncodingTypeEnum@@@@V?$allocator@PAV?$EnumWrapper@W4EncodingTypeEnum@@@@@std@@@std@@@TypeConverter@@YAPBDXZ 1000d280 f   PlugInUtilities:TypeConverter.obj
 0001:0000c290       ??$toString@V?$vector@V?$EnumWrapper@W4EncodingTypeEnum@@@@V?$allocator@V?$EnumWrapper@W4EncodingTypeEnum@@@@@std@@@std@@@TypeConverter@@YAPBDXZ 1000d290 f   PlugInUtilities:TypeConverter.obj
 0001:0000c2a0       ??$toString@V?$EnumWrapper@W4EndianTypeEnum@@@@@TypeConverter@@YAPBDXZ 1000d2a0 f   PlugInUtilities:TypeConverter.obj
 0001:0000c2b0       ??$toString@V?$vector@PAV?$EnumWrapper@W4EndianTypeEnum@@@@V?$allocator@PAV?$EnumWrapper@W4EndianTypeEnum@@@@@std@@@std@@@TypeConverter@@YAPBDXZ 1000d2b0 f   PlugInUtilities:TypeConverter.obj
 0001:0000c2c0       ??$toString@V?$vector@V?$EnumWrapper@W4EndianTypeEnum@@@@V?$allocator@V?$EnumWrapper@W4EndianTypeEnum@@@@@std@@@std@@@TypeConverter@@YAPBDXZ 1000d2c0 f   PlugInUtilities:TypeConverter.obj
 0001:0000c2d0       ??$toString@V?$EnumWrapper@W4FillStyleEnum@@@@@TypeConverter@@YAPBDXZ 1000d2d0 f   PlugInUtilities:TypeConverter.obj
 0001:0000c2e0       ??$toString@V?$vector@PAV?$EnumWrapper@W4FillStyleEnum@@@@V?$allocator@PAV?$EnumWrapper@W4FillStyleEnum@@@@@std@@@std@@@TypeConverter@@YAPBDXZ 1000d2e0 f   PlugInUtilities:TypeConverter.obj
 0001:0000c2f0       ??$toString@V?$vector@V?$EnumWrapper@W4FillStyleEnum@@@@V?$allocator@V?$EnumWrapper@W4FillStyleEnum@@@@@std@@@std@@@TypeConverter@@YAPBDXZ 1000d2f0 f   PlugInUtilities:TypeConverter.obj
 0001:0000c300       ??$toString@V?$EnumWrapper@W4InsetZoomModeEnum@@@@@TypeConverter@@YAPBDXZ 1000d300 f   PlugInUtilities:TypeConverter.obj
 0001:0000c310       ??$toString@V?$vector@PAV?$EnumWrapper@W4InsetZoomModeEnum@@@@V?$allocator@PAV?$EnumWrapper@W4InsetZoomModeEnum@@@@@std@@@std@@@TypeConverter@@YAPBDXZ 1000d310 f   PlugInUtilities:TypeConverter.obj
 0001:0000c320       ??$toString@V?$vector@V?$EnumWrapper@W4InsetZoomModeEnum@@@@V?$allocator@V?$EnumWrapper@W4InsetZoomModeEnum@@@@@std@@@std@@@TypeConverter@@YAPBDXZ 1000d320 f   PlugInUtilities:TypeConverter.obj
 0001:0000c330       ??$toString@V?$EnumWrapper@W4InterleaveFormatTypeEnum@@@@@TypeConverter@@YAPBDXZ 1000d330 f   PlugInUtilities:TypeConverter.obj
 0001:0000c340       ??$toString@V?$vector@PAV?$EnumWrapper@W4InterleaveFormatTypeEnum@@@@V?$allocator@PAV?$EnumWrapper@W4InterleaveFormatTypeEnum@@@@@std@@@std@@@TypeConverter@@YAPBDXZ 1000d340 f   PlugInUtilities:TypeConverter.obj
 0001:0000c350       ??$toString@V?$vector@V?$EnumWrapper@W4InterleaveFormatTypeEnum@@@@V?$allocator@V?$EnumWrapper@W4InterleaveFormatTypeEnum@@@@@std@@@std@@@TypeConverter@@YAPBDXZ 1000d350 f   PlugInUtilities:TypeConverter.obj
 0001:0000c360       ??$toString@V?$EnumWrapper@W4GcpSymbolEnum@@@@@TypeConverter@@YAPBDXZ 1000d360 f   PlugInUtilities:TypeConverter.obj
 0001:0000c370       ??$toString@V?$vector@PAV?$EnumWrapper@W4GcpSymbolEnum@@@@V?$allocator@PAV?$EnumWrapper@W4GcpSymbolEnum@@@@@std@@@std@@@TypeConverter@@YAPBDXZ 1000d370 f   PlugInUtilities:TypeConverter.obj
 0001:0000c380       ??$toString@V?$vector@V?$EnumWrapper@W4GcpSymbolEnum@@@@V?$allocator@V?$EnumWrapper@W4GcpSymbolEnum@@@@@std@@@std@@@TypeConverter@@YAPBDXZ 1000d380 f   PlugInUtilities:TypeConverter.obj
 0001:0000c390       ??$toString@V?$EnumWrapper@W4GeocoordTypeEnum@@@@@TypeConverter@@YAPBDXZ 1000d390 f   PlugInUtilities:TypeConverter.obj
 0001:0000c3a0       ??$toString@V?$vector@PAV?$EnumWrapper@W4GeocoordTypeEnum@@@@V?$allocator@PAV?$EnumWrapper@W4GeocoordTypeEnum@@@@@std@@@std@@@TypeConverter@@YAPBDXZ 1000d3a0 f   PlugInUtilities:TypeConverter.obj
 0001:0000c3b0       ??$toString@V?$vector@V?$EnumWrapper@W4GeocoordTypeEnum@@@@V?$allocator@V?$EnumWrapper@W4GeocoordTypeEnum@@@@@std@@@std@@@TypeConverter@@YAPBDXZ 1000d3b0 f   PlugInUtilities:TypeConverter.obj
 0001:0000c3c0       ??$toString@V?$EnumWrapper@W4GraphicObjectTypeEnum@@@@@TypeConverter@@YAPBDXZ 1000d3c0 f   PlugInUtilities:TypeConverter.obj
 0001:0000c3d0       ??$toString@V?$vector@PAV?$EnumWrapper@W4GraphicObjectTypeEnum@@@@V?$allocator@PAV?$EnumWrapper@W4GraphicObjectTypeEnum@@@@@std@@@std@@@TypeConverter@@YAPBDXZ 1000d3d0 f   PlugInUtilities:TypeConverter.obj
 0001:0000c3e0       ??$toString@V?$vector@V?$EnumWrapper@W4GraphicObjectTypeEnum@@@@V?$allocator@V?$EnumWrapper@W4GraphicObjectTypeEnum@@@@@std@@@std@@@TypeConverter@@YAPBDXZ 1000d3e0 f   PlugInUtilities:TypeConverter.obj
 0001:0000c3f0       ??$toString@V?$EnumWrapper@W4LatLonStyleEnum@@@@@TypeConverter@@YAPBDXZ 1000d3f0 f   PlugInUtilities:TypeConverter.obj
 0001:0000c400       ??$toString@V?$vector@PAV?$EnumWrapper@W4LatLonStyleEnum@@@@V?$allocator@PAV?$EnumWrapper@W4LatLonStyleEnum@@@@@std@@@std@@@TypeConverter@@YAPBDXZ 1000d400 f   PlugInUtilities:TypeConverter.obj
 0001:0000c410       ??$toString@V?$vector@V?$EnumWrapper@W4LatLonStyleEnum@@@@V?$allocator@V?$EnumWrapper@W4LatLonStyleEnum@@@@@std@@@std@@@TypeConverter@@YAPBDXZ 1000d410 f   PlugInUtilities:TypeConverter.obj
 0001:0000c420       ??$toString@V?$EnumWrapper@W4LayerTypeEnum@@@@@TypeConverter@@YAPBDXZ 1000d420 f   PlugInUtilities:TypeConverter.obj
 0001:0000c430       ??$toString@V?$vector@PAV?$EnumWrapper@W4LayerTypeEnum@@@@V?$allocator@PAV?$EnumWrapper@W4LayerTypeEnum@@@@@std@@@std@@@TypeConverter@@YAPBDXZ 1000d430 f   PlugInUtilities:TypeConverter.obj
 0001:0000c440       ??$toString@V?$vector@V?$EnumWrapper@W4LayerTypeEnum@@@@V?$allocator@V?$EnumWrapper@W4LayerTypeEnum@@@@@std@@@std@@@TypeConverter@@YAPBDXZ 1000d440 f   PlugInUtilities:TypeConverter.obj
 0001:0000c450       ??$toString@V?$EnumWrapper@W4LineStyleEnum@@@@@TypeConverter@@YAPBDXZ 1000d450 f   PlugInUtilities:TypeConverter.obj
 0001:0000c460       ??$toString@V?$vector@PAV?$EnumWrapper@W4LineStyleEnum@@@@V?$allocator@PAV?$EnumWrapper@W4LineStyleEnum@@@@@std@@@std@@@TypeConverter@@YAPBDXZ 1000d460 f   PlugInUtilities:TypeConverter.obj
 0001:0000c470       ??$toString@V?$vector@V?$EnumWrapper@W4LineStyleEnum@@@@V?$allocator@V?$EnumWrapper@W4LineStyleEnum@@@@@std@@@std@@@TypeConverter@@YAPBDXZ 1000d470 f   PlugInUtilities:TypeConverter.obj
 0001:0000c480       ??$toString@V?$EnumWrapper@W4PanLimitTypeEnum@@@@@TypeConverter@@YAPBDXZ 1000d480 f   PlugInUtilities:TypeConverter.obj
 0001:0000c490       ??$toString@V?$vector@PAV?$EnumWrapper@W4PanLimitTypeEnum@@@@V?$allocator@PAV?$EnumWrapper@W4PanLimitTypeEnum@@@@@std@@@std@@@TypeConverter@@YAPBDXZ 1000d490 f   PlugInUtilities:TypeConverter.obj
 0001:0000c4a0       ??$toString@V?$vector@V?$EnumWrapper@W4PanLimitTypeEnum@@@@V?$allocator@V?$EnumWrapper@W4PanLimitTypeEnum@@@@@std@@@std@@@TypeConverter@@YAPBDXZ 1000d4a0 f   PlugInUtilities:TypeConverter.obj
 0001:0000c4b0       ??$toString@V?$EnumWrapper@W4PassAreaEnum@@@@@TypeConverter@@YAPBDXZ 1000d4b0 f   PlugInUtilities:TypeConverter.obj
 0001:0000c4c0       ??$toString@V?$vector@PAV?$EnumWrapper@W4PassAreaEnum@@@@V?$allocator@PAV?$EnumWrapper@W4PassAreaEnum@@@@@std@@@std@@@TypeConverter@@YAPBDXZ 1000d4c0 f   PlugInUtilities:TypeConverter.obj
 0001:0000c4d0       ??$toString@V?$vector@V?$EnumWrapper@W4PassAreaEnum@@@@V?$allocator@V?$EnumWrapper@W4PassAreaEnum@@@@@std@@@std@@@TypeConverter@@YAPBDXZ 1000d4d0 f   PlugInUtilities:TypeConverter.obj
 0001:0000c4e0       ??$toString@V?$EnumWrapper@W4PlotObjectTypeEnum@@@@@TypeConverter@@YAPBDXZ 1000d4e0 f   PlugInUtilities:TypeConverter.obj
 0001:0000c4f0       ??$toString@V?$vector@PAV?$EnumWrapper@W4PlotObjectTypeEnum@@@@V?$allocator@PAV?$EnumWrapper@W4PlotObjectTypeEnum@@@@@std@@@std@@@TypeConverter@@YAPBDXZ 1000d4f0 f   PlugInUtilities:TypeConverter.obj
 0001:0000c500       ??$toString@V?$vector@V?$EnumWrapper@W4PlotObjectTypeEnum@@@@V?$allocator@V?$EnumWrapper@W4PlotObjectTypeEnum@@@@@std@@@std@@@TypeConverter@@YAPBDXZ 1000d500 f   PlugInUtilities:TypeConverter.obj
 0001:0000c510       ??$toString@V?$EnumWrapper@W4PointSymbolTypeEnum@Point@@@@@TypeConverter@@YAPBDXZ 1000d510 f   PlugInUtilities:TypeConverter.obj
 0001:0000c520       ??$toString@V?$vector@PAV?$EnumWrapper@W4PointSymbolTypeEnum@Point@@@@V?$allocator@PAV?$EnumWrapper@W4PointSymbolTypeEnum@Point@@@@@std@@@std@@@TypeConverter@@YAPBDXZ 1000d520 f   PlugInUtilities:TypeConverter.obj
 0001:0000c530       ??$toString@V?$vector@V?$EnumWrapper@W4PointSymbolTypeEnum@Point@@@@V?$allocator@V?$EnumWrapper@W4PointSymbolTypeEnum@Point@@@@@std@@@std@@@TypeConverter@@YAPBDXZ 1000d530 f   PlugInUtilities:TypeConverter.obj
 0001:0000c540       ??$toString@V?$EnumWrapper@W4PositionTypeEnum@@@@@TypeConverter@@YAPBDXZ 1000d540 f   PlugInUtilities:TypeConverter.obj
 0001:0000c550       ??$toString@V?$vector@PAV?$EnumWrapper@W4PositionTypeEnum@@@@V?$allocator@PAV?$EnumWrapper@W4PositionTypeEnum@@@@@std@@@std@@@TypeConverter@@YAPBDXZ 1000d550 f   PlugInUtilities:TypeConverter.obj
 0001:0000c560       ??$toString@V?$vector@V?$EnumWrapper@W4PositionTypeEnum@@@@V?$allocator@V?$EnumWrapper@W4PositionTypeEnum@@@@@std@@@std@@@TypeConverter@@YAPBDXZ 1000d560 f   PlugInUtilities:TypeConverter.obj
 0001:0000c570       ??$toString@V?$EnumWrapper@W4ProcessingLocationEnum@@@@@TypeConverter@@YAPBDXZ 1000d570 f   PlugInUtilities:TypeConverter.obj
 0001:0000c580       ??$toString@V?$vector@PAV?$EnumWrapper@W4ProcessingLocationEnum@@@@V?$allocator@PAV?$EnumWrapper@W4ProcessingLocationEnum@@@@@std@@@std@@@TypeConverter@@YAPBDXZ 1000d580 f   PlugInUtilities:TypeConverter.obj
 0001:0000c590       ??$toString@V?$vector@V?$EnumWrapper@W4ProcessingLocationEnum@@@@V?$allocator@V?$EnumWrapper@W4ProcessingLocationEnum@@@@@std@@@std@@@TypeConverter@@YAPBDXZ 1000d590 f   PlugInUtilities:TypeConverter.obj
 0001:0000c5a0       ??$toString@V?$EnumWrapper@W4SessionSaveTypeEnum@@@@@TypeConverter@@YAPBDXZ 1000d5a0 f   PlugInUtilities:TypeConverter.obj
 0001:0000c5b0       ??$toString@V?$vector@PAV?$EnumWrapper@W4SessionSaveTypeEnum@@@@V?$allocator@PAV?$EnumWrapper@W4SessionSaveTypeEnum@@@@@std@@@std@@@TypeConverter@@YAPBDXZ 1000d5b0 f   PlugInUtilities:TypeConverter.obj
 0001:0000c5c0       ??$toString@V?$vector@V?$EnumWrapper@W4SessionSaveTypeEnum@@@@V?$allocator@V?$EnumWrapper@W4SessionSaveTypeEnum@@@@@std@@@std@@@TypeConverter@@YAPBDXZ 1000d5c0 f   PlugInUtilities:TypeConverter.obj
 0001:0000c5d0       ??$toString@V?$EnumWrapper@W4RasterChannelTypeEnum@@@@@TypeConverter@@YAPBDXZ 1000d5d0 f   PlugInUtilities:TypeConverter.obj
 0001:0000c5e0       ??$toString@V?$vector@PAV?$EnumWrapper@W4RasterChannelTypeEnum@@@@V?$allocator@PAV?$EnumWrapper@W4RasterChannelTypeEnum@@@@@std@@@std@@@TypeConverter@@YAPBDXZ 1000d5e0 f   PlugInUtilities:TypeConverter.obj
 0001:0000c5f0       ??$toString@V?$vector@V?$EnumWrapper@W4RasterChannelTypeEnum@@@@V?$allocator@V?$EnumWrapper@W4RasterChannelTypeEnum@@@@@std@@@std@@@TypeConverter@@YAPBDXZ 1000d5f0 f   PlugInUtilities:TypeConverter.obj
 0001:0000c600       ??$toString@V?$EnumWrapper@W4ReleaseTypeEnum@@@@@TypeConverter@@YAPBDXZ 1000d600 f   PlugInUtilities:TypeConverter.obj
 0001:0000c610       ??$toString@V?$vector@PAV?$EnumWrapper@W4ReleaseTypeEnum@@@@V?$allocator@PAV?$EnumWrapper@W4ReleaseTypeEnum@@@@@std@@@std@@@TypeConverter@@YAPBDXZ 1000d610 f   PlugInUtilities:TypeConverter.obj
 0001:0000c620       ??$toString@V?$vector@V?$EnumWrapper@W4ReleaseTypeEnum@@@@V?$allocator@V?$EnumWrapper@W4ReleaseTypeEnum@@@@@std@@@std@@@TypeConverter@@YAPBDXZ 1000d620 f   PlugInUtilities:TypeConverter.obj
 0001:0000c630       ??$toString@V?$EnumWrapper@W4StretchTypeEnum@@@@@TypeConverter@@YAPBDXZ 1000d630 f   PlugInUtilities:TypeConverter.obj
 0001:0000c640       ??$toString@V?$vector@PAV?$EnumWrapper@W4StretchTypeEnum@@@@V?$allocator@PAV?$EnumWrapper@W4StretchTypeEnum@@@@@std@@@std@@@TypeConverter@@YAPBDXZ 1000d640 f   PlugInUtilities:TypeConverter.obj
 0001:0000c650       ??$toString@V?$vector@V?$EnumWrapper@W4StretchTypeEnum@@@@V?$allocator@V?$EnumWrapper@W4StretchTypeEnum@@@@@std@@@std@@@TypeConverter@@YAPBDXZ 1000d650 f   PlugInUtilities:TypeConverter.obj
 0001:0000c660       ??$toString@V?$EnumWrapper@W4SymbolTypeEnum@@@@@TypeConverter@@YAPBDXZ 1000d660 f   PlugInUtilities:TypeConverter.obj
 0001:0000c670       ??$toString@V?$vector@PAV?$EnumWrapper@W4SymbolTypeEnum@@@@V?$allocator@PAV?$EnumWrapper@W4SymbolTypeEnum@@@@@std@@@std@@@TypeConverter@@YAPBDXZ 1000d670 f   PlugInUtilities:TypeConverter.obj
 0001:0000c680       ??$toString@V?$vector@V?$EnumWrapper@W4SymbolTypeEnum@@@@V?$allocator@V?$EnumWrapper@W4SymbolTypeEnum@@@@@std@@@std@@@TypeConverter@@YAPBDXZ 1000d680 f   PlugInUtilities:TypeConverter.obj
 0001:0000c690       ??$toString@V?$EnumWrapper@W4RegionUnitsEnum@@@@@TypeConverter@@YAPBDXZ 1000d690 f   PlugInUtilities:TypeConverter.obj
 0001:0000c6a0       ??$toString@V?$vector@PAV?$EnumWrapper@W4RegionUnitsEnum@@@@V?$allocator@PAV?$EnumWrapper@W4RegionUnitsEnum@@@@@std@@@std@@@TypeConverter@@YAPBDXZ 1000d6a0 f   PlugInUtilities:TypeConverter.obj
 0001:0000c6b0       ??$toString@V?$vector@V?$EnumWrapper@W4RegionUnitsEnum@@@@V?$allocator@V?$EnumWrapper@W4RegionUnitsEnum@@@@@std@@@std@@@TypeConverter@@YAPBDXZ 1000d6b0 f   PlugInUtilities:TypeConverter.obj
 0001:0000c6c0       ??$toString@V?$EnumWrapper@W4UnitSystemEnum@@@@@TypeConverter@@YAPBDXZ 1000d6c0 f   PlugInUtilities:TypeConverter.obj
 0001:0000c6d0       ??$toString@V?$vector@PAV?$EnumWrapper@W4UnitSystemEnum@@@@V?$allocator@PAV?$EnumWrapper@W4UnitSystemEnum@@@@@std@@@std@@@TypeConverter@@YAPBDXZ 1000d6d0 f   PlugInUtilities:TypeConverter.obj
 0001:0000c6e0       ??$toString@V?$vector@V?$EnumWrapper@W4UnitSystemEnum@@@@V?$allocator@V?$EnumWrapper@W4UnitSystemEnum@@@@@std@@@std@@@TypeConverter@@YAPBDXZ 1000d6e0 f   PlugInUtilities:TypeConverter.obj
 0001:0000c6f0       ??$toString@V?$EnumWrapper@W4UnitTypeEnum@@@@@TypeConverter@@YAPBDXZ 1000d6f0 f   PlugInUtilities:TypeConverter.obj
 0001:0000c700       ??$toString@V?$vector@PAV?$EnumWrapper@W4UnitTypeEnum@@@@V?$allocator@PAV?$EnumWrapper@W4UnitTypeEnum@@@@@std@@@std@@@TypeConverter@@YAPBDXZ 1000d700 f   PlugInUtilities:TypeConverter.obj
 0001:0000c710       ??$toString@V?$vector@V?$EnumWrapper@W4UnitTypeEnum@@@@V?$allocator@V?$EnumWrapper@W4UnitTypeEnum@@@@@std@@@std@@@TypeConverter@@YAPBDXZ 1000d710 f   PlugInUtilities:TypeConverter.obj
 0001:0000c720       ??$toString@V?$EnumWrapper@W4WindowSizeTypeEnum@@@@@TypeConverter@@YAPBDXZ 1000d720 f   PlugInUtilities:TypeConverter.obj
 0001:0000c730       ??$toString@V?$vector@PAV?$EnumWrapper@W4WindowSizeTypeEnum@@@@V?$allocator@PAV?$EnumWrapper@W4WindowSizeTypeEnum@@@@@std@@@std@@@TypeConverter@@YAPBDXZ 1000d730 f   PlugInUtilities:TypeConverter.obj
 0001:0000c740       ??$toString@V?$vector@V?$EnumWrapper@W4WindowSizeTypeEnum@@@@V?$allocator@V?$EnumWrapper@W4WindowSizeTypeEnum@@@@@std@@@std@@@TypeConverter@@YAPBDXZ 1000d740 f   PlugInUtilities:TypeConverter.obj
 0001:0000c750       ??$toString@V?$EnumWrapper@W4WindowTypeEnum@@@@@TypeConverter@@YAPBDXZ 1000d750 f   PlugInUtilities:TypeConverter.obj
 0001:0000c760       ??$toString@V?$vector@PAV?$EnumWrapper@W4WindowTypeEnum@@@@V?$allocator@PAV?$EnumWrapper@W4WindowTypeEnum@@@@@std@@@std@@@TypeConverter@@YAPBDXZ 1000d760 f   PlugInUtilities:TypeConverter.obj
 0001:0000c770       ??$toString@V?$vector@V?$EnumWrapper@W4WindowTypeEnum@@@@V?$allocator@V?$EnumWrapper@W4WindowTypeEnum@@@@@std@@@std@@@TypeConverter@@YAPBDXZ 1000d770 f   PlugInUtilities:TypeConverter.obj
 0001:0000c780       ??$toString@VAebInstallTransaction@@@TypeConverter@@YAPBDXZ 1000d780 f   PlugInUtilities:TypeConverter.obj
 0001:0000c790       ??$toString@V?$vector@PAVAebInstallTransaction@@V?$allocator@PAVAebInstallTransaction@@@std@@@std@@@TypeConverter@@YAPBDXZ 1000d790 f   PlugInUtilities:TypeConverter.obj
 0001:0000c7a0       ??$toString@V?$vector@VAebInstallTransaction@@V?$allocator@VAebInstallTransaction@@@std@@@std@@@TypeConverter@@YAPBDXZ 1000d7a0 f   PlugInUtilities:TypeConverter.obj
 0001:0000c7b0       ??$toString@PAVAebInstallTransaction@@@TypeConverter@@YAPBDXZ 1000d7b0 f   PlugInUtilities:TypeConverter.obj
 0001:0000c7c0       ??$toString@VApplicationWindow@@@TypeConverter@@YAPBDXZ 1000d7c0 f   PlugInUtilities:TypeConverter.obj
 0001:0000c7d0       ??$toString@V?$vector@PAVApplicationWindow@@V?$allocator@PAVApplicationWindow@@@std@@@std@@@TypeConverter@@YAPBDXZ 1000d7d0 f   PlugInUtilities:TypeConverter.obj
 0001:0000c7e0       ??$toString@V?$vector@VApplicationWindow@@V?$allocator@VApplicationWindow@@@std@@@std@@@TypeConverter@@YAPBDXZ 1000d7e0 f   PlugInUtilities:TypeConverter.obj
 0001:0000c7f0       ??$toString@PAVApplicationWindow@@@TypeConverter@@YAPBDXZ 1000d7f0 f   PlugInUtilities:TypeConverter.obj
 0001:0000c800       ??$toString@VAnimation@@@TypeConverter@@YAPBDXZ 1000d800 f   PlugInUtilities:TypeConverter.obj
 0001:0000c810       ??$toString@V?$vector@PAVAnimation@@V?$allocator@PAVAnimation@@@std@@@std@@@TypeConverter@@YAPBDXZ 1000d810 f   PlugInUtilities:TypeConverter.obj
 0001:0000c820       ??$toString@V?$vector@VAnimation@@V?$allocator@VAnimation@@@std@@@std@@@TypeConverter@@YAPBDXZ 1000d820 f   PlugInUtilities:TypeConverter.obj
 0001:0000c830       ??$toString@PAVAnimation@@@TypeConverter@@YAPBDXZ 1000d830 f   PlugInUtilities:TypeConverter.obj
 0001:0000c840       ??$toString@VAnimationController@@@TypeConverter@@YAPBDXZ 1000d840 f   PlugInUtilities:TypeConverter.obj
 0001:0000c850       ??$toString@V?$vector@PAVAnimationController@@V?$allocator@PAVAnimationController@@@std@@@std@@@TypeConverter@@YAPBDXZ 1000d850 f   PlugInUtilities:TypeConverter.obj
 0001:0000c860       ??$toString@V?$vector@VAnimationController@@V?$allocator@VAnimationController@@@std@@@std@@@TypeConverter@@YAPBDXZ 1000d860 f   PlugInUtilities:TypeConverter.obj
 0001:0000c870       ??$toString@PAVAnimationController@@@TypeConverter@@YAPBDXZ 1000d870 f   PlugInUtilities:TypeConverter.obj
 0001:0000c880       ??$toString@VAnnotationElement@@@TypeConverter@@YAPBDXZ 1000d880 f   PlugInUtilities:TypeConverter.obj
 0001:0000c890       ??$toString@V?$vector@PAVAnnotationElement@@V?$allocator@PAVAnnotationElement@@@std@@@std@@@TypeConverter@@YAPBDXZ 1000d890 f   PlugInUtilities:TypeConverter.obj
 0001:0000c8a0       ??$toString@V?$vector@VAnnotationElement@@V?$allocator@VAnnotationElement@@@std@@@std@@@TypeConverter@@YAPBDXZ 1000d8a0 f   PlugInUtilities:TypeConverter.obj
 0001:0000c8b0       ??$toString@PAVAnnotationElement@@@TypeConverter@@YAPBDXZ 1000d8b0 f   PlugInUtilities:TypeConverter.obj
 0001:0000c8c0       ??$toString@VAnnotationLayer@@@TypeConverter@@YAPBDXZ 1000d8c0 f   PlugInUtilities:TypeConverter.obj
 0001:0000c8d0       ??$toString@V?$vector@PAVAnnotationLayer@@V?$allocator@PAVAnnotationLayer@@@std@@@std@@@TypeConverter@@YAPBDXZ 1000d8d0 f   PlugInUtilities:TypeConverter.obj
 0001:0000c8e0       ??$toString@V?$vector@VAnnotationLayer@@V?$allocator@VAnnotationLayer@@@std@@@std@@@TypeConverter@@YAPBDXZ 1000d8e0 f   PlugInUtilities:TypeConverter.obj
 0001:0000c8f0       ??$toString@PAVAnnotationLayer@@@TypeConverter@@YAPBDXZ 1000d8f0 f   PlugInUtilities:TypeConverter.obj
 0001:0000c900       ??$toString@VAny@@@TypeConverter@@YAPBDXZ 1000d900 f   PlugInUtilities:TypeConverter.obj
 0001:0000c910       ??$toString@V?$vector@PAVAny@@V?$allocator@PAVAny@@@std@@@std@@@TypeConverter@@YAPBDXZ 1000d910 f   PlugInUtilities:TypeConverter.obj
 0001:0000c920       ??$toString@V?$vector@VAny@@V?$allocator@VAny@@@std@@@std@@@TypeConverter@@YAPBDXZ 1000d920 f   PlugInUtilities:TypeConverter.obj
 0001:0000c930       ??$toString@PAVAny@@@TypeConverter@@YAPBDXZ 1000d930 f   PlugInUtilities:TypeConverter.obj
 0001:0000c940       ??$toString@VAoiElement@@@TypeConverter@@YAPBDXZ 1000d940 f   PlugInUtilities:TypeConverter.obj
 0001:0000c950       ??$toString@V?$vector@PAVAoiElement@@V?$allocator@PAVAoiElement@@@std@@@std@@@TypeConverter@@YAPBDXZ 1000d950 f   PlugInUtilities:TypeConverter.obj
 0001:0000c960       ??$toString@V?$vector@VAoiElement@@V?$allocator@VAoiElement@@@std@@@std@@@TypeConverter@@YAPBDXZ 1000d960 f   PlugInUtilities:TypeConverter.obj
 0001:0000c970       ??$toString@PAVAoiElement@@@TypeConverter@@YAPBDXZ 1000d970 f   PlugInUtilities:TypeConverter.obj
 0001:0000c980       ??$toString@VAoiLayer@@@TypeConverter@@YAPBDXZ 1000d980 f   PlugInUtilities:TypeConverter.obj
 0001:0000c990       ??$toString@V?$vector@PAVAoiLayer@@V?$allocator@PAVAoiLayer@@@std@@@std@@@TypeConverter@@YAPBDXZ 1000d990 f   PlugInUtilities:TypeConverter.obj
 0001:0000c9a0       ??$toString@V?$vector@VAoiLayer@@V?$allocator@VAoiLayer@@@std@@@std@@@TypeConverter@@YAPBDXZ 1000d9a0 f   PlugInUtilities:TypeConverter.obj
 0001:0000c9b0       ??$toString@PAVAoiLayer@@@TypeConverter@@YAPBDXZ 1000d9b0 f   PlugInUtilities:TypeConverter.obj
 0001:0000c9c0       ??$toString@VBitMask@@@TypeConverter@@YAPBDXZ 1000d9c0 f   PlugInUtilities:TypeConverter.obj
 0001:0000c9d0       ??$toString@V?$vector@PAVBitMask@@V?$allocator@PAVBitMask@@@std@@@std@@@TypeConverter@@YAPBDXZ 1000d9d0 f   PlugInUtilities:TypeConverter.obj
 0001:0000c9e0       ??$toString@V?$vector@VBitMask@@V?$allocator@VBitMask@@@std@@@std@@@TypeConverter@@YAPBDXZ 1000d9e0 f   PlugInUtilities:TypeConverter.obj
 0001:0000c9f0       ??$toString@PAVBitMask@@@TypeConverter@@YAPBDXZ 1000d9f0 f   PlugInUtilities:TypeConverter.obj
 0001:0000ca00       ??$toString@VCartesianPlot@@@TypeConverter@@YAPBDXZ 1000da00 f   PlugInUtilities:TypeConverter.obj
 0001:0000ca10       ??$toString@V?$vector@PAVCartesianPlot@@V?$allocator@PAVCartesianPlot@@@std@@@std@@@TypeConverter@@YAPBDXZ 1000da10 f   PlugInUtilities:TypeConverter.obj
 0001:0000ca20       ??$toString@V?$vector@VCartesianPlot@@V?$allocator@VCartesianPlot@@@std@@@std@@@TypeConverter@@YAPBDXZ 1000da20 f   PlugInUtilities:TypeConverter.obj
 0001:0000ca30       ??$toString@PAVCartesianPlot@@@TypeConverter@@YAPBDXZ 1000da30 f   PlugInUtilities:TypeConverter.obj
 0001:0000ca40       ??$toString@VClassification@@@TypeConverter@@YAPBDXZ 1000da40 f   PlugInUtilities:TypeConverter.obj
 0001:0000ca50       ??$toString@V?$vector@PAVClassification@@V?$allocator@PAVClassification@@@std@@@std@@@TypeConverter@@YAPBDXZ 1000da50 f   PlugInUtilities:TypeConverter.obj
 0001:0000ca60       ??$toString@V?$vector@VClassification@@V?$allocator@VClassification@@@std@@@std@@@TypeConverter@@YAPBDXZ 1000da60 f   PlugInUtilities:TypeConverter.obj
 0001:0000ca70       ??$toString@PAVClassification@@@TypeConverter@@YAPBDXZ 1000da70 f   PlugInUtilities:TypeConverter.obj
 0001:0000ca80       ??$toString@VClassificationLayer@@@TypeConverter@@YAPBDXZ 1000da80 f   PlugInUtilities:TypeConverter.obj
 0001:0000ca90       ??$toString@V?$vector@PAVClassificationLayer@@V?$allocator@PAVClassificationLayer@@@std@@@std@@@TypeConverter@@YAPBDXZ 1000da90 f   PlugInUtilities:TypeConverter.obj
 0001:0000caa0       ??$toString@V?$vector@VClassificationLayer@@V?$allocator@VClassificationLayer@@@std@@@std@@@TypeConverter@@YAPBDXZ 1000daa0 f   PlugInUtilities:TypeConverter.obj
 0001:0000cab0       ??$toString@PAVClassificationLayer@@@TypeConverter@@YAPBDXZ 1000dab0 f   PlugInUtilities:TypeConverter.obj
 0001:0000cac0       ??$toString@VColorType@@@TypeConverter@@YAPBDXZ 1000dac0 f   PlugInUtilities:TypeConverter.obj
 0001:0000cad0       ??$toString@V?$vector@PAVColorType@@V?$allocator@PAVColorType@@@std@@@std@@@TypeConverter@@YAPBDXZ 1000dad0 f   PlugInUtilities:TypeConverter.obj
 0001:0000cae0       ??$toString@V?$vector@VColorType@@V?$allocator@VColorType@@@std@@@std@@@TypeConverter@@YAPBDXZ 1000dae0 f   PlugInUtilities:TypeConverter.obj
 0001:0000caf0       ??$toString@PAVColorType@@@TypeConverter@@YAPBDXZ 1000daf0 f   PlugInUtilities:TypeConverter.obj
 0001:0000cb00       ??$toString@VDataDescriptor@@@TypeConverter@@YAPBDXZ 1000db00 f   PlugInUtilities:TypeConverter.obj
 0001:0000cb10       ??$toString@V?$vector@PAVDataDescriptor@@V?$allocator@PAVDataDescriptor@@@std@@@std@@@TypeConverter@@YAPBDXZ 1000db10 f   PlugInUtilities:TypeConverter.obj
 0001:0000cb20       ??$toString@V?$vector@VDataDescriptor@@V?$allocator@VDataDescriptor@@@std@@@std@@@TypeConverter@@YAPBDXZ 1000db20 f   PlugInUtilities:TypeConverter.obj
 0001:0000cb30       ??$toString@PAVDataDescriptor@@@TypeConverter@@YAPBDXZ 1000db30 f   PlugInUtilities:TypeConverter.obj
 0001:0000cb40       ??$toString@VDataElement@@@TypeConverter@@YAPBDXZ 1000db40 f   PlugInUtilities:TypeConverter.obj
 0001:0000cb50       ??$toString@V?$vector@PAVDataElement@@V?$allocator@PAVDataElement@@@std@@@std@@@TypeConverter@@YAPBDXZ 1000db50 f   PlugInUtilities:TypeConverter.obj
 0001:0000cb60       ??$toString@V?$vector@VDataElement@@V?$allocator@VDataElement@@@std@@@std@@@TypeConverter@@YAPBDXZ 1000db60 f   PlugInUtilities:TypeConverter.obj
 0001:0000cb70       ??$toString@PAVDataElement@@@TypeConverter@@YAPBDXZ 1000db70 f   PlugInUtilities:TypeConverter.obj
 0001:0000cb80       ??$toString@VDataElementGroup@@@TypeConverter@@YAPBDXZ 1000db80 f   PlugInUtilities:TypeConverter.obj
 0001:0000cb90       ??$toString@V?$vector@PAVDataElementGroup@@V?$allocator@PAVDataElementGroup@@@std@@@std@@@TypeConverter@@YAPBDXZ 1000db90 f   PlugInUtilities:TypeConverter.obj
 0001:0000cba0       ??$toString@V?$vector@VDataElementGroup@@V?$allocator@VDataElementGroup@@@std@@@std@@@TypeConverter@@YAPBDXZ 1000dba0 f   PlugInUtilities:TypeConverter.obj
 0001:0000cbb0       ??$toString@PAVDataElementGroup@@@TypeConverter@@YAPBDXZ 1000dbb0 f   PlugInUtilities:TypeConverter.obj
 0001:0000cbc0       ??$toString@VDataRequest@@@TypeConverter@@YAPBDXZ 1000dbc0 f   PlugInUtilities:TypeConverter.obj
 0001:0000cbd0       ??$toString@V?$vector@PAVDataRequest@@V?$allocator@PAVDataRequest@@@std@@@std@@@TypeConverter@@YAPBDXZ 1000dbd0 f   PlugInUtilities:TypeConverter.obj
 0001:0000cbe0       ??$toString@V?$vector@VDataRequest@@V?$allocator@VDataRequest@@@std@@@std@@@TypeConverter@@YAPBDXZ 1000dbe0 f   PlugInUtilities:TypeConverter.obj
 0001:0000cbf0       ??$toString@PAVDataRequest@@@TypeConverter@@YAPBDXZ 1000dbf0 f   PlugInUtilities:TypeConverter.obj
 0001:0000cc00       ??$toString@VDataVariantAnyData@@@TypeConverter@@YAPBDXZ 1000dc00 f   PlugInUtilities:TypeConverter.obj
 0001:0000cc10       ??$toString@V?$vector@PAVDataVariantAnyData@@V?$allocator@PAVDataVariantAnyData@@@std@@@std@@@TypeConverter@@YAPBDXZ 1000dc10 f   PlugInUtilities:TypeConverter.obj
 0001:0000cc20       ??$toString@V?$vector@VDataVariantAnyData@@V?$allocator@VDataVariantAnyData@@@std@@@std@@@TypeConverter@@YAPBDXZ 1000dc20 f   PlugInUtilities:TypeConverter.obj
 0001:0000cc30       ??$toString@PAVDataVariantAnyData@@@TypeConverter@@YAPBDXZ 1000dc30 f   PlugInUtilities:TypeConverter.obj
 0001:0000cc40       ??$toString@VDateTime@@@TypeConverter@@YAPBDXZ 1000dc40 f   PlugInUtilities:TypeConverter.obj
 0001:0000cc50       ??$toString@V?$vector@PAVDateTime@@V?$allocator@PAVDateTime@@@std@@@std@@@TypeConverter@@YAPBDXZ 1000dc50 f   PlugInUtilities:TypeConverter.obj
 0001:0000cc60       ??$toString@V?$vector@VDateTime@@V?$allocator@VDateTime@@@std@@@std@@@TypeConverter@@YAPBDXZ 1000dc60 f   PlugInUtilities:TypeConverter.obj
 0001:0000cc70       ??$toString@PAVDateTime@@@TypeConverter@@YAPBDXZ 1000dc70 f   PlugInUtilities:TypeConverter.obj
 0001:0000cc80       ??$toString@VDimensionDescriptor@@@TypeConverter@@YAPBDXZ 1000dc80 f   PlugInUtilities:TypeConverter.obj
 0001:0000cc90       ??$toString@V?$vector@PAVDimensionDescriptor@@V?$allocator@PAVDimensionDescriptor@@@std@@@std@@@TypeConverter@@YAPBDXZ 1000dc90 f   PlugInUtilities:TypeConverter.obj
 0001:0000cca0       ??$toString@V?$vector@VDimensionDescriptor@@V?$allocator@VDimensionDescriptor@@@std@@@std@@@TypeConverter@@YAPBDXZ 1000dca0 f   PlugInUtilities:TypeConverter.obj
 0001:0000ccb0       ??$toString@PAVDimensionDescriptor@@@TypeConverter@@YAPBDXZ 1000dcb0 f   PlugInUtilities:TypeConverter.obj
 0001:0000ccc0       ??$toString@VDynamicObject@@@TypeConverter@@YAPBDXZ 1000dcc0 f   PlugInUtilities:TypeConverter.obj
 0001:0000ccd0       ??$toString@V?$vector@PAVDynamicObject@@V?$allocator@PAVDynamicObject@@@std@@@std@@@TypeConverter@@YAPBDXZ 1000dcd0 f   PlugInUtilities:TypeConverter.obj
 0001:0000cce0       ??$toString@V?$vector@VDynamicObject@@V?$allocator@VDynamicObject@@@std@@@std@@@TypeConverter@@YAPBDXZ 1000dce0 f   PlugInUtilities:TypeConverter.obj
 0001:0000ccf0       ??$toString@PAVDynamicObject@@@TypeConverter@@YAPBDXZ 1000dcf0 f   PlugInUtilities:TypeConverter.obj
 0001:0000cd00       ??$toString@VExecutableAgent@@@TypeConverter@@YAPBDXZ 1000dd00 f   PlugInUtilities:TypeConverter.obj
 0001:0000cd10       ??$toString@V?$vector@PAVExecutableAgent@@V?$allocator@PAVExecutableAgent@@@std@@@std@@@TypeConverter@@YAPBDXZ 1000dd10 f   PlugInUtilities:TypeConverter.obj
 0001:0000cd20       ??$toString@V?$vector@VExecutableAgent@@V?$allocator@VExecutableAgent@@@std@@@std@@@TypeConverter@@YAPBDXZ 1000dd20 f   PlugInUtilities:TypeConverter.obj
 0001:0000cd30       ??$toString@PAVExecutableAgent@@@TypeConverter@@YAPBDXZ 1000dd30 f   PlugInUtilities:TypeConverter.obj
 0001:0000cd40       ??$toString@VExportAgent@@@TypeConverter@@YAPBDXZ 1000dd40 f   PlugInUtilities:TypeConverter.obj
 0001:0000cd50       ??$toString@V?$vector@PAVExportAgent@@V?$allocator@PAVExportAgent@@@std@@@std@@@TypeConverter@@YAPBDXZ 1000dd50 f   PlugInUtilities:TypeConverter.obj
 0001:0000cd60       ??$toString@V?$vector@VExportAgent@@V?$allocator@VExportAgent@@@std@@@std@@@TypeConverter@@YAPBDXZ 1000dd60 f   PlugInUtilities:TypeConverter.obj
 0001:0000cd70       ??$toString@PAVExportAgent@@@TypeConverter@@YAPBDXZ 1000dd70 f   PlugInUtilities:TypeConverter.obj
 0001:0000cd80       ??$toString@VFileDescriptor@@@TypeConverter@@YAPBDXZ 1000dd80 f   PlugInUtilities:TypeConverter.obj
 0001:0000cd90       ??$toString@V?$vector@PAVFileDescriptor@@V?$allocator@PAVFileDescriptor@@@std@@@std@@@TypeConverter@@YAPBDXZ 1000dd90 f   PlugInUtilities:TypeConverter.obj
 0001:0000cda0       ??$toString@V?$vector@VFileDescriptor@@V?$allocator@VFileDescriptor@@@std@@@std@@@TypeConverter@@YAPBDXZ 1000dda0 f   PlugInUtilities:TypeConverter.obj
 0001:0000cdb0       ??$toString@PAVFileDescriptor@@@TypeConverter@@YAPBDXZ 1000ddb0 f   PlugInUtilities:TypeConverter.obj
 0001:0000cdc0       ??$toString@VFileFinder@@@TypeConverter@@YAPBDXZ 1000ddc0 f   PlugInUtilities:TypeConverter.obj
 0001:0000cdd0       ??$toString@V?$vector@PAVFileFinder@@V?$allocator@PAVFileFinder@@@std@@@std@@@TypeConverter@@YAPBDXZ 1000ddd0 f   PlugInUtilities:TypeConverter.obj
 0001:0000cde0       ??$toString@V?$vector@VFileFinder@@V?$allocator@VFileFinder@@@std@@@std@@@TypeConverter@@YAPBDXZ 1000dde0 f   PlugInUtilities:TypeConverter.obj
 0001:0000cdf0       ??$toString@PAVFileFinder@@@TypeConverter@@YAPBDXZ 1000ddf0 f   PlugInUtilities:TypeConverter.obj
 0001:0000ce00       ??$toString@VFilename@@@TypeConverter@@YAPBDXZ 1000de00 f   PlugInUtilities:TypeConverter.obj
 0001:0000ce10       ??$toString@V?$vector@PAVFilename@@V?$allocator@PAVFilename@@@std@@@std@@@TypeConverter@@YAPBDXZ 1000de10 f   PlugInUtilities:TypeConverter.obj
 0001:0000ce20       ??$toString@V?$vector@VFilename@@V?$allocator@VFilename@@@std@@@std@@@TypeConverter@@YAPBDXZ 1000de20 f   PlugInUtilities:TypeConverter.obj
 0001:0000ce30       ??$toString@PAVFilename@@@TypeConverter@@YAPBDXZ 1000de30 f   PlugInUtilities:TypeConverter.obj
 0001:0000ce40       ??$toString@VFloatComplex@@@TypeConverter@@YAPBDXZ 1000de40 f   PlugInUtilities:TypeConverter.obj
 0001:0000ce50       ??$toString@V?$vector@PAVFloatComplex@@V?$allocator@PAVFloatComplex@@@std@@@std@@@TypeConverter@@YAPBDXZ 1000de50 f   PlugInUtilities:TypeConverter.obj
 0001:0000ce60       ??$toString@V?$vector@VFloatComplex@@V?$allocator@VFloatComplex@@@std@@@std@@@TypeConverter@@YAPBDXZ 1000de60 f   PlugInUtilities:TypeConverter.obj
 0001:0000ce70       ??$toString@PAVFloatComplex@@@TypeConverter@@YAPBDXZ 1000de70 f   PlugInUtilities:TypeConverter.obj
 0001:0000ce80       ??$toString@VFont@@@TypeConverter@@YAPBDXZ 1000de80 f   PlugInUtilities:TypeConverter.obj
 0001:0000ce90       ??$toString@V?$vector@PAVFont@@V?$allocator@PAVFont@@@std@@@std@@@TypeConverter@@YAPBDXZ 1000de90 f   PlugInUtilities:TypeConverter.obj
 0001:0000cea0       ??$toString@V?$vector@VFont@@V?$allocator@VFont@@@std@@@std@@@TypeConverter@@YAPBDXZ 1000dea0 f   PlugInUtilities:TypeConverter.obj
 0001:0000ceb0       ??$toString@PAVFont@@@TypeConverter@@YAPBDXZ 1000deb0 f   PlugInUtilities:TypeConverter.obj
 0001:0000cec0       ??$toString@VGcpLayer@@@TypeConverter@@YAPBDXZ 1000dec0 f   PlugInUtilities:TypeConverter.obj
 0001:0000ced0       ??$toString@V?$vector@PAVGcpLayer@@V?$allocator@PAVGcpLayer@@@std@@@std@@@TypeConverter@@YAPBDXZ 1000ded0 f   PlugInUtilities:TypeConverter.obj
 0001:0000cee0       ??$toString@V?$vector@VGcpLayer@@V?$allocator@VGcpLayer@@@std@@@std@@@TypeConverter@@YAPBDXZ 1000dee0 f   PlugInUtilities:TypeConverter.obj
 0001:0000cef0       ??$toString@PAVGcpLayer@@@TypeConverter@@YAPBDXZ 1000def0 f   PlugInUtilities:TypeConverter.obj
 0001:0000cf00       ??$toString@VGcpList@@@TypeConverter@@YAPBDXZ 1000df00 f   PlugInUtilities:TypeConverter.obj
 0001:0000cf10       ??$toString@V?$vector@PAVGcpList@@V?$allocator@PAVGcpList@@@std@@@std@@@TypeConverter@@YAPBDXZ 1000df10 f   PlugInUtilities:TypeConverter.obj
 0001:0000cf20       ??$toString@V?$vector@VGcpList@@V?$allocator@VGcpList@@@std@@@std@@@TypeConverter@@YAPBDXZ 1000df20 f   PlugInUtilities:TypeConverter.obj
 0001:0000cf30       ??$toString@PAVGcpList@@@TypeConverter@@YAPBDXZ 1000df30 f   PlugInUtilities:TypeConverter.obj
 0001:0000cf40       ??$toString@VGraphicElement@@@TypeConverter@@YAPBDXZ 1000df40 f   PlugInUtilities:TypeConverter.obj
 0001:0000cf50       ??$toString@V?$vector@PAVGraphicElement@@V?$allocator@PAVGraphicElement@@@std@@@std@@@TypeConverter@@YAPBDXZ 1000df50 f   PlugInUtilities:TypeConverter.obj
 0001:0000cf60       ??$toString@V?$vector@VGraphicElement@@V?$allocator@VGraphicElement@@@std@@@std@@@TypeConverter@@YAPBDXZ 1000df60 f   PlugInUtilities:TypeConverter.obj
 0001:0000cf70       ??$toString@PAVGraphicElement@@@TypeConverter@@YAPBDXZ 1000df70 f   PlugInUtilities:TypeConverter.obj
 0001:0000cf80       ??$toString@VGraphicLayer@@@TypeConverter@@YAPBDXZ 1000df80 f   PlugInUtilities:TypeConverter.obj
 0001:0000cf90       ??$toString@V?$vector@PAVGraphicLayer@@V?$allocator@PAVGraphicLayer@@@std@@@std@@@TypeConverter@@YAPBDXZ 1000df90 f   PlugInUtilities:TypeConverter.obj
 0001:0000cfa0       ??$toString@V?$vector@VGraphicLayer@@V?$allocator@VGraphicLayer@@@std@@@std@@@TypeConverter@@YAPBDXZ 1000dfa0 f   PlugInUtilities:TypeConverter.obj
 0001:0000cfb0       ??$toString@PAVGraphicLayer@@@TypeConverter@@YAPBDXZ 1000dfb0 f   PlugInUtilities:TypeConverter.obj
 0001:0000cfc0       ??$toString@VHistogramPlot@@@TypeConverter@@YAPBDXZ 1000dfc0 f   PlugInUtilities:TypeConverter.obj
 0001:0000cfd0       ??$toString@V?$vector@PAVHistogramPlot@@V?$allocator@PAVHistogramPlot@@@std@@@std@@@TypeConverter@@YAPBDXZ 1000dfd0 f   PlugInUtilities:TypeConverter.obj
 0001:0000cfe0       ??$toString@V?$vector@VHistogramPlot@@V?$allocator@VHistogramPlot@@@std@@@std@@@TypeConverter@@YAPBDXZ 1000dfe0 f   PlugInUtilities:TypeConverter.obj
 0001:0000cff0       ??$toString@PAVHistogramPlot@@@TypeConverter@@YAPBDXZ 1000dff0 f   PlugInUtilities:TypeConverter.obj
 0001:0000d000       ??$toString@VImportAgent@@@TypeConverter@@YAPBDXZ 1000e000 f   PlugInUtilities:TypeConverter.obj
 0001:0000d010       ??$toString@V?$vector@PAVImportAgent@@V?$allocator@PAVImportAgent@@@std@@@std@@@TypeConverter@@YAPBDXZ 1000e010 f   PlugInUtilities:TypeConverter.obj
 0001:0000d020       ??$toString@V?$vector@VImportAgent@@V?$allocator@VImportAgent@@@std@@@std@@@TypeConverter@@YAPBDXZ 1000e020 f   PlugInUtilities:TypeConverter.obj
 0001:0000d030       ??$toString@PAVImportAgent@@@TypeConverter@@YAPBDXZ 1000e030 f   PlugInUtilities:TypeConverter.obj
 0001:0000d040       ??$toString@VIntegerComplex@@@TypeConverter@@YAPBDXZ 1000e040 f   PlugInUtilities:TypeConverter.obj
 0001:0000d050       ??$toString@V?$vector@PAVIntegerComplex@@V?$allocator@PAVIntegerComplex@@@std@@@std@@@TypeConverter@@YAPBDXZ 1000e050 f   PlugInUtilities:TypeConverter.obj
 0001:0000d060       ??$toString@V?$vector@VIntegerComplex@@V?$allocator@VIntegerComplex@@@std@@@std@@@TypeConverter@@YAPBDXZ 1000e060 f   PlugInUtilities:TypeConverter.obj
 0001:0000d070       ??$toString@PAVIntegerComplex@@@TypeConverter@@YAPBDXZ 1000e070 f   PlugInUtilities:TypeConverter.obj
 0001:0000d080       ??$toString@VInt64@@@TypeConverter@@YAPBDXZ 1000e080 f   PlugInUtilities:TypeConverter.obj
 0001:0000d090       ??$toString@V?$vector@PAVInt64@@V?$allocator@PAVInt64@@@std@@@std@@@TypeConverter@@YAPBDXZ 1000e090 f   PlugInUtilities:TypeConverter.obj
 0001:0000d0a0       ??$toString@V?$vector@VInt64@@V?$allocator@VInt64@@@std@@@std@@@TypeConverter@@YAPBDXZ 1000e0a0 f   PlugInUtilities:TypeConverter.obj
 0001:0000d0b0       ??$toString@VLatLonLayer@@@TypeConverter@@YAPBDXZ 1000e0b0 f   PlugInUtilities:TypeConverter.obj
 0001:0000d0c0       ??$toString@V?$vector@PAVLatLonLayer@@V?$allocator@PAVLatLonLayer@@@std@@@std@@@TypeConverter@@YAPBDXZ 1000e0c0 f   PlugInUtilities:TypeConverter.obj
 0001:0000d0d0       ??$toString@V?$vector@VLatLonLayer@@V?$allocator@VLatLonLayer@@@std@@@std@@@TypeConverter@@YAPBDXZ 1000e0d0 f   PlugInUtilities:TypeConverter.obj
 0001:0000d0e0       ??$toString@PAVLatLonLayer@@@TypeConverter@@YAPBDXZ 1000e0e0 f   PlugInUtilities:TypeConverter.obj
 0001:0000d0f0       ??$toString@VLayer@@@TypeConverter@@YAPBDXZ 1000e0f0 f   PlugInUtilities:TypeConverter.obj
 0001:0000d100       ??$toString@V?$vector@PAVLayer@@V?$allocator@PAVLayer@@@std@@@std@@@TypeConverter@@YAPBDXZ 1000e100 f   PlugInUtilities:TypeConverter.obj
 0001:0000d110       ??$toString@V?$vector@VLayer@@V?$allocator@VLayer@@@std@@@std@@@TypeConverter@@YAPBDXZ 1000e110 f   PlugInUtilities:TypeConverter.obj
 0001:0000d120       ??$toString@PAVLayer@@@TypeConverter@@YAPBDXZ 1000e120 f   PlugInUtilities:TypeConverter.obj
 0001:0000d130       ??$toString@V?$Location@N$01@Opticks@@@TypeConverter@@YAPBDXZ 1000e130 f   PlugInUtilities:TypeConverter.obj
 0001:0000d140       ??$toString@V?$vector@PAV?$Location@N$01@Opticks@@V?$allocator@PAV?$Location@N$01@Opticks@@@std@@@std@@@TypeConverter@@YAPBDXZ 1000e140 f   PlugInUtilities:TypeConverter.obj
 0001:0000d150       ??$toString@V?$vector@V?$Location@N$01@Opticks@@V?$allocator@V?$Location@N$01@Opticks@@@std@@@std@@@TypeConverter@@YAPBDXZ 1000e150 f   PlugInUtilities:TypeConverter.obj
 0001:0000d160       ??$toString@VMeasurementLayer@@@TypeConverter@@YAPBDXZ 1000e160 f   PlugInUtilities:TypeConverter.obj
 0001:0000d170       ??$toString@V?$vector@PAVMeasurementLayer@@V?$allocator@PAVMeasurementLayer@@@std@@@std@@@TypeConverter@@YAPBDXZ 1000e170 f   PlugInUtilities:TypeConverter.obj
 0001:0000d180       ??$toString@V?$vector@VMeasurementLayer@@V?$allocator@VMeasurementLayer@@@std@@@std@@@TypeConverter@@YAPBDXZ 1000e180 f   PlugInUtilities:TypeConverter.obj
 0001:0000d190       ??$toString@PAVMeasurementLayer@@@TypeConverter@@YAPBDXZ 1000e190 f   PlugInUtilities:TypeConverter.obj
 0001:0000d1a0       ??$toString@VOrthographicView@@@TypeConverter@@YAPBDXZ 1000e1a0 f   PlugInUtilities:TypeConverter.obj
 0001:0000d1b0       ??$toString@V?$vector@PAVOrthographicView@@V?$allocator@PAVOrthographicView@@@std@@@std@@@TypeConverter@@YAPBDXZ 1000e1b0 f   PlugInUtilities:TypeConverter.obj
 0001:0000d1c0       ??$toString@V?$vector@VOrthographicView@@V?$allocator@VOrthographicView@@@std@@@std@@@TypeConverter@@YAPBDXZ 1000e1c0 f   PlugInUtilities:TypeConverter.obj
 0001:0000d1d0       ??$toString@PAVOrthographicView@@@TypeConverter@@YAPBDXZ 1000e1d0 f   PlugInUtilities:TypeConverter.obj
 0001:0000d1e0       ??$toString@VPerspectiveView@@@TypeConverter@@YAPBDXZ 1000e1e0 f   PlugInUtilities:TypeConverter.obj
 0001:0000d1f0       ??$toString@V?$vector@PAVPerspectiveView@@V?$allocator@PAVPerspectiveView@@@std@@@std@@@TypeConverter@@YAPBDXZ 1000e1f0 f   PlugInUtilities:TypeConverter.obj
 0001:0000d200       ??$toString@V?$vector@VPerspectiveView@@V?$allocator@VPerspectiveView@@@std@@@std@@@TypeConverter@@YAPBDXZ 1000e200 f   PlugInUtilities:TypeConverter.obj
 0001:0000d210       ??$toString@PAVPerspectiveView@@@TypeConverter@@YAPBDXZ 1000e210 f   PlugInUtilities:TypeConverter.obj
 0001:0000d220       ??$toString@V?$Location@H$01@Opticks@@@TypeConverter@@YAPBDXZ 1000e220 f   PlugInUtilities:TypeConverter.obj
 0001:0000d230       ??$toString@V?$vector@PAV?$Location@H$01@Opticks@@V?$allocator@PAV?$Location@H$01@Opticks@@@std@@@std@@@TypeConverter@@YAPBDXZ 1000e230 f   PlugInUtilities:TypeConverter.obj
 0001:0000d240       ??$toString@V?$vector@V?$Location@H$01@Opticks@@V?$allocator@V?$Location@H$01@Opticks@@@std@@@std@@@TypeConverter@@YAPBDXZ 1000e240 f   PlugInUtilities:TypeConverter.obj
 0001:0000d250       ??$toString@VPlotView@@@TypeConverter@@YAPBDXZ 1000e250 f   PlugInUtilities:TypeConverter.obj
 0001:0000d260       ??$toString@V?$vector@PAVPlotView@@V?$allocator@PAVPlotView@@@std@@@std@@@TypeConverter@@YAPBDXZ 1000e260 f   PlugInUtilities:TypeConverter.obj
 0001:0000d270       ??$toString@V?$vector@VPlotView@@V?$allocator@VPlotView@@@std@@@std@@@TypeConverter@@YAPBDXZ 1000e270 f   PlugInUtilities:TypeConverter.obj
 0001:0000d280       ??$toString@PAVPlotView@@@TypeConverter@@YAPBDXZ 1000e280 f   PlugInUtilities:TypeConverter.obj
 0001:0000d290       ??$toString@VPlotWidget@@@TypeConverter@@YAPBDXZ 1000e290 f   PlugInUtilities:TypeConverter.obj
 0001:0000d2a0       ??$toString@V?$vector@PAVPlotWidget@@V?$allocator@PAVPlotWidget@@@std@@@std@@@TypeConverter@@YAPBDXZ 1000e2a0 f   PlugInUtilities:TypeConverter.obj
 0001:0000d2b0       ??$toString@V?$vector@VPlotWidget@@V?$allocator@VPlotWidget@@@std@@@std@@@TypeConverter@@YAPBDXZ 1000e2b0 f   PlugInUtilities:TypeConverter.obj
 0001:0000d2c0       ??$toString@PAVPlotWidget@@@TypeConverter@@YAPBDXZ 1000e2c0 f   PlugInUtilities:TypeConverter.obj
 0001:0000d2d0       ??$toString@VPlotWindow@@@TypeConverter@@YAPBDXZ 1000e2d0 f   PlugInUtilities:TypeConverter.obj
 0001:0000d2e0       ??$toString@V?$vector@PAVPlotWindow@@V?$allocator@PAVPlotWindow@@@std@@@std@@@TypeConverter@@YAPBDXZ 1000e2e0 f   PlugInUtilities:TypeConverter.obj
 0001:0000d2f0       ??$toString@V?$vector@VPlotWindow@@V?$allocator@VPlotWindow@@@std@@@std@@@TypeConverter@@YAPBDXZ 1000e2f0 f   PlugInUtilities:TypeConverter.obj
 0001:0000d300       ??$toString@PAVPlotWindow@@@TypeConverter@@YAPBDXZ 1000e300 f   PlugInUtilities:TypeConverter.obj
 0001:0000d310       ??$toString@VPolarPlot@@@TypeConverter@@YAPBDXZ 1000e310 f   PlugInUtilities:TypeConverter.obj
 0001:0000d320       ??$toString@V?$vector@PAVPolarPlot@@V?$allocator@PAVPolarPlot@@@std@@@std@@@TypeConverter@@YAPBDXZ 1000e320 f   PlugInUtilities:TypeConverter.obj
 0001:0000d330       ??$toString@V?$vector@VPolarPlot@@V?$allocator@VPolarPlot@@@std@@@std@@@TypeConverter@@YAPBDXZ 1000e330 f   PlugInUtilities:TypeConverter.obj
 0001:0000d340       ??$toString@PAVPolarPlot@@@TypeConverter@@YAPBDXZ 1000e340 f   PlugInUtilities:TypeConverter.obj
 0001:0000d350       ??$toString@VProductView@@@TypeConverter@@YAPBDXZ 1000e350 f   PlugInUtilities:TypeConverter.obj
 0001:0000d360       ??$toString@V?$vector@PAVProductView@@V?$allocator@PAVProductView@@@std@@@std@@@TypeConverter@@YAPBDXZ 1000e360 f   PlugInUtilities:TypeConverter.obj
 0001:0000d370       ??$toString@V?$vector@VProductView@@V?$allocator@VProductView@@@std@@@std@@@TypeConverter@@YAPBDXZ 1000e370 f   PlugInUtilities:TypeConverter.obj
 0001:0000d380       ??$toString@PAVProductView@@@TypeConverter@@YAPBDXZ 1000e380 f   PlugInUtilities:TypeConverter.obj
 0001:0000d390       ??$toString@VProductWindow@@@TypeConverter@@YAPBDXZ 1000e390 f   PlugInUtilities:TypeConverter.obj
 0001:0000d3a0       ??$toString@V?$vector@PAVProductWindow@@V?$allocator@PAVProductWindow@@@std@@@std@@@TypeConverter@@YAPBDXZ 1000e3a0 f   PlugInUtilities:TypeConverter.obj
 0001:0000d3b0       ??$toString@V?$vector@VProductWindow@@V?$allocator@VProductWindow@@@std@@@std@@@TypeConverter@@YAPBDXZ 1000e3b0 f   PlugInUtilities:TypeConverter.obj
 0001:0000d3c0       ??$toString@PAVProductWindow@@@TypeConverter@@YAPBDXZ 1000e3c0 f   PlugInUtilities:TypeConverter.obj
 0001:0000d3d0       ??$toString@VProgress@@@TypeConverter@@YAPBDXZ 1000e3d0 f   PlugInUtilities:TypeConverter.obj
 0001:0000d3e0       ??$toString@V?$vector@PAVProgress@@V?$allocator@PAVProgress@@@std@@@std@@@TypeConverter@@YAPBDXZ 1000e3e0 f   PlugInUtilities:TypeConverter.obj
 0001:0000d3f0       ??$toString@V?$vector@VProgress@@V?$allocator@VProgress@@@std@@@std@@@TypeConverter@@YAPBDXZ 1000e3f0 f   PlugInUtilities:TypeConverter.obj
 0001:0000d400       ??$toString@PAVProgress@@@TypeConverter@@YAPBDXZ 1000e400 f   PlugInUtilities:TypeConverter.obj
 0001:0000d410       ??$toString@VPseudocolorLayer@@@TypeConverter@@YAPBDXZ 1000e410 f   PlugInUtilities:TypeConverter.obj
 0001:0000d420       ??$toString@V?$vector@PAVPseudocolorLayer@@V?$allocator@PAVPseudocolorLayer@@@std@@@std@@@TypeConverter@@YAPBDXZ 1000e420 f   PlugInUtilities:TypeConverter.obj
 0001:0000d430       ??$toString@V?$vector@VPseudocolorLayer@@V?$allocator@VPseudocolorLayer@@@std@@@std@@@TypeConverter@@YAPBDXZ 1000e430 f   PlugInUtilities:TypeConverter.obj
 0001:0000d440       ??$toString@PAVPseudocolorLayer@@@TypeConverter@@YAPBDXZ 1000e440 f   PlugInUtilities:TypeConverter.obj
 0001:0000d450       ??$toString@VRasterDataDescriptor@@@TypeConverter@@YAPBDXZ 1000e450 f   PlugInUtilities:TypeConverter.obj
 0001:0000d460       ??$toString@V?$vector@PAVRasterDataDescriptor@@V?$allocator@PAVRasterDataDescriptor@@@std@@@std@@@TypeConverter@@YAPBDXZ 1000e460 f   PlugInUtilities:TypeConverter.obj
 0001:0000d470       ??$toString@V?$vector@VRasterDataDescriptor@@V?$allocator@VRasterDataDescriptor@@@std@@@std@@@TypeConverter@@YAPBDXZ 1000e470 f   PlugInUtilities:TypeConverter.obj
 0001:0000d480       ??$toString@PAVRasterDataDescriptor@@@TypeConverter@@YAPBDXZ 1000e480 f   PlugInUtilities:TypeConverter.obj
 0001:0000d490       ??$toString@VRasterElement@@@TypeConverter@@YAPBDXZ 1000e490 f   PlugInUtilities:TypeConverter.obj
 0001:0000d4a0       ??$toString@V?$vector@PAVRasterElement@@V?$allocator@PAVRasterElement@@@std@@@std@@@TypeConverter@@YAPBDXZ 1000e4a0 f   PlugInUtilities:TypeConverter.obj
 0001:0000d4b0       ??$toString@V?$vector@VRasterElement@@V?$allocator@VRasterElement@@@std@@@std@@@TypeConverter@@YAPBDXZ 1000e4b0 f   PlugInUtilities:TypeConverter.obj
 0001:0000d4c0       ??$toString@PAVRasterElement@@@TypeConverter@@YAPBDXZ 1000e4c0 f   PlugInUtilities:TypeConverter.obj
 0001:0000d4d0       ??$toString@VRasterFileDescriptor@@@TypeConverter@@YAPBDXZ 1000e4d0 f   PlugInUtilities:TypeConverter.obj
 0001:0000d4e0       ??$toString@V?$vector@PAVRasterFileDescriptor@@V?$allocator@PAVRasterFileDescriptor@@@std@@@std@@@TypeConverter@@YAPBDXZ 1000e4e0 f   PlugInUtilities:TypeConverter.obj
 0001:0000d4f0       ??$toString@V?$vector@VRasterFileDescriptor@@V?$allocator@VRasterFileDescriptor@@@std@@@std@@@TypeConverter@@YAPBDXZ 1000e4f0 f   PlugInUtilities:TypeConverter.obj
 0001:0000d500       ??$toString@PAVRasterFileDescriptor@@@TypeConverter@@YAPBDXZ 1000e500 f   PlugInUtilities:TypeConverter.obj
 0001:0000d510       ??$toString@VRasterLayer@@@TypeConverter@@YAPBDXZ 1000e510 f   PlugInUtilities:TypeConverter.obj
 0001:0000d520       ??$toString@V?$vector@PAVRasterLayer@@V?$allocator@PAVRasterLayer@@@std@@@std@@@TypeConverter@@YAPBDXZ 1000e520 f   PlugInUtilities:TypeConverter.obj
 0001:0000d530       ??$toString@V?$vector@VRasterLayer@@V?$allocator@VRasterLayer@@@std@@@std@@@TypeConverter@@YAPBDXZ 1000e530 f   PlugInUtilities:TypeConverter.obj
 0001:0000d540       ??$toString@PAVRasterLayer@@@TypeConverter@@YAPBDXZ 1000e540 f   PlugInUtilities:TypeConverter.obj
 0001:0000d550       ??$toString@VSessionItem@@@TypeConverter@@YAPBDXZ 1000e550 f   PlugInUtilities:TypeConverter.obj
 0001:0000d560       ??$toString@V?$vector@PAVSessionItem@@V?$allocator@PAVSessionItem@@@std@@@std@@@TypeConverter@@YAPBDXZ 1000e560 f   PlugInUtilities:TypeConverter.obj
 0001:0000d570       ??$toString@V?$vector@VSessionItem@@V?$allocator@VSessionItem@@@std@@@std@@@TypeConverter@@YAPBDXZ 1000e570 f   PlugInUtilities:TypeConverter.obj
 0001:0000d580       ??$toString@PAVSessionItem@@@TypeConverter@@YAPBDXZ 1000e580 f   PlugInUtilities:TypeConverter.obj
 0001:0000d590       ??$toString@VSettableSessionItem@@@TypeConverter@@YAPBDXZ 1000e590 f   PlugInUtilities:TypeConverter.obj
 0001:0000d5a0       ??$toString@V?$vector@PAVSettableSessionItem@@V?$allocator@PAVSettableSessionItem@@@std@@@std@@@TypeConverter@@YAPBDXZ 1000e5a0 f   PlugInUtilities:TypeConverter.obj
 0001:0000d5b0       ??$toString@V?$vector@VSettableSessionItem@@V?$allocator@VSettableSessionItem@@@std@@@std@@@TypeConverter@@YAPBDXZ 1000e5b0 f   PlugInUtilities:TypeConverter.obj
 0001:0000d5c0       ??$toString@PAVSettableSessionItem@@@TypeConverter@@YAPBDXZ 1000e5c0 f   PlugInUtilities:TypeConverter.obj
 0001:0000d5d0       ??$toString@VSignature@@@TypeConverter@@YAPBDXZ 1000e5d0 f   PlugInUtilities:TypeConverter.obj
 0001:0000d5e0       ??$toString@V?$vector@PAVSignature@@V?$allocator@PAVSignature@@@std@@@std@@@TypeConverter@@YAPBDXZ 1000e5e0 f   PlugInUtilities:TypeConverter.obj
 0001:0000d5f0       ??$toString@V?$vector@VSignature@@V?$allocator@VSignature@@@std@@@std@@@TypeConverter@@YAPBDXZ 1000e5f0 f   PlugInUtilities:TypeConverter.obj
 0001:0000d600       ??$toString@PAVSignature@@@TypeConverter@@YAPBDXZ 1000e600 f   PlugInUtilities:TypeConverter.obj
 0001:0000d610       ??$toString@VSignatureLibrary@@@TypeConverter@@YAPBDXZ 1000e610 f   PlugInUtilities:TypeConverter.obj
 0001:0000d620       ??$toString@V?$vector@PAVSignatureLibrary@@V?$allocator@PAVSignatureLibrary@@@std@@@std@@@TypeConverter@@YAPBDXZ 1000e620 f   PlugInUtilities:TypeConverter.obj
 0001:0000d630       ??$toString@V?$vector@VSignatureLibrary@@V?$allocator@VSignatureLibrary@@@std@@@std@@@TypeConverter@@YAPBDXZ 1000e630 f   PlugInUtilities:TypeConverter.obj
 0001:0000d640       ??$toString@PAVSignatureLibrary@@@TypeConverter@@YAPBDXZ 1000e640 f   PlugInUtilities:TypeConverter.obj
 0001:0000d650       ??$toString@VSignaturePlot@@@TypeConverter@@YAPBDXZ 1000e650 f   PlugInUtilities:TypeConverter.obj
 0001:0000d660       ??$toString@V?$vector@PAVSignaturePlot@@V?$allocator@PAVSignaturePlot@@@std@@@std@@@TypeConverter@@YAPBDXZ 1000e660 f   PlugInUtilities:TypeConverter.obj
 0001:0000d670       ??$toString@V?$vector@VSignaturePlot@@V?$allocator@VSignaturePlot@@@std@@@std@@@TypeConverter@@YAPBDXZ 1000e670 f   PlugInUtilities:TypeConverter.obj
 0001:0000d680       ??$toString@PAVSignaturePlot@@@TypeConverter@@YAPBDXZ 1000e680 f   PlugInUtilities:TypeConverter.obj
 0001:0000d690       ??$toString@VSignatureSet@@@TypeConverter@@YAPBDXZ 1000e690 f   PlugInUtilities:TypeConverter.obj
 0001:0000d6a0       ??$toString@V?$vector@PAVSignatureSet@@V?$allocator@PAVSignatureSet@@@std@@@std@@@TypeConverter@@YAPBDXZ 1000e6a0 f   PlugInUtilities:TypeConverter.obj
 0001:0000d6b0       ??$toString@V?$vector@VSignatureSet@@V?$allocator@VSignatureSet@@@std@@@std@@@TypeConverter@@YAPBDXZ 1000e6b0 f   PlugInUtilities:TypeConverter.obj
 0001:0000d6c0       ??$toString@PAVSignatureSet@@@TypeConverter@@YAPBDXZ 1000e6c0 f   PlugInUtilities:TypeConverter.obj
 0001:0000d6d0       ??$toString@VSpatialDataView@@@TypeConverter@@YAPBDXZ 1000e6d0 f   PlugInUtilities:TypeConverter.obj
 0001:0000d6e0       ??$toString@V?$vector@PAVSpatialDataView@@V?$allocator@PAVSpatialDataView@@@std@@@std@@@TypeConverter@@YAPBDXZ 1000e6e0 f   PlugInUtilities:TypeConverter.obj
 0001:0000d6f0       ??$toString@V?$vector@VSpatialDataView@@V?$allocator@VSpatialDataView@@@std@@@std@@@TypeConverter@@YAPBDXZ 1000e6f0 f   PlugInUtilities:TypeConverter.obj
 0001:0000d700       ??$toString@PAVSpatialDataView@@@TypeConverter@@YAPBDXZ 1000e700 f   PlugInUtilities:TypeConverter.obj
 0001:0000d710       ??$toString@VSpatialDataWindow@@@TypeConverter@@YAPBDXZ 1000e710 f   PlugInUtilities:TypeConverter.obj
 0001:0000d720       ??$toString@V?$vector@PAVSpatialDataWindow@@V?$allocator@PAVSpatialDataWindow@@@std@@@std@@@TypeConverter@@YAPBDXZ 1000e720 f   PlugInUtilities:TypeConverter.obj
 0001:0000d730       ??$toString@V?$vector@VSpatialDataWindow@@V?$allocator@VSpatialDataWindow@@@std@@@std@@@TypeConverter@@YAPBDXZ 1000e730 f   PlugInUtilities:TypeConverter.obj
 0001:0000d740       ??$toString@PAVSpatialDataWindow@@@TypeConverter@@YAPBDXZ 1000e740 f   PlugInUtilities:TypeConverter.obj
 0001:0000d750       ??$toString@VThresholdLayer@@@TypeConverter@@YAPBDXZ 1000e750 f   PlugInUtilities:TypeConverter.obj
 0001:0000d760       ??$toString@V?$vector@PAVThresholdLayer@@V?$allocator@PAVThresholdLayer@@@std@@@std@@@TypeConverter@@YAPBDXZ 1000e760 f   PlugInUtilities:TypeConverter.obj
 0001:0000d770       ??$toString@V?$vector@VThresholdLayer@@V?$allocator@VThresholdLayer@@@std@@@std@@@TypeConverter@@YAPBDXZ 1000e770 f   PlugInUtilities:TypeConverter.obj
 0001:0000d780       ??$toString@PAVThresholdLayer@@@TypeConverter@@YAPBDXZ 1000e780 f   PlugInUtilities:TypeConverter.obj
 0001:0000d790       ??$toString@VTiePointLayer@@@TypeConverter@@YAPBDXZ 1000e790 f   PlugInUtilities:TypeConverter.obj
 0001:0000d7a0       ??$toString@V?$vector@PAVTiePointLayer@@V?$allocator@PAVTiePointLayer@@@std@@@std@@@TypeConverter@@YAPBDXZ 1000e7a0 f   PlugInUtilities:TypeConverter.obj
 0001:0000d7b0       ??$toString@V?$vector@VTiePointLayer@@V?$allocator@VTiePointLayer@@@std@@@std@@@TypeConverter@@YAPBDXZ 1000e7b0 f   PlugInUtilities:TypeConverter.obj
 0001:0000d7c0       ??$toString@PAVTiePointLayer@@@TypeConverter@@YAPBDXZ 1000e7c0 f   PlugInUtilities:TypeConverter.obj
 0001:0000d7d0       ??$toString@VTiePointList@@@TypeConverter@@YAPBDXZ 1000e7d0 f   PlugInUtilities:TypeConverter.obj
 0001:0000d7e0       ??$toString@V?$vector@PAVTiePointList@@V?$allocator@PAVTiePointList@@@std@@@std@@@TypeConverter@@YAPBDXZ 1000e7e0 f   PlugInUtilities:TypeConverter.obj
 0001:0000d7f0       ??$toString@V?$vector@VTiePointList@@V?$allocator@VTiePointList@@@std@@@std@@@TypeConverter@@YAPBDXZ 1000e7f0 f   PlugInUtilities:TypeConverter.obj
 0001:0000d800       ??$toString@PAVTiePointList@@@TypeConverter@@YAPBDXZ 1000e800 f   PlugInUtilities:TypeConverter.obj
 0001:0000d810       ??$toString@VUInt64@@@TypeConverter@@YAPBDXZ 1000e810 f   PlugInUtilities:TypeConverter.obj
 0001:0000d820       ??$toString@V?$vector@PAVUInt64@@V?$allocator@PAVUInt64@@@std@@@std@@@TypeConverter@@YAPBDXZ 1000e820 f   PlugInUtilities:TypeConverter.obj
 0001:0000d830       ??$toString@V?$vector@VUInt64@@V?$allocator@VUInt64@@@std@@@std@@@TypeConverter@@YAPBDXZ 1000e830 f   PlugInUtilities:TypeConverter.obj
 0001:0000d840       ??$toString@VUnits@@@TypeConverter@@YAPBDXZ 1000e840 f   PlugInUtilities:TypeConverter.obj
 0001:0000d850       ??$toString@V?$vector@PAVUnits@@V?$allocator@PAVUnits@@@std@@@std@@@TypeConverter@@YAPBDXZ 1000e850 f   PlugInUtilities:TypeConverter.obj
 0001:0000d860       ??$toString@V?$vector@VUnits@@V?$allocator@VUnits@@@std@@@std@@@TypeConverter@@YAPBDXZ 1000e860 f   PlugInUtilities:TypeConverter.obj
 0001:0000d870       ??$toString@PAVUnits@@@TypeConverter@@YAPBDXZ 1000e870 f   PlugInUtilities:TypeConverter.obj
 0001:0000d880       ??$toString@VView@@@TypeConverter@@YAPBDXZ 1000e880 f   PlugInUtilities:TypeConverter.obj
 0001:0000d890       ??$toString@V?$vector@PAVView@@V?$allocator@PAVView@@@std@@@std@@@TypeConverter@@YAPBDXZ 1000e890 f   PlugInUtilities:TypeConverter.obj
 0001:0000d8a0       ??$toString@V?$vector@VView@@V?$allocator@VView@@@std@@@std@@@TypeConverter@@YAPBDXZ 1000e8a0 f   PlugInUtilities:TypeConverter.obj
 0001:0000d8b0       ??$toString@PAVView@@@TypeConverter@@YAPBDXZ 1000e8b0 f   PlugInUtilities:TypeConverter.obj
 0001:0000d8c0       ??$toString@VWindow@@@TypeConverter@@YAPBDXZ 1000e8c0 f   PlugInUtilities:TypeConverter.obj
 0001:0000d8d0       ??$toString@V?$vector@PAVWindow@@V?$allocator@PAVWindow@@@std@@@std@@@TypeConverter@@YAPBDXZ 1000e8d0 f   PlugInUtilities:TypeConverter.obj
 0001:0000d8e0       ??$toString@V?$vector@VWindow@@V?$allocator@VWindow@@@std@@@std@@@TypeConverter@@YAPBDXZ 1000e8e0 f   PlugInUtilities:TypeConverter.obj
 0001:0000d8f0       ??$toString@PAVWindow@@@TypeConverter@@YAPBDXZ 1000e8f0 f   PlugInUtilities:TypeConverter.obj
 0001:0000d900       ??$toString@VWizardObject@@@TypeConverter@@YAPBDXZ 1000e900 f   PlugInUtilities:TypeConverter.obj
 0001:0000d910       ??$toString@V?$vector@PAVWizardObject@@V?$allocator@PAVWizardObject@@@std@@@std@@@TypeConverter@@YAPBDXZ 1000e910 f   PlugInUtilities:TypeConverter.obj
 0001:0000d920       ??$toString@V?$vector@VWizardObject@@V?$allocator@VWizardObject@@@std@@@std@@@TypeConverter@@YAPBDXZ 1000e920 f   PlugInUtilities:TypeConverter.obj
 0001:0000d930       ??$toString@PAVWizardObject@@@TypeConverter@@YAPBDXZ 1000e930 f   PlugInUtilities:TypeConverter.obj
 0001:0000d940       ??$toString@VWorkspaceWindow@@@TypeConverter@@YAPBDXZ 1000e940 f   PlugInUtilities:TypeConverter.obj
 0001:0000d950       ??$toString@V?$vector@PAVWorkspaceWindow@@V?$allocator@PAVWorkspaceWindow@@@std@@@std@@@TypeConverter@@YAPBDXZ 1000e950 f   PlugInUtilities:TypeConverter.obj
 0001:0000d960       ??$toString@V?$vector@VWorkspaceWindow@@V?$allocator@VWorkspaceWindow@@@std@@@std@@@TypeConverter@@YAPBDXZ 1000e960 f   PlugInUtilities:TypeConverter.obj
 0001:0000d970       ??$toString@PAVWorkspaceWindow@@@TypeConverter@@YAPBDXZ 1000e970 f   PlugInUtilities:TypeConverter.obj
 0001:0000d980       ??0DimensionDescriptor@@QAE@XZ 1000e980 f i PlugInUtilities:RasterUtilities.obj
 0001:0000d9a0       ??4DimensionDescriptor@@QAEAAV0@ABV0@@Z 1000e9a0 f i PlugInUtilities:RasterUtilities.obj
 0001:0000d9e0       ??8DimensionDescriptor@@QBE_NABV0@@Z 1000e9e0 f i PlugInUtilities:RasterUtilities.obj
 0001:0000da40       ?setOriginalNumber@DimensionDescriptor@@QAEXI@Z 1000ea40 f i PlugInUtilities:RasterUtilities.obj
 0001:0000da50       ?getOriginalNumber@DimensionDescriptor@@QBEIXZ 1000ea50 f i PlugInUtilities:RasterUtilities.obj
 0001:0000da60       ?isOriginalNumberValid@DimensionDescriptor@@QBE_NXZ 1000ea60 f i PlugInUtilities:RasterUtilities.obj
 0001:0000da70       ?setOnDiskNumber@DimensionDescriptor@@QAEXI@Z 1000ea70 f i PlugInUtilities:RasterUtilities.obj
 0001:0000da80       ?getOnDiskNumber@DimensionDescriptor@@QBEIXZ 1000ea80 f i PlugInUtilities:RasterUtilities.obj
 0001:0000da90       ?isOnDiskNumberValid@DimensionDescriptor@@QBE_NXZ 1000ea90 f i PlugInUtilities:RasterUtilities.obj
 0001:0000daa0       ?setActiveNumber@DimensionDescriptor@@QAEXI@Z 1000eaa0 f i PlugInUtilities:RasterUtilities.obj
 0001:0000dab0       ?getActiveNumber@DimensionDescriptor@@QBEIXZ 1000eab0 f i PlugInUtilities:RasterUtilities.obj
 0001:0000dac0       ?isActiveNumberValid@DimensionDescriptor@@QBE_NXZ 1000eac0 f i PlugInUtilities:RasterUtilities.obj
 0001:0000dad0       ?setActiveNumberValid@DimensionDescriptor@@QAEX_N@Z 1000ead0 f i PlugInUtilities:RasterUtilities.obj
 0001:0000dae0       ??0Args@ModelObject@@QAE@V?$basic_string@DU?$char_traits@D@std@@V?$allocator@D@2@@std@@0PAVDataElement@@@Z 1000eae0 f i PlugInUtilities:RasterUtilities.obj
 0001:0000db70       ??0Args@ModelObject@@QAE@PAVDataDescriptor@@@Z 1000eb70 f i PlugInUtilities:RasterUtilities.obj
 0001:0000dbd0       ?getRow@DataAccessorImpl@@QAEPAXXZ 1000ebd0 f i PlugInUtilities:RasterUtilities.obj
 0001:0000dbe0       ?nextColumn@DataAccessorImpl@@QAEXXZ 1000ebe0 f i PlugInUtilities:RasterUtilities.obj
 0001:0000dbf0       ??4Int64@@QAEAAV0@ABV0@@Z  1000ebf0 f i PlugInUtilities:RasterUtilities.obj
 0001:0000dc10       ??4UInt64@@QAEAAV0@ABV0@@Z 1000ec10 f i PlugInUtilities:RasterUtilities.obj
 0001:0000dc30       ??$setPixel@VIntegerComplex@@@?A0x92b3477e@@YAXPAVIntegerComplex@@HI@Z 1000ec30 f   PlugInUtilities:RasterUtilities.obj
 0001:0000dc50       ??$setPixel@VFloatComplex@@@?A0x92b3477e@@YAXPAVFloatComplex@@HI@Z 1000ec50 f   PlugInUtilities:RasterUtilities.obj
 0001:0000dc70       ??0SetOnDiskNumber@?A0x92b3477e@@QAE@XZ 1000ec70 f i PlugInUtilities:RasterUtilities.obj
 0001:0000dc80       ??RSetOnDiskNumber@?A0x92b3477e@@QAE?AVDimensionDescriptor@@ABV2@@Z 1000ec80 f i PlugInUtilities:RasterUtilities.obj
 0001:0000dcb0       ?size@?$vector@VDimensionDescriptor@@V?$allocator@VDimensionDescriptor@@@std@@@std@@QBEIXZ 1000ecb0 f i PlugInUtilities:RasterUtilities.obj
 0001:0000dcd0       ?empty@?$vector@VDimensionDescriptor@@V?$allocator@VDimensionDescriptor@@@std@@@std@@QBE_NXZ 1000ecd0 f i PlugInUtilities:RasterUtilities.obj
 0001:0000dd00       ??A?$vector@VDimensionDescriptor@@V?$allocator@VDimensionDescriptor@@@std@@@std@@QBEABVDimensionDescriptor@@I@Z 1000ed00 f i PlugInUtilities:RasterUtilities.obj
 0001:0000dd30       ??A?$vector@VDimensionDescriptor@@V?$allocator@VDimensionDescriptor@@@std@@@std@@QAEAAVDimensionDescriptor@@I@Z 1000ed30 f i PlugInUtilities:RasterUtilities.obj
 0001:0000dd60       ??B?$EnumWrapper@W4InterleaveFormatTypeEnum@@@@QBE?AW4InterleaveFormatTypeEnum@@XZ 1000ed60 f i PlugInUtilities:RasterUtilities.obj
 0001:0000dd70       ??8?$EnumWrapper@W4InterleaveFormatTypeEnum@@@@QBE_NABW4InterleaveFormatTypeEnum@@@Z 1000ed70 f i PlugInUtilities:RasterUtilities.obj
 0001:0000dd90       ??B?$EnumWrapper@W4InterpolationTypeEnum@RasterUtilities@@@@QBE?AW4InterpolationTypeEnum@RasterUtilities@@XZ 1000ed90 f i PlugInUtilities:RasterUtilities.obj
 0001:0000dda0       ??0?$Location@H$01@Opticks@@QAE@HH@Z 1000eda0 f i PlugInUtilities:RasterUtilities.obj
 0001:0000ddc0       ??0?$Location@H$01@Opticks@@QAE@ABV01@@Z 1000edc0 f i PlugInUtilities:RasterUtilities.obj
 0001:0000dde0       ??0?$Location@H$01@Opticks@@QAE@XZ 1000ede0 f i PlugInUtilities:RasterUtilities.obj
 0001:0000ddf0       ??1?$Location@H$01@Opticks@@QAE@XZ 1000edf0 f i PlugInUtilities:RasterUtilities.obj
 0001:0000de00       ??Z?$Location@H$01@Opticks@@QAEAAV01@ABV01@@Z 1000ee00 f i PlugInUtilities:RasterUtilities.obj
 0001:0000de20       ??4?$Location@H$01@Opticks@@QAEAAV01@ABV01@@Z 1000ee20 f i PlugInUtilities:RasterUtilities.obj
 0001:0000de40       ?size@?$vector@V?$Location@H$01@Opticks@@V?$allocator@V?$Location@H$01@Opticks@@@std@@@std@@QBEIXZ 1000ee40 f i PlugInUtilities:RasterUtilities.obj
 0001:0000de60       ??A?$vector@V?$Location@H$01@Opticks@@V?$allocator@V?$Location@H$01@Opticks@@@std@@@std@@QAEAAV?$Location@H$01@Opticks@@I@Z 1000ee60 f i PlugInUtilities:RasterUtilities.obj
 0001:0000dea0       ?get@?$Resource@VRasterFileDescriptor@@VFactoryObject@@@@QAEPAVRasterFileDescriptor@@XZ 1000eea0 f i PlugInUtilities:RasterUtilities.obj
 0001:0000deb0       ??C?$Resource@VRasterFileDescriptor@@VFactoryObject@@@@QAEPAVRasterFileDescriptor@@XZ 1000eeb0 f i PlugInUtilities:RasterUtilities.obj
 0001:0000dec0       ?release@?$Resource@VRasterFileDescriptor@@VFactoryObject@@@@QAEPAVRasterFileDescriptor@@XZ 1000eec0 f i PlugInUtilities:RasterUtilities.obj
 0001:0000ded0       ?get@?$Resource@VFileDescriptor@@VFactoryObject@@@@QAEPAVFileDescriptor@@XZ 1000eed0 f i PlugInUtilities:RasterUtilities.obj
 0001:0000dee0       ?release@?$Resource@VFileDescriptor@@VFactoryObject@@@@QAEPAVFileDescriptor@@XZ 1000eee0 f i PlugInUtilities:RasterUtilities.obj
 0001:0000def0       ??0?$EnumWrapper@W4ProcessingLocationEnum@@@@QAE@ABW4ProcessingLocationEnum@@@Z 1000eef0 f i PlugInUtilities:RasterUtilities.obj
 0001:0000df10       ?get@?$Resource@VRasterElement@@VModelObject@@@@QAEPAVRasterElement@@XZ 1000ef10 f i PlugInUtilities:RasterUtilities.obj
 0001:0000df20       ??C?$Resource@VRasterElement@@VModelObject@@@@QAEPAVRasterElement@@XZ 1000ef20 f i PlugInUtilities:RasterUtilities.obj
 0001:0000df30       ?release@?$Resource@VRasterElement@@VModelObject@@@@QAEPAVRasterElement@@XZ 1000ef30 f i PlugInUtilities:RasterUtilities.obj
 0001:0000df40       ?get@?$Resource@VRasterDataDescriptor@@VDataDescriptorObject@@@@QAEPAVRasterDataDescriptor@@XZ 1000ef40 f i PlugInUtilities:RasterUtilities.obj
 0001:0000df50       ??C?$Resource@VRasterDataDescriptor@@VDataDescriptorObject@@@@QAEPAVRasterDataDescriptor@@XZ 1000ef50 f i PlugInUtilities:RasterUtilities.obj
 0001:0000df60       ?release@?$Resource@VRasterDataDescriptor@@VDataDescriptorObject@@@@QAEPAVRasterDataDescriptor@@XZ 1000ef60 f i PlugInUtilities:RasterUtilities.obj
 0001:0000df70       ?size@?$vector@NV?$allocator@N@std@@@std@@QBEIXZ 1000ef70 f i PlugInUtilities:RasterUtilities.obj
 0001:0000df90       ??A?$vector@NV?$allocator@N@std@@@std@@QBEABNI@Z 1000ef90 f i PlugInUtilities:RasterUtilities.obj
 0001:0000dfc0       ??0?$EnumWrapper@W4RasterChannelTypeEnum@@@@QAE@ABW4RasterChannelTypeEnum@@@Z 1000efc0 f i PlugInUtilities:RasterUtilities.obj
 0001:0000dfe0       ??0?$EnumWrapper@W4DisplayModeEnum@@@@QAE@ABW4DisplayModeEnum@@@Z 1000efe0 f i PlugInUtilities:RasterUtilities.obj
 0001:0000e000       ??0?$EnumWrapper@W4ReportingLevelEnum@@@@QAE@ABW4ReportingLevelEnum@@@Z 1000f000 f i PlugInUtilities:RasterUtilities.obj
 0001:0000e020       ??8?$_Vector_const_iterator@HV?$allocator@H@std@@@std@@QBE_NABV01@@Z 1000f020 f i PlugInUtilities:RasterUtilities.obj
 0001:0000e050       ??0?$_Ranit@VDimensionDescriptor@@HPBV1@ABV1@@std@@QAE@XZ 1000f050 f i PlugInUtilities:RasterUtilities.obj
 0001:0000e060       ??1Args@ModelObject@@QAE@XZ 1000f060 f i PlugInUtilities:RasterUtilities.obj
 0001:0000e0b0       ?capacity@?$vector@VDimensionDescriptor@@V?$allocator@VDimensionDescriptor@@@std@@@std@@QBEIXZ 1000f0b0 f i PlugInUtilities:RasterUtilities.obj
 0001:0000e0d0       ??0?$allocator@VDimensionDescriptor@@@std@@QAE@XZ 1000f0d0 f i PlugInUtilities:RasterUtilities.obj
 0001:0000e0e0       ??0?$allocator@VDimensionDescriptor@@@std@@QAE@ABV01@@Z 1000f0e0 f i PlugInUtilities:RasterUtilities.obj
 0001:0000e0f0       ?_Xran@?$vector@V?$basic_string@DU?$char_traits@D@std@@V?$allocator@D@2@@std@@V?$allocator@V?$basic_string@DU?$char_traits@D@std@@V?$allocator@D@2@@std@@@2@@std@@KAXXZ 1000f0f0 f i PlugInUtilities:RasterUtilities.obj
 0001:0000e170       ?capacity@?$vector@V?$Location@H$01@Opticks@@V?$allocator@V?$Location@H$01@Opticks@@@std@@@std@@QBEIXZ 1000f170 f i PlugInUtilities:RasterUtilities.obj
 0001:0000e190       ?_Xlen@?$vector@V?$Location@H$01@Opticks@@V?$allocator@V?$Location@H$01@Opticks@@@std@@@std@@KAXXZ 1000f190 f i PlugInUtilities:RasterUtilities.obj
 0001:0000e210       ??0?$allocator@V?$Location@H$01@Opticks@@@std@@QAE@XZ 1000f210 f i PlugInUtilities:RasterUtilities.obj
 0001:0000e220       ?deallocate@?$allocator@V?$Location@H$01@Opticks@@@std@@QAEXPAV?$Location@H$01@Opticks@@I@Z 1000f220 f i PlugInUtilities:RasterUtilities.obj
 0001:0000e230       ??0?$_Vector_const_iterator@VDimensionDescriptor@@V?$allocator@VDimensionDescriptor@@@std@@@std@@QAE@PAVDimensionDescriptor@@PBU_Container_base@1@@Z 1000f230 f i PlugInUtilities:RasterUtilities.obj
 0001:0000e270       ??D?$_Vector_const_iterator@VDimensionDescriptor@@V?$allocator@VDimensionDescriptor@@@std@@@std@@QBEABVDimensionDescriptor@@XZ 1000f270 f i PlugInUtilities:RasterUtilities.obj
 0001:0000e2a0       ??8?$_Vector_const_iterator@VDimensionDescriptor@@V?$allocator@VDimensionDescriptor@@@std@@@std@@QBE_NABV01@@Z 1000f2a0 f i PlugInUtilities:RasterUtilities.obj
 0001:0000e2d0       ?capacity@?$vector@V?$EnumWrapper@W4RasterChannelTypeEnum@@@@V?$allocator@V?$EnumWrapper@W4RasterChannelTypeEnum@@@@@std@@@std@@QBEIXZ 1000f2d0 f i PlugInUtilities:RasterUtilities.obj
 0001:0000e2f0       ?size@?$vector@V?$EnumWrapper@W4RasterChannelTypeEnum@@@@V?$allocator@V?$EnumWrapper@W4RasterChannelTypeEnum@@@@@std@@@std@@QBEIXZ 1000f2f0 f i PlugInUtilities:RasterUtilities.obj
 0001:0000e310       ??0?$allocator@V?$EnumWrapper@W4RasterChannelTypeEnum@@@@@std@@QAE@XZ 1000f310 f i PlugInUtilities:RasterUtilities.obj
 0001:0000e320       ??0?$allocator@V?$EnumWrapper@W4RasterChannelTypeEnum@@@@@std@@QAE@ABV01@@Z 1000f320 f i PlugInUtilities:RasterUtilities.obj
 0001:0000e330       ?size@?$vector@PBVFilename@@V?$allocator@PBVFilename@@@std@@@std@@QBEIXZ 1000f330 f i PlugInUtilities:RasterUtilities.obj
 0001:0000e350       ?capacity@?$vector@HV?$allocator@H@std@@@std@@QBEIXZ 1000f350 f i PlugInUtilities:RasterUtilities.obj
 0001:0000e370       ?size@?$vector@HV?$allocator@H@std@@@std@@QBEIXZ 1000f370 f i PlugInUtilities:RasterUtilities.obj
 0001:0000e390       ??0?$allocator@H@std@@QAE@ABV01@@Z 1000f390 f i PlugInUtilities:RasterUtilities.obj
 0001:0000e3a0       ??0Args@ModelObject@@QAE@ABV01@@Z 1000f3a0 f i PlugInUtilities:RasterUtilities.obj
 0001:0000e410       ?_Xlen@?$vector@VDimensionDescriptor@@V?$allocator@VDimensionDescriptor@@@std@@@std@@KAXXZ 1000f410 f i PlugInUtilities:RasterUtilities.obj
 0001:0000e490       ?deallocate@?$allocator@VDimensionDescriptor@@@std@@QAEXPAVDimensionDescriptor@@I@Z 1000f490 f i PlugInUtilities:RasterUtilities.obj
 0001:0000e4a0       ??0?$allocator@V?$Location@H$01@Opticks@@@std@@QAE@ABV01@@Z 1000f4a0 f i PlugInUtilities:RasterUtilities.obj
 0001:0000e4b0       ?max_size@?$allocator@V?$Location@H$01@Opticks@@@std@@QBEIXZ 1000f4b0 f i PlugInUtilities:RasterUtilities.obj
 0001:0000e4c0       ?_Xlen@?$vector@V?$EnumWrapper@W4RasterChannelTypeEnum@@@@V?$allocator@V?$EnumWrapper@W4RasterChannelTypeEnum@@@@@std@@@std@@KAXXZ 1000f4c0 f i PlugInUtilities:RasterUtilities.obj
 0001:0000e540       ?deallocate@?$allocator@V?$EnumWrapper@W4RasterChannelTypeEnum@@@@@std@@QAEXPAV?$EnumWrapper@W4RasterChannelTypeEnum@@@@I@Z 1000f540 f i PlugInUtilities:RasterUtilities.obj
 0001:0000e550       ?_Xlen@?$vector@HV?$allocator@H@std@@@std@@KAXXZ 1000f550 f i PlugInUtilities:RasterUtilities.obj
 0001:0000e5d0       ?deallocate@?$allocator@H@std@@QAEXPAHI@Z 1000f5d0 f i PlugInUtilities:RasterUtilities.obj
 0001:0000e5e0       ??0?$_Ranit@V?$Location@H$01@Opticks@@HPBV12@ABV12@@std@@QAE@XZ 1000f5e0 f i PlugInUtilities:RasterUtilities.obj
 0001:0000e5f0       ??0?$_Ranit@HHPBHABH@std@@QAE@XZ 1000f5f0 f i PlugInUtilities:RasterUtilities.obj
 0001:0000e600       ??0?$_Ranit@V?$EnumWrapper@W4RasterChannelTypeEnum@@@@HPBV1@ABV1@@std@@QAE@XZ 1000f600 f i PlugInUtilities:RasterUtilities.obj
 0001:0000e610       ?max_size@?$allocator@VDimensionDescriptor@@@std@@QBEIXZ 1000f610 f i PlugInUtilities:RasterUtilities.obj
 0001:0000e620       ??G?$_Vector_const_iterator@V?$Location@H$01@Opticks@@V?$allocator@V?$Location@H$01@Opticks@@@std@@@std@@QBEHABV01@@Z 1000f620 f i PlugInUtilities:RasterUtilities.obj
 0001:0000e660       ??8?$_Vector_const_iterator@V?$Location@H$01@Opticks@@V?$allocator@V?$Location@H$01@Opticks@@@std@@@std@@QBE_NABV01@@Z 1000f660 f i PlugInUtilities:RasterUtilities.obj
 0001:0000e690       ??Y?$_Vector_const_iterator@VDimensionDescriptor@@V?$allocator@VDimensionDescriptor@@@std@@@std@@QAEAAV01@H@Z 1000f690 f i PlugInUtilities:RasterUtilities.obj
 0001:0000e6d0       ??G?$_Vector_const_iterator@VDimensionDescriptor@@V?$allocator@VDimensionDescriptor@@@std@@@std@@QBEHABV01@@Z 1000f6d0 f i PlugInUtilities:RasterUtilities.obj
 0001:0000e700       ?max_size@?$allocator@V?$EnumWrapper@W4RasterChannelTypeEnum@@@@@std@@QBEIXZ 1000f700 f i PlugInUtilities:RasterUtilities.obj
 0001:0000e710       ?max_size@?$allocator@H@std@@QBEIXZ 1000f710 f i PlugInUtilities:RasterUtilities.obj
 0001:0000e720       ??G?$_Vector_const_iterator@HV?$allocator@H@std@@@std@@QBEHABV01@@Z 1000f720 f i PlugInUtilities:RasterUtilities.obj
 0001:0000e750       ??G?$_Vector_const_iterator@V?$EnumWrapper@W4RasterChannelTypeEnum@@@@V?$allocator@V?$EnumWrapper@W4RasterChannelTypeEnum@@@@@std@@@std@@QBEHABV01@@Z 1000f750 f i PlugInUtilities:RasterUtilities.obj
 0001:0000e780       ??Y?$_Vector_const_iterator@V?$Location@H$01@Opticks@@V?$allocator@V?$Location@H$01@Opticks@@@std@@@std@@QAEAAV01@H@Z 1000f780 f i PlugInUtilities:RasterUtilities.obj
 0001:0000e7c0       ??Y?$_Vector_const_iterator@HV?$allocator@H@std@@@std@@QAEAAV01@H@Z 1000f7c0 f i PlugInUtilities:RasterUtilities.obj
 0001:0000e800       ??Y?$_Vector_const_iterator@V?$EnumWrapper@W4RasterChannelTypeEnum@@@@V?$allocator@V?$EnumWrapper@W4RasterChannelTypeEnum@@@@@std@@@std@@QAEAAV01@H@Z 1000f800 f i PlugInUtilities:RasterUtilities.obj
 0001:0000e840       ??$swap@H@std@@YAXAAH0@Z   1000f840 f i PlugInUtilities:RasterUtilities.obj
 0001:0000e860       ??$swap@V?$Location@H$01@Opticks@@@std@@YAXAAV?$Location@H$01@Opticks@@0@Z 1000f860 f i PlugInUtilities:RasterUtilities.obj
 0001:0000e8b0       ??$sizeofType@E@?A0x92b3477e@@YAIPBE@Z 1000f8b0 f i PlugInUtilities:RasterUtilities.obj
 0001:0000e8c0       ??$sizeofType@C@?A0x92b3477e@@YAIPBC@Z 1000f8c0 f i PlugInUtilities:RasterUtilities.obj
 0001:0000e8d0       ??$sizeofType@G@?A0x92b3477e@@YAIPBG@Z 1000f8d0 f i PlugInUtilities:RasterUtilities.obj
 0001:0000e8e0       ??$sizeofType@F@?A0x92b3477e@@YAIPBF@Z 1000f8e0 f i PlugInUtilities:RasterUtilities.obj
 0001:0000e8f0       ??$sizeofType@VIntegerComplex@@@?A0x92b3477e@@YAIPBVIntegerComplex@@@Z 1000f8f0 f i PlugInUtilities:RasterUtilities.obj
 0001:0000e900       ??$sizeofType@I@?A0x92b3477e@@YAIPBI@Z 1000f900 f i PlugInUtilities:RasterUtilities.obj
 0001:0000e910       ??$sizeofType@H@?A0x92b3477e@@YAIPBH@Z 1000f910 f i PlugInUtilities:RasterUtilities.obj
 0001:0000e920       ??$sizeofType@M@?A0x92b3477e@@YAIPBM@Z 1000f920 f i PlugInUtilities:RasterUtilities.obj
 0001:0000e930       ??$sizeofType@VFloatComplex@@@?A0x92b3477e@@YAIPBVFloatComplex@@@Z 1000f930 f i PlugInUtilities:RasterUtilities.obj
 0001:0000e940       ??$sizeofType@N@?A0x92b3477e@@YAIPBN@Z 1000f940 f i PlugInUtilities:RasterUtilities.obj
 0001:0000e950       ??$setPixel@E@?A0x92b3477e@@YAXPAEHI@Z 1000f950 f i PlugInUtilities:RasterUtilities.obj
 0001:0000e960       ??$setPixel@C@?A0x92b3477e@@YAXPACHI@Z 1000f960 f i PlugInUtilities:RasterUtilities.obj
 0001:0000e970       ??$setPixel@G@?A0x92b3477e@@YAXPAGHI@Z 1000f970 f i PlugInUtilities:RasterUtilities.obj
 0001:0000e980       ??$setPixel@F@?A0x92b3477e@@YAXPAFHI@Z 1000f980 f i PlugInUtilities:RasterUtilities.obj
 0001:0000e990       ??$setPixel@I@?A0x92b3477e@@YAXPAIHI@Z 1000f990 f i PlugInUtilities:RasterUtilities.obj
 0001:0000e9b0       ??$setPixel@H@?A0x92b3477e@@YAXPAHHI@Z 1000f9b0 f i PlugInUtilities:RasterUtilities.obj
 0001:0000e9d0       ??$setPixel@M@?A0x92b3477e@@YAXPAMHI@Z 1000f9d0 f i PlugInUtilities:RasterUtilities.obj
 0001:0000e9f0       ??$setPixel@N@?A0x92b3477e@@YAXPANHI@Z 1000f9f0 f i PlugInUtilities:RasterUtilities.obj
 0001:0000ea10       ??$_Allocate@V?$Location@H$01@Opticks@@@std@@YAPAV?$Location@H$01@Opticks@@IPAV12@@Z 1000fa10 f i PlugInUtilities:RasterUtilities.obj
 0001:0000ea70       ??$_Allocate@VDimensionDescriptor@@@std@@YAPAVDimensionDescriptor@@IPAV1@@Z 1000fa70 f i PlugInUtilities:RasterUtilities.obj
 0001:0000ead0       ??$_Allocate@V?$EnumWrapper@W4RasterChannelTypeEnum@@@@@std@@YAPAV?$EnumWrapper@W4RasterChannelTypeEnum@@@@IPAV1@@Z 1000fad0 f i PlugInUtilities:RasterUtilities.obj
 0001:0000eb30       ??$_Allocate@H@std@@YAPAHIPAH@Z 1000fb30 f i PlugInUtilities:RasterUtilities.obj
 0001:0000eb90       ??A?$vector@V?$basic_string@DU?$char_traits@D@std@@V?$allocator@D@2@@std@@V?$allocator@V?$basic_string@DU?$char_traits@D@std@@V?$allocator@D@2@@std@@@2@@std@@QAEAAV?$basic_string@DU?$char_traits@D@std@@V?$allocator@D@2@@1@I@Z 1000fb90 f i PlugInUtilities:RasterUtilities.obj
 0001:0000ebe0       ??C?$_Vector_const_iterator@VDimensionDescriptor@@V?$allocator@VDimensionDescriptor@@@std@@@std@@QBEPBVDimensionDescriptor@@XZ 1000fbe0 f i PlugInUtilities:RasterUtilities.obj
 0001:0000ec10       ??E?$_Vector_const_iterator@VDimensionDescriptor@@V?$allocator@VDimensionDescriptor@@@std@@@std@@QAEAAV01@XZ 1000fc10 f i PlugInUtilities:RasterUtilities.obj
 0001:0000ec40       ??0?$bind_t@XV?$mf1@XVDimensionDescriptor@@_N@_mfi@boost@@V?$list2@V?$arg@$00@boost@@V?$value@_N@_bi@2@@_bi@3@@_bi@boost@@QAE@V?$mf1@XVDimensionDescriptor@@_N@_mfi@2@ABV?$list2@V?$arg@$00@boost@@V?$value@_N@_bi@2@@12@@Z 1000fc40 f i PlugInUtilities:RasterUtilities.obj
 0001:0000ec60       ??0?$mf1@XVDimensionDescriptor@@_N@_mfi@boost@@QAE@P8DimensionDescriptor@@AEX_N@Z@Z 1000fc60 f i PlugInUtilities:RasterUtilities.obj
 0001:0000ec70       ??0?$list2@V?$arg@$00@boost@@V?$value@_N@_bi@2@@_bi@boost@@QAE@V?$arg@$00@2@V?$value@_N@12@@Z 1000fc70 f i PlugInUtilities:RasterUtilities.obj
 0001:0000ec80       ??0?$value@_N@_bi@boost@@QAE@AB_N@Z 1000fc80 f i PlugInUtilities:RasterUtilities.obj
 0001:0000ec90       ??A?$vector@NV?$allocator@N@std@@@std@@QAEAANI@Z 1000fc90 f i PlugInUtilities:RasterUtilities.obj
 0001:0000ecc0       ??A?$vector@HV?$allocator@H@std@@@std@@QAEAAHI@Z 1000fcc0 f i PlugInUtilities:RasterUtilities.obj
 0001:0000ecf0       ?size@?$vector@DV?$allocator@D@std@@@std@@QBEIXZ 1000fcf0 f i PlugInUtilities:RasterUtilities.obj
 0001:0000ed00       ??A?$vector@DV?$allocator@D@std@@@std@@QAEAADI@Z 1000fd00 f i PlugInUtilities:RasterUtilities.obj
 0001:0000ed30       ?size@?$vector@EV?$allocator@E@std@@@std@@QBEIXZ 1000fd30 f i PlugInUtilities:RasterUtilities.obj
 0001:0000ed40       ??A?$vector@EV?$allocator@E@std@@@std@@QAEAAEI@Z 1000fd40 f i PlugInUtilities:RasterUtilities.obj
 0001:0000ed70       ?size@?$vector@FV?$allocator@F@std@@@std@@QBEIXZ 1000fd70 f i PlugInUtilities:RasterUtilities.obj
 0001:0000ed90       ??A?$vector@FV?$allocator@F@std@@@std@@QAEAAFI@Z 1000fd90 f i PlugInUtilities:RasterUtilities.obj
 0001:0000edc0       ?size@?$vector@GV?$allocator@G@std@@@std@@QBEIXZ 1000fdc0 f i PlugInUtilities:RasterUtilities.obj
 0001:0000ede0       ??A?$vector@GV?$allocator@G@std@@@std@@QAEAAGI@Z 1000fde0 f i PlugInUtilities:RasterUtilities.obj
 0001:0000ee10       ?size@?$vector@IV?$allocator@I@std@@@std@@QBEIXZ 1000fe10 f i PlugInUtilities:RasterUtilities.obj
 0001:0000ee30       ??A?$vector@IV?$allocator@I@std@@@std@@QAEAAII@Z 1000fe30 f i PlugInUtilities:RasterUtilities.obj
 0001:0000ee60       ?size@?$vector@JV?$allocator@J@std@@@std@@QBEIXZ 1000fe60 f i PlugInUtilities:RasterUtilities.obj
 0001:0000ee80       ??A?$vector@JV?$allocator@J@std@@@std@@QAEAAJI@Z 1000fe80 f i PlugInUtilities:RasterUtilities.obj
 0001:0000eeb0       ?size@?$vector@KV?$allocator@K@std@@@std@@QBEIXZ 1000feb0 f i PlugInUtilities:RasterUtilities.obj
 0001:0000eed0       ??A?$vector@KV?$allocator@K@std@@@std@@QAEAAKI@Z 1000fed0 f i PlugInUtilities:RasterUtilities.obj
 0001:0000ef00       ?size@?$vector@_JV?$allocator@_J@std@@@std@@QBEIXZ 1000ff00 f i PlugInUtilities:RasterUtilities.obj
 0001:0000ef20       ??A?$vector@_JV?$allocator@_J@std@@@std@@QAEAA_JI@Z 1000ff20 f i PlugInUtilities:RasterUtilities.obj
 0001:0000ef50       ?size@?$vector@_KV?$allocator@_K@std@@@std@@QBEIXZ 1000ff50 f i PlugInUtilities:RasterUtilities.obj
 0001:0000ef70       ??A?$vector@_KV?$allocator@_K@std@@@std@@QAEAA_KI@Z 1000ff70 f i PlugInUtilities:RasterUtilities.obj
 0001:0000efa0       ?size@?$vector@VInt64@@V?$allocator@VInt64@@@std@@@std@@QBEIXZ 1000ffa0 f i PlugInUtilities:RasterUtilities.obj
 0001:0000efc0       ??A?$vector@VInt64@@V?$allocator@VInt64@@@std@@@std@@QAEAAVInt64@@I@Z 1000ffc0 f i PlugInUtilities:RasterUtilities.obj
 0001:0000eff0       ?size@?$vector@VUInt64@@V?$allocator@VUInt64@@@std@@@std@@QBEIXZ 1000fff0 f i PlugInUtilities:RasterUtilities.obj
 0001:0000f010       ??A?$vector@VUInt64@@V?$allocator@VUInt64@@@std@@@std@@QAEAAVUInt64@@I@Z 10010010 f i PlugInUtilities:RasterUtilities.obj
 0001:0000f040       ?size@?$vector@MV?$allocator@M@std@@@std@@QBEIXZ 10010040 f i PlugInUtilities:RasterUtilities.obj
 0001:0000f060       ??A?$vector@MV?$allocator@M@std@@@std@@QAEAAMI@Z 10010060 f i PlugInUtilities:RasterUtilities.obj
 0001:0000f090       ?size@?$vector@_NV?$allocator@_N@std@@@std@@QBEIXZ 10010090 f i PlugInUtilities:RasterUtilities.obj
 0001:0000f0a0       ?capacity@?$vector@NV?$allocator@N@std@@@std@@QBEIXZ 100100a0 f i PlugInUtilities:RasterUtilities.obj
 0001:0000f0c0       ?_Xlen@?$vector@NV?$allocator@N@std@@@std@@KAXXZ 100100c0 f i PlugInUtilities:RasterUtilities.obj
 0001:0000f140       ??0?$allocator@N@std@@QAE@XZ 10010140 f i PlugInUtilities:RasterUtilities.obj
 0001:0000f150       ?deallocate@?$allocator@N@std@@QAEXPANI@Z 10010150 f i PlugInUtilities:RasterUtilities.obj
 0001:0000f160       ??0?$allocator@H@std@@QAE@XZ 10010160 f i PlugInUtilities:RasterUtilities.obj
 0001:0000f170       ?capacity@?$vector@DV?$allocator@D@std@@@std@@QBEIXZ 10010170 f i PlugInUtilities:RasterUtilities.obj
 0001:0000f180       ?max_size@?$vector@DV?$allocator@D@std@@@std@@QBEIXZ 10010180 f i PlugInUtilities:RasterUtilities.obj
 0001:0000f190       ?_Xlen@?$vector@DV?$allocator@D@std@@@std@@KAXXZ 10010190 f i PlugInUtilities:RasterUtilities.obj
 0001:0000f210       ??0?$_Vector_val@DV?$allocator@D@std@@@std@@IAE@V?$allocator@D@1@@Z 10010210 f i PlugInUtilities:RasterUtilities.obj
 0001:0000f220       ?capacity@?$vector@EV?$allocator@E@std@@@std@@QBEIXZ 10010220 f i PlugInUtilities:RasterUtilities.obj
 0001:0000f230       ?_Xlen@?$vector@EV?$allocator@E@std@@@std@@KAXXZ 10010230 f i PlugInUtilities:RasterUtilities.obj
 0001:0000f2b0       ??0?$allocator@E@std@@QAE@XZ 100102b0 f i PlugInUtilities:RasterUtilities.obj
 0001:0000f2c0       ?deallocate@?$allocator@E@std@@QAEXPAEI@Z 100102c0 f i PlugInUtilities:RasterUtilities.obj
 0001:0000f2d0       ?capacity@?$vector@FV?$allocator@F@std@@@std@@QBEIXZ 100102d0 f i PlugInUtilities:RasterUtilities.obj
 0001:0000f2f0       ?_Xlen@?$vector@FV?$allocator@F@std@@@std@@KAXXZ 100102f0 f i PlugInUtilities:RasterUtilities.obj
 0001:0000f370       ??0?$allocator@F@std@@QAE@XZ 10010370 f i PlugInUtilities:RasterUtilities.obj
 0001:0000f380       ?deallocate@?$allocator@F@std@@QAEXPAFI@Z 10010380 f i PlugInUtilities:RasterUtilities.obj
 0001:0000f390       ?capacity@?$vector@GV?$allocator@G@std@@@std@@QBEIXZ 10010390 f i PlugInUtilities:RasterUtilities.obj
 0001:0000f3b0       ?_Xlen@?$vector@GV?$allocator@G@std@@@std@@KAXXZ 100103b0 f i PlugInUtilities:RasterUtilities.obj
 0001:0000f430       ??0?$allocator@G@std@@QAE@XZ 10010430 f i PlugInUtilities:RasterUtilities.obj
 0001:0000f440       ?deallocate@?$allocator@G@std@@QAEXPAGI@Z 10010440 f i PlugInUtilities:RasterUtilities.obj
 0001:0000f450       ?capacity@?$vector@IV?$allocator@I@std@@@std@@QBEIXZ 10010450 f i PlugInUtilities:RasterUtilities.obj
 0001:0000f470       ?_Xlen@?$vector@IV?$allocator@I@std@@@std@@KAXXZ 10010470 f i PlugInUtilities:RasterUtilities.obj
 0001:0000f4f0       ??0?$allocator@I@std@@QAE@XZ 100104f0 f i PlugInUtilities:RasterUtilities.obj
 0001:0000f500       ?deallocate@?$allocator@I@std@@QAEXPAII@Z 10010500 f i PlugInUtilities:RasterUtilities.obj
 0001:0000f510       ?capacity@?$vector@JV?$allocator@J@std@@@std@@QBEIXZ 10010510 f i PlugInUtilities:RasterUtilities.obj
 0001:0000f530       ?_Xlen@?$vector@JV?$allocator@J@std@@@std@@KAXXZ 10010530 f i PlugInUtilities:RasterUtilities.obj
 0001:0000f5b0       ??0?$allocator@J@std@@QAE@XZ 100105b0 f i PlugInUtilities:RasterUtilities.obj
 0001:0000f5c0       ?deallocate@?$allocator@J@std@@QAEXPAJI@Z 100105c0 f i PlugInUtilities:RasterUtilities.obj
 0001:0000f5d0       ?capacity@?$vector@KV?$allocator@K@std@@@std@@QBEIXZ 100105d0 f i PlugInUtilities:RasterUtilities.obj
 0001:0000f5f0       ?_Xlen@?$vector@KV?$allocator@K@std@@@std@@KAXXZ 100105f0 f i PlugInUtilities:RasterUtilities.obj
 0001:0000f670       ??0?$allocator@K@std@@QAE@XZ 10010670 f i PlugInUtilities:RasterUtilities.obj
 0001:0000f680       ?deallocate@?$allocator@K@std@@QAEXPAKI@Z 10010680 f i PlugInUtilities:RasterUtilities.obj
 0001:0000f690       ?capacity@?$vector@_JV?$allocator@_J@std@@@std@@QBEIXZ 10010690 f i PlugInUtilities:RasterUtilities.obj
 0001:0000f6b0       ?_Xlen@?$vector@_JV?$allocator@_J@std@@@std@@KAXXZ 100106b0 f i PlugInUtilities:RasterUtilities.obj
 0001:0000f730       ??0?$allocator@_J@std@@QAE@XZ 10010730 f i PlugInUtilities:RasterUtilities.obj
 0001:0000f740       ?deallocate@?$allocator@_J@std@@QAEXPA_JI@Z 10010740 f i PlugInUtilities:RasterUtilities.obj
 0001:0000f750       ?capacity@?$vector@_KV?$allocator@_K@std@@@std@@QBEIXZ 10010750 f i PlugInUtilities:RasterUtilities.obj
 0001:0000f770       ?_Xlen@?$vector@_KV?$allocator@_K@std@@@std@@KAXXZ 10010770 f i PlugInUtilities:RasterUtilities.obj
 0001:0000f7f0       ??0?$allocator@_K@std@@QAE@XZ 100107f0 f i PlugInUtilities:RasterUtilities.obj
 0001:0000f800       ?deallocate@?$allocator@_K@std@@QAEXPA_KI@Z 10010800 f i PlugInUtilities:RasterUtilities.obj
 0001:0000f810       ?capacity@?$vector@VInt64@@V?$allocator@VInt64@@@std@@@std@@QBEIXZ 10010810 f i PlugInUtilities:RasterUtilities.obj
 0001:0000f830       ?_Xlen@?$vector@VInt64@@V?$allocator@VInt64@@@std@@@std@@KAXXZ 10010830 f i PlugInUtilities:RasterUtilities.obj
 0001:0000f8b0       ??0?$allocator@VInt64@@@std@@QAE@XZ 100108b0 f i PlugInUtilities:RasterUtilities.obj
 0001:0000f8c0       ?deallocate@?$allocator@VInt64@@@std@@QAEXPAVInt64@@I@Z 100108c0 f i PlugInUtilities:RasterUtilities.obj
 0001:0000f8d0       ?capacity@?$vector@VUInt64@@V?$allocator@VUInt64@@@std@@@std@@QBEIXZ 100108d0 f i PlugInUtilities:RasterUtilities.obj
 0001:0000f8f0       ?_Xlen@?$vector@VUInt64@@V?$allocator@VUInt64@@@std@@@std@@KAXXZ 100108f0 f i PlugInUtilities:RasterUtilities.obj
 0001:0000f970       ??0?$allocator@VUInt64@@@std@@QAE@XZ 10010970 f i PlugInUtilities:RasterUtilities.obj
 0001:0000f980       ?deallocate@?$allocator@VUInt64@@@std@@QAEXPAVUInt64@@I@Z 10010980 f i PlugInUtilities:RasterUtilities.obj
 0001:0000f990       ?capacity@?$vector@MV?$allocator@M@std@@@std@@QBEIXZ 10010990 f i PlugInUtilities:RasterUtilities.obj
 0001:0000f9b0       ?_Xlen@?$vector@MV?$allocator@M@std@@@std@@KAXXZ 100109b0 f i PlugInUtilities:RasterUtilities.obj
 0001:0000fa30       ??0?$allocator@M@std@@QAE@XZ 10010a30 f i PlugInUtilities:RasterUtilities.obj
 0001:0000fa40       ?deallocate@?$allocator@M@std@@QAEXPAMI@Z 10010a40 f i PlugInUtilities:RasterUtilities.obj
 0001:0000fa50       ?_Nw@?$vector@_NV?$allocator@_N@std@@@std@@KAII@Z 10010a50 f i PlugInUtilities:RasterUtilities.obj
 0001:0000fa60       ?_Mask@?$_Vb_reference@V?$vector@_NV?$allocator@_N@std@@@std@@@std@@IBEIXZ 10010a60 f i PlugInUtilities:RasterUtilities.obj
 0001:0000fa70       ??0?$allocator@N@std@@QAE@ABV01@@Z 10010a70 f i PlugInUtilities:RasterUtilities.obj
 0001:0000fa80       ?max_size@?$allocator@N@std@@QBEIXZ 10010a80 f i PlugInUtilities:RasterUtilities.obj
 0001:0000fa90       ??0?$allocator@E@std@@QAE@ABV01@@Z 10010a90 f i PlugInUtilities:RasterUtilities.obj
 0001:0000faa0       ?max_size@?$allocator@E@std@@QBEIXZ 10010aa0 f i PlugInUtilities:RasterUtilities.obj
 0001:0000fab0       ??0?$allocator@F@std@@QAE@ABV01@@Z 10010ab0 f i PlugInUtilities:RasterUtilities.obj
 0001:0000fac0       ?max_size@?$allocator@F@std@@QBEIXZ 10010ac0 f i PlugInUtilities:RasterUtilities.obj
 0001:0000fad0       ??0?$allocator@G@std@@QAE@ABV01@@Z 10010ad0 f i PlugInUtilities:RasterUtilities.obj
 0001:0000fae0       ?max_size@?$allocator@G@std@@QBEIXZ 10010ae0 f i PlugInUtilities:RasterUtilities.obj
 0001:0000faf0       ??0?$allocator@I@std@@QAE@ABV01@@Z 10010af0 f i PlugInUtilities:RasterUtilities.obj
 0001:0000fb00       ?max_size@?$allocator@I@std@@QBEIXZ 10010b00 f i PlugInUtilities:RasterUtilities.obj
 0001:0000fb10       ??0?$allocator@J@std@@QAE@ABV01@@Z 10010b10 f i PlugInUtilities:RasterUtilities.obj
 0001:0000fb20       ?max_size@?$allocator@J@std@@QBEIXZ 10010b20 f i PlugInUtilities:RasterUtilities.obj
 0001:0000fb30       ??0?$allocator@K@std@@QAE@ABV01@@Z 10010b30 f i PlugInUtilities:RasterUtilities.obj
 0001:0000fb40       ?max_size@?$allocator@K@std@@QBEIXZ 10010b40 f i PlugInUtilities:RasterUtilities.obj
 0001:0000fb50       ??0?$allocator@_J@std@@QAE@ABV01@@Z 10010b50 f i PlugInUtilities:RasterUtilities.obj
 0001:0000fb60       ?max_size@?$allocator@_J@std@@QBEIXZ 10010b60 f i PlugInUtilities:RasterUtilities.obj
 0001:0000fb70       ??0?$allocator@_K@std@@QAE@ABV01@@Z 10010b70 f i PlugInUtilities:RasterUtilities.obj
 0001:0000fb80       ?max_size@?$allocator@_K@std@@QBEIXZ 10010b80 f i PlugInUtilities:RasterUtilities.obj
 0001:0000fb90       ??0?$allocator@VInt64@@@std@@QAE@ABV01@@Z 10010b90 f i PlugInUtilities:RasterUtilities.obj
 0001:0000fba0       ?max_size@?$allocator@VInt64@@@std@@QBEIXZ 10010ba0 f i PlugInUtilities:RasterUtilities.obj
 0001:0000fbb0       ??0?$allocator@VUInt64@@@std@@QAE@ABV01@@Z 10010bb0 f i PlugInUtilities:RasterUtilities.obj
 0001:0000fbc0       ?max_size@?$allocator@VUInt64@@@std@@QBEIXZ 10010bc0 f i PlugInUtilities:RasterUtilities.obj
 0001:0000fbd0       ??0?$allocator@M@std@@QAE@ABV01@@Z 10010bd0 f i PlugInUtilities:RasterUtilities.obj
 0001:0000fbe0       ?max_size@?$allocator@M@std@@QBEIXZ 10010be0 f i PlugInUtilities:RasterUtilities.obj
 0001:0000fbf0       ??0?$_Ranit@_NHPA_N_N@std@@QAE@XZ 10010bf0 f i PlugInUtilities:RasterUtilities.obj
 0001:0000fc00       ??G?$_Vector_const_iterator@NV?$allocator@N@std@@@std@@QBEHABV01@@Z 10010c00 f i PlugInUtilities:RasterUtilities.obj
 0001:0000fc30       ??G?$_Vector_const_iterator@DV?$allocator@D@std@@@std@@QBEHABV01@@Z 10010c30 f i PlugInUtilities:RasterUtilities.obj
 0001:0000fc60       ??G?$_Vector_const_iterator@EV?$allocator@E@std@@@std@@QBEHABV01@@Z 10010c60 f i PlugInUtilities:RasterUtilities.obj
 0001:0000fc90       ??G?$_Vector_const_iterator@FV?$allocator@F@std@@@std@@QBEHABV01@@Z 10010c90 f i PlugInUtilities:RasterUtilities.obj
 0001:0000fcc0       ??G?$_Vector_const_iterator@GV?$allocator@G@std@@@std@@QBEHABV01@@Z 10010cc0 f i PlugInUtilities:RasterUtilities.obj
 0001:0000fcf0       ??G?$_Vector_const_iterator@IV?$allocator@I@std@@@std@@QBEHABV01@@Z 10010cf0 f i PlugInUtilities:RasterUtilities.obj
 0001:0000fd20       ??G?$_Vector_const_iterator@JV?$allocator@J@std@@@std@@QBEHABV01@@Z 10010d20 f i PlugInUtilities:RasterUtilities.obj
 0001:0000fd50       ??G?$_Vector_const_iterator@KV?$allocator@K@std@@@std@@QBEHABV01@@Z 10010d50 f i PlugInUtilities:RasterUtilities.obj
 0001:0000fd80       ??G?$_Vector_const_iterator@_JV?$allocator@_J@std@@@std@@QBEHABV01@@Z 10010d80 f i PlugInUtilities:RasterUtilities.obj
 0001:0000fdb0       ??G?$_Vector_const_iterator@_KV?$allocator@_K@std@@@std@@QBEHABV01@@Z 10010db0 f i PlugInUtilities:RasterUtilities.obj
 0001:0000fde0       ??G?$_Vector_const_iterator@VInt64@@V?$allocator@VInt64@@@std@@@std@@QBEHABV01@@Z 10010de0 f i PlugInUtilities:RasterUtilities.obj
 0001:0000fe10       ??G?$_Vector_const_iterator@VUInt64@@V?$allocator@VUInt64@@@std@@@std@@QBEHABV01@@Z 10010e10 f i PlugInUtilities:RasterUtilities.obj
 0001:0000fe40       ??G?$_Vector_const_iterator@MV?$allocator@M@std@@@std@@QBEHABV01@@Z 10010e40 f i PlugInUtilities:RasterUtilities.obj
 0001:0000fe70       ??G?$_Vb_const_iterator@V?$vector@_NV?$allocator@_N@std@@@std@@@std@@QBEHABV01@@Z 10010e70 f i PlugInUtilities:RasterUtilities.obj
 0001:0000fe90       ??0?$_Ranit@NHPBNABN@std@@QAE@XZ 10010e90 f i PlugInUtilities:RasterUtilities.obj
 0001:0000fea0       ??0?$_Ranit@DHPBDABD@std@@QAE@XZ 10010ea0 f i PlugInUtilities:RasterUtilities.obj
 0001:0000feb0       ??0?$_Ranit@EHPBEABE@std@@QAE@XZ 10010eb0 f i PlugInUtilities:RasterUtilities.obj
 0001:0000fec0       ??0?$_Ranit@FHPBFABF@std@@QAE@XZ 10010ec0 f i PlugInUtilities:RasterUtilities.obj
 0001:0000fed0       ??0?$_Ranit@GHPBGABG@std@@QAE@XZ 10010ed0 f i PlugInUtilities:RasterUtilities.obj
 0001:0000fee0       ??0?$_Ranit@IHPBIABI@std@@QAE@XZ 10010ee0 f i PlugInUtilities:RasterUtilities.obj
 0001:0000fef0       ??0?$_Ranit@JHPBJABJ@std@@QAE@XZ 10010ef0 f i PlugInUtilities:RasterUtilities.obj
 0001:0000ff00       ??0?$_Ranit@KHPBKABK@std@@QAE@XZ 10010f00 f i PlugInUtilities:RasterUtilities.obj
 0001:0000ff10       ??0?$_Ranit@_JHPB_JAB_J@std@@QAE@XZ 10010f10 f i PlugInUtilities:RasterUtilities.obj
 0001:0000ff20       ??0?$_Ranit@_KHPB_KAB_K@std@@QAE@XZ 10010f20 f i PlugInUtilities:RasterUtilities.obj
 0001:0000ff30       ??0?$_Ranit@VInt64@@HPBV1@ABV1@@std@@QAE@XZ 10010f30 f i PlugInUtilities:RasterUtilities.obj
 0001:0000ff40       ??0?$_Ranit@VUInt64@@HPBV1@ABV1@@std@@QAE@XZ 10010f40 f i PlugInUtilities:RasterUtilities.obj
 0001:0000ff50       ??0?$_Ranit@MHPBMABM@std@@QAE@XZ 10010f50 f i PlugInUtilities:RasterUtilities.obj
 0001:0000ff60       ??9?$_Vector_const_iterator@HV?$allocator@H@std@@@std@@QBE_NABV01@@Z 10010f60 f i PlugInUtilities:RasterUtilities.obj
 0001:0000ff90       ?_Xlen@?$vector@_NV?$allocator@_N@std@@@std@@IBEXXZ 10010f90 f i PlugInUtilities:RasterUtilities.obj
 0001:00010010       ??0?$_Vb_iter_base@V?$vector@_NV?$allocator@_N@std@@@std@@@std@@QAE@PAIPAV?$vector@_NV?$allocator@_N@std@@@1@@Z 10011010 f i PlugInUtilities:RasterUtilities.obj
 0001:00010040       ??Y?$_Vector_const_iterator@NV?$allocator@N@std@@@std@@QAEAAV01@H@Z 10011040 f i PlugInUtilities:RasterUtilities.obj
 0001:00010080       ??Y?$_Vector_const_iterator@DV?$allocator@D@std@@@std@@QAEAAV01@H@Z 10011080 f i PlugInUtilities:RasterUtilities.obj
 0001:000100c0       ??Y?$_Vector_const_iterator@EV?$allocator@E@std@@@std@@QAEAAV01@H@Z 100110c0 f i PlugInUtilities:RasterUtilities.obj
 0001:00010100       ??Y?$_Vector_const_iterator@FV?$allocator@F@std@@@std@@QAEAAV01@H@Z 10011100 f i PlugInUtilities:RasterUtilities.obj
 0001:00010140       ??Y?$_Vector_const_iterator@GV?$allocator@G@std@@@std@@QAEAAV01@H@Z 10011140 f i PlugInUtilities:RasterUtilities.obj
 0001:00010180       ??Y?$_Vector_const_iterator@IV?$allocator@I@std@@@std@@QAEAAV01@H@Z 10011180 f i PlugInUtilities:RasterUtilities.obj
 0001:000101c0       ??Y?$_Vector_const_iterator@JV?$allocator@J@std@@@std@@QAEAAV01@H@Z 100111c0 f i PlugInUtilities:RasterUtilities.obj
 0001:00010200       ??Y?$_Vector_const_iterator@KV?$allocator@K@std@@@std@@QAEAAV01@H@Z 10011200 f i PlugInUtilities:RasterUtilities.obj
 0001:00010240       ??Y?$_Vector_const_iterator@_JV?$allocator@_J@std@@@std@@QAEAAV01@H@Z 10011240 f i PlugInUtilities:RasterUtilities.obj
 0001:00010280       ??Y?$_Vector_const_iterator@_KV?$allocator@_K@std@@@std@@QAEAAV01@H@Z 10011280 f i PlugInUtilities:RasterUtilities.obj
 0001:000102c0       ??Y?$_Vector_const_iterator@VInt64@@V?$allocator@VInt64@@@std@@@std@@QAEAAV01@H@Z 100112c0 f i PlugInUtilities:RasterUtilities.obj
 0001:00010300       ??Y?$_Vector_const_iterator@VUInt64@@V?$allocator@VUInt64@@@std@@@std@@QAEAAV01@H@Z 10011300 f i PlugInUtilities:RasterUtilities.obj
 0001:00010340       ??Y?$_Vector_const_iterator@MV?$allocator@M@std@@@std@@QAEAAV01@H@Z 10011340 f i PlugInUtilities:RasterUtilities.obj
 0001:00010380       ??8?$_Vector_const_iterator@NV?$allocator@N@std@@@std@@QBE_NABV01@@Z 10011380 f i PlugInUtilities:RasterUtilities.obj
 0001:000103b0       ??8?$_Vector_const_iterator@DV?$allocator@D@std@@@std@@QBE_NABV01@@Z 100113b0 f i PlugInUtilities:RasterUtilities.obj
 0001:000103e0       ??8?$_Vector_const_iterator@EV?$allocator@E@std@@@std@@QBE_NABV01@@Z 100113e0 f i PlugInUtilities:RasterUtilities.obj
 0001:00010410       ??8?$_Vector_const_iterator@FV?$allocator@F@std@@@std@@QBE_NABV01@@Z 10011410 f i PlugInUtilities:RasterUtilities.obj
 0001:00010440       ??8?$_Vector_const_iterator@GV?$allocator@G@std@@@std@@QBE_NABV01@@Z 10011440 f i PlugInUtilities:RasterUtilities.obj
 0001:00010470       ??8?$_Vector_const_iterator@IV?$allocator@I@std@@@std@@QBE_NABV01@@Z 10011470 f i PlugInUtilities:RasterUtilities.obj
 0001:000104a0       ??8?$_Vector_const_iterator@JV?$allocator@J@std@@@std@@QBE_NABV01@@Z 100114a0 f i PlugInUtilities:RasterUtilities.obj
 0001:000104d0       ??8?$_Vector_const_iterator@KV?$allocator@K@std@@@std@@QBE_NABV01@@Z 100114d0 f i PlugInUtilities:RasterUtilities.obj
 0001:00010500       ??8?$_Vector_const_iterator@_JV?$allocator@_J@std@@@std@@QBE_NABV01@@Z 10011500 f i PlugInUtilities:RasterUtilities.obj
 0001:00010530       ??8?$_Vector_const_iterator@_KV?$allocator@_K@std@@@std@@QBE_NABV01@@Z 10011530 f i PlugInUtilities:RasterUtilities.obj
 0001:00010560       ??8?$_Vector_const_iterator@VInt64@@V?$allocator@VInt64@@@std@@@std@@QBE_NABV01@@Z 10011560 f i PlugInUtilities:RasterUtilities.obj
 0001:00010590       ??8?$_Vector_const_iterator@VUInt64@@V?$allocator@VUInt64@@@std@@@std@@QBE_NABV01@@Z 10011590 f i PlugInUtilities:RasterUtilities.obj
 0001:000105c0       ??8?$_Vector_const_iterator@MV?$allocator@M@std@@@std@@QBE_NABV01@@Z 100115c0 f i PlugInUtilities:RasterUtilities.obj
 0001:000105f0       ??$getPointerToValue@V?$basic_string@DU?$char_traits@D@std@@V?$allocator@D@2@@std@@@DataVariant@@QBEPBV?$basic_string@DU?$char_traits@D@std@@V?$allocator@D@2@@std@@XZ 100115f0 f i PlugInUtilities:RasterUtilities.obj
 0001:00010620       ??$_Iter_cat@V?$_Vector_iterator@V?$Location@H$01@Opticks@@V?$allocator@V?$Location@H$01@Opticks@@@std@@@std@@@std@@YA?AUrandom_access_iterator_tag@0@ABV?$_Vector_iterator@V?$Location@H$01@Opticks@@V?$allocator@V?$Location@H$01@Opticks@@@std@@@0@@Z 10011620 f i PlugInUtilities:RasterUtilities.obj
 0001:00010630       ??$_Iter_random@V?$_Vector_iterator@VDimensionDescriptor@@V?$allocator@VDimensionDescriptor@@@std@@@std@@V12@@std@@YA?AUrandom_access_iterator_tag@0@ABV?$_Vector_iterator@VDimensionDescriptor@@V?$allocator@VDimensionDescriptor@@@std@@@0@0@Z 10011630 f i PlugInUtilities:RasterUtilities.obj
 0001:00010640       ??$_Find@PBVDimensionDescriptor@@V1@@std@@YAPBVDimensionDescriptor@@PBV1@0ABV1@@Z 10011640 f i PlugInUtilities:RasterUtilities.obj
 0001:000106a0       ??$getPointerToValue@V?$vector@V?$basic_string@DU?$char_traits@D@std@@V?$allocator@D@2@@std@@V?$allocator@V?$basic_string@DU?$char_traits@D@std@@V?$allocator@D@2@@std@@@2@@std@@@DataVariant@@QBEPBV?$vector@V?$basic_string@DU?$char_traits@D@std@@V?$allocator@D@2@@std@@V?$allocator@V?$basic_string@DU?$char_traits@D@std@@V?$allocator@D@2@@std@@@2@@std@@XZ 100116a0 f i PlugInUtilities:RasterUtilities.obj
 0001:000106d0       ??$getPointerToValue@V?$vector@NV?$allocator@N@std@@@std@@@DataVariant@@QBEPBV?$vector@NV?$allocator@N@std@@@std@@XZ 100116d0 f i PlugInUtilities:RasterUtilities.obj
 0001:00010700       ??$getPointerToValue@V?$vector@NV?$allocator@N@std@@@std@@@DataVariant@@QAEPAV?$vector@NV?$allocator@N@std@@@std@@XZ 10011700 f i PlugInUtilities:RasterUtilities.obj
 0001:00010730       ??$getPointerToValue@V?$vector@V?$basic_string@DU?$char_traits@D@std@@V?$allocator@D@2@@std@@V?$allocator@V?$basic_string@DU?$char_traits@D@std@@V?$allocator@D@2@@std@@@2@@std@@@DataVariant@@QAEPAV?$vector@V?$basic_string@DU?$char_traits@D@std@@V?$allocator@D@2@@std@@V?$allocator@V?$basic_string@DU?$char_traits@D@std@@V?$allocator@D@2@@std@@@2@@std@@XZ 10011730 f i PlugInUtilities:RasterUtilities.obj
 0001:00010760       ??$getPointerToValue@VDynamicObject@@@DataVariant@@QBEPBVDynamicObject@@XZ 10011760 f i PlugInUtilities:RasterUtilities.obj
 0001:00010790       ??$_Find@PAHH@std@@YAPAHPAH0ABH@Z 10011790 f i PlugInUtilities:RasterUtilities.obj
 0001:000107b0       ??$_Iter_random@PAVDimensionDescriptor@@PAV1@@std@@YA?AUrandom_access_iterator_tag@0@ABQAVDimensionDescriptor@@0@Z 100117b0 f i PlugInUtilities:RasterUtilities.obj
 0001:000107c0       ??$_Ptr_cat@PAVDimensionDescriptor@@PAV1@@std@@YA?AU_Nonscalar_ptr_iterator_tag@0@AAPAVDimensionDescriptor@@0@Z 100117c0 f i PlugInUtilities:RasterUtilities.obj
 0001:000107d0       ??$_Iter_random@PAV?$Location@H$01@Opticks@@PAV12@@std@@YA?AUrandom_access_iterator_tag@0@ABQAV?$Location@H$01@Opticks@@0@Z 100117d0 f i PlugInUtilities:RasterUtilities.obj
 0001:000107e0       ??$_Ptr_cat@PAV?$Location@H$01@Opticks@@PAV12@@std@@YA?AU_Nonscalar_ptr_iterator_tag@0@AAPAV?$Location@H$01@Opticks@@0@Z 100117e0 f i PlugInUtilities:RasterUtilities.obj
 0001:000107f0       ??$_Ptr_cat@PAV?$EnumWrapper@W4RasterChannelTypeEnum@@@@PAV1@@std@@YA?AU_Nonscalar_ptr_iterator_tag@0@AAPAV?$EnumWrapper@W4RasterChannelTypeEnum@@@@0@Z 100117f0 f i PlugInUtilities:RasterUtilities.obj
 0001:00010800       ??$_Ptr_cat@PAHPAH@std@@YA?AU_Scalar_ptr_iterator_tag@0@AAPAH0@Z 10011800 f i PlugInUtilities:RasterUtilities.obj
 0001:00010810       ??$_Fill@PAVDimensionDescriptor@@V1@@std@@YAXPAVDimensionDescriptor@@0ABV1@@Z 10011810 f i PlugInUtilities:RasterUtilities.obj
 0001:00010860       ??$_Move_cat@PAVDimensionDescriptor@@@std@@YA?AU_Undefined_move_tag@0@ABQAVDimensionDescriptor@@@Z 10011860 f i PlugInUtilities:RasterUtilities.obj
 0001:00010870       ??$_Fill@PAV?$Location@H$01@Opticks@@V12@@std@@YAXPAV?$Location@H$01@Opticks@@0ABV12@@Z 10011870 f i PlugInUtilities:RasterUtilities.obj
 0001:000108a0       ??$_Move_cat@PAV?$Location@H$01@Opticks@@@std@@YA?AU_Undefined_move_tag@0@ABQAV?$Location@H$01@Opticks@@@Z 100118a0 f i PlugInUtilities:RasterUtilities.obj
 0001:000108b0       ??$_Fill@PAV?$EnumWrapper@W4RasterChannelTypeEnum@@@@V1@@std@@YAXPAV?$EnumWrapper@W4RasterChannelTypeEnum@@@@0ABV1@@Z 100118b0 f i PlugInUtilities:RasterUtilities.obj
 0001:000108e0       ??$_Iter_random@PAV?$EnumWrapper@W4RasterChannelTypeEnum@@@@PAV1@@std@@YA?AUrandom_access_iterator_tag@0@ABQAV?$EnumWrapper@W4RasterChannelTypeEnum@@@@0@Z 100118e0 f i PlugInUtilities:RasterUtilities.obj
 0001:000108f0       ??$_Move_cat@PAV?$EnumWrapper@W4RasterChannelTypeEnum@@@@@std@@YA?AU_Undefined_move_tag@0@ABQAV?$EnumWrapper@W4RasterChannelTypeEnum@@@@@Z 100118f0 f i PlugInUtilities:RasterUtilities.obj
 0001:00010900       ??$_Destroy_range@HV?$allocator@H@std@@@std@@YAXPAH0AAV?$allocator@H@0@U_Scalar_ptr_iterator_tag@0@@Z 10011900 f i PlugInUtilities:RasterUtilities.obj
 0001:00010910       ??$_Fill@PAHH@std@@YAXPAH0ABH@Z 10011910 f i PlugInUtilities:RasterUtilities.obj
 0001:00010930       ??$_Iter_random@PAHPAH@std@@YA?AUrandom_access_iterator_tag@0@ABQAH0@Z 10011930 f i PlugInUtilities:RasterUtilities.obj
 0001:00010940       ??$_Move_cat@PAH@std@@YA?AU_Undefined_move_tag@0@ABQAH@Z 10011940 f i PlugInUtilities:RasterUtilities.obj
 0001:00010950       ??$?8V?$basic_string@DU?$char_traits@D@std@@V?$allocator@D@2@@std@@V01@@std@@YA_NABV?$allocator@V?$basic_string@DU?$char_traits@D@std@@V?$allocator@D@2@@std@@@0@0@Z 10011950 f i PlugInUtilities:RasterUtilities.obj
 0001:00010960       ??$swap@PAV?$basic_string@DU?$char_traits@D@std@@V?$allocator@D@2@@std@@@std@@YAXAAPAV?$basic_string@DU?$char_traits@D@std@@V?$allocator@D@2@@0@0@Z 10011960 f i PlugInUtilities:RasterUtilities.obj
 0001:00010980       ??$?8NN@std@@YA_NABV?$allocator@N@0@0@Z 10011980 f i PlugInUtilities:RasterUtilities.obj
 0001:00010990       ??$swap@PAN@std@@YAXAAPAN0@Z 10011990 f i PlugInUtilities:RasterUtilities.obj
 0001:000109b0       ??$?8HH@std@@YA_NABV?$allocator@H@0@0@Z 100119b0 f i PlugInUtilities:RasterUtilities.obj
 0001:000109c0       ??$swap@PAH@std@@YAXAAPAH0@Z 100119c0 f i PlugInUtilities:RasterUtilities.obj
 0001:000109e0       ??$?8DD@std@@YA_NABV?$allocator@D@0@0@Z 100119e0 f i PlugInUtilities:RasterUtilities.obj
 0001:000109f0       ??$swap@PAD@std@@YAXAAPAD0@Z 100119f0 f i PlugInUtilities:RasterUtilities.obj
 0001:00010a10       ??$?8EE@std@@YA_NABV?$allocator@E@0@0@Z 10011a10 f i PlugInUtilities:RasterUtilities.obj
 0001:00010a20       ??$swap@PAE@std@@YAXAAPAE0@Z 10011a20 f i PlugInUtilities:RasterUtilities.obj
 0001:00010a40       ??$?8FF@std@@YA_NABV?$allocator@F@0@0@Z 10011a40 f i PlugInUtilities:RasterUtilities.obj
 0001:00010a50       ??$swap@PAF@std@@YAXAAPAF0@Z 10011a50 f i PlugInUtilities:RasterUtilities.obj
 0001:00010a70       ??$?8GG@std@@YA_NABV?$allocator@G@0@0@Z 10011a70 f i PlugInUtilities:RasterUtilities.obj
 0001:00010a80       ??$swap@PAG@std@@YAXAAPAG0@Z 10011a80 f i PlugInUtilities:RasterUtilities.obj
 0001:00010aa0       ??$?8II@std@@YA_NABV?$allocator@I@0@0@Z 10011aa0 f i PlugInUtilities:RasterUtilities.obj
 0001:00010ab0       ??$swap@PAI@std@@YAXAAPAI0@Z 10011ab0 f i PlugInUtilities:RasterUtilities.obj
 0001:00010ad0       ??$?8JJ@std@@YA_NABV?$allocator@J@0@0@Z 10011ad0 f i PlugInUtilities:RasterUtilities.obj
 0001:00010ae0       ??$swap@PAJ@std@@YAXAAPAJ0@Z 10011ae0 f i PlugInUtilities:RasterUtilities.obj
 0001:00010b00       ??$?8KK@std@@YA_NABV?$allocator@K@0@0@Z 10011b00 f i PlugInUtilities:RasterUtilities.obj
 0001:00010b10       ??$swap@PAK@std@@YAXAAPAK0@Z 10011b10 f i PlugInUtilities:RasterUtilities.obj
 0001:00010b30       ??$?8_J_J@std@@YA_NABV?$allocator@_J@0@0@Z 10011b30 f i PlugInUtilities:RasterUtilities.obj
 0001:00010b40       ??$swap@PA_J@std@@YAXAAPA_J0@Z 10011b40 f i PlugInUtilities:RasterUtilities.obj
 0001:00010b60       ??$?8_K_K@std@@YA_NABV?$allocator@_K@0@0@Z 10011b60 f i PlugInUtilities:RasterUtilities.obj
 0001:00010b70       ??$swap@PA_K@std@@YAXAAPA_K0@Z 10011b70 f i PlugInUtilities:RasterUtilities.obj
 0001:00010b90       ??$?8VInt64@@V0@@std@@YA_NABV?$allocator@VInt64@@@0@0@Z 10011b90 f i PlugInUtilities:RasterUtilities.obj
 0001:00010ba0       ??$swap@PAVInt64@@@std@@YAXAAPAVInt64@@0@Z 10011ba0 f i PlugInUtilities:RasterUtilities.obj
 0001:00010bc0       ??$?8VUInt64@@V0@@std@@YA_NABV?$allocator@VUInt64@@@0@0@Z 10011bc0 f i PlugInUtilities:RasterUtilities.obj
 0001:00010bd0       ??$swap@PAVUInt64@@@std@@YAXAAPAVUInt64@@0@Z 10011bd0 f i PlugInUtilities:RasterUtilities.obj
 0001:00010bf0       ??$?8MM@std@@YA_NABV?$allocator@M@0@0@Z 10011bf0 f i PlugInUtilities:RasterUtilities.obj
 0001:00010c00       ??$swap@PAM@std@@YAXAAPAM0@Z 10011c00 f i PlugInUtilities:RasterUtilities.obj
 0001:00010c20       ??$swap@I@std@@YAXAAI0@Z   10011c20 f i PlugInUtilities:RasterUtilities.obj
 0001:00010c40       ??$_Allocate@N@std@@YAPANIPAN@Z 10011c40 f i PlugInUtilities:RasterUtilities.obj
 0001:00010ca0       ??$_Allocate@E@std@@YAPAEIPAE@Z 10011ca0 f i PlugInUtilities:RasterUtilities.obj
 0001:00010d00       ??$_Allocate@F@std@@YAPAFIPAF@Z 10011d00 f i PlugInUtilities:RasterUtilities.obj
 0001:00010d60       ??$_Allocate@G@std@@YAPAGIPAG@Z 10011d60 f i PlugInUtilities:RasterUtilities.obj
 0001:00010dc0       ??$_Allocate@I@std@@YAPAIIPAI@Z 10011dc0 f i PlugInUtilities:RasterUtilities.obj
 0001:00010e20       ??$_Allocate@J@std@@YAPAJIPAJ@Z 10011e20 f i PlugInUtilities:RasterUtilities.obj
 0001:00010e80       ??$_Allocate@K@std@@YAPAKIPAK@Z 10011e80 f i PlugInUtilities:RasterUtilities.obj
 0001:00010ee0       ??$_Allocate@_J@std@@YAPA_JIPA_J@Z 10011ee0 f i PlugInUtilities:RasterUtilities.obj
 0001:00010f40       ??$_Allocate@_K@std@@YAPA_KIPA_K@Z 10011f40 f i PlugInUtilities:RasterUtilities.obj
 0001:00010fa0       ??$_Allocate@VInt64@@@std@@YAPAVInt64@@IPAV1@@Z 10011fa0 f i PlugInUtilities:RasterUtilities.obj
 0001:00011000       ??$_Allocate@VUInt64@@@std@@YAPAVUInt64@@IPAV1@@Z 10012000 f i PlugInUtilities:RasterUtilities.obj
 0001:00011060       ??$_Allocate@M@std@@YAPAMIPAM@Z 10012060 f i PlugInUtilities:RasterUtilities.obj
 0001:000110c0       ?_Checked_iterator_assign_from_base@?$_Vector_const_iterator@VDimensionDescriptor@@V?$allocator@VDimensionDescriptor@@@std@@@std@@QAEXPBVDimensionDescriptor@@@Z 100120c0 f i PlugInUtilities:RasterUtilities.obj
 0001:000110d0       ?_Checked_iterator_assign_from_base@?$_Vector_iterator@HV?$allocator@H@std@@@std@@QAEXPAH@Z 100120d0 f i PlugInUtilities:RasterUtilities.obj
 0001:000110e0       ??0?$list1@AAVDimensionDescriptor@@@_bi@boost@@QAE@AAVDimensionDescriptor@@@Z 100120e0 f i PlugInUtilities:RasterUtilities.obj
 0001:000110f0       ??$iter_swap@PAV?$Location@H$01@Opticks@@PAV12@@std@@YAXPAV?$Location@H$01@Opticks@@0@Z 100120f0 f i PlugInUtilities:RasterUtilities.obj
 0001:00011140       ??$_Transform@PAVDimensionDescriptor@@PAV1@VSetOnDiskNumber@?A0x92b3477e@@Uforward_iterator_tag@std@@@std@@YAPAVDimensionDescriptor@@PAV1@00VSetOnDiskNumber@?A0x92b3477e@@Uforward_iterator_tag@0@U_Range_checked_iterator_tag@0@@Z 10012140 f i PlugInUtilities:RasterUtilities.obj
 0001:000111b0       ??$getPointerToValue@V?$vector@DV?$allocator@D@std@@@std@@@DataVariant@@QBEPBV?$vector@DV?$allocator@D@std@@@std@@XZ 100121b0 f i PlugInUtilities:RasterUtilities.obj
 0001:000111e0       ??$getPointerToValue@V?$vector@EV?$allocator@E@std@@@std@@@DataVariant@@QBEPBV?$vector@EV?$allocator@E@std@@@std@@XZ 100121e0 f i PlugInUtilities:RasterUtilities.obj
 0001:00011210       ??$getPointerToValue@V?$vector@FV?$allocator@F@std@@@std@@@DataVariant@@QBEPBV?$vector@FV?$allocator@F@std@@@std@@XZ 10012210 f i PlugInUtilities:RasterUtilities.obj
 0001:00011240       ??$getPointerToValue@V?$vector@GV?$allocator@G@std@@@std@@@DataVariant@@QBEPBV?$vector@GV?$allocator@G@std@@@std@@XZ 10012240 f i PlugInUtilities:RasterUtilities.obj
 0001:00011270       ??$getPointerToValue@V?$vector@HV?$allocator@H@std@@@std@@@DataVariant@@QBEPBV?$vector@HV?$allocator@H@std@@@std@@XZ 10012270 f i PlugInUtilities:RasterUtilities.obj
 0001:000112a0       ??$getPointerToValue@V?$vector@IV?$allocator@I@std@@@std@@@DataVariant@@QBEPBV?$vector@IV?$allocator@I@std@@@std@@XZ 100122a0 f i PlugInUtilities:RasterUtilities.obj
 0001:000112d0       ??$getPointerToValue@V?$vector@JV?$allocator@J@std@@@std@@@DataVariant@@QBEPBV?$vector@JV?$allocator@J@std@@@std@@XZ 100122d0 f i PlugInUtilities:RasterUtilities.obj
 0001:00011300       ??$getPointerToValue@V?$vector@KV?$allocator@K@std@@@std@@@DataVariant@@QBEPBV?$vector@KV?$allocator@K@std@@@std@@XZ 10012300 f i PlugInUtilities:RasterUtilities.obj
 0001:00011330       ??$getPointerToValue@V?$vector@_JV?$allocator@_J@std@@@std@@@DataVariant@@QBEPBV?$vector@_JV?$allocator@_J@std@@@std@@XZ 10012330 f i PlugInUtilities:RasterUtilities.obj
 0001:00011360       ??$getPointerToValue@V?$vector@_KV?$allocator@_K@std@@@std@@@DataVariant@@QBEPBV?$vector@_KV?$allocator@_K@std@@@std@@XZ 10012360 f i PlugInUtilities:RasterUtilities.obj
 0001:00011390       ??$getPointerToValue@V?$vector@VInt64@@V?$allocator@VInt64@@@std@@@std@@@DataVariant@@QBEPBV?$vector@VInt64@@V?$allocator@VInt64@@@std@@@std@@XZ 10012390 f i PlugInUtilities:RasterUtilities.obj
 0001:000113c0       ??$getPointerToValue@V?$vector@VUInt64@@V?$allocator@VUInt64@@@std@@@std@@@DataVariant@@QBEPBV?$vector@VUInt64@@V?$allocator@VUInt64@@@std@@@std@@XZ 100123c0 f i PlugInUtilities:RasterUtilities.obj
 0001:000113f0       ??$getPointerToValue@V?$vector@MV?$allocator@M@std@@@std@@@DataVariant@@QBEPBV?$vector@MV?$allocator@M@std@@@std@@XZ 100123f0 f i PlugInUtilities:RasterUtilities.obj
 0001:00011420       ??$getPointerToValue@V?$vector@_NV?$allocator@_N@std@@@std@@@DataVariant@@QBEPBV?$vector@_NV?$allocator@_N@std@@@std@@XZ 10012420 f i PlugInUtilities:RasterUtilities.obj
 0001:00011450       ??$_Iter_random@V?$_Vector_const_iterator@VDimensionDescriptor@@V?$allocator@VDimensionDescriptor@@@std@@@std@@V12@@std@@YA?AUrandom_access_iterator_tag@0@ABV?$_Vector_const_iterator@VDimensionDescriptor@@V?$allocator@VDimensionDescriptor@@@std@@@0@0@Z 10012450 f i PlugInUtilities:RasterUtilities.obj
 0001:00011460       ??$_Ptr_cat@V?$_Vector_const_iterator@VDimensionDescriptor@@V?$allocator@VDimensionDescriptor@@@std@@@std@@PAVDimensionDescriptor@@@std@@YA?AU_Nonscalar_ptr_iterator_tag@0@AAV?$_Vector_const_iterator@VDimensionDescriptor@@V?$allocator@VDimensionDescriptor@@@std@@@0@AAPAVDimensionDescriptor@@@Z 10012460 f i PlugInUtilities:RasterUtilities.obj
 0001:00011470       ??$_Ptr_cat@V?$_Vector_const_iterator@V?$EnumWrapper@W4RasterChannelTypeEnum@@@@V?$allocator@V?$EnumWrapper@W4RasterChannelTypeEnum@@@@@std@@@std@@PAV?$EnumWrapper@W4RasterChannelTypeEnum@@@@@std@@YA?AU_Nonscalar_ptr_iterator_tag@0@AAV?$_Vector_const_iterator@V?$EnumWrapper@W4RasterChannelTypeEnum@@@@V?$allocator@V?$EnumWrapper@W4RasterChannelTypeEnum@@@@@std@@@0@AAPAV?$EnumWrapper@W4RasterChannelTypeEnum@@@@@Z 10012470 f i PlugInUtilities:RasterUtilities.obj
 0001:00011480       ??$_Ptr_cat@V?$_Vector_const_iterator@HV?$allocator@H@std@@@std@@PAH@std@@YA?AU_Scalar_ptr_iterator_tag@0@AAV?$_Vector_const_iterator@HV?$allocator@H@std@@@0@AAPAH@Z 10012480 f i PlugInUtilities:RasterUtilities.obj
 0001:00011490       ??$_Uninit_copy@PBHPAHV?$allocator@H@std@@@std@@YAPAHPBH0PAHAAV?$allocator@H@0@U_Scalar_ptr_iterator_tag@0@U_Range_checked_iterator_tag@0@@Z 10012490 f i PlugInUtilities:RasterUtilities.obj
 0001:000114c0       ??$_Checked_base@PAVDimensionDescriptor@@@std@@YAPAVDimensionDescriptor@@AAPAV1@U_Unchanged_checked_iterator_base_type_tag@0@@Z 100124c0 f i PlugInUtilities:RasterUtilities.obj
 0001:000114d0       ??$_Copy_opt@PAVDimensionDescriptor@@PAV1@Uforward_iterator_tag@std@@@std@@YAPAVDimensionDescriptor@@PAV1@00Uforward_iterator_tag@0@U_Nonscalar_ptr_iterator_tag@0@U_Range_checked_iterator_tag@0@@Z 100124d0 f i PlugInUtilities:RasterUtilities.obj
 0001:00011520       ??$_Checked_base@PAV?$Location@H$01@Opticks@@@std@@YAPAV?$Location@H$01@Opticks@@AAPAV12@U_Unchanged_checked_iterator_base_type_tag@0@@Z 10012520 f i PlugInUtilities:RasterUtilities.obj
 0001:00011530       ??$_Copy_opt@PAV?$Location@H$01@Opticks@@PAV12@Uforward_iterator_tag@std@@@std@@YAPAV?$Location@H$01@Opticks@@PAV12@00Uforward_iterator_tag@0@U_Nonscalar_ptr_iterator_tag@0@U_Range_checked_iterator_tag@0@@Z 10012530 f i PlugInUtilities:RasterUtilities.obj
 0001:00011570       ??$_Checked_base@PAV?$EnumWrapper@W4RasterChannelTypeEnum@@@@@std@@YAPAV?$EnumWrapper@W4RasterChannelTypeEnum@@@@AAPAV1@U_Unchanged_checked_iterator_base_type_tag@0@@Z 10012570 f i PlugInUtilities:RasterUtilities.obj
 0001:00011580       ??$_Checked_base@PAH@std@@YAPAHAAPAHU_Unchanged_checked_iterator_base_type_tag@0@@Z 10012580 f i PlugInUtilities:RasterUtilities.obj
 0001:00011590       ??$_Copy_backward_opt@PAHPAHUrandom_access_iterator_tag@std@@@std@@YAPAHPAH00Urandom_access_iterator_tag@0@U_Scalar_ptr_iterator_tag@0@U_Range_checked_iterator_tag@0@@Z 10012590 f i PlugInUtilities:RasterUtilities.obj
 0001:000115c0       ??$_Iter_random@PANPAN@std@@YA?AUrandom_access_iterator_tag@0@ABQAN0@Z 100125c0 f i PlugInUtilities:RasterUtilities.obj
 0001:000115d0       ??$_Ptr_cat@PANPAN@std@@YA?AU_Scalar_ptr_iterator_tag@0@AAPAN0@Z 100125d0 f i PlugInUtilities:RasterUtilities.obj
 0001:000115e0       ??$_Copy_opt@PANPANUrandom_access_iterator_tag@std@@@std@@YAPANPAN00Urandom_access_iterator_tag@0@U_Scalar_ptr_iterator_tag@0@U_Range_checked_iterator_tag@0@@Z 100125e0 f i PlugInUtilities:RasterUtilities.obj
 0001:00011620       ??$_Destroy_range@NV?$allocator@N@std@@@std@@YAXPAN0AAV?$allocator@N@0@U_Scalar_ptr_iterator_tag@0@@Z 10012620 f i PlugInUtilities:RasterUtilities.obj
 0001:00011630       ??$_Copy_opt@PAHPAHUrandom_access_iterator_tag@std@@@std@@YAPAHPAH00Urandom_access_iterator_tag@0@U_Scalar_ptr_iterator_tag@0@U_Range_checked_iterator_tag@0@@Z 10012630 f i PlugInUtilities:RasterUtilities.obj
 0001:00011670       ??$_Iter_random@PADPAD@std@@YA?AUrandom_access_iterator_tag@0@ABQAD0@Z 10012670 f i PlugInUtilities:RasterUtilities.obj
 0001:00011680       ??$_Ptr_cat@PADPAD@std@@YA?AU_Scalar_ptr_iterator_tag@0@AAPAD0@Z 10012680 f i PlugInUtilities:RasterUtilities.obj
 0001:00011690       ??$_Copy_opt@PADPADUrandom_access_iterator_tag@std@@@std@@YAPADPAD00Urandom_access_iterator_tag@0@U_Scalar_ptr_iterator_tag@0@U_Range_checked_iterator_tag@0@@Z 10012690 f i PlugInUtilities:RasterUtilities.obj
 0001:000116c0       ??$_Destroy_range@DV?$allocator@D@std@@@std@@YAXPAD0AAV?$allocator@D@0@U_Scalar_ptr_iterator_tag@0@@Z 100126c0 f i PlugInUtilities:RasterUtilities.obj
 0001:000116d0       ??$_Iter_random@PAEPAE@std@@YA?AUrandom_access_iterator_tag@0@ABQAE0@Z 100126d0 f i PlugInUtilities:RasterUtilities.obj
 0001:000116e0       ??$_Ptr_cat@PAEPAE@std@@YA?AU_Scalar_ptr_iterator_tag@0@AAPAE0@Z 100126e0 f i PlugInUtilities:RasterUtilities.obj
 0001:000116f0       ??$_Copy_opt@PAEPAEUrandom_access_iterator_tag@std@@@std@@YAPAEPAE00Urandom_access_iterator_tag@0@U_Scalar_ptr_iterator_tag@0@U_Range_checked_iterator_tag@0@@Z 100126f0 f i PlugInUtilities:RasterUtilities.obj
 0001:00011720       ??$_Destroy_range@EV?$allocator@E@std@@@std@@YAXPAE0AAV?$allocator@E@0@U_Scalar_ptr_iterator_tag@0@@Z 10012720 f i PlugInUtilities:RasterUtilities.obj
 0001:00011730       ??$_Iter_random@PAFPAF@std@@YA?AUrandom_access_iterator_tag@0@ABQAF0@Z 10012730 f i PlugInUtilities:RasterUtilities.obj
 0001:00011740       ??$_Ptr_cat@PAFPAF@std@@YA?AU_Scalar_ptr_iterator_tag@0@AAPAF0@Z 10012740 f i PlugInUtilities:RasterUtilities.obj
 0001:00011750       ??$_Copy_opt@PAFPAFUrandom_access_iterator_tag@std@@@std@@YAPAFPAF00Urandom_access_iterator_tag@0@U_Scalar_ptr_iterator_tag@0@U_Range_checked_iterator_tag@0@@Z 10012750 f i PlugInUtilities:RasterUtilities.obj
 0001:00011780       ??$_Destroy_range@FV?$allocator@F@std@@@std@@YAXPAF0AAV?$allocator@F@0@U_Scalar_ptr_iterator_tag@0@@Z 10012780 f i PlugInUtilities:RasterUtilities.obj
 0001:00011790       ??$_Iter_random@PAGPAG@std@@YA?AUrandom_access_iterator_tag@0@ABQAG0@Z 10012790 f i PlugInUtilities:RasterUtilities.obj
 0001:000117a0       ??$_Ptr_cat@PAGPAG@std@@YA?AU_Scalar_ptr_iterator_tag@0@AAPAG0@Z 100127a0 f i PlugInUtilities:RasterUtilities.obj
 0001:000117b0       ??$_Copy_opt@PAGPAGUrandom_access_iterator_tag@std@@@std@@YAPAGPAG00Urandom_access_iterator_tag@0@U_Scalar_ptr_iterator_tag@0@U_Range_checked_iterator_tag@0@@Z 100127b0 f i PlugInUtilities:RasterUtilities.obj
 0001:000117e0       ??$_Destroy_range@GV?$allocator@G@std@@@std@@YAXPAG0AAV?$allocator@G@0@U_Scalar_ptr_iterator_tag@0@@Z 100127e0 f i PlugInUtilities:RasterUtilities.obj
 0001:000117f0       ??$_Iter_random@PAIPAI@std@@YA?AUrandom_access_iterator_tag@0@ABQAI0@Z 100127f0 f i PlugInUtilities:RasterUtilities.obj
 0001:00011800       ??$_Ptr_cat@PAIPAI@std@@YA?AU_Scalar_ptr_iterator_tag@0@AAPAI0@Z 10012800 f i PlugInUtilities:RasterUtilities.obj
 0001:00011810       ??$_Copy_opt@PAIPAIUrandom_access_iterator_tag@std@@@std@@YAPAIPAI00Urandom_access_iterator_tag@0@U_Scalar_ptr_iterator_tag@0@U_Range_checked_iterator_tag@0@@Z 10012810 f i PlugInUtilities:RasterUtilities.obj
 0001:00011850       ??$_Destroy_range@IV?$allocator@I@std@@@std@@YAXPAI0AAV?$allocator@I@0@U_Scalar_ptr_iterator_tag@0@@Z 10012850 f i PlugInUtilities:RasterUtilities.obj
 0001:00011860       ??$_Iter_random@PAJPAJ@std@@YA?AUrandom_access_iterator_tag@0@ABQAJ0@Z 10012860 f i PlugInUtilities:RasterUtilities.obj
 0001:00011870       ??$_Ptr_cat@PAJPAJ@std@@YA?AU_Scalar_ptr_iterator_tag@0@AAPAJ0@Z 10012870 f i PlugInUtilities:RasterUtilities.obj
 0001:00011880       ??$_Copy_opt@PAJPAJUrandom_access_iterator_tag@std@@@std@@YAPAJPAJ00Urandom_access_iterator_tag@0@U_Scalar_ptr_iterator_tag@0@U_Range_checked_iterator_tag@0@@Z 10012880 f i PlugInUtilities:RasterUtilities.obj
 0001:000118c0       ??$_Destroy_range@JV?$allocator@J@std@@@std@@YAXPAJ0AAV?$allocator@J@0@U_Scalar_ptr_iterator_tag@0@@Z 100128c0 f i PlugInUtilities:RasterUtilities.obj
 0001:000118d0       ??$_Iter_random@PAKPAK@std@@YA?AUrandom_access_iterator_tag@0@ABQAK0@Z 100128d0 f i PlugInUtilities:RasterUtilities.obj
 0001:000118e0       ??$_Ptr_cat@PAKPAK@std@@YA?AU_Scalar_ptr_iterator_tag@0@AAPAK0@Z 100128e0 f i PlugInUtilities:RasterUtilities.obj
 0001:000118f0       ??$_Copy_opt@PAKPAKUrandom_access_iterator_tag@std@@@std@@YAPAKPAK00Urandom_access_iterator_tag@0@U_Scalar_ptr_iterator_tag@0@U_Range_checked_iterator_tag@0@@Z 100128f0 f i PlugInUtilities:RasterUtilities.obj
 0001:00011930       ??$_Destroy_range@KV?$allocator@K@std@@@std@@YAXPAK0AAV?$allocator@K@0@U_Scalar_ptr_iterator_tag@0@@Z 10012930 f i PlugInUtilities:RasterUtilities.obj
 0001:00011940       ??$_Iter_random@PA_JPA_J@std@@YA?AUrandom_access_iterator_tag@0@ABQA_J0@Z 10012940 f i PlugInUtilities:RasterUtilities.obj
 0001:00011950       ??$_Ptr_cat@PA_JPA_J@std@@YA?AU_Scalar_ptr_iterator_tag@0@AAPA_J0@Z 10012950 f i PlugInUtilities:RasterUtilities.obj
 0001:00011960       ??$_Copy_opt@PA_JPA_JUrandom_access_iterator_tag@std@@@std@@YAPA_JPA_J00Urandom_access_iterator_tag@0@U_Scalar_ptr_iterator_tag@0@U_Range_checked_iterator_tag@0@@Z 10012960 f i PlugInUtilities:RasterUtilities.obj
 0001:000119a0       ??$_Destroy_range@_JV?$allocator@_J@std@@@std@@YAXPA_J0AAV?$allocator@_J@0@U_Scalar_ptr_iterator_tag@0@@Z 100129a0 f i PlugInUtilities:RasterUtilities.obj
 0001:000119b0       ??$_Iter_random@PA_KPA_K@std@@YA?AUrandom_access_iterator_tag@0@ABQA_K0@Z 100129b0 f i PlugInUtilities:RasterUtilities.obj
 0001:000119c0       ??$_Ptr_cat@PA_KPA_K@std@@YA?AU_Scalar_ptr_iterator_tag@0@AAPA_K0@Z 100129c0 f i PlugInUtilities:RasterUtilities.obj
 0001:000119d0       ??$_Copy_opt@PA_KPA_KUrandom_access_iterator_tag@std@@@std@@YAPA_KPA_K00Urandom_access_iterator_tag@0@U_Scalar_ptr_iterator_tag@0@U_Range_checked_iterator_tag@0@@Z 100129d0 f i PlugInUtilities:RasterUtilities.obj
 0001:00011a10       ??$_Destroy_range@_KV?$allocator@_K@std@@@std@@YAXPA_K0AAV?$allocator@_K@0@U_Scalar_ptr_iterator_tag@0@@Z 10012a10 f i PlugInUtilities:RasterUtilities.obj
 0001:00011a20       ??$_Iter_random@PAVInt64@@PAV1@@std@@YA?AUrandom_access_iterator_tag@0@ABQAVInt64@@0@Z 10012a20 f i PlugInUtilities:RasterUtilities.obj
 0001:00011a30       ??$_Ptr_cat@PAVInt64@@PAV1@@std@@YA?AU_Nonscalar_ptr_iterator_tag@0@AAPAVInt64@@0@Z 10012a30 f i PlugInUtilities:RasterUtilities.obj
 0001:00011a40       ??$_Iter_random@PAVUInt64@@PAV1@@std@@YA?AUrandom_access_iterator_tag@0@ABQAVUInt64@@0@Z 10012a40 f i PlugInUtilities:RasterUtilities.obj
 0001:00011a50       ??$_Ptr_cat@PAVUInt64@@PAV1@@std@@YA?AU_Nonscalar_ptr_iterator_tag@0@AAPAVUInt64@@0@Z 10012a50 f i PlugInUtilities:RasterUtilities.obj
 0001:00011a60       ??$_Iter_random@PAMPAM@std@@YA?AUrandom_access_iterator_tag@0@ABQAM0@Z 10012a60 f i PlugInUtilities:RasterUtilities.obj
 0001:00011a70       ??$_Ptr_cat@PAMPAM@std@@YA?AU_Scalar_ptr_iterator_tag@0@AAPAM0@Z 10012a70 f i PlugInUtilities:RasterUtilities.obj
 0001:00011a80       ??$_Copy_opt@PAMPAMUrandom_access_iterator_tag@std@@@std@@YAPAMPAM00Urandom_access_iterator_tag@0@U_Scalar_ptr_iterator_tag@0@U_Range_checked_iterator_tag@0@@Z 10012a80 f i PlugInUtilities:RasterUtilities.obj
 0001:00011ac0       ??$_Destroy_range@MV?$allocator@M@std@@@std@@YAXPAM0AAV?$allocator@M@0@U_Scalar_ptr_iterator_tag@0@@Z 10012ac0 f i PlugInUtilities:RasterUtilities.obj
 0001:00011ad0       ??$_Fill@PANN@std@@YAXPAN0ABN@Z 10012ad0 f i PlugInUtilities:RasterUtilities.obj
 0001:00011af0       ??$_Move_cat@PAN@std@@YA?AU_Undefined_move_tag@0@ABQAN@Z 10012af0 f i PlugInUtilities:RasterUtilities.obj
 0001:00011b00       ??$_Fill@PADD@std@@YAXPAD0ABD@Z 10012b00 f i PlugInUtilities:RasterUtilities.obj
 0001:00011b20       ??$_Move_cat@PAD@std@@YA?AU_Undefined_move_tag@0@ABQAD@Z 10012b20 f i PlugInUtilities:RasterUtilities.obj
 0001:00011b30       ??$_Fill@PAEE@std@@YAXPAE0ABE@Z 10012b30 f i PlugInUtilities:RasterUtilities.obj
 0001:00011b50       ??$_Move_cat@PAE@std@@YA?AU_Undefined_move_tag@0@ABQAE@Z 10012b50 f i PlugInUtilities:RasterUtilities.obj
 0001:00011b60       ??$_Fill@PAFF@std@@YAXPAF0ABF@Z 10012b60 f i PlugInUtilities:RasterUtilities.obj
 0001:00011b80       ??$_Move_cat@PAF@std@@YA?AU_Undefined_move_tag@0@ABQAF@Z 10012b80 f i PlugInUtilities:RasterUtilities.obj
 0001:00011b90       ??$_Fill@PAGG@std@@YAXPAG0ABG@Z 10012b90 f i PlugInUtilities:RasterUtilities.obj
 0001:00011bb0       ??$_Move_cat@PAG@std@@YA?AU_Undefined_move_tag@0@ABQAG@Z 10012bb0 f i PlugInUtilities:RasterUtilities.obj
 0001:00011bc0       ??$_Fill@PAII@std@@YAXPAI0ABI@Z 10012bc0 f i PlugInUtilities:RasterUtilities.obj
 0001:00011be0       ??$_Move_cat@PAI@std@@YA?AU_Undefined_move_tag@0@ABQAI@Z 10012be0 f i PlugInUtilities:RasterUtilities.obj
 0001:00011bf0       ??$_Fill@PAJJ@std@@YAXPAJ0ABJ@Z 10012bf0 f i PlugInUtilities:RasterUtilities.obj
 0001:00011c10       ??$_Move_cat@PAJ@std@@YA?AU_Undefined_move_tag@0@ABQAJ@Z 10012c10 f i PlugInUtilities:RasterUtilities.obj
 0001:00011c20       ??$_Fill@PAKK@std@@YAXPAK0ABK@Z 10012c20 f i PlugInUtilities:RasterUtilities.obj
 0001:00011c40       ??$_Move_cat@PAK@std@@YA?AU_Undefined_move_tag@0@ABQAK@Z 10012c40 f i PlugInUtilities:RasterUtilities.obj
 0001:00011c50       ??$_Fill@PA_J_J@std@@YAXPA_J0AB_J@Z 10012c50 f i PlugInUtilities:RasterUtilities.obj
 0001:00011c80       ??$_Move_cat@PA_J@std@@YA?AU_Undefined_move_tag@0@ABQA_J@Z 10012c80 f i PlugInUtilities:RasterUtilities.obj
 0001:00011c90       ??$_Fill@PA_K_K@std@@YAXPA_K0AB_K@Z 10012c90 f i PlugInUtilities:RasterUtilities.obj
 0001:00011cc0       ??$_Move_cat@PA_K@std@@YA?AU_Undefined_move_tag@0@ABQA_K@Z 10012cc0 f i PlugInUtilities:RasterUtilities.obj
 0001:00011cd0       ??$_Fill@PAVInt64@@V1@@std@@YAXPAVInt64@@0ABV1@@Z 10012cd0 f i PlugInUtilities:RasterUtilities.obj
 0001:00011d00       ??$_Move_cat@PAVInt64@@@std@@YA?AU_Undefined_move_tag@0@ABQAVInt64@@@Z 10012d00 f i PlugInUtilities:RasterUtilities.obj
 0001:00011d10       ??$_Fill@PAVUInt64@@V1@@std@@YAXPAVUInt64@@0ABV1@@Z 10012d10 f i PlugInUtilities:RasterUtilities.obj
 0001:00011d40       ??$_Move_cat@PAVUInt64@@@std@@YA?AU_Undefined_move_tag@0@ABQAVUInt64@@@Z 10012d40 f i PlugInUtilities:RasterUtilities.obj
 0001:00011d50       ??$_Fill@PAMM@std@@YAXPAM0ABM@Z 10012d50 f i PlugInUtilities:RasterUtilities.obj
 0001:00011d70       ??$_Move_cat@PAM@std@@YA?AU_Undefined_move_tag@0@ABQAM@Z 10012d70 f i PlugInUtilities:RasterUtilities.obj
 0001:00011d80       ??$_Iter_random@V?$_Vb_iterator@V?$vector@_NV?$allocator@_N@std@@@std@@@std@@V12@@std@@YA?AUrandom_access_iterator_tag@0@ABV?$_Vb_iterator@V?$vector@_NV?$allocator@_N@std@@@std@@@0@0@Z 10012d80 f i PlugInUtilities:RasterUtilities.obj
 0001:00011d90       ??$_Ptr_cat@V?$_Vb_iterator@V?$vector@_NV?$allocator@_N@std@@@std@@@std@@V12@@std@@YA?AU_Nonscalar_ptr_iterator_tag@0@AAV?$_Vb_iterator@V?$vector@_NV?$allocator@_N@std@@@std@@@0@0@Z 10012d90 f i PlugInUtilities:RasterUtilities.obj
 0001:00011da0       ??$_Construct@VDimensionDescriptor@@V1@@std@@YAXPAVDimensionDescriptor@@ABV1@@Z 10012da0 f i PlugInUtilities:RasterUtilities.obj
 0001:00011dd0       ??$_Destroy@VDimensionDescriptor@@@std@@YAXPAVDimensionDescriptor@@@Z 10012dd0 f i PlugInUtilities:RasterUtilities.obj
 0001:00011de0       ??$_Construct@V?$Location@H$01@Opticks@@V12@@std@@YAXPAV?$Location@H$01@Opticks@@ABV12@@Z 10012de0 f i PlugInUtilities:RasterUtilities.obj
 0001:00011e00       ??$_Construct@V?$EnumWrapper@W4RasterChannelTypeEnum@@@@V1@@std@@YAXPAV?$EnumWrapper@W4RasterChannelTypeEnum@@@@ABV1@@Z 10012e00 f i PlugInUtilities:RasterUtilities.obj
 0001:00011e20       ??$_Destroy@V?$EnumWrapper@W4RasterChannelTypeEnum@@@@@std@@YAXPAV?$EnumWrapper@W4RasterChannelTypeEnum@@@@@Z 10012e20 f i PlugInUtilities:RasterUtilities.obj
 0001:00011e30       ??_G?$Location@H$01@Opticks@@QAEPAXI@Z 10012e30 f i PlugInUtilities:RasterUtilities.obj
 0001:00011e50       ?_Checked_iterator_base@?$_Vector_iterator@V?$Location@H$01@Opticks@@V?$allocator@V?$Location@H$01@Opticks@@@std@@@std@@QBEPAV?$Location@H$01@Opticks@@XZ 10012e50 f i PlugInUtilities:RasterUtilities.obj
 0001:00011e60       ?_Checked_iterator_base@?$_Vector_iterator@VDimensionDescriptor@@V?$allocator@VDimensionDescriptor@@@std@@@std@@QBEPAVDimensionDescriptor@@XZ 10012e60 f i PlugInUtilities:RasterUtilities.obj
 0001:00011e70       ?_Checked_iterator_base@?$_Vector_const_iterator@VDimensionDescriptor@@V?$allocator@VDimensionDescriptor@@@std@@@std@@QBEPBVDimensionDescriptor@@XZ 10012e70 f i PlugInUtilities:RasterUtilities.obj
 0001:00011e80       ??H?$_Vector_const_iterator@VDimensionDescriptor@@V?$allocator@VDimensionDescriptor@@@std@@@std@@QBE?AV01@H@Z 10012e80 f i PlugInUtilities:RasterUtilities.obj
 0001:00011ec0       ??R?$mf1@XVDimensionDescriptor@@_N@_mfi@boost@@QBEXAAVDimensionDescriptor@@_N@Z 10012ec0 f i PlugInUtilities:RasterUtilities.obj
 0001:00011ee0       ?_Checked_iterator_base@?$_Vector_iterator@HV?$allocator@H@std@@@std@@QBEPAHXZ 10012ee0 f i PlugInUtilities:RasterUtilities.obj
 0001:00011ef0       ??A?$list1@AAVDimensionDescriptor@@@_bi@boost@@QBEAAVDimensionDescriptor@@V?$arg@$00@2@@Z 10012ef0 f i PlugInUtilities:RasterUtilities.obj
 0001:00011f00       ??8?$_Vb_const_iterator@V?$vector@_NV?$allocator@_N@std@@@std@@@std@@QBE_NABV01@@Z 10012f00 f i PlugInUtilities:RasterUtilities.obj
 0001:00011f30       ??$unwrap@V?$mf1@XVDimensionDescriptor@@_N@_mfi@boost@@@_bi@boost@@YAAAV?$mf1@XVDimensionDescriptor@@_N@_mfi@1@PAV231@J@Z 10012f30 f i PlugInUtilities:RasterUtilities.obj
 0001:00011f40       ??$_Iter_cat@PAH@std@@YA?AUrandom_access_iterator_tag@0@ABQAH@Z 10012f40 f i PlugInUtilities:RasterUtilities.obj
 0001:00011f50       ??$_Copy_backward_opt@PAVDimensionDescriptor@@PAV1@Uforward_iterator_tag@std@@@std@@YAPAVDimensionDescriptor@@PAV1@00Uforward_iterator_tag@0@U_Nonscalar_ptr_iterator_tag@0@U_Range_checked_iterator_tag@0@@Z 10012f50 f i PlugInUtilities:RasterUtilities.obj
 0001:00011fa0       ??$_Copy_backward_opt@PAV?$Location@H$01@Opticks@@PAV12@Uforward_iterator_tag@std@@@std@@YAPAV?$Location@H$01@Opticks@@PAV12@00Uforward_iterator_tag@0@U_Nonscalar_ptr_iterator_tag@0@U_Range_checked_iterator_tag@0@@Z 10012fa0 f i PlugInUtilities:RasterUtilities.obj
 0001:00011fe0       ??$_Copy_backward_opt@PAV?$EnumWrapper@W4RasterChannelTypeEnum@@@@PAV1@Uforward_iterator_tag@std@@@std@@YAPAV?$EnumWrapper@W4RasterChannelTypeEnum@@@@PAV1@00Uforward_iterator_tag@0@U_Nonscalar_ptr_iterator_tag@0@U_Range_checked_iterator_tag@0@@Z 10012fe0 f i PlugInUtilities:RasterUtilities.obj
 0001:00012010       ??$_Ptr_cat@V?$_Vector_const_iterator@NV?$allocator@N@std@@@std@@PAN@std@@YA?AU_Scalar_ptr_iterator_tag@0@AAV?$_Vector_const_iterator@NV?$allocator@N@std@@@0@AAPAN@Z 10013010 f i PlugInUtilities:RasterUtilities.obj
 0001:00012020       ??$_Uninit_copy@PBNPANV?$allocator@N@std@@@std@@YAPANPBN0PANAAV?$allocator@N@0@U_Scalar_ptr_iterator_tag@0@U_Range_checked_iterator_tag@0@@Z 10013020 f i PlugInUtilities:RasterUtilities.obj
 0001:00012050       ??$_Checked_base@PAN@std@@YAPANAAPANU_Unchanged_checked_iterator_base_type_tag@0@@Z 10013050 f i PlugInUtilities:RasterUtilities.obj
 0001:00012060       ??$_Uninit_copy@PANPANV?$allocator@N@std@@@std@@YAPANPAN00AAV?$allocator@N@0@U_Scalar_ptr_iterator_tag@0@U_Range_checked_iterator_tag@0@@Z 10013060 f i PlugInUtilities:RasterUtilities.obj
 0001:00012090       ??$_Uninit_copy@PAHPAHV?$allocator@H@std@@@std@@YAPAHPAH00AAV?$allocator@H@0@U_Scalar_ptr_iterator_tag@0@U_Range_checked_iterator_tag@0@@Z 10013090 f i PlugInUtilities:RasterUtilities.obj
 0001:000120c0       ??$_Ptr_cat@V?$_Vector_const_iterator@DV?$allocator@D@std@@@std@@PAD@std@@YA?AU_Scalar_ptr_iterator_tag@0@AAV?$_Vector_const_iterator@DV?$allocator@D@std@@@0@AAPAD@Z 100130c0 f i PlugInUtilities:RasterUtilities.obj
 0001:000120d0       ??$_Uninit_copy@PBDPADV?$allocator@D@std@@@std@@YAPADPBD0PADAAV?$allocator@D@0@U_Scalar_ptr_iterator_tag@0@U_Range_checked_iterator_tag@0@@Z 100130d0 f i PlugInUtilities:RasterUtilities.obj
 0001:00012100       ??$_Checked_base@PAD@std@@YAPADAAPADU_Unchanged_checked_iterator_base_type_tag@0@@Z 10013100 f i PlugInUtilities:RasterUtilities.obj
 0001:00012110       ??$_Uninit_copy@PADPADV?$allocator@D@std@@@std@@YAPADPAD00AAV?$allocator@D@0@U_Scalar_ptr_iterator_tag@0@U_Range_checked_iterator_tag@0@@Z 10013110 f i PlugInUtilities:RasterUtilities.obj
 0001:00012140       ??$_Ptr_cat@V?$_Vector_const_iterator@EV?$allocator@E@std@@@std@@PAE@std@@YA?AU_Scalar_ptr_iterator_tag@0@AAV?$_Vector_const_iterator@EV?$allocator@E@std@@@0@AAPAE@Z 10013140 f i PlugInUtilities:RasterUtilities.obj
 0001:00012150       ??$_Uninit_copy@PBEPAEV?$allocator@E@std@@@std@@YAPAEPBE0PAEAAV?$allocator@E@0@U_Scalar_ptr_iterator_tag@0@U_Range_checked_iterator_tag@0@@Z 10013150 f i PlugInUtilities:RasterUtilities.obj
 0001:00012180       ??$_Checked_base@PAE@std@@YAPAEAAPAEU_Unchanged_checked_iterator_base_type_tag@0@@Z 10013180 f i PlugInUtilities:RasterUtilities.obj
 0001:00012190       ??$_Uninit_copy@PAEPAEV?$allocator@E@std@@@std@@YAPAEPAE00AAV?$allocator@E@0@U_Scalar_ptr_iterator_tag@0@U_Range_checked_iterator_tag@0@@Z 10013190 f i PlugInUtilities:RasterUtilities.obj
 0001:000121c0       ??$_Ptr_cat@V?$_Vector_const_iterator@FV?$allocator@F@std@@@std@@PAF@std@@YA?AU_Scalar_ptr_iterator_tag@0@AAV?$_Vector_const_iterator@FV?$allocator@F@std@@@0@AAPAF@Z 100131c0 f i PlugInUtilities:RasterUtilities.obj
 0001:000121d0       ??$_Uninit_copy@PBFPAFV?$allocator@F@std@@@std@@YAPAFPBF0PAFAAV?$allocator@F@0@U_Scalar_ptr_iterator_tag@0@U_Range_checked_iterator_tag@0@@Z 100131d0 f i PlugInUtilities:RasterUtilities.obj
 0001:00012200       ??$_Checked_base@PAF@std@@YAPAFAAPAFU_Unchanged_checked_iterator_base_type_tag@0@@Z 10013200 f i PlugInUtilities:RasterUtilities.obj
 0001:00012210       ??$_Uninit_copy@PAFPAFV?$allocator@F@std@@@std@@YAPAFPAF00AAV?$allocator@F@0@U_Scalar_ptr_iterator_tag@0@U_Range_checked_iterator_tag@0@@Z 10013210 f i PlugInUtilities:RasterUtilities.obj
 0001:00012240       ??$_Ptr_cat@V?$_Vector_const_iterator@GV?$allocator@G@std@@@std@@PAG@std@@YA?AU_Scalar_ptr_iterator_tag@0@AAV?$_Vector_const_iterator@GV?$allocator@G@std@@@0@AAPAG@Z 10013240 f i PlugInUtilities:RasterUtilities.obj
 0001:00012250       ??$_Uninit_copy@PBGPAGV?$allocator@G@std@@@std@@YAPAGPBG0PAGAAV?$allocator@G@0@U_Scalar_ptr_iterator_tag@0@U_Range_checked_iterator_tag@0@@Z 10013250 f i PlugInUtilities:RasterUtilities.obj
 0001:00012280       ??$_Checked_base@PAG@std@@YAPAGAAPAGU_Unchanged_checked_iterator_base_type_tag@0@@Z 10013280 f i PlugInUtilities:RasterUtilities.obj
 0001:00012290       ??$_Uninit_copy@PAGPAGV?$allocator@G@std@@@std@@YAPAGPAG00AAV?$allocator@G@0@U_Scalar_ptr_iterator_tag@0@U_Range_checked_iterator_tag@0@@Z 10013290 f i PlugInUtilities:RasterUtilities.obj
 0001:000122c0       ??$_Ptr_cat@V?$_Vector_const_iterator@IV?$allocator@I@std@@@std@@PAI@std@@YA?AU_Scalar_ptr_iterator_tag@0@AAV?$_Vector_const_iterator@IV?$allocator@I@std@@@0@AAPAI@Z 100132c0 f i PlugInUtilities:RasterUtilities.obj
 0001:000122d0       ??$_Uninit_copy@PBIPAIV?$allocator@I@std@@@std@@YAPAIPBI0PAIAAV?$allocator@I@0@U_Scalar_ptr_iterator_tag@0@U_Range_checked_iterator_tag@0@@Z 100132d0 f i PlugInUtilities:RasterUtilities.obj
 0001:00012300       ??$_Checked_base@PAI@std@@YAPAIAAPAIU_Unchanged_checked_iterator_base_type_tag@0@@Z 10013300 f i PlugInUtilities:RasterUtilities.obj
 0001:00012310       ??$_Uninit_copy@PAIPAIV?$allocator@I@std@@@std@@YAPAIPAI00AAV?$allocator@I@0@U_Scalar_ptr_iterator_tag@0@U_Range_checked_iterator_tag@0@@Z 10013310 f i PlugInUtilities:RasterUtilities.obj
 0001:00012340       ??$_Ptr_cat@V?$_Vector_const_iterator@JV?$allocator@J@std@@@std@@PAJ@std@@YA?AU_Scalar_ptr_iterator_tag@0@AAV?$_Vector_const_iterator@JV?$allocator@J@std@@@0@AAPAJ@Z 10013340 f i PlugInUtilities:RasterUtilities.obj
 0001:00012350       ??$_Uninit_copy@PBJPAJV?$allocator@J@std@@@std@@YAPAJPBJ0PAJAAV?$allocator@J@0@U_Scalar_ptr_iterator_tag@0@U_Range_checked_iterator_tag@0@@Z 10013350 f i PlugInUtilities:RasterUtilities.obj
 0001:00012380       ??$_Checked_base@PAJ@std@@YAPAJAAPAJU_Unchanged_checked_iterator_base_type_tag@0@@Z 10013380 f i PlugInUtilities:RasterUtilities.obj
 0001:00012390       ??$_Uninit_copy@PAJPAJV?$allocator@J@std@@@std@@YAPAJPAJ00AAV?$allocator@J@0@U_Scalar_ptr_iterator_tag@0@U_Range_checked_iterator_tag@0@@Z 10013390 f i PlugInUtilities:RasterUtilities.obj
 0001:000123c0       ??$_Ptr_cat@V?$_Vector_const_iterator@KV?$allocator@K@std@@@std@@PAK@std@@YA?AU_Scalar_ptr_iterator_tag@0@AAV?$_Vector_const_iterator@KV?$allocator@K@std@@@0@AAPAK@Z 100133c0 f i PlugInUtilities:RasterUtilities.obj
 0001:000123d0       ??$_Uninit_copy@PBKPAKV?$allocator@K@std@@@std@@YAPAKPBK0PAKAAV?$allocator@K@0@U_Scalar_ptr_iterator_tag@0@U_Range_checked_iterator_tag@0@@Z 100133d0 f i PlugInUtilities:RasterUtilities.obj
 0001:00012400       ??$_Checked_base@PAK@std@@YAPAKAAPAKU_Unchanged_checked_iterator_base_type_tag@0@@Z 10013400 f i PlugInUtilities:RasterUtilities.obj
 0001:00012410       ??$_Uninit_copy@PAKPAKV?$allocator@K@std@@@std@@YAPAKPAK00AAV?$allocator@K@0@U_Scalar_ptr_iterator_tag@0@U_Range_checked_iterator_tag@0@@Z 10013410 f i PlugInUtilities:RasterUtilities.obj
 0001:00012440       ??$_Ptr_cat@V?$_Vector_const_iterator@_JV?$allocator@_J@std@@@std@@PA_J@std@@YA?AU_Scalar_ptr_iterator_tag@0@AAV?$_Vector_const_iterator@_JV?$allocator@_J@std@@@0@AAPA_J@Z 10013440 f i PlugInUtilities:RasterUtilities.obj
 0001:00012450       ??$_Uninit_copy@PB_JPA_JV?$allocator@_J@std@@@std@@YAPA_JPB_J0PA_JAAV?$allocator@_J@0@U_Scalar_ptr_iterator_tag@0@U_Range_checked_iterator_tag@0@@Z 10013450 f i PlugInUtilities:RasterUtilities.obj
 0001:00012480       ??$_Checked_base@PA_J@std@@YAPA_JAAPA_JU_Unchanged_checked_iterator_base_type_tag@0@@Z 10013480 f i PlugInUtilities:RasterUtilities.obj
 0001:00012490       ??$_Uninit_copy@PA_JPA_JV?$allocator@_J@std@@@std@@YAPA_JPA_J00AAV?$allocator@_J@0@U_Scalar_ptr_iterator_tag@0@U_Range_checked_iterator_tag@0@@Z 10013490 f i PlugInUtilities:RasterUtilities.obj
 0001:000124c0       ??$_Ptr_cat@V?$_Vector_const_iterator@_KV?$allocator@_K@std@@@std@@PA_K@std@@YA?AU_Scalar_ptr_iterator_tag@0@AAV?$_Vector_const_iterator@_KV?$allocator@_K@std@@@0@AAPA_K@Z 100134c0 f i PlugInUtilities:RasterUtilities.obj
 0001:000124d0       ??$_Uninit_copy@PB_KPA_KV?$allocator@_K@std@@@std@@YAPA_KPB_K0PA_KAAV?$allocator@_K@0@U_Scalar_ptr_iterator_tag@0@U_Range_checked_iterator_tag@0@@Z 100134d0 f i PlugInUtilities:RasterUtilities.obj
 0001:00012500       ??$_Checked_base@PA_K@std@@YAPA_KAAPA_KU_Unchanged_checked_iterator_base_type_tag@0@@Z 10013500 f i PlugInUtilities:RasterUtilities.obj
 0001:00012510       ??$_Uninit_copy@PA_KPA_KV?$allocator@_K@std@@@std@@YAPA_KPA_K00AAV?$allocator@_K@0@U_Scalar_ptr_iterator_tag@0@U_Range_checked_iterator_tag@0@@Z 10013510 f i PlugInUtilities:RasterUtilities.obj
 0001:00012540       ??$_Ptr_cat@V?$_Vector_const_iterator@VInt64@@V?$allocator@VInt64@@@std@@@std@@PAVInt64@@@std@@YA?AU_Nonscalar_ptr_iterator_tag@0@AAV?$_Vector_const_iterator@VInt64@@V?$allocator@VInt64@@@std@@@0@AAPAVInt64@@@Z 10013540 f i PlugInUtilities:RasterUtilities.obj
 0001:00012550       ??$_Checked_base@PAVInt64@@@std@@YAPAVInt64@@AAPAV1@U_Unchanged_checked_iterator_base_type_tag@0@@Z 10013550 f i PlugInUtilities:RasterUtilities.obj
 0001:00012560       ??$_Copy_opt@PAVInt64@@PAV1@Uforward_iterator_tag@std@@@std@@YAPAVInt64@@PAV1@00Uforward_iterator_tag@0@U_Nonscalar_ptr_iterator_tag@0@U_Range_checked_iterator_tag@0@@Z 10013560 f i PlugInUtilities:RasterUtilities.obj
 0001:00012590       ??$_Ptr_cat@V?$_Vector_const_iterator@VUInt64@@V?$allocator@VUInt64@@@std@@@std@@PAVUInt64@@@std@@YA?AU_Nonscalar_ptr_iterator_tag@0@AAV?$_Vector_const_iterator@VUInt64@@V?$allocator@VUInt64@@@std@@@0@AAPAVUInt64@@@Z 10013590 f i PlugInUtilities:RasterUtilities.obj
 0001:000125a0       ??$_Checked_base@PAVUInt64@@@std@@YAPAVUInt64@@AAPAV1@U_Unchanged_checked_iterator_base_type_tag@0@@Z 100135a0 f i PlugInUtilities:RasterUtilities.obj
 0001:000125b0       ??$_Copy_opt@PAVUInt64@@PAV1@Uforward_iterator_tag@std@@@std@@YAPAVUInt64@@PAV1@00Uforward_iterator_tag@0@U_Nonscalar_ptr_iterator_tag@0@U_Range_checked_iterator_tag@0@@Z 100135b0 f i PlugInUtilities:RasterUtilities.obj
 0001:000125e0       ??$_Ptr_cat@V?$_Vector_const_iterator@MV?$allocator@M@std@@@std@@PAM@std@@YA?AU_Scalar_ptr_iterator_tag@0@AAV?$_Vector_const_iterator@MV?$allocator@M@std@@@0@AAPAM@Z 100135e0 f i PlugInUtilities:RasterUtilities.obj
 0001:000125f0       ??$_Uninit_copy@PBMPAMV?$allocator@M@std@@@std@@YAPAMPBM0PAMAAV?$allocator@M@0@U_Scalar_ptr_iterator_tag@0@U_Range_checked_iterator_tag@0@@Z 100135f0 f i PlugInUtilities:RasterUtilities.obj
 0001:00012620       ??$_Checked_base@PAM@std@@YAPAMAAPAMU_Unchanged_checked_iterator_base_type_tag@0@@Z 10013620 f i PlugInUtilities:RasterUtilities.obj
 0001:00012630       ??$_Uninit_copy@PAMPAMV?$allocator@M@std@@@std@@YAPAMPAM00AAV?$allocator@M@0@U_Scalar_ptr_iterator_tag@0@U_Range_checked_iterator_tag@0@@Z 10013630 f i PlugInUtilities:RasterUtilities.obj
 0001:00012660       ??$_Copy_backward_opt@PANPANUrandom_access_iterator_tag@std@@@std@@YAPANPAN00Urandom_access_iterator_tag@0@U_Scalar_ptr_iterator_tag@0@U_Range_checked_iterator_tag@0@@Z 10013660 f i PlugInUtilities:RasterUtilities.obj
 0001:00012690       ??$_Copy_backward_opt@PADPADUrandom_access_iterator_tag@std@@@std@@YAPADPAD00Urandom_access_iterator_tag@0@U_Scalar_ptr_iterator_tag@0@U_Range_checked_iterator_tag@0@@Z 10013690 f i PlugInUtilities:RasterUtilities.obj
 0001:000126c0       ??$_Copy_backward_opt@PAEPAEUrandom_access_iterator_tag@std@@@std@@YAPAEPAE00Urandom_access_iterator_tag@0@U_Scalar_ptr_iterator_tag@0@U_Range_checked_iterator_tag@0@@Z 100136c0 f i PlugInUtilities:RasterUtilities.obj
 0001:000126f0       ??$_Copy_backward_opt@PAFPAFUrandom_access_iterator_tag@std@@@std@@YAPAFPAF00Urandom_access_iterator_tag@0@U_Scalar_ptr_iterator_tag@0@U_Range_checked_iterator_tag@0@@Z 100136f0 f i PlugInUtilities:RasterUtilities.obj
 0001:00012720       ??$_Copy_backward_opt@PAGPAGUrandom_access_iterator_tag@std@@@std@@YAPAGPAG00Urandom_access_iterator_tag@0@U_Scalar_ptr_iterator_tag@0@U_Range_checked_iterator_tag@0@@Z 10013720 f i PlugInUtilities:RasterUtilities.obj
 0001:00012750       ??$_Copy_backward_opt@PAIPAIUrandom_access_iterator_tag@std@@@std@@YAPAIPAI00Urandom_access_iterator_tag@0@U_Scalar_ptr_iterator_tag@0@U_Range_checked_iterator_tag@0@@Z 10013750 f i PlugInUtilities:RasterUtilities.obj
 0001:00012780       ??$_Copy_backward_opt@PAJPAJUrandom_access_iterator_tag@std@@@std@@YAPAJPAJ00Urandom_access_iterator_tag@0@U_Scalar_ptr_iterator_tag@0@U_Range_checked_iterator_tag@0@@Z 10013780 f i PlugInUtilities:RasterUtilities.obj
 0001:000127b0       ??$_Copy_backward_opt@PAKPAKUrandom_access_iterator_tag@std@@@std@@YAPAKPAK00Urandom_access_iterator_tag@0@U_Scalar_ptr_iterator_tag@0@U_Range_checked_iterator_tag@0@@Z 100137b0 f i PlugInUtilities:RasterUtilities.obj
 0001:000127e0       ??$_Copy_backward_opt@PA_JPA_JUrandom_access_iterator_tag@std@@@std@@YAPA_JPA_J00Urandom_access_iterator_tag@0@U_Scalar_ptr_iterator_tag@0@U_Range_checked_iterator_tag@0@@Z 100137e0 f i PlugInUtilities:RasterUtilities.obj
 0001:00012810       ??$_Copy_backward_opt@PA_KPA_KUrandom_access_iterator_tag@std@@@std@@YAPA_KPA_K00Urandom_access_iterator_tag@0@U_Scalar_ptr_iterator_tag@0@U_Range_checked_iterator_tag@0@@Z 10013810 f i PlugInUtilities:RasterUtilities.obj
 0001:00012840       ??$_Copy_backward_opt@PAMPAMUrandom_access_iterator_tag@std@@@std@@YAPAMPAM00Urandom_access_iterator_tag@0@U_Scalar_ptr_iterator_tag@0@U_Range_checked_iterator_tag@0@@Z 10013840 f i PlugInUtilities:RasterUtilities.obj
 0001:00012870       ??$_Construct@VInt64@@V1@@std@@YAXPAVInt64@@ABV1@@Z 10013870 f i PlugInUtilities:RasterUtilities.obj
 0001:00012890       ??$_Destroy@VInt64@@@std@@YAXPAVInt64@@@Z 10013890 f i PlugInUtilities:RasterUtilities.obj
 0001:000128a0       ??$_Construct@VUInt64@@V1@@std@@YAXPAVUInt64@@ABV1@@Z 100138a0 f i PlugInUtilities:RasterUtilities.obj
 0001:000128c0       ??$_Destroy@VUInt64@@@std@@YAXPAVUInt64@@@Z 100138c0 f i PlugInUtilities:RasterUtilities.obj
 0001:000128d0       ?get@?$value@_N@_bi@boost@@QAEAA_NXZ 100138d0 f i PlugInUtilities:RasterUtilities.obj
 0001:000128e0       ?_Checked_iterator_base@?$_Vector_const_iterator@HV?$allocator@H@std@@@std@@QBEPBHXZ 100138e0 f i PlugInUtilities:RasterUtilities.obj
 0001:000128f0       ?_Checked_iterator_base@?$_Vector_const_iterator@V?$EnumWrapper@W4RasterChannelTypeEnum@@@@V?$allocator@V?$EnumWrapper@W4RasterChannelTypeEnum@@@@@std@@@std@@QBEPBV?$EnumWrapper@W4RasterChannelTypeEnum@@@@XZ 100138f0 f i PlugInUtilities:RasterUtilities.obj
 0001:00012900       ??$_Fill_n@PAHIH@std@@YAXPAHIABHU_Range_checked_iterator_tag@0@@Z 10013900 f i PlugInUtilities:RasterUtilities.obj
 0001:00012930       ??$_Iter_cat@PAN@std@@YA?AUrandom_access_iterator_tag@0@ABQAN@Z 10013930 f i PlugInUtilities:RasterUtilities.obj
 0001:00012940       ??$_Iter_cat@PAD@std@@YA?AUrandom_access_iterator_tag@0@ABQAD@Z 10013940 f i PlugInUtilities:RasterUtilities.obj
 0001:00012950       ??$_Iter_cat@PAE@std@@YA?AUrandom_access_iterator_tag@0@ABQAE@Z 10013950 f i PlugInUtilities:RasterUtilities.obj
 0001:00012960       ??$_Iter_cat@PAF@std@@YA?AUrandom_access_iterator_tag@0@ABQAF@Z 10013960 f i PlugInUtilities:RasterUtilities.obj
 0001:00012970       ??$_Iter_cat@PAG@std@@YA?AUrandom_access_iterator_tag@0@ABQAG@Z 10013970 f i PlugInUtilities:RasterUtilities.obj
 0001:00012980       ??$_Iter_cat@PAI@std@@YA?AUrandom_access_iterator_tag@0@ABQAI@Z 10013980 f i PlugInUtilities:RasterUtilities.obj
 0001:00012990       ??$_Iter_cat@PAJ@std@@YA?AUrandom_access_iterator_tag@0@ABQAJ@Z 10013990 f i PlugInUtilities:RasterUtilities.obj
 0001:000129a0       ??$_Iter_cat@PAK@std@@YA?AUrandom_access_iterator_tag@0@ABQAK@Z 100139a0 f i PlugInUtilities:RasterUtilities.obj
 0001:000129b0       ??$_Iter_cat@PA_J@std@@YA?AUrandom_access_iterator_tag@0@ABQA_J@Z 100139b0 f i PlugInUtilities:RasterUtilities.obj
 0001:000129c0       ??$_Iter_cat@PA_K@std@@YA?AUrandom_access_iterator_tag@0@ABQA_K@Z 100139c0 f i PlugInUtilities:RasterUtilities.obj
 0001:000129d0       ??$_Iter_cat@PAM@std@@YA?AUrandom_access_iterator_tag@0@ABQAM@Z 100139d0 f i PlugInUtilities:RasterUtilities.obj
 0001:000129e0       ??$_Copy_backward_opt@PAVInt64@@PAV1@Uforward_iterator_tag@std@@@std@@YAPAVInt64@@PAV1@00Uforward_iterator_tag@0@U_Nonscalar_ptr_iterator_tag@0@U_Range_checked_iterator_tag@0@@Z 100139e0 f i PlugInUtilities:RasterUtilities.obj
 0001:00012a10       ??$_Copy_backward_opt@PAVUInt64@@PAV1@Uforward_iterator_tag@std@@@std@@YAPAVUInt64@@PAV1@00Uforward_iterator_tag@0@U_Nonscalar_ptr_iterator_tag@0@U_Range_checked_iterator_tag@0@@Z 10013a10 f i PlugInUtilities:RasterUtilities.obj
 0001:00012a40       ?_Checked_iterator_base@?$_Vector_iterator@V?$basic_string@DU?$char_traits@D@std@@V?$allocator@D@2@@std@@V?$allocator@V?$basic_string@DU?$char_traits@D@std@@V?$allocator@D@2@@std@@@2@@std@@QBEPAV?$basic_string@DU?$char_traits@D@std@@V?$allocator@D@2@@2@XZ 10013a40 f i PlugInUtilities:RasterUtilities.obj
 0001:00012a50       ?_Checked_iterator_base@?$_Vector_iterator@NV?$allocator@N@std@@@std@@QBEPANXZ 10013a50 f i PlugInUtilities:RasterUtilities.obj
 0001:00012a60       ?_Checked_iterator_base@?$_Vector_const_iterator@NV?$allocator@N@std@@@std@@QBEPBNXZ 10013a60 f i PlugInUtilities:RasterUtilities.obj
 0001:00012a70       ?_Checked_iterator_base@?$_Vector_iterator@DV?$allocator@D@std@@@std@@QBEPADXZ 10013a70 f i PlugInUtilities:RasterUtilities.obj
 0001:00012a80       ?_Checked_iterator_base@?$_Vector_const_iterator@DV?$allocator@D@std@@@std@@QBEPBDXZ 10013a80 f i PlugInUtilities:RasterUtilities.obj
 0001:00012a90       ?_Checked_iterator_base@?$_Vector_iterator@EV?$allocator@E@std@@@std@@QBEPAEXZ 10013a90 f i PlugInUtilities:RasterUtilities.obj
 0001:00012aa0       ?_Checked_iterator_base@?$_Vector_const_iterator@EV?$allocator@E@std@@@std@@QBEPBEXZ 10013aa0 f i PlugInUtilities:RasterUtilities.obj
 0001:00012ab0       ?_Checked_iterator_base@?$_Vector_iterator@FV?$allocator@F@std@@@std@@QBEPAFXZ 10013ab0 f i PlugInUtilities:RasterUtilities.obj
 0001:00012ac0       ?_Checked_iterator_base@?$_Vector_const_iterator@FV?$allocator@F@std@@@std@@QBEPBFXZ 10013ac0 f i PlugInUtilities:RasterUtilities.obj
 0001:00012ad0       ?_Checked_iterator_base@?$_Vector_iterator@GV?$allocator@G@std@@@std@@QBEPAGXZ 10013ad0 f i PlugInUtilities:RasterUtilities.obj
 0001:00012ae0       ?_Checked_iterator_base@?$_Vector_const_iterator@GV?$allocator@G@std@@@std@@QBEPBGXZ 10013ae0 f i PlugInUtilities:RasterUtilities.obj
 0001:00012af0       ?_Checked_iterator_base@?$_Vector_iterator@IV?$allocator@I@std@@@std@@QBEPAIXZ 10013af0 f i PlugInUtilities:RasterUtilities.obj
 0001:00012b00       ?_Checked_iterator_base@?$_Vector_const_iterator@IV?$allocator@I@std@@@std@@QBEPBIXZ 10013b00 f i PlugInUtilities:RasterUtilities.obj
 0001:00012b10       ?_Checked_iterator_base@?$_Vector_iterator@JV?$allocator@J@std@@@std@@QBEPAJXZ 10013b10 f i PlugInUtilities:RasterUtilities.obj
 0001:00012b20       ?_Checked_iterator_base@?$_Vector_const_iterator@JV?$allocator@J@std@@@std@@QBEPBJXZ 10013b20 f i PlugInUtilities:RasterUtilities.obj
 0001:00012b30       ?_Checked_iterator_base@?$_Vector_iterator@KV?$allocator@K@std@@@std@@QBEPAKXZ 10013b30 f i PlugInUtilities:RasterUtilities.obj
 0001:00012b40       ?_Checked_iterator_base@?$_Vector_const_iterator@KV?$allocator@K@std@@@std@@QBEPBKXZ 10013b40 f i PlugInUtilities:RasterUtilities.obj
 0001:00012b50       ?_Checked_iterator_base@?$_Vector_iterator@_JV?$allocator@_J@std@@@std@@QBEPA_JXZ 10013b50 f i PlugInUtilities:RasterUtilities.obj
 0001:00012b60       ?_Checked_iterator_base@?$_Vector_const_iterator@_JV?$allocator@_J@std@@@std@@QBEPB_JXZ 10013b60 f i PlugInUtilities:RasterUtilities.obj
 0001:00012b70       ?_Checked_iterator_base@?$_Vector_iterator@_KV?$allocator@_K@std@@@std@@QBEPA_KXZ 10013b70 f i PlugInUtilities:RasterUtilities.obj
 0001:00012b80       ?_Checked_iterator_base@?$_Vector_const_iterator@_KV?$allocator@_K@std@@@std@@QBEPB_KXZ 10013b80 f i PlugInUtilities:RasterUtilities.obj
 0001:00012b90       ?_Checked_iterator_base@?$_Vector_iterator@VInt64@@V?$allocator@VInt64@@@std@@@std@@QBEPAVInt64@@XZ 10013b90 f i PlugInUtilities:RasterUtilities.obj
 0001:00012ba0       ?_Checked_iterator_base@?$_Vector_const_iterator@VInt64@@V?$allocator@VInt64@@@std@@@std@@QBEPBVInt64@@XZ 10013ba0 f i PlugInUtilities:RasterUtilities.obj
 0001:00012bb0       ?_Checked_iterator_base@?$_Vector_iterator@VUInt64@@V?$allocator@VUInt64@@@std@@@std@@QBEPAVUInt64@@XZ 10013bb0 f i PlugInUtilities:RasterUtilities.obj
 0001:00012bc0       ?_Checked_iterator_base@?$_Vector_const_iterator@VUInt64@@V?$allocator@VUInt64@@@std@@@std@@QBEPBVUInt64@@XZ 10013bc0 f i PlugInUtilities:RasterUtilities.obj
 0001:00012bd0       ?_Checked_iterator_base@?$_Vector_iterator@MV?$allocator@M@std@@@std@@QBEPAMXZ 10013bd0 f i PlugInUtilities:RasterUtilities.obj
 0001:00012be0       ?_Checked_iterator_base@?$_Vector_const_iterator@MV?$allocator@M@std@@@std@@QBEPBMXZ 10013be0 f i PlugInUtilities:RasterUtilities.obj
 0001:00012bf0       ??0?$pair@PBVDimensionDescriptor@@PBV1@@std@@QAE@ABQBVDimensionDescriptor@@0@Z 10013bf0 f i PlugInUtilities:RasterUtilities.obj
 0001:00012c10       ??$_Fill_n@PANIN@std@@YAXPANIABNU_Range_checked_iterator_tag@0@@Z 10013c10 f i PlugInUtilities:RasterUtilities.obj
 0001:00012c30       ??$_Fill_n@PADID@std@@YAXPADIABDU_Range_checked_iterator_tag@0@@Z 10013c30 f i PlugInUtilities:RasterUtilities.obj
 0001:00012c60       ??$_Fill_n@PAEIE@std@@YAXPAEIABEU_Range_checked_iterator_tag@0@@Z 10013c60 f i PlugInUtilities:RasterUtilities.obj
 0001:00012c90       ??$_Fill_n@PAFIF@std@@YAXPAFIABFU_Range_checked_iterator_tag@0@@Z 10013c90 f i PlugInUtilities:RasterUtilities.obj
 0001:00012cc0       ??$_Fill_n@PAGIG@std@@YAXPAGIABGU_Range_checked_iterator_tag@0@@Z 10013cc0 f i PlugInUtilities:RasterUtilities.obj
 0001:00012cf0       ??$_Fill_n@PAIII@std@@YAXPAIIABIU_Range_checked_iterator_tag@0@@Z 10013cf0 f i PlugInUtilities:RasterUtilities.obj
 0001:00012d20       ??$_Fill_n@PAJIJ@std@@YAXPAJIABJU_Range_checked_iterator_tag@0@@Z 10013d20 f i PlugInUtilities:RasterUtilities.obj
 0001:00012d50       ??$_Fill_n@PAKIK@std@@YAXPAKIABKU_Range_checked_iterator_tag@0@@Z 10013d50 f i PlugInUtilities:RasterUtilities.obj
 0001:00012d80       ??$_Fill_n@PA_JI_J@std@@YAXPA_JIAB_JU_Range_checked_iterator_tag@0@@Z 10013d80 f i PlugInUtilities:RasterUtilities.obj
 0001:00012db0       ??$_Fill_n@PA_KI_K@std@@YAXPA_KIAB_KU_Range_checked_iterator_tag@0@@Z 10013db0 f i PlugInUtilities:RasterUtilities.obj
 0001:00012de0       ??$_Fill_n@PAMIM@std@@YAXPAMIABMU_Range_checked_iterator_tag@0@@Z 10013de0 f i PlugInUtilities:RasterUtilities.obj
 0001:00012e00       ?obtainResource@ModelObject@@QBEPAXABVArgs@1@@Z 10013e00 f i PlugInUtilities:RasterUtilities.obj
 0001:00012f10       ?releaseResource@ModelObject@@QBEXABVArgs@1@PAVDataElement@@@Z 10013f10 f i PlugInUtilities:RasterUtilities.obj
 0001:00012f40       ?obtainResource@DataDescriptorObject@@QBEPAXABVArgs@ModelObject@@@Z 10013f40 f i PlugInUtilities:RasterUtilities.obj
 0001:00013010       ?releaseResource@DataDescriptorObject@@QBEXABVArgs@ModelObject@@PAVDataDescriptor@@@Z 10014010 f i PlugInUtilities:RasterUtilities.obj
 0001:00013040       ?nextRow@DataAccessorImpl@@QAEX_N@Z 10014040 f i PlugInUtilities:RasterUtilities.obj
 0001:00013060       ?determineSkipFactor@RasterUtilities@@YA_NABV?$vector@VDimensionDescriptor@@V?$allocator@VDimensionDescriptor@@@std@@@std@@AAI@Z 10014060 f   PlugInUtilities:RasterUtilities.obj
 0001:00013130       ?determineExportSkipFactor@RasterUtilities@@YA_NABV?$vector@VDimensionDescriptor@@V?$allocator@VDimensionDescriptor@@@std@@@std@@AAI@Z 10014130 f   PlugInUtilities:RasterUtilities.obj
 0001:00013200       ?bytesInEncoding@RasterUtilities@@YAIV?$EnumWrapper@W4EncodingTypeEnum@@@@@Z 10014200 f   PlugInUtilities:RasterUtilities.obj
 0001:00013260       ?findBestMatch@RasterUtilities@@YAHABV?$vector@NV?$allocator@N@std@@@std@@NNH@Z 10014260 f   PlugInUtilities:RasterUtilities.obj
 0001:000132f0       ?begin@?$vector@VDimensionDescriptor@@V?$allocator@VDimensionDescriptor@@@std@@@std@@QBE?AV?$_Vector_const_iterator@VDimensionDescriptor@@V?$allocator@VDimensionDescriptor@@@std@@@2@XZ 100142f0 f i PlugInUtilities:RasterUtilities.obj
 0001:00013320       ?end@?$vector@VDimensionDescriptor@@V?$allocator@VDimensionDescriptor@@@std@@@std@@QBE?AV?$_Vector_const_iterator@VDimensionDescriptor@@V?$allocator@VDimensionDescriptor@@@std@@@2@XZ 10014320 f i PlugInUtilities:RasterUtilities.obj
 0001:00013350       ?front@?$vector@VDimensionDescriptor@@V?$allocator@VDimensionDescriptor@@@std@@@std@@QBEABVDimensionDescriptor@@XZ 10014350 f i PlugInUtilities:RasterUtilities.obj
 0001:00013380       ??0?$_Vector_const_iterator@VDimensionDescriptor@@V?$allocator@VDimensionDescriptor@@@std@@@std@@QAE@XZ 10014380 f i PlugInUtilities:RasterUtilities.obj
 0001:00013390       ??9?$_Vector_const_iterator@VDimensionDescriptor@@V?$allocator@VDimensionDescriptor@@@std@@@std@@QBE_NABV01@@Z 10014390 f i PlugInUtilities:RasterUtilities.obj
 0001:000133c0       ?empty@?$vector@PBVFilename@@V?$allocator@PBVFilename@@@std@@@std@@QBE_NXZ 100143c0 f i PlugInUtilities:RasterUtilities.obj
 0001:000133f0       ??0?$_Vector_val@VDimensionDescriptor@@V?$allocator@VDimensionDescriptor@@@std@@@std@@IAE@V?$allocator@VDimensionDescriptor@@@1@@Z 100143f0 f i PlugInUtilities:RasterUtilities.obj
 0001:00013400       ?max_size@?$vector@V?$Location@H$01@Opticks@@V?$allocator@V?$Location@H$01@Opticks@@@std@@@std@@QBEIXZ 10014400 f i PlugInUtilities:RasterUtilities.obj
 0001:00013410       ??0?$_Vector_val@V?$Location@H$01@Opticks@@V?$allocator@V?$Location@H$01@Opticks@@@std@@@std@@IAE@V?$allocator@V?$Location@H$01@Opticks@@@1@@Z 10014410 f i PlugInUtilities:RasterUtilities.obj
 0001:00013420       ?allocate@?$allocator@V?$Location@H$01@Opticks@@@std@@QAEPAV?$Location@H$01@Opticks@@I@Z 10014420 f i PlugInUtilities:RasterUtilities.obj
 0001:00013440       ??0?$_Vector_iterator@VDimensionDescriptor@@V?$allocator@VDimensionDescriptor@@@std@@@std@@QAE@PAVDimensionDescriptor@@PBU_Container_base@1@@Z 10014440 f i PlugInUtilities:RasterUtilities.obj
 0001:00013480       ??0?$Resource@VRasterFileDescriptor@@VFactoryObject@@@@QAE@ABVArgs@FactoryAllocator@@@Z 10014480 f i PlugInUtilities:RasterUtilities.obj
 0001:000134e0       ??0?$Resource@VRasterFileDescriptor@@VFactoryObject@@@@QAE@PAVRasterFileDescriptor@@ABVArgs@FactoryAllocator@@@Z 100144e0 f i PlugInUtilities:RasterUtilities.obj
 0001:00013510       ?destroyIfOwned@?$Resource@VRasterFileDescriptor@@VFactoryObject@@@@IAEXXZ 10014510 f i PlugInUtilities:RasterUtilities.obj
 0001:00013540       ??0?$Resource@VFileDescriptor@@VFactoryObject@@@@QAE@ABVArgs@FactoryAllocator@@@Z 10014540 f i PlugInUtilities:RasterUtilities.obj
 0001:000135a0       ?destroyIfOwned@?$Resource@VFileDescriptor@@VFactoryObject@@@@IAEXXZ 100145a0 f i PlugInUtilities:RasterUtilities.obj
 0001:000135d0       ??0?$Resource@VRasterElement@@VModelObject@@@@QAE@ABVArgs@ModelObject@@@Z 100145d0 f i PlugInUtilities:RasterUtilities.obj
 0001:00013630       ?destroyIfOwned@?$Resource@VRasterElement@@VModelObject@@@@IAEXXZ 10014630 f i PlugInUtilities:RasterUtilities.obj
 0001:00013670       ??0?$Resource@VRasterDataDescriptor@@VDataDescriptorObject@@@@QAE@ABVArgs@ModelObject@@@Z 10014670 f i PlugInUtilities:RasterUtilities.obj
 0001:000136d0       ?destroyIfOwned@?$Resource@VRasterDataDescriptor@@VDataDescriptorObject@@@@IAEXXZ 100146d0 f i PlugInUtilities:RasterUtilities.obj
 0001:00013710       ??0?$_Vector_val@V?$EnumWrapper@W4RasterChannelTypeEnum@@@@V?$allocator@V?$EnumWrapper@W4RasterChannelTypeEnum@@@@@std@@@std@@IAE@V?$allocator@V?$EnumWrapper@W4RasterChannelTypeEnum@@@@@1@@Z 10014710 f i PlugInUtilities:RasterUtilities.obj
 0001:00013720       ??H?$_Vector_const_iterator@V?$basic_string@DU?$char_traits@D@std@@V?$allocator@D@2@@std@@V?$allocator@V?$basic_string@DU?$char_traits@D@std@@V?$allocator@D@2@@std@@@2@@std@@QBE?AV01@H@Z 10014720 f i PlugInUtilities:RasterUtilities.obj
 0001:00013760       ??0?$_Vector_val@HV?$allocator@H@std@@@std@@IAE@V?$allocator@H@1@@Z 10014760 f i PlugInUtilities:RasterUtilities.obj
 0001:00013770       ?max_size@?$vector@VDimensionDescriptor@@V?$allocator@VDimensionDescriptor@@@std@@@std@@QBEIXZ 10014770 f i PlugInUtilities:RasterUtilities.obj
 0001:00013780       ?allocate@?$allocator@VDimensionDescriptor@@@std@@QAEPAVDimensionDescriptor@@I@Z 10014780 f i PlugInUtilities:RasterUtilities.obj
 0001:000137a0       ??G?$_Vector_iterator@V?$Location@H$01@Opticks@@V?$allocator@V?$Location@H$01@Opticks@@@std@@@std@@QBEHABV?$_Vector_const_iterator@V?$Location@H$01@Opticks@@V?$allocator@V?$Location@H$01@Opticks@@@std@@@1@@Z 100147a0 f i PlugInUtilities:RasterUtilities.obj
 0001:000137e0       ??0?$_Vector_const_iterator@V?$Location@H$01@Opticks@@V?$allocator@V?$Location@H$01@Opticks@@@std@@@std@@QAE@PAV?$Location@H$01@Opticks@@PBU_Container_base@1@@Z 100147e0 f i PlugInUtilities:RasterUtilities.obj
 0001:00013820       ??9?$_Vector_const_iterator@V?$Location@H$01@Opticks@@V?$allocator@V?$Location@H$01@Opticks@@@std@@@std@@QBE_NABV01@@Z 10014820 f i PlugInUtilities:RasterUtilities.obj
 0001:00013850       ??G?$_Vector_iterator@VDimensionDescriptor@@V?$allocator@VDimensionDescriptor@@@std@@@std@@QBEHABV?$_Vector_const_iterator@VDimensionDescriptor@@V?$allocator@VDimensionDescriptor@@@std@@@1@@Z 10014850 f i PlugInUtilities:RasterUtilities.obj
 0001:00013880       ??Z?$_Vector_const_iterator@VDimensionDescriptor@@V?$allocator@VDimensionDescriptor@@@std@@@std@@QAEAAV01@H@Z 10014880 f i PlugInUtilities:RasterUtilities.obj
 0001:000138c0       ?max_size@?$vector@V?$EnumWrapper@W4RasterChannelTypeEnum@@@@V?$allocator@V?$EnumWrapper@W4RasterChannelTypeEnum@@@@@std@@@std@@QBEIXZ 100148c0 f i PlugInUtilities:RasterUtilities.obj
 0001:000138d0       ?allocate@?$allocator@V?$EnumWrapper@W4RasterChannelTypeEnum@@@@@std@@QAEPAV?$EnumWrapper@W4RasterChannelTypeEnum@@@@I@Z 100148d0 f i PlugInUtilities:RasterUtilities.obj
 0001:000138f0       ?max_size@?$vector@HV?$allocator@H@std@@@std@@QBEIXZ 100148f0 f i PlugInUtilities:RasterUtilities.obj
 0001:00013900       ?allocate@?$allocator@H@std@@QAEPAHI@Z 10014900 f i PlugInUtilities:RasterUtilities.obj
 0001:00013920       ??G?$_Vector_iterator@HV?$allocator@H@std@@@std@@QBEHABV?$_Vector_const_iterator@HV?$allocator@H@std@@@1@@Z 10014920 f i PlugInUtilities:RasterUtilities.obj
 0001:00013950       ??0?$_Vector_const_iterator@HV?$allocator@H@std@@@std@@QAE@PAHPBU_Container_base@1@@Z 10014950 f i PlugInUtilities:RasterUtilities.obj
 0001:00013990       ??0?$_Vector_const_iterator@V?$EnumWrapper@W4RasterChannelTypeEnum@@@@V?$allocator@V?$EnumWrapper@W4RasterChannelTypeEnum@@@@@std@@@std@@QAE@PAV?$EnumWrapper@W4RasterChannelTypeEnum@@@@PBU_Container_base@1@@Z 10014990 f i PlugInUtilities:RasterUtilities.obj
 0001:000139d0       ??0?$_Vector_iterator@V?$EnumWrapper@W4RasterChannelTypeEnum@@@@V?$allocator@V?$EnumWrapper@W4RasterChannelTypeEnum@@@@@std@@@std@@QAE@PAV?$EnumWrapper@W4RasterChannelTypeEnum@@@@PBU_Container_base@1@@Z 100149d0 f i PlugInUtilities:RasterUtilities.obj
 0001:00013a10       ??G?$_Vector_iterator@V?$EnumWrapper@W4RasterChannelTypeEnum@@@@V?$allocator@V?$EnumWrapper@W4RasterChannelTypeEnum@@@@@std@@@std@@QBEHABV?$_Vector_const_iterator@V?$EnumWrapper@W4RasterChannelTypeEnum@@@@V?$allocator@V?$EnumWrapper@W4RasterChannelTypeEnum@@@@@std@@@1@@Z 10014a10 f i PlugInUtilities:RasterUtilities.obj
 0001:00013a40       ??Y?$_Vector_iterator@V?$Location@H$01@Opticks@@V?$allocator@V?$Location@H$01@Opticks@@@std@@@std@@QAEAAV01@H@Z 10014a40 f i PlugInUtilities:RasterUtilities.obj
 0001:00013a80       ??Y?$_Vector_iterator@VDimensionDescriptor@@V?$allocator@VDimensionDescriptor@@@std@@@std@@QAEAAV01@H@Z 10014a80 f i PlugInUtilities:RasterUtilities.obj
 0001:00013ac0       ??Y?$_Vector_iterator@HV?$allocator@H@std@@@std@@QAEAAV01@H@Z 10014ac0 f i PlugInUtilities:RasterUtilities.obj
 0001:00013b00       ??Y?$_Vector_iterator@V?$EnumWrapper@W4RasterChannelTypeEnum@@@@V?$allocator@V?$EnumWrapper@W4RasterChannelTypeEnum@@@@@std@@@std@@QAEAAV01@H@Z 10014b00 f i PlugInUtilities:RasterUtilities.obj
 0001:00013b40       ??$dv_cast@V?$basic_string@DU?$char_traits@D@std@@V?$allocator@D@2@@std@@@@YAPBV?$basic_string@DU?$char_traits@D@std@@V?$allocator@D@2@@std@@PBVDataVariant@@@Z 10014b40 f i PlugInUtilities:RasterUtilities.obj
 0001:00013b70       ??$bind@XVDimensionDescriptor@@_NV?$arg@$00@boost@@_N@boost@@YA?AV?$bind_t@XV?$mf1@XVDimensionDescriptor@@_N@_mfi@boost@@V?$list2@V?$arg@$00@boost@@V?$value@_N@_bi@2@@_bi@3@@_bi@0@P8DimensionDescriptor@@AEX_N@ZV?$arg@$00@0@0@Z 10014b70 f i PlugInUtilities:RasterUtilities.obj
 0001:00013b90       ??$dv_cast@V?$vector@V?$basic_string@DU?$char_traits@D@std@@V?$allocator@D@2@@std@@V?$allocator@V?$basic_string@DU?$char_traits@D@std@@V?$allocator@D@2@@std@@@2@@std@@@@YAPBV?$vector@V?$basic_string@DU?$char_traits@D@std@@V?$allocator@D@2@@std@@V?$allocator@V?$basic_string@DU?$char_traits@D@std@@V?$allocator@D@2@@std@@@2@@std@@PBVDataVariant@@@Z 10014b90 f i PlugInUtilities:RasterUtilities.obj
 0001:00013bc0       ??$dv_cast@V?$vector@NV?$allocator@N@std@@@std@@@@YAPBV?$vector@NV?$allocator@N@std@@@std@@PBVDataVariant@@@Z 10014bc0 f i PlugInUtilities:RasterUtilities.obj
 0001:00013bf0       ??$getPointerToValue@VDynamicObject@@@DataVariant@@QAEPAVDynamicObject@@XZ 10014bf0 f i PlugInUtilities:RasterUtilities.obj
 0001:00013c20       ??$_Destroy_range@HV?$allocator@H@std@@@std@@YAXPAH0AAV?$allocator@H@0@@Z 10014c20 f i PlugInUtilities:RasterUtilities.obj
 0001:00013c30       ?max_size@?$vector@NV?$allocator@N@std@@@std@@QBEIXZ 10014c30 f i PlugInUtilities:RasterUtilities.obj
 0001:00013c40       ??0?$_Vector_val@NV?$allocator@N@std@@@std@@IAE@V?$allocator@N@1@@Z 10014c40 f i PlugInUtilities:RasterUtilities.obj
 0001:00013c50       ?allocate@?$allocator@N@std@@QAEPANI@Z 10014c50 f i PlugInUtilities:RasterUtilities.obj
 0001:00013c70       ?_Buy@?$vector@DV?$allocator@D@std@@@std@@IAE_NI@Z 10014c70 f i PlugInUtilities:RasterUtilities.obj
 0001:00013cc0       ?max_size@?$vector@EV?$allocator@E@std@@@std@@QBEIXZ 10014cc0 f i PlugInUtilities:RasterUtilities.obj
 0001:00013cd0       ??0?$_Vector_val@EV?$allocator@E@std@@@std@@IAE@V?$allocator@E@1@@Z 10014cd0 f i PlugInUtilities:RasterUtilities.obj
 0001:00013ce0       ?allocate@?$allocator@E@std@@QAEPAEI@Z 10014ce0 f i PlugInUtilities:RasterUtilities.obj
 0001:00013d00       ?max_size@?$vector@FV?$allocator@F@std@@@std@@QBEIXZ 10014d00 f i PlugInUtilities:RasterUtilities.obj
 0001:00013d10       ??0?$_Vector_val@FV?$allocator@F@std@@@std@@IAE@V?$allocator@F@1@@Z 10014d10 f i PlugInUtilities:RasterUtilities.obj
 0001:00013d20       ?allocate@?$allocator@F@std@@QAEPAFI@Z 10014d20 f i PlugInUtilities:RasterUtilities.obj
 0001:00013d40       ?max_size@?$vector@GV?$allocator@G@std@@@std@@QBEIXZ 10014d40 f i PlugInUtilities:RasterUtilities.obj
 0001:00013d50       ??0?$_Vector_val@GV?$allocator@G@std@@@std@@IAE@V?$allocator@G@1@@Z 10014d50 f i PlugInUtilities:RasterUtilities.obj
 0001:00013d60       ?allocate@?$allocator@G@std@@QAEPAGI@Z 10014d60 f i PlugInUtilities:RasterUtilities.obj
 0001:00013d80       ?max_size@?$vector@IV?$allocator@I@std@@@std@@QBEIXZ 10014d80 f i PlugInUtilities:RasterUtilities.obj
 0001:00013d90       ??0?$_Vector_val@IV?$allocator@I@std@@@std@@IAE@V?$allocator@I@1@@Z 10014d90 f i PlugInUtilities:RasterUtilities.obj
 0001:00013da0       ?allocate@?$allocator@I@std@@QAEPAII@Z 10014da0 f i PlugInUtilities:RasterUtilities.obj
 0001:00013dc0       ?max_size@?$vector@JV?$allocator@J@std@@@std@@QBEIXZ 10014dc0 f i PlugInUtilities:RasterUtilities.obj
 0001:00013dd0       ??0?$_Vector_val@JV?$allocator@J@std@@@std@@IAE@V?$allocator@J@1@@Z 10014dd0 f i PlugInUtilities:RasterUtilities.obj
 0001:00013de0       ?allocate@?$allocator@J@std@@QAEPAJI@Z 10014de0 f i PlugInUtilities:RasterUtilities.obj
 0001:00013e00       ?max_size@?$vector@KV?$allocator@K@std@@@std@@QBEIXZ 10014e00 f i PlugInUtilities:RasterUtilities.obj
 0001:00013e10       ??0?$_Vector_val@KV?$allocator@K@std@@@std@@IAE@V?$allocator@K@1@@Z 10014e10 f i PlugInUtilities:RasterUtilities.obj
 0001:00013e20       ?allocate@?$allocator@K@std@@QAEPAKI@Z 10014e20 f i PlugInUtilities:RasterUtilities.obj
 0001:00013e40       ?max_size@?$vector@_JV?$allocator@_J@std@@@std@@QBEIXZ 10014e40 f i PlugInUtilities:RasterUtilities.obj
 0001:00013e50       ??0?$_Vector_val@_JV?$allocator@_J@std@@@std@@IAE@V?$allocator@_J@1@@Z 10014e50 f i PlugInUtilities:RasterUtilities.obj
 0001:00013e60       ?allocate@?$allocator@_J@std@@QAEPA_JI@Z 10014e60 f i PlugInUtilities:RasterUtilities.obj
 0001:00013e80       ?max_size@?$vector@_KV?$allocator@_K@std@@@std@@QBEIXZ 10014e80 f i PlugInUtilities:RasterUtilities.obj
 0001:00013e90       ??0?$_Vector_val@_KV?$allocator@_K@std@@@std@@IAE@V?$allocator@_K@1@@Z 10014e90 f i PlugInUtilities:RasterUtilities.obj
 0001:00013ea0       ?allocate@?$allocator@_K@std@@QAEPA_KI@Z 10014ea0 f i PlugInUtilities:RasterUtilities.obj
 0001:00013ec0       ?max_size@?$vector@VInt64@@V?$allocator@VInt64@@@std@@@std@@QBEIXZ 10014ec0 f i PlugInUtilities:RasterUtilities.obj
 0001:00013ed0       ??0?$_Vector_val@VInt64@@V?$allocator@VInt64@@@std@@@std@@IAE@V?$allocator@VInt64@@@1@@Z 10014ed0 f i PlugInUtilities:RasterUtilities.obj
 0001:00013ee0       ?allocate@?$allocator@VInt64@@@std@@QAEPAVInt64@@I@Z 10014ee0 f i PlugInUtilities:RasterUtilities.obj
 0001:00013f00       ?max_size@?$vector@VUInt64@@V?$allocator@VUInt64@@@std@@@std@@QBEIXZ 10014f00 f i PlugInUtilities:RasterUtilities.obj
 0001:00013f10       ??0?$_Vector_val@VUInt64@@V?$allocator@VUInt64@@@std@@@std@@IAE@V?$allocator@VUInt64@@@1@@Z 10014f10 f i PlugInUtilities:RasterUtilities.obj
 0001:00013f20       ?allocate@?$allocator@VUInt64@@@std@@QAEPAVUInt64@@I@Z 10014f20 f i PlugInUtilities:RasterUtilities.obj
 0001:00013f40       ?max_size@?$vector@MV?$allocator@M@std@@@std@@QBEIXZ 10014f40 f i PlugInUtilities:RasterUtilities.obj
 0001:00013f50       ??0?$_Vector_val@MV?$allocator@M@std@@@std@@IAE@V?$allocator@M@1@@Z 10014f50 f i PlugInUtilities:RasterUtilities.obj
 0001:00013f60       ?allocate@?$allocator@M@std@@QAEPAMI@Z 10014f60 f i PlugInUtilities:RasterUtilities.obj
 0001:00013f80       ??0?$_Vb_iter_base@V?$vector@_NV?$allocator@_N@std@@@std@@@std@@QAE@ABV01@@Z 10014f80 f i PlugInUtilities:RasterUtilities.obj
 0001:00013fb0       ??G?$_Vector_iterator@NV?$allocator@N@std@@@std@@QBEHABV?$_Vector_const_iterator@NV?$allocator@N@std@@@1@@Z 10014fb0 f i PlugInUtilities:RasterUtilities.obj
 0001:00013fe0       ??G?$_Vector_iterator@DV?$allocator@D@std@@@std@@QBEHABV?$_Vector_const_iterator@DV?$allocator@D@std@@@1@@Z 10014fe0 f i PlugInUtilities:RasterUtilities.obj
 0001:00014010       ??G?$_Vector_iterator@EV?$allocator@E@std@@@std@@QBEHABV?$_Vector_const_iterator@EV?$allocator@E@std@@@1@@Z 10015010 f i PlugInUtilities:RasterUtilities.obj
 0001:00014040       ??G?$_Vector_iterator@FV?$allocator@F@std@@@std@@QBEHABV?$_Vector_const_iterator@FV?$allocator@F@std@@@1@@Z 10015040 f i PlugInUtilities:RasterUtilities.obj
 0001:00014070       ??G?$_Vector_iterator@GV?$allocator@G@std@@@std@@QBEHABV?$_Vector_const_iterator@GV?$allocator@G@std@@@1@@Z 10015070 f i PlugInUtilities:RasterUtilities.obj
 0001:000140a0       ??G?$_Vector_iterator@IV?$allocator@I@std@@@std@@QBEHABV?$_Vector_const_iterator@IV?$allocator@I@std@@@1@@Z 100150a0 f i PlugInUtilities:RasterUtilities.obj
 0001:000140d0       ??G?$_Vector_iterator@JV?$allocator@J@std@@@std@@QBEHABV?$_Vector_const_iterator@JV?$allocator@J@std@@@1@@Z 100150d0 f i PlugInUtilities:RasterUtilities.obj
 0001:00014100       ??G?$_Vector_iterator@KV?$allocator@K@std@@@std@@QBEHABV?$_Vector_const_iterator@KV?$allocator@K@std@@@1@@Z 10015100 f i PlugInUtilities:RasterUtilities.obj
 0001:00014130       ??G?$_Vector_iterator@_JV?$allocator@_J@std@@@std@@QBEHABV?$_Vector_const_iterator@_JV?$allocator@_J@std@@@1@@Z 10015130 f i PlugInUtilities:RasterUtilities.obj
 0001:00014160       ??G?$_Vector_iterator@_KV?$allocator@_K@std@@@std@@QBEHABV?$_Vector_const_iterator@_KV?$allocator@_K@std@@@1@@Z 10015160 f i PlugInUtilities:RasterUtilities.obj
 0001:00014190       ??G?$_Vector_iterator@VInt64@@V?$allocator@VInt64@@@std@@@std@@QBEHABV?$_Vector_const_iterator@VInt64@@V?$allocator@VInt64@@@std@@@1@@Z 10015190 f i PlugInUtilities:RasterUtilities.obj
 0001:000141c0       ??G?$_Vector_iterator@VUInt64@@V?$allocator@VUInt64@@@std@@@std@@QBEHABV?$_Vector_const_iterator@VUInt64@@V?$allocator@VUInt64@@@std@@@1@@Z 100151c0 f i PlugInUtilities:RasterUtilities.obj
 0001:000141f0       ??G?$_Vector_iterator@MV?$allocator@M@std@@@std@@QBEHABV?$_Vector_const_iterator@MV?$allocator@M@std@@@1@@Z 100151f0 f i PlugInUtilities:RasterUtilities.obj
 0001:00014220       ??G?$_Vb_iterator@V?$vector@_NV?$allocator@_N@std@@@std@@@std@@QBEHABV?$_Vb_const_iterator@V?$vector@_NV?$allocator@_N@std@@@std@@@1@@Z 10015220 f i PlugInUtilities:RasterUtilities.obj
 0001:00014240       ??Y?$_Vector_iterator@NV?$allocator@N@std@@@std@@QAEAAV01@H@Z 10015240 f i PlugInUtilities:RasterUtilities.obj
 0001:00014280       ??0?$_Vector_const_iterator@NV?$allocator@N@std@@@std@@QAE@PANPBU_Container_base@1@@Z 10015280 f i PlugInUtilities:RasterUtilities.obj
 0001:000142c0       ??Y?$_Vector_iterator@DV?$allocator@D@std@@@std@@QAEAAV01@H@Z 100152c0 f i PlugInUtilities:RasterUtilities.obj
 0001:00014300       ??0?$_Vector_const_iterator@DV?$allocator@D@std@@@std@@QAE@PADPBU_Container_base@1@@Z 10015300 f i PlugInUtilities:RasterUtilities.obj
 0001:00014340       ??Y?$_Vector_iterator@EV?$allocator@E@std@@@std@@QAEAAV01@H@Z 10015340 f i PlugInUtilities:RasterUtilities.obj
 0001:00014380       ??0?$_Vector_const_iterator@EV?$allocator@E@std@@@std@@QAE@PAEPBU_Container_base@1@@Z 10015380 f i PlugInUtilities:RasterUtilities.obj
 0001:000143c0       ??Y?$_Vector_iterator@FV?$allocator@F@std@@@std@@QAEAAV01@H@Z 100153c0 f i PlugInUtilities:RasterUtilities.obj
 0001:00014400       ??0?$_Vector_const_iterator@FV?$allocator@F@std@@@std@@QAE@PAFPBU_Container_base@1@@Z 10015400 f i PlugInUtilities:RasterUtilities.obj
 0001:00014440       ??Y?$_Vector_iterator@GV?$allocator@G@std@@@std@@QAEAAV01@H@Z 10015440 f i PlugInUtilities:RasterUtilities.obj
 0001:00014480       ??0?$_Vector_const_iterator@GV?$allocator@G@std@@@std@@QAE@PAGPBU_Container_base@1@@Z 10015480 f i PlugInUtilities:RasterUtilities.obj
 0001:000144c0       ??Y?$_Vector_iterator@IV?$allocator@I@std@@@std@@QAEAAV01@H@Z 100154c0 f i PlugInUtilities:RasterUtilities.obj
 0001:00014500       ??0?$_Vector_const_iterator@IV?$allocator@I@std@@@std@@QAE@PAIPBU_Container_base@1@@Z 10015500 f i PlugInUtilities:RasterUtilities.obj
 0001:00014540       ??Y?$_Vector_iterator@JV?$allocator@J@std@@@std@@QAEAAV01@H@Z 10015540 f i PlugInUtilities:RasterUtilities.obj
 0001:00014580       ??0?$_Vector_const_iterator@JV?$allocator@J@std@@@std@@QAE@PAJPBU_Container_base@1@@Z 10015580 f i PlugInUtilities:RasterUtilities.obj
 0001:000145c0       ??Y?$_Vector_iterator@KV?$allocator@K@std@@@std@@QAEAAV01@H@Z 100155c0 f i PlugInUtilities:RasterUtilities.obj
 0001:00014600       ??0?$_Vector_const_iterator@KV?$allocator@K@std@@@std@@QAE@PAKPBU_Container_base@1@@Z 10015600 f i PlugInUtilities:RasterUtilities.obj
 0001:00014640       ??Y?$_Vector_iterator@_JV?$allocator@_J@std@@@std@@QAEAAV01@H@Z 10015640 f i PlugInUtilities:RasterUtilities.obj
 0001:00014680       ??0?$_Vector_const_iterator@_JV?$allocator@_J@std@@@std@@QAE@PA_JPBU_Container_base@1@@Z 10015680 f i PlugInUtilities:RasterUtilities.obj
 0001:000146c0       ??Y?$_Vector_iterator@_KV?$allocator@_K@std@@@std@@QAEAAV01@H@Z 100156c0 f i PlugInUtilities:RasterUtilities.obj
 0001:00014700       ??0?$_Vector_const_iterator@_KV?$allocator@_K@std@@@std@@QAE@PA_KPBU_Container_base@1@@Z 10015700 f i PlugInUtilities:RasterUtilities.obj
 0001:00014740       ??Y?$_Vector_iterator@VInt64@@V?$allocator@VInt64@@@std@@@std@@QAEAAV01@H@Z 10015740 f i PlugInUtilities:RasterUtilities.obj
 0001:00014780       ??0?$_Vector_const_iterator@VInt64@@V?$allocator@VInt64@@@std@@@std@@QAE@PAVInt64@@PBU_Container_base@1@@Z 10015780 f i PlugInUtilities:RasterUtilities.obj
 0001:000147c0       ??Y?$_Vector_iterator@VUInt64@@V?$allocator@VUInt64@@@std@@@std@@QAEAAV01@H@Z 100157c0 f i PlugInUtilities:RasterUtilities.obj
 0001:00014800       ??0?$_Vector_const_iterator@VUInt64@@V?$allocator@VUInt64@@@std@@@std@@QAE@PAVUInt64@@PBU_Container_base@1@@Z 10015800 f i PlugInUtilities:RasterUtilities.obj
 0001:00014840       ??Y?$_Vector_iterator@MV?$allocator@M@std@@@std@@QAEAAV01@H@Z 10015840 f i PlugInUtilities:RasterUtilities.obj
 0001:00014880       ??0?$_Vector_const_iterator@MV?$allocator@M@std@@@std@@QAE@PAMPBU_Container_base@1@@Z 10015880 f i PlugInUtilities:RasterUtilities.obj
 0001:000148c0       ??0?$_Vb_const_iterator@V?$vector@_NV?$allocator@_N@std@@@std@@@std@@QAE@PBIPBV?$vector@_NV?$allocator@_N@std@@@1@@Z 100158c0 f i PlugInUtilities:RasterUtilities.obj
 0001:000148f0       ?max_size@?$vector@_NV?$allocator@_N@std@@@std@@QBEIXZ 100158f0 f i PlugInUtilities:RasterUtilities.obj
 0001:00014900       ??9?$_Vector_const_iterator@NV?$allocator@N@std@@@std@@QBE_NABV01@@Z 10015900 f i PlugInUtilities:RasterUtilities.obj
 0001:00014930       ??9?$_Vector_const_iterator@DV?$allocator@D@std@@@std@@QBE_NABV01@@Z 10015930 f i PlugInUtilities:RasterUtilities.obj
 0001:00014960       ??9?$_Vector_const_iterator@EV?$allocator@E@std@@@std@@QBE_NABV01@@Z 10015960 f i PlugInUtilities:RasterUtilities.obj
 0001:00014990       ??9?$_Vector_const_iterator@FV?$allocator@F@std@@@std@@QBE_NABV01@@Z 10015990 f i PlugInUtilities:RasterUtilities.obj
 0001:000149c0       ??9?$_Vector_const_iterator@GV?$allocator@G@std@@@std@@QBE_NABV01@@Z 100159c0 f i PlugInUtilities:RasterUtilities.obj
 0001:000149f0       ??9?$_Vector_const_iterator@IV?$allocator@I@std@@@std@@QBE_NABV01@@Z 100159f0 f i PlugInUtilities:RasterUtilities.obj
 0001:00014a20       ??9?$_Vector_const_iterator@JV?$allocator@J@std@@@std@@QBE_NABV01@@Z 10015a20 f i PlugInUtilities:RasterUtilities.obj
 0001:00014a50       ??9?$_Vector_const_iterator@KV?$allocator@K@std@@@std@@QBE_NABV01@@Z 10015a50 f i PlugInUtilities:RasterUtilities.obj
 0001:00014a80       ??9?$_Vector_const_iterator@_JV?$allocator@_J@std@@@std@@QBE_NABV01@@Z 10015a80 f i PlugInUtilities:RasterUtilities.obj
 0001:00014ab0       ??9?$_Vector_const_iterator@_KV?$allocator@_K@std@@@std@@QBE_NABV01@@Z 10015ab0 f i PlugInUtilities:RasterUtilities.obj
 0001:00014ae0       ??9?$_Vector_const_iterator@VInt64@@V?$allocator@VInt64@@@std@@@std@@QBE_NABV01@@Z 10015ae0 f i PlugInUtilities:RasterUtilities.obj
 0001:00014b10       ??9?$_Vector_const_iterator@VUInt64@@V?$allocator@VUInt64@@@std@@@std@@QBE_NABV01@@Z 10015b10 f i PlugInUtilities:RasterUtilities.obj
 0001:00014b40       ??9?$_Vector_const_iterator@MV?$allocator@M@std@@@std@@QBE_NABV01@@Z 10015b40 f i PlugInUtilities:RasterUtilities.obj
 0001:00014b70       ??$_Reverse@PAV?$Location@H$01@Opticks@@@std@@YAXPAV?$Location@H$01@Opticks@@0Urandom_access_iterator_tag@0@@Z 10015b70 f i PlugInUtilities:RasterUtilities.obj
 0001:00014bc0       ??$_Checked_assign_from_base@V?$_Vector_const_iterator@VDimensionDescriptor@@V?$allocator@VDimensionDescriptor@@@std@@@std@@PBVDimensionDescriptor@@@std@@YAXAAV?$_Vector_const_iterator@VDimensionDescriptor@@V?$allocator@VDimensionDescriptor@@@std@@@0@ABQBVDimensionDescriptor@@@Z 10015bc0 f i PlugInUtilities:RasterUtilities.obj
 0001:00014bd0       ??$getPointerToValue@V?$vector@DV?$allocator@D@std@@@std@@@DataVariant@@QAEPAV?$vector@DV?$allocator@D@std@@@std@@XZ 10015bd0 f i PlugInUtilities:RasterUtilities.obj
 0001:00014c00       ??$getPointerToValue@V?$vector@EV?$allocator@E@std@@@std@@@DataVariant@@QAEPAV?$vector@EV?$allocator@E@std@@@std@@XZ 10015c00 f i PlugInUtilities:RasterUtilities.obj
 0001:00014c30       ??$getPointerToValue@V?$vector@FV?$allocator@F@std@@@std@@@DataVariant@@QAEPAV?$vector@FV?$allocator@F@std@@@std@@XZ 10015c30 f i PlugInUtilities:RasterUtilities.obj
 0001:00014c60       ??$getPointerToValue@V?$vector@GV?$allocator@G@std@@@std@@@DataVariant@@QAEPAV?$vector@GV?$allocator@G@std@@@std@@XZ 10015c60 f i PlugInUtilities:RasterUtilities.obj
 0001:00014c90       ??$getPointerToValue@V?$vector@HV?$allocator@H@std@@@std@@@DataVariant@@QAEPAV?$vector@HV?$allocator@H@std@@@std@@XZ 10015c90 f i PlugInUtilities:RasterUtilities.obj
 0001:00014cc0       ??$getPointerToValue@V?$vector@IV?$allocator@I@std@@@std@@@DataVariant@@QAEPAV?$vector@IV?$allocator@I@std@@@std@@XZ 10015cc0 f i PlugInUtilities:RasterUtilities.obj
 0001:00014cf0       ??$getPointerToValue@V?$vector@JV?$allocator@J@std@@@std@@@DataVariant@@QAEPAV?$vector@JV?$allocator@J@std@@@std@@XZ 10015cf0 f i PlugInUtilities:RasterUtilities.obj
 0001:00014d20       ??$getPointerToValue@V?$vector@KV?$allocator@K@std@@@std@@@DataVariant@@QAEPAV?$vector@KV?$allocator@K@std@@@std@@XZ 10015d20 f i PlugInUtilities:RasterUtilities.obj
 0001:00014d50       ??$getPointerToValue@V?$vector@_JV?$allocator@_J@std@@@std@@@DataVariant@@QAEPAV?$vector@_JV?$allocator@_J@std@@@std@@XZ 10015d50 f i PlugInUtilities:RasterUtilities.obj
 0001:00014d80       ??$getPointerToValue@V?$vector@_KV?$allocator@_K@std@@@std@@@DataVariant@@QAEPAV?$vector@_KV?$allocator@_K@std@@@std@@XZ 10015d80 f i PlugInUtilities:RasterUtilities.obj
 0001:00014db0       ??$getPointerToValue@V?$vector@VInt64@@V?$allocator@VInt64@@@std@@@std@@@DataVariant@@QAEPAV?$vector@VInt64@@V?$allocator@VInt64@@@std@@@std@@XZ 10015db0 f i PlugInUtilities:RasterUtilities.obj
 0001:00014de0       ??$getPointerToValue@V?$vector@VUInt64@@V?$allocator@VUInt64@@@std@@@std@@@DataVariant@@QAEPAV?$vector@VUInt64@@V?$allocator@VUInt64@@@std@@@std@@XZ 10015de0 f i PlugInUtilities:RasterUtilities.obj
 0001:00014e10       ??$getPointerToValue@V?$vector@MV?$allocator@M@std@@@std@@@DataVariant@@QAEPAV?$vector@MV?$allocator@M@std@@@std@@XZ 10015e10 f i PlugInUtilities:RasterUtilities.obj
 0001:00014e40       ??$getPointerToValue@V?$vector@_NV?$allocator@_N@std@@@std@@@DataVariant@@QAEPAV?$vector@_NV?$allocator@_N@std@@@std@@XZ 10015e40 f i PlugInUtilities:RasterUtilities.obj
 0001:00014e70       ??$_Checked_assign_from_base@V?$_Vector_iterator@HV?$allocator@H@std@@@std@@PAH@std@@YAXAAV?$_Vector_iterator@HV?$allocator@H@std@@@0@ABQAH@Z 10015e70 f i PlugInUtilities:RasterUtilities.obj
 0001:00014e80       ??$_Checked_base@PAVDimensionDescriptor@@@std@@YAPAVDimensionDescriptor@@AAPAV1@@Z 10015e80 f i PlugInUtilities:RasterUtilities.obj
 0001:00014e90       ??$_Copy_opt@PAVDimensionDescriptor@@PAV1@@std@@YAPAVDimensionDescriptor@@PAV1@00Urandom_access_iterator_tag@0@U_Nonscalar_ptr_iterator_tag@0@U_Range_checked_iterator_tag@0@@Z 10015e90 f i PlugInUtilities:RasterUtilities.obj
 0001:00014ee0       ??$_Checked_base@PAV?$Location@H$01@Opticks@@@std@@YAPAV?$Location@H$01@Opticks@@AAPAV12@@Z 10015ee0 f i PlugInUtilities:RasterUtilities.obj
 0001:00014ef0       ??$_Copy_opt@PAV?$Location@H$01@Opticks@@PAV12@@std@@YAPAV?$Location@H$01@Opticks@@PAV12@00Urandom_access_iterator_tag@0@U_Nonscalar_ptr_iterator_tag@0@U_Range_checked_iterator_tag@0@@Z 10015ef0 f i PlugInUtilities:RasterUtilities.obj
 0001:00014f50       ??$_Checked_base@PAV?$EnumWrapper@W4RasterChannelTypeEnum@@@@@std@@YAPAV?$EnumWrapper@W4RasterChannelTypeEnum@@@@AAPAV1@@Z 10015f50 f i PlugInUtilities:RasterUtilities.obj
 0001:00014f60       ??$_Checked_base@PAH@std@@YAPAHAAPAH@Z 10015f60 f i PlugInUtilities:RasterUtilities.obj
 0001:00014f70       ??$_Move_backward_opt@PAHPAHUrandom_access_iterator_tag@std@@U_Undefined_move_tag@2@@std@@YAPAHPAH00Urandom_access_iterator_tag@0@U_Undefined_move_tag@0@U_Range_checked_iterator_tag@0@@Z 10015f70 f i PlugInUtilities:RasterUtilities.obj
 0001:00014fa0       ??$_Destroy_range@NV?$allocator@N@std@@@std@@YAXPAN0AAV?$allocator@N@0@@Z 10015fa0 f i PlugInUtilities:RasterUtilities.obj
 0001:00014fb0       ??$unchecked_copy@PAHPAH@stdext@@YAPAHPAH00@Z 10015fb0 f i PlugInUtilities:RasterUtilities.obj
 0001:00014ff0       ??$_Destroy_range@DV?$allocator@D@std@@@std@@YAXPAD0AAV?$allocator@D@0@@Z 10015ff0 f i PlugInUtilities:RasterUtilities.obj
 0001:00015000       ??$_Destroy_range@EV?$allocator@E@std@@@std@@YAXPAE0AAV?$allocator@E@0@@Z 10016000 f i PlugInUtilities:RasterUtilities.obj
 0001:00015010       ??$_Destroy_range@FV?$allocator@F@std@@@std@@YAXPAF0AAV?$allocator@F@0@@Z 10016010 f i PlugInUtilities:RasterUtilities.obj
 0001:00015020       ??$_Destroy_range@GV?$allocator@G@std@@@std@@YAXPAG0AAV?$allocator@G@0@@Z 10016020 f i PlugInUtilities:RasterUtilities.obj
 0001:00015030       ??$_Destroy_range@IV?$allocator@I@std@@@std@@YAXPAI0AAV?$allocator@I@0@@Z 10016030 f i PlugInUtilities:RasterUtilities.obj
 0001:00015040       ??$_Destroy_range@JV?$allocator@J@std@@@std@@YAXPAJ0AAV?$allocator@J@0@@Z 10016040 f i PlugInUtilities:RasterUtilities.obj
 0001:00015050       ??$_Destroy_range@KV?$allocator@K@std@@@std@@YAXPAK0AAV?$allocator@K@0@@Z 10016050 f i PlugInUtilities:RasterUtilities.obj
 0001:00015060       ??$_Destroy_range@_JV?$allocator@_J@std@@@std@@YAXPA_J0AAV?$allocator@_J@0@@Z 10016060 f i PlugInUtilities:RasterUtilities.obj
 0001:00015070       ??$_Destroy_range@_KV?$allocator@_K@std@@@std@@YAXPA_K0AAV?$allocator@_K@0@@Z 10016070 f i PlugInUtilities:RasterUtilities.obj
 0001:00015080       ??$_Destroy_range@MV?$allocator@M@std@@@std@@YAXPAM0AAV?$allocator@M@0@@Z 10016080 f i PlugInUtilities:RasterUtilities.obj
 0001:00015090       ?construct@?$allocator@VDimensionDescriptor@@@std@@QAEXPAVDimensionDescriptor@@ABV3@@Z 10016090 f i PlugInUtilities:RasterUtilities.obj
 0001:000150c0       ?destroy@?$allocator@VDimensionDescriptor@@@std@@QAEXPAVDimensionDescriptor@@@Z 100160c0 f i PlugInUtilities:RasterUtilities.obj
 0001:000150d0       ?construct@?$allocator@V?$Location@H$01@Opticks@@@std@@QAEXPAV?$Location@H$01@Opticks@@ABV34@@Z 100160d0 f i PlugInUtilities:RasterUtilities.obj
 0001:000150f0       ?construct@?$allocator@V?$EnumWrapper@W4RasterChannelTypeEnum@@@@@std@@QAEXPAV?$EnumWrapper@W4RasterChannelTypeEnum@@@@ABV3@@Z 100160f0 f i PlugInUtilities:RasterUtilities.obj
 0001:00015110       ?destroy@?$allocator@V?$EnumWrapper@W4RasterChannelTypeEnum@@@@@std@@QAEXPAV?$EnumWrapper@W4RasterChannelTypeEnum@@@@@Z 10016110 f i PlugInUtilities:RasterUtilities.obj
 0001:00015120       ??$_Checked_base@V?$_Vector_iterator@V?$Location@H$01@Opticks@@V?$allocator@V?$Location@H$01@Opticks@@@std@@@std@@U_Different_checked_iterator_base_type_tag@2@@std@@YAPAV?$Location@H$01@Opticks@@AAV?$_Vector_iterator@V?$Location@H$01@Opticks@@V?$allocator@V?$Location@H$01@Opticks@@@std@@@0@U_Different_checked_iterator_base_type_tag@0@@Z 10016120 f i PlugInUtilities:RasterUtilities.obj
 0001:00015130       ??$_Checked_base@V?$_Vector_iterator@VDimensionDescriptor@@V?$allocator@VDimensionDescriptor@@@std@@@std@@U_Different_checked_iterator_base_type_tag@2@@std@@YAPAVDimensionDescriptor@@AAV?$_Vector_iterator@VDimensionDescriptor@@V?$allocator@VDimensionDescriptor@@@std@@@0@U_Different_checked_iterator_base_type_tag@0@@Z 10016130 f i PlugInUtilities:RasterUtilities.obj
 0001:00015140       ??$_Checked_base@V?$_Vector_const_iterator@VDimensionDescriptor@@V?$allocator@VDimensionDescriptor@@@std@@@std@@U_Different_checked_iterator_base_type_tag@2@@std@@YAPBVDimensionDescriptor@@AAV?$_Vector_const_iterator@VDimensionDescriptor@@V?$allocator@VDimensionDescriptor@@@std@@@0@U_Different_checked_iterator_base_type_tag@0@@Z 10016140 f i PlugInUtilities:RasterUtilities.obj
 0001:00015150       ??$_Checked_base@V?$_Vector_iterator@HV?$allocator@H@std@@@std@@U_Different_checked_iterator_base_type_tag@2@@std@@YAPAHAAV?$_Vector_iterator@HV?$allocator@H@std@@@0@U_Different_checked_iterator_base_type_tag@0@@Z 10016150 f i PlugInUtilities:RasterUtilities.obj
 0001:00015160       ??$_Uninit_copy@PBVDimensionDescriptor@@PAV1@V?$allocator@VDimensionDescriptor@@@std@@@std@@YAPAVDimensionDescriptor@@PBV1@0PAV1@AAV?$allocator@VDimensionDescriptor@@@0@U_Nonscalar_ptr_iterator_tag@0@U_Range_checked_iterator_tag@0@@Z 10016160 f i PlugInUtilities:RasterUtilities.obj
 0001:000151a0       ??$_Uninit_copy@PBV?$EnumWrapper@W4RasterChannelTypeEnum@@@@PAV1@V?$allocator@V?$EnumWrapper@W4RasterChannelTypeEnum@@@@@std@@@std@@YAPAV?$EnumWrapper@W4RasterChannelTypeEnum@@@@PBV1@0PAV1@AAV?$allocator@V?$EnumWrapper@W4RasterChannelTypeEnum@@@@@0@U_Nonscalar_ptr_iterator_tag@0@U_Range_checked_iterator_tag@0@@Z 100161a0 f i PlugInUtilities:RasterUtilities.obj
 0001:000151d0       ??$_Copy_backward_opt@PAVDimensionDescriptor@@PAV1@@std@@YAPAVDimensionDescriptor@@PAV1@00Urandom_access_iterator_tag@0@U_Nonscalar_ptr_iterator_tag@0@U_Range_checked_iterator_tag@0@@Z 100161d0 f i PlugInUtilities:RasterUtilities.obj
 0001:00015220       ??$_Copy_backward_opt@PAV?$Location@H$01@Opticks@@PAV12@@std@@YAPAV?$Location@H$01@Opticks@@PAV12@00Urandom_access_iterator_tag@0@U_Nonscalar_ptr_iterator_tag@0@U_Range_checked_iterator_tag@0@@Z 10016220 f i PlugInUtilities:RasterUtilities.obj
 0001:00015290       ??$_Copy_backward_opt@PAV?$EnumWrapper@W4RasterChannelTypeEnum@@@@PAV1@@std@@YAPAV?$EnumWrapper@W4RasterChannelTypeEnum@@@@PAV1@00Urandom_access_iterator_tag@0@U_Nonscalar_ptr_iterator_tag@0@U_Range_checked_iterator_tag@0@@Z 10016290 f i PlugInUtilities:RasterUtilities.obj
 0001:000152d0       ??$_Checked_base@PAN@std@@YAPANAAPAN@Z 100162d0 f i PlugInUtilities:RasterUtilities.obj
 0001:000152e0       ??$unchecked_uninitialized_copy@PANPANV?$allocator@N@std@@@stdext@@YAPANPAN00AAV?$allocator@N@std@@@Z 100162e0 f i PlugInUtilities:RasterUtilities.obj
 0001:00015310       ??$unchecked_uninitialized_copy@PAHPAHV?$allocator@H@std@@@stdext@@YAPAHPAH00AAV?$allocator@H@std@@@Z 10016310 f i PlugInUtilities:RasterUtilities.obj
 0001:00015340       ??$_Checked_base@PAD@std@@YAPADAAPAD@Z 10016340 f i PlugInUtilities:RasterUtilities.obj
 0001:00015350       ??$unchecked_uninitialized_copy@PADPADV?$allocator@D@std@@@stdext@@YAPADPAD00AAV?$allocator@D@std@@@Z 10016350 f i PlugInUtilities:RasterUtilities.obj
 0001:00015380       ??$_Checked_base@PAE@std@@YAPAEAAPAE@Z 10016380 f i PlugInUtilities:RasterUtilities.obj
 0001:00015390       ??$unchecked_uninitialized_copy@PAEPAEV?$allocator@E@std@@@stdext@@YAPAEPAE00AAV?$allocator@E@std@@@Z 10016390 f i PlugInUtilities:RasterUtilities.obj
 0001:000153c0       ??$_Checked_base@PAF@std@@YAPAFAAPAF@Z 100163c0 f i PlugInUtilities:RasterUtilities.obj
 0001:000153d0       ??$unchecked_uninitialized_copy@PAFPAFV?$allocator@F@std@@@stdext@@YAPAFPAF00AAV?$allocator@F@std@@@Z 100163d0 f i PlugInUtilities:RasterUtilities.obj
 0001:00015400       ??$_Checked_base@PAG@std@@YAPAGAAPAG@Z 10016400 f i PlugInUtilities:RasterUtilities.obj
 0001:00015410       ??$unchecked_uninitialized_copy@PAGPAGV?$allocator@G@std@@@stdext@@YAPAGPAG00AAV?$allocator@G@std@@@Z 10016410 f i PlugInUtilities:RasterUtilities.obj
 0001:00015440       ??$_Checked_base@PAI@std@@YAPAIAAPAI@Z 10016440 f i PlugInUtilities:RasterUtilities.obj
 0001:00015450       ??$unchecked_uninitialized_copy@PAIPAIV?$allocator@I@std@@@stdext@@YAPAIPAI00AAV?$allocator@I@std@@@Z 10016450 f i PlugInUtilities:RasterUtilities.obj
 0001:00015480       ??$_Checked_base@PAJ@std@@YAPAJAAPAJ@Z 10016480 f i PlugInUtilities:RasterUtilities.obj
 0001:00015490       ??$unchecked_uninitialized_copy@PAJPAJV?$allocator@J@std@@@stdext@@YAPAJPAJ00AAV?$allocator@J@std@@@Z 10016490 f i PlugInUtilities:RasterUtilities.obj
 0001:000154c0       ??$_Checked_base@PAK@std@@YAPAKAAPAK@Z 100164c0 f i PlugInUtilities:RasterUtilities.obj
 0001:000154d0       ??$unchecked_uninitialized_copy@PAKPAKV?$allocator@K@std@@@stdext@@YAPAKPAK00AAV?$allocator@K@std@@@Z 100164d0 f i PlugInUtilities:RasterUtilities.obj
 0001:00015500       ??$_Checked_base@PA_J@std@@YAPA_JAAPA_J@Z 10016500 f i PlugInUtilities:RasterUtilities.obj
 0001:00015510       ??$unchecked_uninitialized_copy@PA_JPA_JV?$allocator@_J@std@@@stdext@@YAPA_JPA_J00AAV?$allocator@_J@std@@@Z 10016510 f i PlugInUtilities:RasterUtilities.obj
 0001:00015540       ??$_Checked_base@PA_K@std@@YAPA_KAAPA_K@Z 10016540 f i PlugInUtilities:RasterUtilities.obj
 0001:00015550       ??$unchecked_uninitialized_copy@PA_KPA_KV?$allocator@_K@std@@@stdext@@YAPA_KPA_K00AAV?$allocator@_K@std@@@Z 10016550 f i PlugInUtilities:RasterUtilities.obj
 0001:00015580       ??$_Checked_base@PAVInt64@@@std@@YAPAVInt64@@AAPAV1@@Z 10016580 f i PlugInUtilities:RasterUtilities.obj
 0001:00015590       ??$_Copy_opt@PAVInt64@@PAV1@@std@@YAPAVInt64@@PAV1@00Urandom_access_iterator_tag@0@U_Nonscalar_ptr_iterator_tag@0@U_Range_checked_iterator_tag@0@@Z 10016590 f i PlugInUtilities:RasterUtilities.obj
 0001:000155d0       ??$_Checked_base@PAVUInt64@@@std@@YAPAVUInt64@@AAPAV1@@Z 100165d0 f i PlugInUtilities:RasterUtilities.obj
 0001:000155e0       ??$_Copy_opt@PAVUInt64@@PAV1@@std@@YAPAVUInt64@@PAV1@00Urandom_access_iterator_tag@0@U_Nonscalar_ptr_iterator_tag@0@U_Range_checked_iterator_tag@0@@Z 100165e0 f i PlugInUtilities:RasterUtilities.obj
 0001:00015620       ??$_Checked_base@PAM@std@@YAPAMAAPAM@Z 10016620 f i PlugInUtilities:RasterUtilities.obj
 0001:00015630       ??$unchecked_uninitialized_copy@PAMPAMV?$allocator@M@std@@@stdext@@YAPAMPAM00AAV?$allocator@M@std@@@Z 10016630 f i PlugInUtilities:RasterUtilities.obj
 0001:00015660       ??$_Move_backward_opt@PANPANUrandom_access_iterator_tag@std@@U_Undefined_move_tag@2@@std@@YAPANPAN00Urandom_access_iterator_tag@0@U_Undefined_move_tag@0@U_Range_checked_iterator_tag@0@@Z 10016660 f i PlugInUtilities:RasterUtilities.obj
 0001:00015690       ??$_Move_backward_opt@PADPADUrandom_access_iterator_tag@std@@U_Undefined_move_tag@2@@std@@YAPADPAD00Urandom_access_iterator_tag@0@U_Undefined_move_tag@0@U_Range_checked_iterator_tag@0@@Z 10016690 f i PlugInUtilities:RasterUtilities.obj
 0001:000156c0       ??$_Move_backward_opt@PAEPAEUrandom_access_iterator_tag@std@@U_Undefined_move_tag@2@@std@@YAPAEPAE00Urandom_access_iterator_tag@0@U_Undefined_move_tag@0@U_Range_checked_iterator_tag@0@@Z 100166c0 f i PlugInUtilities:RasterUtilities.obj
 0001:000156f0       ??$_Move_backward_opt@PAFPAFUrandom_access_iterator_tag@std@@U_Undefined_move_tag@2@@std@@YAPAFPAF00Urandom_access_iterator_tag@0@U_Undefined_move_tag@0@U_Range_checked_iterator_tag@0@@Z 100166f0 f i PlugInUtilities:RasterUtilities.obj
 0001:00015720       ??$_Move_backward_opt@PAGPAGUrandom_access_iterator_tag@std@@U_Undefined_move_tag@2@@std@@YAPAGPAG00Urandom_access_iterator_tag@0@U_Undefined_move_tag@0@U_Range_checked_iterator_tag@0@@Z 10016720 f i PlugInUtilities:RasterUtilities.obj
 0001:00015750       ??$_Move_backward_opt@PAIPAIUrandom_access_iterator_tag@std@@U_Undefined_move_tag@2@@std@@YAPAIPAI00Urandom_access_iterator_tag@0@U_Undefined_move_tag@0@U_Range_checked_iterator_tag@0@@Z 10016750 f i PlugInUtilities:RasterUtilities.obj
 0001:00015780       ??$_Move_backward_opt@PAJPAJUrandom_access_iterator_tag@std@@U_Undefined_move_tag@2@@std@@YAPAJPAJ00Urandom_access_iterator_tag@0@U_Undefined_move_tag@0@U_Range_checked_iterator_tag@0@@Z 10016780 f i PlugInUtilities:RasterUtilities.obj
 0001:000157b0       ??$_Move_backward_opt@PAKPAKUrandom_access_iterator_tag@std@@U_Undefined_move_tag@2@@std@@YAPAKPAK00Urandom_access_iterator_tag@0@U_Undefined_move_tag@0@U_Range_checked_iterator_tag@0@@Z 100167b0 f i PlugInUtilities:RasterUtilities.obj
 0001:000157e0       ??$_Move_backward_opt@PA_JPA_JUrandom_access_iterator_tag@std@@U_Undefined_move_tag@2@@std@@YAPA_JPA_J00Urandom_access_iterator_tag@0@U_Undefined_move_tag@0@U_Range_checked_iterator_tag@0@@Z 100167e0 f i PlugInUtilities:RasterUtilities.obj
 0001:00015810       ??$_Move_backward_opt@PA_KPA_KUrandom_access_iterator_tag@std@@U_Undefined_move_tag@2@@std@@YAPA_KPA_K00Urandom_access_iterator_tag@0@U_Undefined_move_tag@0@U_Range_checked_iterator_tag@0@@Z 10016810 f i PlugInUtilities:RasterUtilities.obj
 0001:00015840       ??$_Move_backward_opt@PAMPAMUrandom_access_iterator_tag@std@@U_Undefined_move_tag@2@@std@@YAPAMPAM00Urandom_access_iterator_tag@0@U_Undefined_move_tag@0@U_Range_checked_iterator_tag@0@@Z 10016840 f i PlugInUtilities:RasterUtilities.obj
 0001:00015870       ??$_Destroy@V?$Location@H$01@Opticks@@@std@@YAXPAV?$Location@H$01@Opticks@@@Z 10016870 f i PlugInUtilities:RasterUtilities.obj
 0001:00015880       ?construct@?$allocator@VInt64@@@std@@QAEXPAVInt64@@ABV3@@Z 10016880 f i PlugInUtilities:RasterUtilities.obj
 0001:000158a0       ?destroy@?$allocator@VInt64@@@std@@QAEXPAVInt64@@@Z 100168a0 f i PlugInUtilities:RasterUtilities.obj
 0001:000158b0       ?construct@?$allocator@VUInt64@@@std@@QAEXPAVUInt64@@ABV3@@Z 100168b0 f i PlugInUtilities:RasterUtilities.obj
 0001:000158d0       ?destroy@?$allocator@VUInt64@@@std@@QAEXPAVUInt64@@@Z 100168d0 f i PlugInUtilities:RasterUtilities.obj
 0001:000158e0       ??9?$_Vb_const_iterator@V?$vector@_NV?$allocator@_N@std@@@std@@@std@@QBE_NABV01@@Z 100168e0 f i PlugInUtilities:RasterUtilities.obj
 0001:00015920       ??$?A_N@?$list1@AAVDimensionDescriptor@@@_bi@boost@@QBEAA_NAAV?$value@_N@12@@Z 10016920 f i PlugInUtilities:RasterUtilities.obj
 0001:00015930       ??$_Checked_base@V?$_Vector_const_iterator@V?$EnumWrapper@W4RasterChannelTypeEnum@@@@V?$allocator@V?$EnumWrapper@W4RasterChannelTypeEnum@@@@@std@@@std@@U_Different_checked_iterator_base_type_tag@2@@std@@YAPBV?$EnumWrapper@W4RasterChannelTypeEnum@@@@AAV?$_Vector_const_iterator@V?$EnumWrapper@W4RasterChannelTypeEnum@@@@V?$allocator@V?$EnumWrapper@W4RasterChannelTypeEnum@@@@@std@@@0@U_Different_checked_iterator_base_type_tag@0@@Z 10016930 f i PlugInUtilities:RasterUtilities.obj
 0001:00015940       ??$_Checked_base@V?$_Vector_const_iterator@HV?$allocator@H@std@@@std@@U_Different_checked_iterator_base_type_tag@2@@std@@YAPBHAAV?$_Vector_const_iterator@HV?$allocator@H@std@@@0@U_Different_checked_iterator_base_type_tag@0@@Z 10016940 f i PlugInUtilities:RasterUtilities.obj
 0001:00015950       ??$_Fill_n@PAHIH@std@@YAXPAHIABHUrandom_access_iterator_tag@0@U_Range_checked_iterator_tag@0@@Z 10016950 f i PlugInUtilities:RasterUtilities.obj
 0001:00015980       ??$_Uninit_move@PANPANV?$allocator@N@std@@U_Undefined_move_tag@2@@std@@YAPANPAN00AAV?$allocator@N@0@U_Undefined_move_tag@0@U_Range_checked_iterator_tag@0@@Z 10016980 f i PlugInUtilities:RasterUtilities.obj
 0001:000159b0       ??$_Uninit_move@PADPADV?$allocator@D@std@@U_Undefined_move_tag@2@@std@@YAPADPAD00AAV?$allocator@D@0@U_Undefined_move_tag@0@U_Range_checked_iterator_tag@0@@Z 100169b0 f i PlugInUtilities:RasterUtilities.obj
 0001:000159e0       ??$_Uninit_move@PAEPAEV?$allocator@E@std@@U_Undefined_move_tag@2@@std@@YAPAEPAE00AAV?$allocator@E@0@U_Undefined_move_tag@0@U_Range_checked_iterator_tag@0@@Z 100169e0 f i PlugInUtilities:RasterUtilities.obj
 0001:00015a10       ??$_Uninit_move@PAFPAFV?$allocator@F@std@@U_Undefined_move_tag@2@@std@@YAPAFPAF00AAV?$allocator@F@0@U_Undefined_move_tag@0@U_Range_checked_iterator_tag@0@@Z 10016a10 f i PlugInUtilities:RasterUtilities.obj
 0001:00015a40       ??$_Uninit_move@PAGPAGV?$allocator@G@std@@U_Undefined_move_tag@2@@std@@YAPAGPAG00AAV?$allocator@G@0@U_Undefined_move_tag@0@U_Range_checked_iterator_tag@0@@Z 10016a40 f i PlugInUtilities:RasterUtilities.obj
 0001:00015a70       ??$_Uninit_move@PAIPAIV?$allocator@I@std@@U_Undefined_move_tag@2@@std@@YAPAIPAI00AAV?$allocator@I@0@U_Undefined_move_tag@0@U_Range_checked_iterator_tag@0@@Z 10016a70 f i PlugInUtilities:RasterUtilities.obj
 0001:00015aa0       ??$_Uninit_move@PAJPAJV?$allocator@J@std@@U_Undefined_move_tag@2@@std@@YAPAJPAJ00AAV?$allocator@J@0@U_Undefined_move_tag@0@U_Range_checked_iterator_tag@0@@Z 10016aa0 f i PlugInUtilities:RasterUtilities.obj
 0001:00015ad0       ??$_Uninit_move@PAKPAKV?$allocator@K@std@@U_Undefined_move_tag@2@@std@@YAPAKPAK00AAV?$allocator@K@0@U_Undefined_move_tag@0@U_Range_checked_iterator_tag@0@@Z 10016ad0 f i PlugInUtilities:RasterUtilities.obj
 0001:00015b00       ??$_Uninit_move@PA_JPA_JV?$allocator@_J@std@@U_Undefined_move_tag@2@@std@@YAPA_JPA_J00AAV?$allocator@_J@0@U_Undefined_move_tag@0@U_Range_checked_iterator_tag@0@@Z 10016b00 f i PlugInUtilities:RasterUtilities.obj
 0001:00015b30       ??$_Uninit_move@PA_KPA_KV?$allocator@_K@std@@U_Undefined_move_tag@2@@std@@YAPA_KPA_K00AAV?$allocator@_K@0@U_Undefined_move_tag@0@U_Range_checked_iterator_tag@0@@Z 10016b30 f i PlugInUtilities:RasterUtilities.obj
 0001:00015b60       ??$_Uninit_move@PAMPAMV?$allocator@M@std@@U_Undefined_move_tag@2@@std@@YAPAMPAM00AAV?$allocator@M@0@U_Undefined_move_tag@0@U_Range_checked_iterator_tag@0@@Z 10016b60 f i PlugInUtilities:RasterUtilities.obj
 0001:00015b90       ??$_Uninit_copy@PBVInt64@@PAV1@V?$allocator@VInt64@@@std@@@std@@YAPAVInt64@@PBV1@0PAV1@AAV?$allocator@VInt64@@@0@U_Nonscalar_ptr_iterator_tag@0@U_Range_checked_iterator_tag@0@@Z 10016b90 f i PlugInUtilities:RasterUtilities.obj
 0001:00015bc0       ??$_Uninit_copy@PAVInt64@@PAV1@V?$allocator@VInt64@@@std@@@std@@YAPAVInt64@@PAV1@00AAV?$allocator@VInt64@@@0@U_Nonscalar_ptr_iterator_tag@0@U_Range_checked_iterator_tag@0@@Z 10016bc0 f i PlugInUtilities:RasterUtilities.obj
 0001:00015bf0       ??$_Uninit_copy@PBVUInt64@@PAV1@V?$allocator@VUInt64@@@std@@@std@@YAPAVUInt64@@PBV1@0PAV1@AAV?$allocator@VUInt64@@@0@U_Nonscalar_ptr_iterator_tag@0@U_Range_checked_iterator_tag@0@@Z 10016bf0 f i PlugInUtilities:RasterUtilities.obj
 0001:00015c20       ??$_Uninit_copy@PAVUInt64@@PAV1@V?$allocator@VUInt64@@@std@@@std@@YAPAVUInt64@@PAV1@00AAV?$allocator@VUInt64@@@0@U_Nonscalar_ptr_iterator_tag@0@U_Range_checked_iterator_tag@0@@Z 10016c20 f i PlugInUtilities:RasterUtilities.obj
 0001:00015c50       ??$_Copy_backward_opt@PAVInt64@@PAV1@@std@@YAPAVInt64@@PAV1@00Urandom_access_iterator_tag@0@U_Nonscalar_ptr_iterator_tag@0@U_Range_checked_iterator_tag@0@@Z 10016c50 f i PlugInUtilities:RasterUtilities.obj
 0001:00015ca0       ??$_Copy_backward_opt@PAVUInt64@@PAV1@@std@@YAPAVUInt64@@PAV1@00Urandom_access_iterator_tag@0@U_Nonscalar_ptr_iterator_tag@0@U_Range_checked_iterator_tag@0@@Z 10016ca0 f i PlugInUtilities:RasterUtilities.obj
 0001:00015cf0       ??$_Mismatch@PBVDimensionDescriptor@@PBV1@Uforward_iterator_tag@std@@@std@@YA?AU?$pair@PBVDimensionDescriptor@@PBV1@@0@PBVDimensionDescriptor@@00Uforward_iterator_tag@0@U_Range_checked_iterator_tag@0@@Z 10016cf0 f i PlugInUtilities:RasterUtilities.obj
 0001:00015d60       ??$_Uninit_copy@PAVDimensionDescriptor@@PAV1@V?$allocator@VDimensionDescriptor@@@std@@@std@@YAPAVDimensionDescriptor@@PAV1@00AAV?$allocator@VDimensionDescriptor@@@0@U_Nonscalar_ptr_iterator_tag@0@U_Range_checked_iterator_tag@0@@Z 10016d60 f i PlugInUtilities:RasterUtilities.obj
 0001:00015da0       ??$_Uninit_copy@PAV?$EnumWrapper@W4RasterChannelTypeEnum@@@@PAV1@V?$allocator@V?$EnumWrapper@W4RasterChannelTypeEnum@@@@@std@@@std@@YAPAV?$EnumWrapper@W4RasterChannelTypeEnum@@@@PAV1@00AAV?$allocator@V?$EnumWrapper@W4RasterChannelTypeEnum@@@@@0@U_Nonscalar_ptr_iterator_tag@0@U_Range_checked_iterator_tag@0@@Z 10016da0 f i PlugInUtilities:RasterUtilities.obj
 0001:00015dd0       ??$_Checked_base@V?$_Vector_iterator@V?$basic_string@DU?$char_traits@D@std@@V?$allocator@D@2@@std@@V?$allocator@V?$basic_string@DU?$char_traits@D@std@@V?$allocator@D@2@@std@@@2@@std@@U_Different_checked_iterator_base_type_tag@2@@std@@YAPAV?$basic_string@DU?$char_traits@D@std@@V?$allocator@D@2@@0@AAV?$_Vector_iterator@V?$basic_string@DU?$char_traits@D@std@@V?$allocator@D@2@@std@@V?$allocator@V?$basic_string@DU?$char_traits@D@std@@V?$allocator@D@2@@std@@@2@@0@U_Different_checked_iterator_base_type_tag@0@@Z 10016dd0 f i PlugInUtilities:RasterUtilities.obj
 0001:00015de0       ??$_Checked_base@V?$_Vector_iterator@NV?$allocator@N@std@@@std@@U_Different_checked_iterator_base_type_tag@2@@std@@YAPANAAV?$_Vector_iterator@NV?$allocator@N@std@@@0@U_Different_checked_iterator_base_type_tag@0@@Z 10016de0 f i PlugInUtilities:RasterUtilities.obj
 0001:00015df0       ??$_Checked_base@V?$_Vector_iterator@DV?$allocator@D@std@@@std@@U_Different_checked_iterator_base_type_tag@2@@std@@YAPADAAV?$_Vector_iterator@DV?$allocator@D@std@@@0@U_Different_checked_iterator_base_type_tag@0@@Z 10016df0 f i PlugInUtilities:RasterUtilities.obj
 0001:00015e00       ??$_Checked_base@V?$_Vector_iterator@EV?$allocator@E@std@@@std@@U_Different_checked_iterator_base_type_tag@2@@std@@YAPAEAAV?$_Vector_iterator@EV?$allocator@E@std@@@0@U_Different_checked_iterator_base_type_tag@0@@Z 10016e00 f i PlugInUtilities:RasterUtilities.obj
 0001:00015e10       ??$_Checked_base@V?$_Vector_iterator@FV?$allocator@F@std@@@std@@U_Different_checked_iterator_base_type_tag@2@@std@@YAPAFAAV?$_Vector_iterator@FV?$allocator@F@std@@@0@U_Different_checked_iterator_base_type_tag@0@@Z 10016e10 f i PlugInUtilities:RasterUtilities.obj
 0001:00015e20       ??$_Checked_base@V?$_Vector_iterator@GV?$allocator@G@std@@@std@@U_Different_checked_iterator_base_type_tag@2@@std@@YAPAGAAV?$_Vector_iterator@GV?$allocator@G@std@@@0@U_Different_checked_iterator_base_type_tag@0@@Z 10016e20 f i PlugInUtilities:RasterUtilities.obj
 0001:00015e30       ??$_Checked_base@V?$_Vector_iterator@IV?$allocator@I@std@@@std@@U_Different_checked_iterator_base_type_tag@2@@std@@YAPAIAAV?$_Vector_iterator@IV?$allocator@I@std@@@0@U_Different_checked_iterator_base_type_tag@0@@Z 10016e30 f i PlugInUtilities:RasterUtilities.obj
 0001:00015e40       ??$_Checked_base@V?$_Vector_iterator@JV?$allocator@J@std@@@std@@U_Different_checked_iterator_base_type_tag@2@@std@@YAPAJAAV?$_Vector_iterator@JV?$allocator@J@std@@@0@U_Different_checked_iterator_base_type_tag@0@@Z 10016e40 f i PlugInUtilities:RasterUtilities.obj
 0001:00015e50       ??$_Checked_base@V?$_Vector_iterator@KV?$allocator@K@std@@@std@@U_Different_checked_iterator_base_type_tag@2@@std@@YAPAKAAV?$_Vector_iterator@KV?$allocator@K@std@@@0@U_Different_checked_iterator_base_type_tag@0@@Z 10016e50 f i PlugInUtilities:RasterUtilities.obj
 0001:00015e60       ??$_Checked_base@V?$_Vector_iterator@_JV?$allocator@_J@std@@@std@@U_Different_checked_iterator_base_type_tag@2@@std@@YAPA_JAAV?$_Vector_iterator@_JV?$allocator@_J@std@@@0@U_Different_checked_iterator_base_type_tag@0@@Z 10016e60 f i PlugInUtilities:RasterUtilities.obj
 0001:00015e70       ??$_Checked_base@V?$_Vector_iterator@_KV?$allocator@_K@std@@@std@@U_Different_checked_iterator_base_type_tag@2@@std@@YAPA_KAAV?$_Vector_iterator@_KV?$allocator@_K@std@@@0@U_Different_checked_iterator_base_type_tag@0@@Z 10016e70 f i PlugInUtilities:RasterUtilities.obj
 0001:00015e80       ??$_Checked_base@V?$_Vector_iterator@VInt64@@V?$allocator@VInt64@@@std@@@std@@U_Different_checked_iterator_base_type_tag@2@@std@@YAPAVInt64@@AAV?$_Vector_iterator@VInt64@@V?$allocator@VInt64@@@std@@@0@U_Different_checked_iterator_base_type_tag@0@@Z 10016e80 f i PlugInUtilities:RasterUtilities.obj
 0001:00015e90       ??$_Checked_base@V?$_Vector_iterator@VUInt64@@V?$allocator@VUInt64@@@std@@@std@@U_Different_checked_iterator_base_type_tag@2@@std@@YAPAVUInt64@@AAV?$_Vector_iterator@VUInt64@@V?$allocator@VUInt64@@@std@@@0@U_Different_checked_iterator_base_type_tag@0@@Z 10016e90 f i PlugInUtilities:RasterUtilities.obj
 0001:00015ea0       ??$_Checked_base@V?$_Vector_iterator@MV?$allocator@M@std@@@std@@U_Different_checked_iterator_base_type_tag@2@@std@@YAPAMAAV?$_Vector_iterator@MV?$allocator@M@std@@@0@U_Different_checked_iterator_base_type_tag@0@@Z 10016ea0 f i PlugInUtilities:RasterUtilities.obj
 0001:00015eb0       ??$_Checked_base@V?$_Vector_const_iterator@NV?$allocator@N@std@@@std@@U_Different_checked_iterator_base_type_tag@2@@std@@YAPBNAAV?$_Vector_const_iterator@NV?$allocator@N@std@@@0@U_Different_checked_iterator_base_type_tag@0@@Z 10016eb0 f i PlugInUtilities:RasterUtilities.obj
 0001:00015ec0       ??$_Fill_n@PANIN@std@@YAXPANIABNUrandom_access_iterator_tag@0@U_Range_checked_iterator_tag@0@@Z 10016ec0 f i PlugInUtilities:RasterUtilities.obj
 0001:00015ee0       ??$_Checked_base@V?$_Vector_const_iterator@DV?$allocator@D@std@@@std@@U_Different_checked_iterator_base_type_tag@2@@std@@YAPBDAAV?$_Vector_const_iterator@DV?$allocator@D@std@@@0@U_Different_checked_iterator_base_type_tag@0@@Z 10016ee0 f i PlugInUtilities:RasterUtilities.obj
 0001:00015ef0       ??$_Fill_n@PADID@std@@YAXPADIABDUrandom_access_iterator_tag@0@U_Range_checked_iterator_tag@0@@Z 10016ef0 f i PlugInUtilities:RasterUtilities.obj
 0001:00015f20       ??$_Checked_base@V?$_Vector_const_iterator@EV?$allocator@E@std@@@std@@U_Different_checked_iterator_base_type_tag@2@@std@@YAPBEAAV?$_Vector_const_iterator@EV?$allocator@E@std@@@0@U_Different_checked_iterator_base_type_tag@0@@Z 10016f20 f i PlugInUtilities:RasterUtilities.obj
 0001:00015f30       ??$_Fill_n@PAEIE@std@@YAXPAEIABEUrandom_access_iterator_tag@0@U_Range_checked_iterator_tag@0@@Z 10016f30 f i PlugInUtilities:RasterUtilities.obj
 0001:00015f60       ??$_Checked_base@V?$_Vector_const_iterator@FV?$allocator@F@std@@@std@@U_Different_checked_iterator_base_type_tag@2@@std@@YAPBFAAV?$_Vector_const_iterator@FV?$allocator@F@std@@@0@U_Different_checked_iterator_base_type_tag@0@@Z 10016f60 f i PlugInUtilities:RasterUtilities.obj
 0001:00015f70       ??$_Fill_n@PAFIF@std@@YAXPAFIABFUrandom_access_iterator_tag@0@U_Range_checked_iterator_tag@0@@Z 10016f70 f i PlugInUtilities:RasterUtilities.obj
 0001:00015fa0       ??$_Checked_base@V?$_Vector_const_iterator@GV?$allocator@G@std@@@std@@U_Different_checked_iterator_base_type_tag@2@@std@@YAPBGAAV?$_Vector_const_iterator@GV?$allocator@G@std@@@0@U_Different_checked_iterator_base_type_tag@0@@Z 10016fa0 f i PlugInUtilities:RasterUtilities.obj
 0001:00015fb0       ??$_Fill_n@PAGIG@std@@YAXPAGIABGUrandom_access_iterator_tag@0@U_Range_checked_iterator_tag@0@@Z 10016fb0 f i PlugInUtilities:RasterUtilities.obj
 0001:00015fe0       ??$_Checked_base@V?$_Vector_const_iterator@IV?$allocator@I@std@@@std@@U_Different_checked_iterator_base_type_tag@2@@std@@YAPBIAAV?$_Vector_const_iterator@IV?$allocator@I@std@@@0@U_Different_checked_iterator_base_type_tag@0@@Z 10016fe0 f i PlugInUtilities:RasterUtilities.obj
 0001:00015ff0       ??$_Fill_n@PAIII@std@@YAXPAIIABIUrandom_access_iterator_tag@0@U_Range_checked_iterator_tag@0@@Z 10016ff0 f i PlugInUtilities:RasterUtilities.obj
 0001:00016020       ??$_Checked_base@V?$_Vector_const_iterator@JV?$allocator@J@std@@@std@@U_Different_checked_iterator_base_type_tag@2@@std@@YAPBJAAV?$_Vector_const_iterator@JV?$allocator@J@std@@@0@U_Different_checked_iterator_base_type_tag@0@@Z 10017020 f i PlugInUtilities:RasterUtilities.obj
 0001:00016030       ??$_Fill_n@PAJIJ@std@@YAXPAJIABJUrandom_access_iterator_tag@0@U_Range_checked_iterator_tag@0@@Z 10017030 f i PlugInUtilities:RasterUtilities.obj
 0001:00016060       ??$_Checked_base@V?$_Vector_const_iterator@KV?$allocator@K@std@@@std@@U_Different_checked_iterator_base_type_tag@2@@std@@YAPBKAAV?$_Vector_const_iterator@KV?$allocator@K@std@@@0@U_Different_checked_iterator_base_type_tag@0@@Z 10017060 f i PlugInUtilities:RasterUtilities.obj
 0001:00016070       ??$_Fill_n@PAKIK@std@@YAXPAKIABKUrandom_access_iterator_tag@0@U_Range_checked_iterator_tag@0@@Z 10017070 f i PlugInUtilities:RasterUtilities.obj
 0001:000160a0       ??$_Checked_base@V?$_Vector_const_iterator@_JV?$allocator@_J@std@@@std@@U_Different_checked_iterator_base_type_tag@2@@std@@YAPB_JAAV?$_Vector_const_iterator@_JV?$allocator@_J@std@@@0@U_Different_checked_iterator_base_type_tag@0@@Z 100170a0 f i PlugInUtilities:RasterUtilities.obj
 0001:000160b0       ??$_Fill_n@PA_JI_J@std@@YAXPA_JIAB_JUrandom_access_iterator_tag@0@U_Range_checked_iterator_tag@0@@Z 100170b0 f i PlugInUtilities:RasterUtilities.obj
 0001:000160e0       ??$_Checked_base@V?$_Vector_const_iterator@_KV?$allocator@_K@std@@@std@@U_Different_checked_iterator_base_type_tag@2@@std@@YAPB_KAAV?$_Vector_const_iterator@_KV?$allocator@_K@std@@@0@U_Different_checked_iterator_base_type_tag@0@@Z 100170e0 f i PlugInUtilities:RasterUtilities.obj
 0001:000160f0       ??$_Fill_n@PA_KI_K@std@@YAXPA_KIAB_KUrandom_access_iterator_tag@0@U_Range_checked_iterator_tag@0@@Z 100170f0 f i PlugInUtilities:RasterUtilities.obj
 0001:00016120       ??$_Checked_base@V?$_Vector_const_iterator@VInt64@@V?$allocator@VInt64@@@std@@@std@@U_Different_checked_iterator_base_type_tag@2@@std@@YAPBVInt64@@AAV?$_Vector_const_iterator@VInt64@@V?$allocator@VInt64@@@std@@@0@U_Different_checked_iterator_base_type_tag@0@@Z 10017120 f i PlugInUtilities:RasterUtilities.obj
 0001:00016130       ??$_Checked_base@V?$_Vector_const_iterator@VUInt64@@V?$allocator@VUInt64@@@std@@@std@@U_Different_checked_iterator_base_type_tag@2@@std@@YAPBVUInt64@@AAV?$_Vector_const_iterator@VUInt64@@V?$allocator@VUInt64@@@std@@@0@U_Different_checked_iterator_base_type_tag@0@@Z 10017130 f i PlugInUtilities:RasterUtilities.obj
 0001:00016140       ??$_Checked_base@V?$_Vector_const_iterator@MV?$allocator@M@std@@@std@@U_Different_checked_iterator_base_type_tag@2@@std@@YAPBMAAV?$_Vector_const_iterator@MV?$allocator@M@std@@@0@U_Different_checked_iterator_base_type_tag@0@@Z 10017140 f i PlugInUtilities:RasterUtilities.obj
 0001:00016150       ??$_Fill_n@PAMIM@std@@YAXPAMIABMUrandom_access_iterator_tag@0@U_Range_checked_iterator_tag@0@@Z 10017150 f i PlugInUtilities:RasterUtilities.obj
 0001:00016170       ?findTrueColorDimensionDescriptors@?A0x92b3477e@@YA_NPBVRasterDataDescriptor@@AAVDimensionDescriptor@@11@Z 10017170 f   PlugInUtilities:RasterUtilities.obj
 0001:00016420       ?canBeDisplayedInTrueColor@RasterUtilities@@YA_NPBVRasterDataDescriptor@@@Z 10017420 f   PlugInUtilities:RasterUtilities.obj
 0001:00016440       ?setDisplayBandsToTrueColor@RasterUtilities@@YA_NPAVRasterDataDescriptor@@@Z 10017440 f   PlugInUtilities:RasterUtilities.obj
 0001:00016590       ?calculateFileSize@RasterUtilities@@YA_JPBVRasterFileDescriptor@@@Z 10017590 f   PlugInUtilities:RasterUtilities.obj
 0001:00016770       ?begin@?$vector@VDimensionDescriptor@@V?$allocator@VDimensionDescriptor@@@std@@@std@@QAE?AV?$_Vector_iterator@VDimensionDescriptor@@V?$allocator@VDimensionDescriptor@@@std@@@2@XZ 10017770 f i PlugInUtilities:RasterUtilities.obj
 0001:000167a0       ?end@?$vector@VDimensionDescriptor@@V?$allocator@VDimensionDescriptor@@@std@@@std@@QAE?AV?$_Vector_iterator@VDimensionDescriptor@@V?$allocator@VDimensionDescriptor@@@std@@@2@XZ 100177a0 f i PlugInUtilities:RasterUtilities.obj
 0001:000167d0       ??1?$Resource@VRasterFileDescriptor@@VFactoryObject@@@@UAE@XZ 100177d0 f i PlugInUtilities:RasterUtilities.obj
 0001:00016850       ??1?$Resource@VFileDescriptor@@VFactoryObject@@@@UAE@XZ 10017850 f i PlugInUtilities:RasterUtilities.obj
 0001:000168d0       ??1?$Resource@VRasterElement@@VModelObject@@@@UAE@XZ 100178d0 f i PlugInUtilities:RasterUtilities.obj
 0001:00016950       ??1?$Resource@VRasterDataDescriptor@@VDataDescriptorObject@@@@UAE@XZ 10017950 f i PlugInUtilities:RasterUtilities.obj
 0001:000169d0       ??_E?$Resource@VRasterFileDescriptor@@VFactoryObject@@@@UAEPAXI@Z 100179d0 f i PlugInUtilities:RasterUtilities.obj
 0001:000169d0       ??_G?$Resource@VRasterFileDescriptor@@VFactoryObject@@@@UAEPAXI@Z 100179d0 f i PlugInUtilities:RasterUtilities.obj
 0001:000169f0       ??_E?$Resource@VFileDescriptor@@VFactoryObject@@@@UAEPAXI@Z 100179f0 f i PlugInUtilities:RasterUtilities.obj
 0001:000169f0       ??_G?$Resource@VFileDescriptor@@VFactoryObject@@@@UAEPAXI@Z 100179f0 f i PlugInUtilities:RasterUtilities.obj
 0001:00016a10       ??_G?$Resource@VRasterElement@@VModelObject@@@@UAEPAXI@Z 10017a10 f i PlugInUtilities:RasterUtilities.obj
 0001:00016a10       ??_E?$Resource@VRasterElement@@VModelObject@@@@UAEPAXI@Z 10017a10 f i PlugInUtilities:RasterUtilities.obj
 0001:00016a30       ??_G?$Resource@VRasterDataDescriptor@@VDataDescriptorObject@@@@UAEPAXI@Z 10017a30 f i PlugInUtilities:RasterUtilities.obj
 0001:00016a30       ??_E?$Resource@VRasterDataDescriptor@@VDataDescriptorObject@@@@UAEPAXI@Z 10017a30 f i PlugInUtilities:RasterUtilities.obj
 0001:00016a50       ?_Buy@?$vector@VDimensionDescriptor@@V?$allocator@VDimensionDescriptor@@@std@@@std@@IAE_NI@Z 10017a50 f i PlugInUtilities:RasterUtilities.obj
 0001:00016aa0       ?_Buy@?$vector@V?$Location@H$01@Opticks@@V?$allocator@V?$Location@H$01@Opticks@@@std@@@std@@IAE_NI@Z 10017aa0 f i PlugInUtilities:RasterUtilities.obj
 0001:00016af0       ??0?$_Vector_iterator@V?$Location@H$01@Opticks@@V?$allocator@V?$Location@H$01@Opticks@@@std@@@std@@QAE@PAV?$Location@H$01@Opticks@@PBU_Container_base@1@@Z 10017af0 f i PlugInUtilities:RasterUtilities.obj
 0001:00016b30       ??G?$_Vector_const_iterator@VDimensionDescriptor@@V?$allocator@VDimensionDescriptor@@@std@@@std@@QBE?AV01@H@Z 10017b30 f i PlugInUtilities:RasterUtilities.obj
 0001:00016b70       ?begin@?$vector@V?$EnumWrapper@W4RasterChannelTypeEnum@@@@V?$allocator@V?$EnumWrapper@W4RasterChannelTypeEnum@@@@@std@@@std@@QBE?AV?$_Vector_const_iterator@V?$EnumWrapper@W4RasterChannelTypeEnum@@@@V?$allocator@V?$EnumWrapper@W4RasterChannelTypeEnum@@@@@std@@@2@XZ 10017b70 f i PlugInUtilities:RasterUtilities.obj
 0001:00016ba0       ?end@?$vector@V?$EnumWrapper@W4RasterChannelTypeEnum@@@@V?$allocator@V?$EnumWrapper@W4RasterChannelTypeEnum@@@@@std@@@std@@QAE?AV?$_Vector_iterator@V?$EnumWrapper@W4RasterChannelTypeEnum@@@@V?$allocator@V?$EnumWrapper@W4RasterChannelTypeEnum@@@@@std@@@2@XZ 10017ba0 f i PlugInUtilities:RasterUtilities.obj
 0001:00016bd0       ?end@?$vector@V?$EnumWrapper@W4RasterChannelTypeEnum@@@@V?$allocator@V?$EnumWrapper@W4RasterChannelTypeEnum@@@@@std@@@std@@QBE?AV?$_Vector_const_iterator@V?$EnumWrapper@W4RasterChannelTypeEnum@@@@V?$allocator@V?$EnumWrapper@W4RasterChannelTypeEnum@@@@@std@@@2@XZ 10017bd0 f i PlugInUtilities:RasterUtilities.obj
 0001:00016c00       ?_Buy@?$vector@V?$EnumWrapper@W4RasterChannelTypeEnum@@@@V?$allocator@V?$EnumWrapper@W4RasterChannelTypeEnum@@@@@std@@@std@@IAE_NI@Z 10017c00 f i PlugInUtilities:RasterUtilities.obj
 0001:00016c50       ?begin@?$vector@HV?$allocator@H@std@@@std@@QBE?AV?$_Vector_const_iterator@HV?$allocator@H@std@@@2@XZ 10017c50 f i PlugInUtilities:RasterUtilities.obj
 0001:00016c80       ?end@?$vector@HV?$allocator@H@std@@@std@@QBE?AV?$_Vector_const_iterator@HV?$allocator@H@std@@@2@XZ 10017c80 f i PlugInUtilities:RasterUtilities.obj
 0001:00016cb0       ?_Buy@?$vector@HV?$allocator@H@std@@@std@@IAE_NI@Z 10017cb0 f i PlugInUtilities:RasterUtilities.obj
 0001:00016d00       ??0?$_Vector_iterator@HV?$allocator@H@std@@@std@@QAE@PAHPBU_Container_base@1@@Z 10017d00 f i PlugInUtilities:RasterUtilities.obj
 0001:00016d40       ??H?$_Vector_iterator@V?$Location@H$01@Opticks@@V?$allocator@V?$Location@H$01@Opticks@@@std@@@std@@QBE?AV01@H@Z 10017d40 f i PlugInUtilities:RasterUtilities.obj
 0001:00016d80       ??H?$_Vector_iterator@VDimensionDescriptor@@V?$allocator@VDimensionDescriptor@@@std@@@std@@QBE?AV01@H@Z 10017d80 f i PlugInUtilities:RasterUtilities.obj
 0001:00016dc0       ?begin@?$vector@V?$EnumWrapper@W4RasterChannelTypeEnum@@@@V?$allocator@V?$EnumWrapper@W4RasterChannelTypeEnum@@@@@std@@@std@@QAE?AV?$_Vector_iterator@V?$EnumWrapper@W4RasterChannelTypeEnum@@@@V?$allocator@V?$EnumWrapper@W4RasterChannelTypeEnum@@@@@std@@@2@XZ 10017dc0 f i PlugInUtilities:RasterUtilities.obj
 0001:00016df0       ?_Destroy@?$vector@HV?$allocator@H@std@@@std@@IAEXPAH0@Z 10017df0 f i PlugInUtilities:RasterUtilities.obj
 0001:00016e00       ??H?$_Vector_iterator@HV?$allocator@H@std@@@std@@QBE?AV01@H@Z 10017e00 f i PlugInUtilities:RasterUtilities.obj
 0001:00016e40       ??H?$_Vector_iterator@V?$EnumWrapper@W4RasterChannelTypeEnum@@@@V?$allocator@V?$EnumWrapper@W4RasterChannelTypeEnum@@@@@std@@@std@@QBE?AV01@H@Z 10017e40 f i PlugInUtilities:RasterUtilities.obj
 0001:00016e80       ??$dv_cast@VDynamicObject@@@@YAPAVDynamicObject@@PAVDataVariant@@@Z 10017e80 f i PlugInUtilities:RasterUtilities.obj
 0001:00016eb0       ??$unchecked_copy@PAVDimensionDescriptor@@PAV1@@stdext@@YAPAVDimensionDescriptor@@PAV1@00@Z 10017eb0 f i PlugInUtilities:RasterUtilities.obj
 0001:00016f00       ??$unchecked_copy@PAV?$Location@H$01@Opticks@@PAV12@@stdext@@YAPAV?$Location@H$01@Opticks@@PAV12@00@Z 10017f00 f i PlugInUtilities:RasterUtilities.obj
 0001:00016f30       ??$fill@PAVDimensionDescriptor@@V1@@std@@YAXPAVDimensionDescriptor@@0ABV1@@Z 10017f30 f i PlugInUtilities:RasterUtilities.obj
 0001:00016f40       ??$fill@PAV?$Location@H$01@Opticks@@V12@@std@@YAXPAV?$Location@H$01@Opticks@@0ABV12@@Z 10017f40 f i PlugInUtilities:RasterUtilities.obj
 0001:00016f50       ??$fill@PAV?$EnumWrapper@W4RasterChannelTypeEnum@@@@V1@@std@@YAXPAV?$EnumWrapper@W4RasterChannelTypeEnum@@@@0ABV1@@Z 10017f50 f i PlugInUtilities:RasterUtilities.obj
 0001:00016f80       ??$fill@PAHH@std@@YAXPAH0ABH@Z 10017f80 f i PlugInUtilities:RasterUtilities.obj
 0001:00016fa0       ??$_Unchecked_move_backward@PAHPAH@stdext@@YAPAHPAH00@Z 10017fa0 f i PlugInUtilities:RasterUtilities.obj
 0001:00016fd0       ??0?$vector@HV?$allocator@H@std@@@std@@QAE@XZ 10017fd0 f i PlugInUtilities:RasterUtilities.obj
 0001:00016fe0       ??0?$vector@DV?$allocator@D@std@@@std@@QAE@XZ 10017fe0 f i PlugInUtilities:RasterUtilities.obj
 0001:00016ff0       ?_Buy@?$vector@NV?$allocator@N@std@@@std@@IAE_NI@Z 10017ff0 f i PlugInUtilities:RasterUtilities.obj
 0001:00017040       ?_Destroy@?$vector@NV?$allocator@N@std@@@std@@IAEXPAN0@Z 10018040 f i PlugInUtilities:RasterUtilities.obj
 0001:00017050       ?_Tidy@?$vector@NV?$allocator@N@std@@@std@@IAEXXZ 10018050 f i PlugInUtilities:RasterUtilities.obj
 0001:00017080       ?_Destroy@?$vector@DV?$allocator@D@std@@@std@@IAEXPAD0@Z 10018080 f i PlugInUtilities:RasterUtilities.obj
 0001:00017090       ?_Tidy@?$vector@DV?$allocator@D@std@@@std@@IAEXXZ 10018090 f i PlugInUtilities:RasterUtilities.obj
 0001:000170c0       ?_Buy@?$vector@EV?$allocator@E@std@@@std@@IAE_NI@Z 100180c0 f i PlugInUtilities:RasterUtilities.obj
 0001:00017110       ?_Destroy@?$vector@EV?$allocator@E@std@@@std@@IAEXPAE0@Z 10018110 f i PlugInUtilities:RasterUtilities.obj
 0001:00017120       ?_Tidy@?$vector@EV?$allocator@E@std@@@std@@IAEXXZ 10018120 f i PlugInUtilities:RasterUtilities.obj
 0001:00017150       ?_Buy@?$vector@FV?$allocator@F@std@@@std@@IAE_NI@Z 10018150 f i PlugInUtilities:RasterUtilities.obj
 0001:000171a0       ?_Destroy@?$vector@FV?$allocator@F@std@@@std@@IAEXPAF0@Z 100181a0 f i PlugInUtilities:RasterUtilities.obj
 0001:000171b0       ?_Tidy@?$vector@FV?$allocator@F@std@@@std@@IAEXXZ 100181b0 f i PlugInUtilities:RasterUtilities.obj
 0001:000171e0       ?_Buy@?$vector@GV?$allocator@G@std@@@std@@IAE_NI@Z 100181e0 f i PlugInUtilities:RasterUtilities.obj
 0001:00017230       ?_Destroy@?$vector@GV?$allocator@G@std@@@std@@IAEXPAG0@Z 10018230 f i PlugInUtilities:RasterUtilities.obj
 0001:00017240       ?_Tidy@?$vector@GV?$allocator@G@std@@@std@@IAEXXZ 10018240 f i PlugInUtilities:RasterUtilities.obj
 0001:00017270       ?_Buy@?$vector@IV?$allocator@I@std@@@std@@IAE_NI@Z 10018270 f i PlugInUtilities:RasterUtilities.obj
 0001:000172c0       ?_Destroy@?$vector@IV?$allocator@I@std@@@std@@IAEXPAI0@Z 100182c0 f i PlugInUtilities:RasterUtilities.obj
 0001:000172d0       ?_Tidy@?$vector@IV?$allocator@I@std@@@std@@IAEXXZ 100182d0 f i PlugInUtilities:RasterUtilities.obj
 0001:00017300       ?_Buy@?$vector@JV?$allocator@J@std@@@std@@IAE_NI@Z 10018300 f i PlugInUtilities:RasterUtilities.obj
 0001:00017350       ?_Destroy@?$vector@JV?$allocator@J@std@@@std@@IAEXPAJ0@Z 10018350 f i PlugInUtilities:RasterUtilities.obj
 0001:00017360       ?_Tidy@?$vector@JV?$allocator@J@std@@@std@@IAEXXZ 10018360 f i PlugInUtilities:RasterUtilities.obj
 0001:00017390       ?_Buy@?$vector@KV?$allocator@K@std@@@std@@IAE_NI@Z 10018390 f i PlugInUtilities:RasterUtilities.obj
 0001:000173e0       ?_Destroy@?$vector@KV?$allocator@K@std@@@std@@IAEXPAK0@Z 100183e0 f i PlugInUtilities:RasterUtilities.obj
 0001:000173f0       ?_Tidy@?$vector@KV?$allocator@K@std@@@std@@IAEXXZ 100183f0 f i PlugInUtilities:RasterUtilities.obj
 0001:00017420       ?_Buy@?$vector@_JV?$allocator@_J@std@@@std@@IAE_NI@Z 10018420 f i PlugInUtilities:RasterUtilities.obj
 0001:00017470       ?_Destroy@?$vector@_JV?$allocator@_J@std@@@std@@IAEXPA_J0@Z 10018470 f i PlugInUtilities:RasterUtilities.obj
 0001:00017480       ?_Tidy@?$vector@_JV?$allocator@_J@std@@@std@@IAEXXZ 10018480 f i PlugInUtilities:RasterUtilities.obj
 0001:000174b0       ?_Buy@?$vector@_KV?$allocator@_K@std@@@std@@IAE_NI@Z 100184b0 f i PlugInUtilities:RasterUtilities.obj
 0001:00017500       ?_Destroy@?$vector@_KV?$allocator@_K@std@@@std@@IAEXPA_K0@Z 10018500 f i PlugInUtilities:RasterUtilities.obj
 0001:00017510       ?_Tidy@?$vector@_KV?$allocator@_K@std@@@std@@IAEXXZ 10018510 f i PlugInUtilities:RasterUtilities.obj
 0001:00017540       ?_Buy@?$vector@VInt64@@V?$allocator@VInt64@@@std@@@std@@IAE_NI@Z 10018540 f i PlugInUtilities:RasterUtilities.obj
 0001:00017590       ?_Buy@?$vector@VUInt64@@V?$allocator@VUInt64@@@std@@@std@@IAE_NI@Z 10018590 f i PlugInUtilities:RasterUtilities.obj
 0001:000175e0       ?_Buy@?$vector@MV?$allocator@M@std@@@std@@IAE_NI@Z 100185e0 f i PlugInUtilities:RasterUtilities.obj
 0001:00017630       ?_Destroy@?$vector@MV?$allocator@M@std@@@std@@IAEXPAM0@Z 10018630 f i PlugInUtilities:RasterUtilities.obj
 0001:00017640       ?_Tidy@?$vector@MV?$allocator@M@std@@@std@@IAEXXZ 10018640 f i PlugInUtilities:RasterUtilities.obj
 0001:00017670       ??0?$_Vb_const_iterator@V?$vector@_NV?$allocator@_N@std@@@std@@@std@@QAE@ABV01@@Z 10018670 f i PlugInUtilities:RasterUtilities.obj
 0001:000176a0       ?begin@?$vector@NV?$allocator@N@std@@@std@@QBE?AV?$_Vector_const_iterator@NV?$allocator@N@std@@@2@XZ 100186a0 f i PlugInUtilities:RasterUtilities.obj
 0001:000176d0       ?end@?$vector@NV?$allocator@N@std@@@std@@QBE?AV?$_Vector_const_iterator@NV?$allocator@N@std@@@2@XZ 100186d0 f i PlugInUtilities:RasterUtilities.obj
 0001:00017700       ?begin@?$vector@DV?$allocator@D@std@@@std@@QBE?AV?$_Vector_const_iterator@DV?$allocator@D@std@@@2@XZ 10018700 f i PlugInUtilities:RasterUtilities.obj
 0001:00017730       ?end@?$vector@DV?$allocator@D@std@@@std@@QBE?AV?$_Vector_const_iterator@DV?$allocator@D@std@@@2@XZ 10018730 f i PlugInUtilities:RasterUtilities.obj
 0001:00017760       ?begin@?$vector@EV?$allocator@E@std@@@std@@QBE?AV?$_Vector_const_iterator@EV?$allocator@E@std@@@2@XZ 10018760 f i PlugInUtilities:RasterUtilities.obj
 0001:00017790       ?end@?$vector@EV?$allocator@E@std@@@std@@QBE?AV?$_Vector_const_iterator@EV?$allocator@E@std@@@2@XZ 10018790 f i PlugInUtilities:RasterUtilities.obj
 0001:000177c0       ?begin@?$vector@FV?$allocator@F@std@@@std@@QBE?AV?$_Vector_const_iterator@FV?$allocator@F@std@@@2@XZ 100187c0 f i PlugInUtilities:RasterUtilities.obj
 0001:000177f0       ?end@?$vector@FV?$allocator@F@std@@@std@@QBE?AV?$_Vector_const_iterator@FV?$allocator@F@std@@@2@XZ 100187f0 f i PlugInUtilities:RasterUtilities.obj
 0001:00017820       ?begin@?$vector@GV?$allocator@G@std@@@std@@QBE?AV?$_Vector_const_iterator@GV?$allocator@G@std@@@2@XZ 10018820 f i PlugInUtilities:RasterUtilities.obj
 0001:00017850       ?end@?$vector@GV?$allocator@G@std@@@std@@QBE?AV?$_Vector_const_iterator@GV?$allocator@G@std@@@2@XZ 10018850 f i PlugInUtilities:RasterUtilities.obj
 0001:00017880       ?begin@?$vector@IV?$allocator@I@std@@@std@@QBE?AV?$_Vector_const_iterator@IV?$allocator@I@std@@@2@XZ 10018880 f i PlugInUtilities:RasterUtilities.obj
 0001:000178b0       ?end@?$vector@IV?$allocator@I@std@@@std@@QBE?AV?$_Vector_const_iterator@IV?$allocator@I@std@@@2@XZ 100188b0 f i PlugInUtilities:RasterUtilities.obj
 0001:000178e0       ?begin@?$vector@JV?$allocator@J@std@@@std@@QBE?AV?$_Vector_const_iterator@JV?$allocator@J@std@@@2@XZ 100188e0 f i PlugInUtilities:RasterUtilities.obj
 0001:00017910       ?end@?$vector@JV?$allocator@J@std@@@std@@QBE?AV?$_Vector_const_iterator@JV?$allocator@J@std@@@2@XZ 10018910 f i PlugInUtilities:RasterUtilities.obj
 0001:00017940       ?begin@?$vector@KV?$allocator@K@std@@@std@@QBE?AV?$_Vector_const_iterator@KV?$allocator@K@std@@@2@XZ 10018940 f i PlugInUtilities:RasterUtilities.obj
 0001:00017970       ?end@?$vector@KV?$allocator@K@std@@@std@@QBE?AV?$_Vector_const_iterator@KV?$allocator@K@std@@@2@XZ 10018970 f i PlugInUtilities:RasterUtilities.obj
 0001:000179a0       ?begin@?$vector@_JV?$allocator@_J@std@@@std@@QBE?AV?$_Vector_const_iterator@_JV?$allocator@_J@std@@@2@XZ 100189a0 f i PlugInUtilities:RasterUtilities.obj
 0001:000179d0       ?end@?$vector@_JV?$allocator@_J@std@@@std@@QBE?AV?$_Vector_const_iterator@_JV?$allocator@_J@std@@@2@XZ 100189d0 f i PlugInUtilities:RasterUtilities.obj
 0001:00017a00       ?begin@?$vector@_KV?$allocator@_K@std@@@std@@QBE?AV?$_Vector_const_iterator@_KV?$allocator@_K@std@@@2@XZ 10018a00 f i PlugInUtilities:RasterUtilities.obj
 0001:00017a30       ?end@?$vector@_KV?$allocator@_K@std@@@std@@QBE?AV?$_Vector_const_iterator@_KV?$allocator@_K@std@@@2@XZ 10018a30 f i PlugInUtilities:RasterUtilities.obj
 0001:00017a60       ?begin@?$vector@VInt64@@V?$allocator@VInt64@@@std@@@std@@QBE?AV?$_Vector_const_iterator@VInt64@@V?$allocator@VInt64@@@std@@@2@XZ 10018a60 f i PlugInUtilities:RasterUtilities.obj
 0001:00017a90       ?end@?$vector@VInt64@@V?$allocator@VInt64@@@std@@@std@@QBE?AV?$_Vector_const_iterator@VInt64@@V?$allocator@VInt64@@@std@@@2@XZ 10018a90 f i PlugInUtilities:RasterUtilities.obj
 0001:00017ac0       ?begin@?$vector@VUInt64@@V?$allocator@VUInt64@@@std@@@std@@QBE?AV?$_Vector_const_iterator@VUInt64@@V?$allocator@VUInt64@@@std@@@2@XZ 10018ac0 f i PlugInUtilities:RasterUtilities.obj
 0001:00017af0       ?end@?$vector@VUInt64@@V?$allocator@VUInt64@@@std@@@std@@QBE?AV?$_Vector_const_iterator@VUInt64@@V?$allocator@VUInt64@@@std@@@2@XZ 10018af0 f i PlugInUtilities:RasterUtilities.obj
 0001:00017b20       ?begin@?$vector@MV?$allocator@M@std@@@std@@QBE?AV?$_Vector_const_iterator@MV?$allocator@M@std@@@2@XZ 10018b20 f i PlugInUtilities:RasterUtilities.obj
 0001:00017b50       ?end@?$vector@MV?$allocator@M@std@@@std@@QBE?AV?$_Vector_const_iterator@MV?$allocator@M@std@@@2@XZ 10018b50 f i PlugInUtilities:RasterUtilities.obj
 0001:00017b80       ??0?$_Vb_reference@V?$vector@_NV?$allocator@_N@std@@@std@@@std@@QAE@ABV?$_Vb_iter_base@V?$vector@_NV?$allocator@_N@std@@@std@@@1@@Z 10018b80 f i PlugInUtilities:RasterUtilities.obj
 0001:00017bb0       ??0?$_Vector_iterator@NV?$allocator@N@std@@@std@@QAE@PANPBU_Container_base@1@@Z 10018bb0 f i PlugInUtilities:RasterUtilities.obj
 0001:00017bf0       ??H?$_Vector_iterator@NV?$allocator@N@std@@@std@@QBE?AV01@H@Z 10018bf0 f i PlugInUtilities:RasterUtilities.obj
 0001:00017c30       ??0?$_Vector_iterator@DV?$allocator@D@std@@@std@@QAE@PADPBU_Container_base@1@@Z 10018c30 f i PlugInUtilities:RasterUtilities.obj
 0001:00017c70       ??H?$_Vector_iterator@DV?$allocator@D@std@@@std@@QBE?AV01@H@Z 10018c70 f i PlugInUtilities:RasterUtilities.obj
 0001:00017cb0       ??0?$_Vector_iterator@EV?$allocator@E@std@@@std@@QAE@PAEPBU_Container_base@1@@Z 10018cb0 f i PlugInUtilities:RasterUtilities.obj
 0001:00017cf0       ??H?$_Vector_iterator@EV?$allocator@E@std@@@std@@QBE?AV01@H@Z 10018cf0 f i PlugInUtilities:RasterUtilities.obj
 0001:00017d30       ??0?$_Vector_iterator@FV?$allocator@F@std@@@std@@QAE@PAFPBU_Container_base@1@@Z 10018d30 f i PlugInUtilities:RasterUtilities.obj
 0001:00017d70       ??H?$_Vector_iterator@FV?$allocator@F@std@@@std@@QBE?AV01@H@Z 10018d70 f i PlugInUtilities:RasterUtilities.obj
 0001:00017db0       ??0?$_Vector_iterator@GV?$allocator@G@std@@@std@@QAE@PAGPBU_Container_base@1@@Z 10018db0 f i PlugInUtilities:RasterUtilities.obj
 0001:00017df0       ??H?$_Vector_iterator@GV?$allocator@G@std@@@std@@QBE?AV01@H@Z 10018df0 f i PlugInUtilities:RasterUtilities.obj
 0001:00017e30       ??0?$_Vector_iterator@IV?$allocator@I@std@@@std@@QAE@PAIPBU_Container_base@1@@Z 10018e30 f i PlugInUtilities:RasterUtilities.obj
 0001:00017e70       ??H?$_Vector_iterator@IV?$allocator@I@std@@@std@@QBE?AV01@H@Z 10018e70 f i PlugInUtilities:RasterUtilities.obj
 0001:00017eb0       ??0?$_Vector_iterator@JV?$allocator@J@std@@@std@@QAE@PAJPBU_Container_base@1@@Z 10018eb0 f i PlugInUtilities:RasterUtilities.obj
 0001:00017ef0       ??H?$_Vector_iterator@JV?$allocator@J@std@@@std@@QBE?AV01@H@Z 10018ef0 f i PlugInUtilities:RasterUtilities.obj
 0001:00017f30       ??0?$_Vector_iterator@KV?$allocator@K@std@@@std@@QAE@PAKPBU_Container_base@1@@Z 10018f30 f i PlugInUtilities:RasterUtilities.obj
 0001:00017f70       ??H?$_Vector_iterator@KV?$allocator@K@std@@@std@@QBE?AV01@H@Z 10018f70 f i PlugInUtilities:RasterUtilities.obj
 0001:00017fb0       ??0?$_Vector_iterator@_JV?$allocator@_J@std@@@std@@QAE@PA_JPBU_Container_base@1@@Z 10018fb0 f i PlugInUtilities:RasterUtilities.obj
 0001:00017ff0       ??H?$_Vector_iterator@_JV?$allocator@_J@std@@@std@@QBE?AV01@H@Z 10018ff0 f i PlugInUtilities:RasterUtilities.obj
 0001:00018030       ??0?$_Vector_iterator@_KV?$allocator@_K@std@@@std@@QAE@PA_KPBU_Container_base@1@@Z 10019030 f i PlugInUtilities:RasterUtilities.obj
 0001:00018070       ??H?$_Vector_iterator@_KV?$allocator@_K@std@@@std@@QBE?AV01@H@Z 10019070 f i PlugInUtilities:RasterUtilities.obj
 0001:000180b0       ??0?$_Vector_iterator@VInt64@@V?$allocator@VInt64@@@std@@@std@@QAE@PAVInt64@@PBU_Container_base@1@@Z 100190b0 f i PlugInUtilities:RasterUtilities.obj
 0001:000180f0       ??H?$_Vector_iterator@VInt64@@V?$allocator@VInt64@@@std@@@std@@QBE?AV01@H@Z 100190f0 f i PlugInUtilities:RasterUtilities.obj
 0001:00018130       ??0?$_Vector_iterator@VUInt64@@V?$allocator@VUInt64@@@std@@@std@@QAE@PAVUInt64@@PBU_Container_base@1@@Z 10019130 f i PlugInUtilities:RasterUtilities.obj
 0001:00018170       ??H?$_Vector_iterator@VUInt64@@V?$allocator@VUInt64@@@std@@@std@@QBE?AV01@H@Z 10019170 f i PlugInUtilities:RasterUtilities.obj
 0001:000181b0       ??0?$_Vector_iterator@MV?$allocator@M@std@@@std@@QAE@PAMPBU_Container_base@1@@Z 100191b0 f i PlugInUtilities:RasterUtilities.obj
 0001:000181f0       ??H?$_Vector_iterator@MV?$allocator@M@std@@@std@@QBE?AV01@H@Z 100191f0 f i PlugInUtilities:RasterUtilities.obj
 0001:00018230       ??0?$_Vb_iterator@V?$vector@_NV?$allocator@_N@std@@@std@@@std@@QAE@PAIPAV?$vector@_NV?$allocator@_N@std@@@1@@Z 10019230 f i PlugInUtilities:RasterUtilities.obj
 0001:00018260       ?erase@?$vector@HV?$allocator@H@std@@@std@@QAE?AV?$_Vector_iterator@HV?$allocator@H@std@@@2@V32@0@Z 10019260 f i PlugInUtilities:RasterUtilities.obj
 0001:000182c0       ??$_Checked_base@V?$_Vector_iterator@V?$Location@H$01@Opticks@@V?$allocator@V?$Location@H$01@Opticks@@@std@@@std@@@std@@YAPAV?$Location@H$01@Opticks@@AAV?$_Vector_iterator@V?$Location@H$01@Opticks@@V?$allocator@V?$Location@H$01@Opticks@@@std@@@0@@Z 100192c0 f i PlugInUtilities:RasterUtilities.obj
 0001:000182d0       ??$_Checked_base@V?$_Vector_iterator@VDimensionDescriptor@@V?$allocator@VDimensionDescriptor@@@std@@@std@@@std@@YAPAVDimensionDescriptor@@AAV?$_Vector_iterator@VDimensionDescriptor@@V?$allocator@VDimensionDescriptor@@@std@@@0@@Z 100192d0 f i PlugInUtilities:RasterUtilities.obj
 0001:000182e0       ??$_Transform@PAVDimensionDescriptor@@V?$_Vector_iterator@VDimensionDescriptor@@V?$allocator@VDimensionDescriptor@@@std@@@std@@VSetOnDiskNumber@?A0x92b3477e@@@std@@YA?AV?$_Vector_iterator@VDimensionDescriptor@@V?$allocator@VDimensionDescriptor@@@std@@@0@PAVDimensionDescriptor@@0V10@VSetOnDiskNumber@?A0x92b3477e@@Urandom_access_iterator_tag@0@U_Range_checked_iterator_tag@0@@Z 100192e0 f i PlugInUtilities:RasterUtilities.obj
 0001:00018360       ??$_Checked_base@V?$_Vector_const_iterator@VDimensionDescriptor@@V?$allocator@VDimensionDescriptor@@@std@@@std@@@std@@YAPBVDimensionDescriptor@@AAV?$_Vector_const_iterator@VDimensionDescriptor@@V?$allocator@VDimensionDescriptor@@@std@@@0@@Z 10019360 f i PlugInUtilities:RasterUtilities.obj
 0001:00018370       ??$_Checked_base@V?$_Vector_iterator@HV?$allocator@H@std@@@std@@@std@@YAPAHAAV?$_Vector_iterator@HV?$allocator@H@std@@@0@@Z 10019370 f i PlugInUtilities:RasterUtilities.obj
 0001:00018380       ??$unchecked_uninitialized_copy@V?$_Vector_const_iterator@VDimensionDescriptor@@V?$allocator@VDimensionDescriptor@@@std@@@std@@PAVDimensionDescriptor@@V?$allocator@VDimensionDescriptor@@@2@@stdext@@YAPAVDimensionDescriptor@@V?$_Vector_const_iterator@VDimensionDescriptor@@V?$allocator@VDimensionDescriptor@@@std@@@std@@0PAV1@AAV?$allocator@VDimensionDescriptor@@@3@@Z 10019380 f i PlugInUtilities:RasterUtilities.obj
 0001:000183b0       ??$_Uninit_fill_n@PAVDimensionDescriptor@@IV1@V?$allocator@VDimensionDescriptor@@@std@@@std@@YAXPAVDimensionDescriptor@@IABV1@AAV?$allocator@VDimensionDescriptor@@@0@U_Nonscalar_ptr_iterator_tag@0@U_Range_checked_iterator_tag@0@@Z 100193b0 f i PlugInUtilities:RasterUtilities.obj
 0001:000183f0       ??$_Uninit_fill_n@PAV?$EnumWrapper@W4RasterChannelTypeEnum@@@@IV1@V?$allocator@V?$EnumWrapper@W4RasterChannelTypeEnum@@@@@std@@@std@@YAXPAV?$EnumWrapper@W4RasterChannelTypeEnum@@@@IABV1@AAV?$allocator@V?$EnumWrapper@W4RasterChannelTypeEnum@@@@@0@U_Nonscalar_ptr_iterator_tag@0@U_Range_checked_iterator_tag@0@@Z 100193f0 f i PlugInUtilities:RasterUtilities.obj
 0001:00018420       ??$_Destroy_range@VDimensionDescriptor@@V?$allocator@VDimensionDescriptor@@@std@@@std@@YAXPAVDimensionDescriptor@@0AAV?$allocator@VDimensionDescriptor@@@0@U_Nonscalar_ptr_iterator_tag@0@@Z 10019420 f i PlugInUtilities:RasterUtilities.obj
 0001:00018430       ??$_Move_backward_opt@PAVDimensionDescriptor@@PAV1@Urandom_access_iterator_tag@std@@U_Undefined_move_tag@3@@std@@YAPAVDimensionDescriptor@@PAV1@00Urandom_access_iterator_tag@0@U_Undefined_move_tag@0@U_Range_checked_iterator_tag@0@@Z 10019430 f i PlugInUtilities:RasterUtilities.obj
 0001:00018480       ??$_Move_backward_opt@PAV?$Location@H$01@Opticks@@PAV12@Urandom_access_iterator_tag@std@@U_Undefined_move_tag@4@@std@@YAPAV?$Location@H$01@Opticks@@PAV12@00Urandom_access_iterator_tag@0@U_Undefined_move_tag@0@U_Range_checked_iterator_tag@0@@Z 10019480 f i PlugInUtilities:RasterUtilities.obj
 0001:000184a0       ??$_Destroy_range@V?$EnumWrapper@W4RasterChannelTypeEnum@@@@V?$allocator@V?$EnumWrapper@W4RasterChannelTypeEnum@@@@@std@@@std@@YAXPAV?$EnumWrapper@W4RasterChannelTypeEnum@@@@0AAV?$allocator@V?$EnumWrapper@W4RasterChannelTypeEnum@@@@@0@U_Nonscalar_ptr_iterator_tag@0@@Z 100194a0 f i PlugInUtilities:RasterUtilities.obj
 0001:000184b0       ??$_Move_backward_opt@PAV?$EnumWrapper@W4RasterChannelTypeEnum@@@@PAV1@Urandom_access_iterator_tag@std@@U_Undefined_move_tag@3@@std@@YAPAV?$EnumWrapper@W4RasterChannelTypeEnum@@@@PAV1@00Urandom_access_iterator_tag@0@U_Undefined_move_tag@0@U_Range_checked_iterator_tag@0@@Z 100194b0 f i PlugInUtilities:RasterUtilities.obj
 0001:000184f0       ??$unchecked_copy@PANPAN@stdext@@YAPANPAN00@Z 100194f0 f i PlugInUtilities:RasterUtilities.obj
 0001:00018530       ??$_Ucopy@PAN@?$vector@NV?$allocator@N@std@@@std@@IAEPANPAN00@Z 10019530 f i PlugInUtilities:RasterUtilities.obj
 0001:00018570       ??$_Ucopy@PAH@?$vector@HV?$allocator@H@std@@@std@@IAEPAHPAH00@Z 10019570 f i PlugInUtilities:RasterUtilities.obj
 0001:000185b0       ??$unchecked_copy@PADPAD@stdext@@YAPADPAD00@Z 100195b0 f i PlugInUtilities:RasterUtilities.obj
 0001:000185e0       ??$_Ucopy@PAD@?$vector@DV?$allocator@D@std@@@std@@IAEPADPAD00@Z 100195e0 f i PlugInUtilities:RasterUtilities.obj
 0001:00018610       ??$unchecked_copy@PAEPAE@stdext@@YAPAEPAE00@Z 10019610 f i PlugInUtilities:RasterUtilities.obj
 0001:00018640       ??$_Ucopy@PAE@?$vector@EV?$allocator@E@std@@@std@@IAEPAEPAE00@Z 10019640 f i PlugInUtilities:RasterUtilities.obj
 0001:00018670       ??$unchecked_copy@PAFPAF@stdext@@YAPAFPAF00@Z 10019670 f i PlugInUtilities:RasterUtilities.obj
 0001:000186a0       ??$_Ucopy@PAF@?$vector@FV?$allocator@F@std@@@std@@IAEPAFPAF00@Z 100196a0 f i PlugInUtilities:RasterUtilities.obj
 0001:000186d0       ??$unchecked_copy@PAGPAG@stdext@@YAPAGPAG00@Z 100196d0 f i PlugInUtilities:RasterUtilities.obj
 0001:00018700       ??$_Ucopy@PAG@?$vector@GV?$allocator@G@std@@@std@@IAEPAGPAG00@Z 10019700 f i PlugInUtilities:RasterUtilities.obj
 0001:00018730       ??$unchecked_copy@PAIPAI@stdext@@YAPAIPAI00@Z 10019730 f i PlugInUtilities:RasterUtilities.obj
 0001:00018770       ??$_Ucopy@PAI@?$vector@IV?$allocator@I@std@@@std@@IAEPAIPAI00@Z 10019770 f i PlugInUtilities:RasterUtilities.obj
 0001:000187b0       ??$unchecked_copy@PAJPAJ@stdext@@YAPAJPAJ00@Z 100197b0 f i PlugInUtilities:RasterUtilities.obj
 0001:000187f0       ??$_Ucopy@PAJ@?$vector@JV?$allocator@J@std@@@std@@IAEPAJPAJ00@Z 100197f0 f i PlugInUtilities:RasterUtilities.obj
 0001:00018830       ??$unchecked_copy@PAKPAK@stdext@@YAPAKPAK00@Z 10019830 f i PlugInUtilities:RasterUtilities.obj
 0001:00018870       ??$_Ucopy@PAK@?$vector@KV?$allocator@K@std@@@std@@IAEPAKPAK00@Z 10019870 f i PlugInUtilities:RasterUtilities.obj
 0001:000188b0       ??$unchecked_copy@PA_JPA_J@stdext@@YAPA_JPA_J00@Z 100198b0 f i PlugInUtilities:RasterUtilities.obj
 0001:000188f0       ??$_Ucopy@PA_J@?$vector@_JV?$allocator@_J@std@@@std@@IAEPA_JPA_J00@Z 100198f0 f i PlugInUtilities:RasterUtilities.obj
 0001:00018930       ??$unchecked_copy@PA_KPA_K@stdext@@YAPA_KPA_K00@Z 10019930 f i PlugInUtilities:RasterUtilities.obj
 0001:00018970       ??$_Ucopy@PA_K@?$vector@_KV?$allocator@_K@std@@@std@@IAEPA_KPA_K00@Z 10019970 f i PlugInUtilities:RasterUtilities.obj
 0001:000189b0       ??$unchecked_copy@PAVInt64@@PAV1@@stdext@@YAPAVInt64@@PAV1@00@Z 100199b0 f i PlugInUtilities:RasterUtilities.obj
 0001:000189e0       ??$unchecked_copy@PAVUInt64@@PAV1@@stdext@@YAPAVUInt64@@PAV1@00@Z 100199e0 f i PlugInUtilities:RasterUtilities.obj
 0001:00018a10       ??$unchecked_copy@PAMPAM@stdext@@YAPAMPAM00@Z 10019a10 f i PlugInUtilities:RasterUtilities.obj
 0001:00018a50       ??$_Ucopy@PAM@?$vector@MV?$allocator@M@std@@@std@@IAEPAMPAM00@Z 10019a50 f i PlugInUtilities:RasterUtilities.obj
 0001:00018a90       ??$fill@PANN@std@@YAXPAN0ABN@Z 10019a90 f i PlugInUtilities:RasterUtilities.obj
 0001:00018ab0       ??$_Unchecked_move_backward@PANPAN@stdext@@YAPANPAN00@Z 10019ab0 f i PlugInUtilities:RasterUtilities.obj
 0001:00018ae0       ??$fill@PADD@std@@YAXPAD0ABD@Z 10019ae0 f i PlugInUtilities:RasterUtilities.obj
 0001:00018b00       ??$_Unchecked_move_backward@PADPAD@stdext@@YAPADPAD00@Z 10019b00 f i PlugInUtilities:RasterUtilities.obj
 0001:00018b30       ??$fill@PAEE@std@@YAXPAE0ABE@Z 10019b30 f i PlugInUtilities:RasterUtilities.obj
 0001:00018b50       ??$_Unchecked_move_backward@PAEPAE@stdext@@YAPAEPAE00@Z 10019b50 f i PlugInUtilities:RasterUtilities.obj
 0001:00018b80       ??$fill@PAFF@std@@YAXPAF0ABF@Z 10019b80 f i PlugInUtilities:RasterUtilities.obj
 0001:00018ba0       ??$_Unchecked_move_backward@PAFPAF@stdext@@YAPAFPAF00@Z 10019ba0 f i PlugInUtilities:RasterUtilities.obj
 0001:00018bd0       ??$fill@PAGG@std@@YAXPAG0ABG@Z 10019bd0 f i PlugInUtilities:RasterUtilities.obj
 0001:00018bf0       ??$_Unchecked_move_backward@PAGPAG@stdext@@YAPAGPAG00@Z 10019bf0 f i PlugInUtilities:RasterUtilities.obj
 0001:00018c20       ??$fill@PAII@std@@YAXPAI0ABI@Z 10019c20 f i PlugInUtilities:RasterUtilities.obj
 0001:00018c40       ??$_Unchecked_move_backward@PAIPAI@stdext@@YAPAIPAI00@Z 10019c40 f i PlugInUtilities:RasterUtilities.obj
 0001:00018c70       ??$fill@PAJJ@std@@YAXPAJ0ABJ@Z 10019c70 f i PlugInUtilities:RasterUtilities.obj
 0001:00018c90       ??$_Unchecked_move_backward@PAJPAJ@stdext@@YAPAJPAJ00@Z 10019c90 f i PlugInUtilities:RasterUtilities.obj
 0001:00018cc0       ??$fill@PAKK@std@@YAXPAK0ABK@Z 10019cc0 f i PlugInUtilities:RasterUtilities.obj
 0001:00018ce0       ??$_Unchecked_move_backward@PAKPAK@stdext@@YAPAKPAK00@Z 10019ce0 f i PlugInUtilities:RasterUtilities.obj
 0001:00018d10       ??$fill@PA_J_J@std@@YAXPA_J0AB_J@Z 10019d10 f i PlugInUtilities:RasterUtilities.obj
 0001:00018d40       ??$_Unchecked_move_backward@PA_JPA_J@stdext@@YAPA_JPA_J00@Z 10019d40 f i PlugInUtilities:RasterUtilities.obj
 0001:00018d70       ??$fill@PA_K_K@std@@YAXPA_K0AB_K@Z 10019d70 f i PlugInUtilities:RasterUtilities.obj
 0001:00018da0       ??$_Unchecked_move_backward@PA_KPA_K@stdext@@YAPA_KPA_K00@Z 10019da0 f i PlugInUtilities:RasterUtilities.obj
 0001:00018dd0       ??$fill@PAVInt64@@V1@@std@@YAXPAVInt64@@0ABV1@@Z 10019dd0 f i PlugInUtilities:RasterUtilities.obj
 0001:00018e00       ??$fill@PAVUInt64@@V1@@std@@YAXPAVUInt64@@0ABV1@@Z 10019e00 f i PlugInUtilities:RasterUtilities.obj
 0001:00018e30       ??$fill@PAMM@std@@YAXPAM0ABM@Z 10019e30 f i PlugInUtilities:RasterUtilities.obj
 0001:00018e50       ??$_Unchecked_move_backward@PAMPAM@stdext@@YAPAMPAM00@Z 10019e50 f i PlugInUtilities:RasterUtilities.obj
 0001:00018e80       ?destroy@?$allocator@V?$Location@H$01@Opticks@@@std@@QAEXPAV?$Location@H$01@Opticks@@@Z 10019e80 f i PlugInUtilities:RasterUtilities.obj
 0001:00018e90       ??$?RV?$mf1@XVDimensionDescriptor@@_N@_mfi@boost@@V?$list1@AAVDimensionDescriptor@@@_bi@2@@?$list2@V?$arg@$00@boost@@V?$value@_N@_bi@2@@_bi@boost@@QAEXV?$type@X@12@AAV?$mf1@XVDimensionDescriptor@@_N@_mfi@2@AAV?$list1@AAVDimensionDescriptor@@@12@H@Z 10019e90 f i PlugInUtilities:RasterUtilities.obj
 0001:00018eb0       ??$_Checked_base@V?$_Vector_const_iterator@V?$EnumWrapper@W4RasterChannelTypeEnum@@@@V?$allocator@V?$EnumWrapper@W4RasterChannelTypeEnum@@@@@std@@@std@@@std@@YAPBV?$EnumWrapper@W4RasterChannelTypeEnum@@@@AAV?$_Vector_const_iterator@V?$EnumWrapper@W4RasterChannelTypeEnum@@@@V?$allocator@V?$EnumWrapper@W4RasterChannelTypeEnum@@@@@std@@@0@@Z 10019eb0 f i PlugInUtilities:RasterUtilities.obj
 0001:00018ec0       ??$_Checked_base@V?$_Vector_const_iterator@HV?$allocator@H@std@@@std@@@std@@YAPBHAAV?$_Vector_const_iterator@HV?$allocator@H@std@@@0@@Z 10019ec0 f i PlugInUtilities:RasterUtilities.obj
 0001:00018ed0       ??$unchecked_fill_n@PAHIH@stdext@@YAXPAHIABH@Z 10019ed0 f i PlugInUtilities:RasterUtilities.obj
 0001:00018f00       ??$_Uninit_move@PAHPAHV?$allocator@H@std@@U_Undefined_move_tag@2@@std@@YAPAHPAH00AAV?$allocator@H@0@U_Undefined_move_tag@0@U_Range_checked_iterator_tag@0@@Z 10019f00 f i PlugInUtilities:RasterUtilities.obj
 0001:00018f30       ??$_Unchecked_uninitialized_move@V?$_Vector_iterator@HV?$allocator@H@std@@@std@@PAHV?$allocator@H@2@@stdext@@YAPAHV?$_Vector_iterator@HV?$allocator@H@std@@@std@@0PAHAAV?$allocator@H@2@@Z 10019f30 f i PlugInUtilities:RasterUtilities.obj
 0001:00018f60       ??$unchecked_uninitialized_copy@PAVInt64@@PAV1@V?$allocator@VInt64@@@std@@@stdext@@YAPAVInt64@@PAV1@00AAV?$allocator@VInt64@@@std@@@Z 10019f60 f i PlugInUtilities:RasterUtilities.obj
 0001:00018f90       ??$_Destroy_range@VInt64@@V?$allocator@VInt64@@@std@@@std@@YAXPAVInt64@@0AAV?$allocator@VInt64@@@0@U_Nonscalar_ptr_iterator_tag@0@@Z 10019f90 f i PlugInUtilities:RasterUtilities.obj
 0001:00018fa0       ??$_Uninit_fill_n@PAVInt64@@IV1@V?$allocator@VInt64@@@std@@@std@@YAXPAVInt64@@IABV1@AAV?$allocator@VInt64@@@0@U_Nonscalar_ptr_iterator_tag@0@U_Range_checked_iterator_tag@0@@Z 10019fa0 f i PlugInUtilities:RasterUtilities.obj
 0001:00018fd0       ??$unchecked_uninitialized_copy@PAVUInt64@@PAV1@V?$allocator@VUInt64@@@std@@@stdext@@YAPAVUInt64@@PAV1@00AAV?$allocator@VUInt64@@@std@@@Z 10019fd0 f i PlugInUtilities:RasterUtilities.obj
 0001:00019000       ??$_Destroy_range@VUInt64@@V?$allocator@VUInt64@@@std@@@std@@YAXPAVUInt64@@0AAV?$allocator@VUInt64@@@0@U_Nonscalar_ptr_iterator_tag@0@@Z 1001a000 f i PlugInUtilities:RasterUtilities.obj
 0001:00019010       ??$_Uninit_fill_n@PAVUInt64@@IV1@V?$allocator@VUInt64@@@std@@@std@@YAXPAVUInt64@@IABV1@AAV?$allocator@VUInt64@@@0@U_Nonscalar_ptr_iterator_tag@0@U_Range_checked_iterator_tag@0@@Z 1001a010 f i PlugInUtilities:RasterUtilities.obj
 0001:00019040       ??$_Unchecked_uninitialized_move@PANPANV?$allocator@N@std@@@stdext@@YAPANPAN00AAV?$allocator@N@std@@@Z 1001a040 f i PlugInUtilities:RasterUtilities.obj
 0001:00019070       ??$_Unchecked_uninitialized_move@PADPADV?$allocator@D@std@@@stdext@@YAPADPAD00AAV?$allocator@D@std@@@Z 1001a070 f i PlugInUtilities:RasterUtilities.obj
 0001:000190a0       ??$_Unchecked_uninitialized_move@PAEPAEV?$allocator@E@std@@@stdext@@YAPAEPAE00AAV?$allocator@E@std@@@Z 1001a0a0 f i PlugInUtilities:RasterUtilities.obj
 0001:000190d0       ??$_Unchecked_uninitialized_move@PAFPAFV?$allocator@F@std@@@stdext@@YAPAFPAF00AAV?$allocator@F@std@@@Z 1001a0d0 f i PlugInUtilities:RasterUtilities.obj
 0001:00019100       ??$_Unchecked_uninitialized_move@PAGPAGV?$allocator@G@std@@@stdext@@YAPAGPAG00AAV?$allocator@G@std@@@Z 1001a100 f i PlugInUtilities:RasterUtilities.obj
 0001:00019130       ??$_Unchecked_uninitialized_move@PAIPAIV?$allocator@I@std@@@stdext@@YAPAIPAI00AAV?$allocator@I@std@@@Z 1001a130 f i PlugInUtilities:RasterUtilities.obj
 0001:00019160       ??$_Unchecked_uninitialized_move@PAJPAJV?$allocator@J@std@@@stdext@@YAPAJPAJ00AAV?$allocator@J@std@@@Z 1001a160 f i PlugInUtilities:RasterUtilities.obj
 0001:00019190       ??$_Unchecked_uninitialized_move@PAKPAKV?$allocator@K@std@@@stdext@@YAPAKPAK00AAV?$allocator@K@std@@@Z 1001a190 f i PlugInUtilities:RasterUtilities.obj
 0001:000191c0       ??$_Unchecked_uninitialized_move@PA_JPA_JV?$allocator@_J@std@@@stdext@@YAPA_JPA_J00AAV?$allocator@_J@std@@@Z 1001a1c0 f i PlugInUtilities:RasterUtilities.obj
 0001:000191f0       ??$_Unchecked_uninitialized_move@PA_KPA_KV?$allocator@_K@std@@@stdext@@YAPA_KPA_K00AAV?$allocator@_K@std@@@Z 1001a1f0 f i PlugInUtilities:RasterUtilities.obj
 0001:00019220       ??$_Move_backward_opt@PAVInt64@@PAV1@Urandom_access_iterator_tag@std@@U_Undefined_move_tag@3@@std@@YAPAVInt64@@PAV1@00Urandom_access_iterator_tag@0@U_Undefined_move_tag@0@U_Range_checked_iterator_tag@0@@Z 1001a220 f i PlugInUtilities:RasterUtilities.obj
 0001:00019240       ??$_Move_backward_opt@PAVUInt64@@PAV1@Urandom_access_iterator_tag@std@@U_Undefined_move_tag@3@@std@@YAPAVUInt64@@PAV1@00Urandom_access_iterator_tag@0@U_Undefined_move_tag@0@U_Range_checked_iterator_tag@0@@Z 1001a240 f i PlugInUtilities:RasterUtilities.obj
 0001:00019260       ??$_Unchecked_uninitialized_move@PAMPAMV?$allocator@M@std@@@stdext@@YAPAMPAM00AAV?$allocator@M@std@@@Z 1001a260 f i PlugInUtilities:RasterUtilities.obj
 0001:00019290       ??$_Equal@PBVDimensionDescriptor@@PBV1@Uforward_iterator_tag@std@@@std@@YA_NPBVDimensionDescriptor@@00Uforward_iterator_tag@0@U_Range_checked_iterator_tag@0@@Z 1001a290 f i PlugInUtilities:RasterUtilities.obj
 0001:000192d0       ??$unchecked_uninitialized_copy@PAVDimensionDescriptor@@PAV1@V?$allocator@VDimensionDescriptor@@@std@@@stdext@@YAPAVDimensionDescriptor@@PAV1@00AAV?$allocator@VDimensionDescriptor@@@std@@@Z 1001a2d0 f i PlugInUtilities:RasterUtilities.obj
 0001:00019300       ??$unchecked_uninitialized_copy@PAV?$EnumWrapper@W4RasterChannelTypeEnum@@@@PAV1@V?$allocator@V?$EnumWrapper@W4RasterChannelTypeEnum@@@@@std@@@stdext@@YAPAV?$EnumWrapper@W4RasterChannelTypeEnum@@@@PAV1@00AAV?$allocator@V?$EnumWrapper@W4RasterChannelTypeEnum@@@@@std@@@Z 1001a300 f i PlugInUtilities:RasterUtilities.obj
 0001:00019330       ??$_Checked_base@V?$_Vector_iterator@V?$basic_string@DU?$char_traits@D@std@@V?$allocator@D@2@@std@@V?$allocator@V?$basic_string@DU?$char_traits@D@std@@V?$allocator@D@2@@std@@@2@@std@@@std@@YAPAV?$basic_string@DU?$char_traits@D@std@@V?$allocator@D@2@@0@AAV?$_Vector_iterator@V?$basic_string@DU?$char_traits@D@std@@V?$allocator@D@2@@std@@V?$allocator@V?$basic_string@DU?$char_traits@D@std@@V?$allocator@D@2@@std@@@2@@0@@Z 1001a330 f i PlugInUtilities:RasterUtilities.obj
 0001:00019340       ??$_Checked_base@V?$_Vector_iterator@NV?$allocator@N@std@@@std@@@std@@YAPANAAV?$_Vector_iterator@NV?$allocator@N@std@@@0@@Z 1001a340 f i PlugInUtilities:RasterUtilities.obj
 0001:00019350       ??$_Checked_base@V?$_Vector_iterator@DV?$allocator@D@std@@@std@@@std@@YAPADAAV?$_Vector_iterator@DV?$allocator@D@std@@@0@@Z 1001a350 f i PlugInUtilities:RasterUtilities.obj
 0001:00019360       ??$_Checked_base@V?$_Vector_iterator@EV?$allocator@E@std@@@std@@@std@@YAPAEAAV?$_Vector_iterator@EV?$allocator@E@std@@@0@@Z 1001a360 f i PlugInUtilities:RasterUtilities.obj
 0001:00019370       ??$_Checked_base@V?$_Vector_iterator@FV?$allocator@F@std@@@std@@@std@@YAPAFAAV?$_Vector_iterator@FV?$allocator@F@std@@@0@@Z 1001a370 f i PlugInUtilities:RasterUtilities.obj
 0001:00019380       ??$_Checked_base@V?$_Vector_iterator@GV?$allocator@G@std@@@std@@@std@@YAPAGAAV?$_Vector_iterator@GV?$allocator@G@std@@@0@@Z 1001a380 f i PlugInUtilities:RasterUtilities.obj
 0001:00019390       ??$_Checked_base@V?$_Vector_iterator@IV?$allocator@I@std@@@std@@@std@@YAPAIAAV?$_Vector_iterator@IV?$allocator@I@std@@@0@@Z 1001a390 f i PlugInUtilities:RasterUtilities.obj
 0001:000193a0       ??$_Checked_base@V?$_Vector_iterator@JV?$allocator@J@std@@@std@@@std@@YAPAJAAV?$_Vector_iterator@JV?$allocator@J@std@@@0@@Z 1001a3a0 f i PlugInUtilities:RasterUtilities.obj
 0001:000193b0       ??$_Checked_base@V?$_Vector_iterator@KV?$allocator@K@std@@@std@@@std@@YAPAKAAV?$_Vector_iterator@KV?$allocator@K@std@@@0@@Z 1001a3b0 f i PlugInUtilities:RasterUtilities.obj
 0001:000193c0       ??$_Checked_base@V?$_Vector_iterator@_JV?$allocator@_J@std@@@std@@@std@@YAPA_JAAV?$_Vector_iterator@_JV?$allocator@_J@std@@@0@@Z 1001a3c0 f i PlugInUtilities:RasterUtilities.obj
 0001:000193d0       ??$_Checked_base@V?$_Vector_iterator@_KV?$allocator@_K@std@@@std@@@std@@YAPA_KAAV?$_Vector_iterator@_KV?$allocator@_K@std@@@0@@Z 1001a3d0 f i PlugInUtilities:RasterUtilities.obj
 0001:000193e0       ??$_Checked_base@V?$_Vector_iterator@VInt64@@V?$allocator@VInt64@@@std@@@std@@@std@@YAPAVInt64@@AAV?$_Vector_iterator@VInt64@@V?$allocator@VInt64@@@std@@@0@@Z 1001a3e0 f i PlugInUtilities:RasterUtilities.obj
 0001:000193f0       ??$_Uninit_move@PAVInt64@@PAV1@V?$allocator@VInt64@@@std@@U_Undefined_move_tag@3@@std@@YAPAVInt64@@PAV1@00AAV?$allocator@VInt64@@@0@U_Undefined_move_tag@0@U_Range_checked_iterator_tag@0@@Z 1001a3f0 f i PlugInUtilities:RasterUtilities.obj
 0001:00019410       ??$_Checked_base@V?$_Vector_iterator@VUInt64@@V?$allocator@VUInt64@@@std@@@std@@@std@@YAPAVUInt64@@AAV?$_Vector_iterator@VUInt64@@V?$allocator@VUInt64@@@std@@@0@@Z 1001a410 f i PlugInUtilities:RasterUtilities.obj
 0001:00019420       ??$_Uninit_move@PAVUInt64@@PAV1@V?$allocator@VUInt64@@@std@@U_Undefined_move_tag@3@@std@@YAPAVUInt64@@PAV1@00AAV?$allocator@VUInt64@@@0@U_Undefined_move_tag@0@U_Range_checked_iterator_tag@0@@Z 1001a420 f i PlugInUtilities:RasterUtilities.obj
 0001:00019440       ??$_Checked_base@V?$_Vector_iterator@MV?$allocator@M@std@@@std@@@std@@YAPAMAAV?$_Vector_iterator@MV?$allocator@M@std@@@0@@Z 1001a440 f i PlugInUtilities:RasterUtilities.obj
 0001:00019450       ??$_Uninit_copy@PAV?$basic_string@DU?$char_traits@D@std@@V?$allocator@D@2@@std@@PAV12@V?$allocator@V?$basic_string@DU?$char_traits@D@std@@V?$allocator@D@2@@std@@@2@@std@@YAPAV?$basic_string@DU?$char_traits@D@std@@V?$allocator@D@2@@0@PAV10@00AAV?$allocator@V?$basic_string@DU?$char_traits@D@std@@V?$allocator@D@2@@std@@@0@U_Nonscalar_ptr_iterator_tag@0@U_Range_checked_iterator_tag@0@@Z 1001a450 f i PlugInUtilities:RasterUtilities.obj
 0001:000194e0       ??$_Checked_base@V?$_Vector_const_iterator@NV?$allocator@N@std@@@std@@@std@@YAPBNAAV?$_Vector_const_iterator@NV?$allocator@N@std@@@0@@Z 1001a4e0 f i PlugInUtilities:RasterUtilities.obj
 0001:000194f0       ??$unchecked_fill_n@PANIN@stdext@@YAXPANIABN@Z 1001a4f0 f i PlugInUtilities:RasterUtilities.obj
 0001:00019510       ??$_Checked_base@V?$_Vector_const_iterator@DV?$allocator@D@std@@@std@@@std@@YAPBDAAV?$_Vector_const_iterator@DV?$allocator@D@std@@@0@@Z 1001a510 f i PlugInUtilities:RasterUtilities.obj
 0001:00019520       ??$unchecked_fill_n@PADID@stdext@@YAXPADIABD@Z 1001a520 f i PlugInUtilities:RasterUtilities.obj
 0001:00019550       ??$_Checked_base@V?$_Vector_const_iterator@EV?$allocator@E@std@@@std@@@std@@YAPBEAAV?$_Vector_const_iterator@EV?$allocator@E@std@@@0@@Z 1001a550 f i PlugInUtilities:RasterUtilities.obj
 0001:00019560       ??$unchecked_fill_n@PAEIE@stdext@@YAXPAEIABE@Z 1001a560 f i PlugInUtilities:RasterUtilities.obj
 0001:00019590       ??$_Checked_base@V?$_Vector_const_iterator@FV?$allocator@F@std@@@std@@@std@@YAPBFAAV?$_Vector_const_iterator@FV?$allocator@F@std@@@0@@Z 1001a590 f i PlugInUtilities:RasterUtilities.obj
 0001:000195a0       ??$unchecked_fill_n@PAFIF@stdext@@YAXPAFIABF@Z 1001a5a0 f i PlugInUtilities:RasterUtilities.obj
 0001:000195d0       ??$_Checked_base@V?$_Vector_const_iterator@GV?$allocator@G@std@@@std@@@std@@YAPBGAAV?$_Vector_const_iterator@GV?$allocator@G@std@@@0@@Z 1001a5d0 f i PlugInUtilities:RasterUtilities.obj
 0001:000195e0       ??$unchecked_fill_n@PAGIG@stdext@@YAXPAGIABG@Z 1001a5e0 f i PlugInUtilities:RasterUtilities.obj
 0001:00019610       ??$_Checked_base@V?$_Vector_const_iterator@IV?$allocator@I@std@@@std@@@std@@YAPBIAAV?$_Vector_const_iterator@IV?$allocator@I@std@@@0@@Z 1001a610 f i PlugInUtilities:RasterUtilities.obj
 0001:00019620       ??$unchecked_fill_n@PAIII@stdext@@YAXPAIIABI@Z 1001a620 f i PlugInUtilities:RasterUtilities.obj
 0001:00019650       ??$_Checked_base@V?$_Vector_const_iterator@JV?$allocator@J@std@@@std@@@std@@YAPBJAAV?$_Vector_const_iterator@JV?$allocator@J@std@@@0@@Z 1001a650 f i PlugInUtilities:RasterUtilities.obj
 0001:00019660       ??$unchecked_fill_n@PAJIJ@stdext@@YAXPAJIABJ@Z 1001a660 f i PlugInUtilities:RasterUtilities.obj
 0001:00019690       ??$_Checked_base@V?$_Vector_const_iterator@KV?$allocator@K@std@@@std@@@std@@YAPBKAAV?$_Vector_const_iterator@KV?$allocator@K@std@@@0@@Z 1001a690 f i PlugInUtilities:RasterUtilities.obj
 0001:000196a0       ??$unchecked_fill_n@PAKIK@stdext@@YAXPAKIABK@Z 1001a6a0 f i PlugInUtilities:RasterUtilities.obj
 0001:000196d0       ??$_Checked_base@V?$_Vector_const_iterator@_JV?$allocator@_J@std@@@std@@@std@@YAPB_JAAV?$_Vector_const_iterator@_JV?$allocator@_J@std@@@0@@Z 1001a6d0 f i PlugInUtilities:RasterUtilities.obj
 0001:000196e0       ??$unchecked_fill_n@PA_JI_J@stdext@@YAXPA_JIAB_J@Z 1001a6e0 f i PlugInUtilities:RasterUtilities.obj
 0001:00019710       ??$_Checked_base@V?$_Vector_const_iterator@_KV?$allocator@_K@std@@@std@@@std@@YAPB_KAAV?$_Vector_const_iterator@_KV?$allocator@_K@std@@@0@@Z 1001a710 f i PlugInUtilities:RasterUtilities.obj
 0001:00019720       ??$unchecked_fill_n@PA_KI_K@stdext@@YAXPA_KIAB_K@Z 1001a720 f i PlugInUtilities:RasterUtilities.obj
 0001:00019750       ??$_Checked_base@V?$_Vector_const_iterator@VInt64@@V?$allocator@VInt64@@@std@@@std@@@std@@YAPBVInt64@@AAV?$_Vector_const_iterator@VInt64@@V?$allocator@VInt64@@@std@@@0@@Z 1001a750 f i PlugInUtilities:RasterUtilities.obj
 0001:00019760       ??$_Checked_base@V?$_Vector_const_iterator@VUInt64@@V?$allocator@VUInt64@@@std@@@std@@@std@@YAPBVUInt64@@AAV?$_Vector_const_iterator@VUInt64@@V?$allocator@VUInt64@@@std@@@0@@Z 1001a760 f i PlugInUtilities:RasterUtilities.obj
 0001:00019770       ??$_Checked_base@V?$_Vector_const_iterator@MV?$allocator@M@std@@@std@@@std@@YAPBMAAV?$_Vector_const_iterator@MV?$allocator@M@std@@@0@@Z 1001a770 f i PlugInUtilities:RasterUtilities.obj
 0001:00019780       ??$unchecked_fill_n@PAMIM@stdext@@YAXPAMIABM@Z 1001a780 f i PlugInUtilities:RasterUtilities.obj
 0001:000197a0       ??$_Uninit_copy@PAV?$Location@H$01@Opticks@@PAV12@V?$allocator@V?$Location@H$01@Opticks@@@std@@@std@@YAPAV?$Location@H$01@Opticks@@PAV12@00AAV?$allocator@V?$Location@H$01@Opticks@@@0@U_Nonscalar_ptr_iterator_tag@0@U_Range_checked_iterator_tag@0@@Z 1001a7a0 f i PlugInUtilities:RasterUtilities.obj
 0001:000197e0       ??1?$FactoryResource@VRasterFileDescriptor@@@@UAE@XZ 1001a7e0 f i PlugInUtilities:RasterUtilities.obj
 0001:000197f0       ??1?$FactoryResource@VFileDescriptor@@@@UAE@XZ 1001a7f0 f i PlugInUtilities:RasterUtilities.obj
 0001:00019800       ??1?$ModelResource@VRasterElement@@@@UAE@XZ 1001a800 f i PlugInUtilities:RasterUtilities.obj
 0001:00019810       ??1?$DataDescriptorResource@VRasterDataDescriptor@@@@UAE@XZ 1001a810 f i PlugInUtilities:RasterUtilities.obj
 0001:00019820       ??0?$vector@VDimensionDescriptor@@V?$allocator@VDimensionDescriptor@@@std@@@std@@QAE@XZ 1001a820 f i PlugInUtilities:RasterUtilities.obj
 0001:00019830       ?back@?$vector@VDimensionDescriptor@@V?$allocator@VDimensionDescriptor@@@std@@@std@@QBEABVDimensionDescriptor@@XZ 1001a830 f i PlugInUtilities:RasterUtilities.obj
 0001:00019880       ?at@?$vector@V?$basic_string@DU?$char_traits@D@std@@V?$allocator@D@2@@std@@V?$allocator@V?$basic_string@DU?$char_traits@D@std@@V?$allocator@D@2@@std@@@2@@std@@QBEABV?$basic_string@DU?$char_traits@D@std@@V?$allocator@D@2@@2@I@Z 1001a880 f i PlugInUtilities:RasterUtilities.obj
 0001:00019900       ??0?$vector@V?$Location@H$01@Opticks@@V?$allocator@V?$Location@H$01@Opticks@@@std@@@std@@QAE@XZ 1001a900 f i PlugInUtilities:RasterUtilities.obj
 0001:00019910       ?begin@?$vector@V?$Location@H$01@Opticks@@V?$allocator@V?$Location@H$01@Opticks@@@std@@@std@@QAE?AV?$_Vector_iterator@V?$Location@H$01@Opticks@@V?$allocator@V?$Location@H$01@Opticks@@@std@@@2@XZ 1001a910 f i PlugInUtilities:RasterUtilities.obj
 0001:00019940       ?end@?$vector@V?$Location@H$01@Opticks@@V?$allocator@V?$Location@H$01@Opticks@@@std@@@std@@QAE?AV?$_Vector_iterator@V?$Location@H$01@Opticks@@V?$allocator@V?$Location@H$01@Opticks@@@std@@@2@XZ 1001a940 f i PlugInUtilities:RasterUtilities.obj
 0001:00019970       ??0?$FactoryResource@VRasterFileDescriptor@@@@QAE@XZ 1001a970 f i PlugInUtilities:RasterUtilities.obj
 0001:000199e0       ??0?$FactoryResource@VRasterFileDescriptor@@@@QAE@PAVRasterFileDescriptor@@@Z 1001a9e0 f i PlugInUtilities:RasterUtilities.obj
 0001:00019a60       ??0?$FactoryResource@VFileDescriptor@@@@QAE@XZ 1001aa60 f i PlugInUtilities:RasterUtilities.obj
 0001:00019ad0       ??0?$ModelResource@VRasterElement@@@@QAE@PAVDataDescriptor@@@Z 1001aad0 f i PlugInUtilities:RasterUtilities.obj
 0001:00019b50       ??0?$DataDescriptorResource@VRasterDataDescriptor@@@@QAE@V?$basic_string@DU?$char_traits@D@std@@V?$allocator@D@2@@std@@0PAVDataElement@@@Z 1001ab50 f i PlugInUtilities:RasterUtilities.obj
 0001:00019c30       ??0?$vector@V?$EnumWrapper@W4RasterChannelTypeEnum@@@@V?$allocator@V?$EnumWrapper@W4RasterChannelTypeEnum@@@@@std@@@std@@QAE@XZ 1001ac30 f i PlugInUtilities:RasterUtilities.obj
 0001:00019c40       ?begin@?$vector@HV?$allocator@H@std@@@std@@QAE?AV?$_Vector_iterator@HV?$allocator@H@std@@@2@XZ 1001ac40 f i PlugInUtilities:RasterUtilities.obj
 0001:00019c70       ?end@?$vector@HV?$allocator@H@std@@@std@@QAE?AV?$_Vector_iterator@HV?$allocator@H@std@@@2@XZ 1001ac70 f i PlugInUtilities:RasterUtilities.obj
 0001:00019ca0       ??_G?$FactoryResource@VRasterFileDescriptor@@@@UAEPAXI@Z 1001aca0 f i PlugInUtilities:RasterUtilities.obj
 0001:00019ca0       ??_E?$FactoryResource@VRasterFileDescriptor@@@@UAEPAXI@Z 1001aca0 f i PlugInUtilities:RasterUtilities.obj
 0001:00019cc0       ??_E?$FactoryResource@VFileDescriptor@@@@UAEPAXI@Z 1001acc0 f i PlugInUtilities:RasterUtilities.obj
 0001:00019cc0       ??_G?$FactoryResource@VFileDescriptor@@@@UAEPAXI@Z 1001acc0 f i PlugInUtilities:RasterUtilities.obj
 0001:00019ce0       ??_E?$ModelResource@VRasterElement@@@@UAEPAXI@Z 1001ace0 f i PlugInUtilities:RasterUtilities.obj
 0001:00019ce0       ??_G?$ModelResource@VRasterElement@@@@UAEPAXI@Z 1001ace0 f i PlugInUtilities:RasterUtilities.obj
 0001:00019d00       ??_G?$DataDescriptorResource@VRasterDataDescriptor@@@@UAEPAXI@Z 1001ad00 f i PlugInUtilities:RasterUtilities.obj
 0001:00019d00       ??_E?$DataDescriptorResource@VRasterDataDescriptor@@@@UAEPAXI@Z 1001ad00 f i PlugInUtilities:RasterUtilities.obj
 0001:00019d20       ?_Tidy@?$vector@HV?$allocator@H@std@@@std@@IAEXXZ 1001ad20 f i PlugInUtilities:RasterUtilities.obj
 0001:00019d50       ??$reverse@V?$_Vector_iterator@V?$Location@H$01@Opticks@@V?$allocator@V?$Location@H$01@Opticks@@@std@@@std@@@std@@YAXV?$_Vector_iterator@V?$Location@H$01@Opticks@@V?$allocator@V?$Location@H$01@Opticks@@@std@@@0@0@Z 1001ad50 f i PlugInUtilities:RasterUtilities.obj
 0001:00019d70       ??$transform@V?$_Vector_iterator@VDimensionDescriptor@@V?$allocator@VDimensionDescriptor@@@std@@@std@@V12@VSetOnDiskNumber@?A0x92b3477e@@@std@@YA?AV?$_Vector_iterator@VDimensionDescriptor@@V?$allocator@VDimensionDescriptor@@@std@@@0@V10@00VSetOnDiskNumber@?A0x92b3477e@@@Z 1001ad70 f i PlugInUtilities:RasterUtilities.obj
 0001:00019db0       ??$find@V?$_Vector_const_iterator@VDimensionDescriptor@@V?$allocator@VDimensionDescriptor@@@std@@@std@@VDimensionDescriptor@@@std@@YA?AV?$_Vector_const_iterator@VDimensionDescriptor@@V?$allocator@VDimensionDescriptor@@@std@@@0@V10@0ABVDimensionDescriptor@@@Z 1001adb0 f i PlugInUtilities:RasterUtilities.obj
 0001:00019de0       ??$find@V?$_Vector_iterator@HV?$allocator@H@std@@@std@@H@std@@YA?AV?$_Vector_iterator@HV?$allocator@H@std@@@0@V10@0ABH@Z 1001ade0 f i PlugInUtilities:RasterUtilities.obj
 0001:00019e10       ??$_Ucopy@V?$_Vector_const_iterator@VDimensionDescriptor@@V?$allocator@VDimensionDescriptor@@@std@@@std@@@?$vector@VDimensionDescriptor@@V?$allocator@VDimensionDescriptor@@@std@@@std@@IAEPAVDimensionDescriptor@@V?$_Vector_const_iterator@VDimensionDescriptor@@V?$allocator@VDimensionDescriptor@@@std@@@1@0PAV2@@Z 1001ae10 f i PlugInUtilities:RasterUtilities.obj
 0001:00019e40       ??$unchecked_uninitialized_fill_n@PAVDimensionDescriptor@@IV1@V?$allocator@VDimensionDescriptor@@@std@@@stdext@@YAXPAVDimensionDescriptor@@IABV1@AAV?$allocator@VDimensionDescriptor@@@std@@@Z 1001ae40 f i PlugInUtilities:RasterUtilities.obj
 0001:00019e70       ??$unchecked_uninitialized_fill_n@PAV?$EnumWrapper@W4RasterChannelTypeEnum@@@@IV1@V?$allocator@V?$EnumWrapper@W4RasterChannelTypeEnum@@@@@std@@@stdext@@YAXPAV?$EnumWrapper@W4RasterChannelTypeEnum@@@@IABV1@AAV?$allocator@V?$EnumWrapper@W4RasterChannelTypeEnum@@@@@std@@@Z 1001ae70 f i PlugInUtilities:RasterUtilities.obj
 0001:00019ea0       ??$_Destroy_range@VDimensionDescriptor@@V?$allocator@VDimensionDescriptor@@@std@@@std@@YAXPAVDimensionDescriptor@@0AAV?$allocator@VDimensionDescriptor@@@0@@Z 1001aea0 f i PlugInUtilities:RasterUtilities.obj
 0001:00019eb0       ??$_Unchecked_move_backward@PAVDimensionDescriptor@@PAV1@@stdext@@YAPAVDimensionDescriptor@@PAV1@00@Z 1001aeb0 f i PlugInUtilities:RasterUtilities.obj
 0001:00019f00       ??$_Unchecked_move_backward@PAV?$Location@H$01@Opticks@@PAV12@@stdext@@YAPAV?$Location@H$01@Opticks@@PAV12@00@Z 1001af00 f i PlugInUtilities:RasterUtilities.obj
 0001:00019f30       ??$_Destroy_range@V?$EnumWrapper@W4RasterChannelTypeEnum@@@@V?$allocator@V?$EnumWrapper@W4RasterChannelTypeEnum@@@@@std@@@std@@YAXPAV?$EnumWrapper@W4RasterChannelTypeEnum@@@@0AAV?$allocator@V?$EnumWrapper@W4RasterChannelTypeEnum@@@@@0@@Z 1001af30 f i PlugInUtilities:RasterUtilities.obj
 0001:00019f40       ??$_Unchecked_move_backward@PAV?$EnumWrapper@W4RasterChannelTypeEnum@@@@PAV1@@stdext@@YAPAV?$EnumWrapper@W4RasterChannelTypeEnum@@@@PAV1@00@Z 1001af40 f i PlugInUtilities:RasterUtilities.obj
 0001:00019f80       ??0?$vector@NV?$allocator@N@std@@@std@@QAE@XZ 1001af80 f i PlugInUtilities:RasterUtilities.obj
 0001:00019f90       ??1?$vector@NV?$allocator@N@std@@@std@@QAE@XZ 1001af90 f i PlugInUtilities:RasterUtilities.obj
 0001:00019fc0       ??1?$vector@DV?$allocator@D@std@@@std@@QAE@XZ 1001afc0 f i PlugInUtilities:RasterUtilities.obj
 0001:00019ff0       ??0?$vector@EV?$allocator@E@std@@@std@@QAE@XZ 1001aff0 f i PlugInUtilities:RasterUtilities.obj
 0001:0001a000       ??1?$vector@EV?$allocator@E@std@@@std@@QAE@XZ 1001b000 f i PlugInUtilities:RasterUtilities.obj
 0001:0001a030       ??0?$vector@FV?$allocator@F@std@@@std@@QAE@XZ 1001b030 f i PlugInUtilities:RasterUtilities.obj
 0001:0001a040       ??1?$vector@FV?$allocator@F@std@@@std@@QAE@XZ 1001b040 f i PlugInUtilities:RasterUtilities.obj
 0001:0001a070       ??0?$vector@GV?$allocator@G@std@@@std@@QAE@XZ 1001b070 f i PlugInUtilities:RasterUtilities.obj
 0001:0001a080       ??1?$vector@GV?$allocator@G@std@@@std@@QAE@XZ 1001b080 f i PlugInUtilities:RasterUtilities.obj
 0001:0001a0b0       ??0?$vector@IV?$allocator@I@std@@@std@@QAE@XZ 1001b0b0 f i PlugInUtilities:RasterUtilities.obj
 0001:0001a0c0       ??1?$vector@IV?$allocator@I@std@@@std@@QAE@XZ 1001b0c0 f i PlugInUtilities:RasterUtilities.obj
 0001:0001a0f0       ??0?$vector@JV?$allocator@J@std@@@std@@QAE@XZ 1001b0f0 f i PlugInUtilities:RasterUtilities.obj
 0001:0001a100       ??1?$vector@JV?$allocator@J@std@@@std@@QAE@XZ 1001b100 f i PlugInUtilities:RasterUtilities.obj
 0001:0001a130       ??0?$vector@KV?$allocator@K@std@@@std@@QAE@XZ 1001b130 f i PlugInUtilities:RasterUtilities.obj
 0001:0001a140       ??1?$vector@KV?$allocator@K@std@@@std@@QAE@XZ 1001b140 f i PlugInUtilities:RasterUtilities.obj
 0001:0001a170       ??0?$vector@_JV?$allocator@_J@std@@@std@@QAE@XZ 1001b170 f i PlugInUtilities:RasterUtilities.obj
 0001:0001a180       ??1?$vector@_JV?$allocator@_J@std@@@std@@QAE@XZ 1001b180 f i PlugInUtilities:RasterUtilities.obj
 0001:0001a1b0       ??0?$vector@_KV?$allocator@_K@std@@@std@@QAE@XZ 1001b1b0 f i PlugInUtilities:RasterUtilities.obj
 0001:0001a1c0       ??1?$vector@_KV?$allocator@_K@std@@@std@@QAE@XZ 1001b1c0 f i PlugInUtilities:RasterUtilities.obj
 0001:0001a1f0       ??0?$vector@VInt64@@V?$allocator@VInt64@@@std@@@std@@QAE@XZ 1001b1f0 f i PlugInUtilities:RasterUtilities.obj
 0001:0001a200       ??0?$vector@VUInt64@@V?$allocator@VUInt64@@@std@@@std@@QAE@XZ 1001b200 f i PlugInUtilities:RasterUtilities.obj
 0001:0001a210       ??0?$vector@MV?$allocator@M@std@@@std@@QAE@XZ 1001b210 f i PlugInUtilities:RasterUtilities.obj
 0001:0001a220       ??1?$vector@MV?$allocator@M@std@@@std@@QAE@XZ 1001b220 f i PlugInUtilities:RasterUtilities.obj
 0001:0001a250       ??0?$vector@_NV?$allocator@_N@std@@@std@@QAE@XZ 1001b250 f i PlugInUtilities:RasterUtilities.obj
 0001:0001a260       ??1?$vector@_NV?$allocator@_N@std@@@std@@QAE@XZ 1001b260 f i PlugInUtilities:RasterUtilities.obj
 0001:0001a290       ?begin@?$vector@NV?$allocator@N@std@@@std@@QAE?AV?$_Vector_iterator@NV?$allocator@N@std@@@2@XZ 1001b290 f i PlugInUtilities:RasterUtilities.obj
 0001:0001a2c0       ?end@?$vector@NV?$allocator@N@std@@@std@@QAE?AV?$_Vector_iterator@NV?$allocator@N@std@@@2@XZ 1001b2c0 f i PlugInUtilities:RasterUtilities.obj
 0001:0001a2f0       ?begin@?$vector@DV?$allocator@D@std@@@std@@QAE?AV?$_Vector_iterator@DV?$allocator@D@std@@@2@XZ 1001b2f0 f i PlugInUtilities:RasterUtilities.obj
 0001:0001a320       ?end@?$vector@DV?$allocator@D@std@@@std@@QAE?AV?$_Vector_iterator@DV?$allocator@D@std@@@2@XZ 1001b320 f i PlugInUtilities:RasterUtilities.obj
 0001:0001a350       ?begin@?$vector@EV?$allocator@E@std@@@std@@QAE?AV?$_Vector_iterator@EV?$allocator@E@std@@@2@XZ 1001b350 f i PlugInUtilities:RasterUtilities.obj
 0001:0001a380       ?end@?$vector@EV?$allocator@E@std@@@std@@QAE?AV?$_Vector_iterator@EV?$allocator@E@std@@@2@XZ 1001b380 f i PlugInUtilities:RasterUtilities.obj
 0001:0001a3b0       ?begin@?$vector@FV?$allocator@F@std@@@std@@QAE?AV?$_Vector_iterator@FV?$allocator@F@std@@@2@XZ 1001b3b0 f i PlugInUtilities:RasterUtilities.obj
 0001:0001a3e0       ?end@?$vector@FV?$allocator@F@std@@@std@@QAE?AV?$_Vector_iterator@FV?$allocator@F@std@@@2@XZ 1001b3e0 f i PlugInUtilities:RasterUtilities.obj
 0001:0001a410       ?begin@?$vector@GV?$allocator@G@std@@@std@@QAE?AV?$_Vector_iterator@GV?$allocator@G@std@@@2@XZ 1001b410 f i PlugInUtilities:RasterUtilities.obj
 0001:0001a440       ?end@?$vector@GV?$allocator@G@std@@@std@@QAE?AV?$_Vector_iterator@GV?$allocator@G@std@@@2@XZ 1001b440 f i PlugInUtilities:RasterUtilities.obj
 0001:0001a470       ?begin@?$vector@IV?$allocator@I@std@@@std@@QAE?AV?$_Vector_iterator@IV?$allocator@I@std@@@2@XZ 1001b470 f i PlugInUtilities:RasterUtilities.obj
 0001:0001a4a0       ?end@?$vector@IV?$allocator@I@std@@@std@@QAE?AV?$_Vector_iterator@IV?$allocator@I@std@@@2@XZ 1001b4a0 f i PlugInUtilities:RasterUtilities.obj
 0001:0001a4d0       ?begin@?$vector@JV?$allocator@J@std@@@std@@QAE?AV?$_Vector_iterator@JV?$allocator@J@std@@@2@XZ 1001b4d0 f i PlugInUtilities:RasterUtilities.obj
 0001:0001a500       ?end@?$vector@JV?$allocator@J@std@@@std@@QAE?AV?$_Vector_iterator@JV?$allocator@J@std@@@2@XZ 1001b500 f i PlugInUtilities:RasterUtilities.obj
 0001:0001a530       ?begin@?$vector@KV?$allocator@K@std@@@std@@QAE?AV?$_Vector_iterator@KV?$allocator@K@std@@@2@XZ 1001b530 f i PlugInUtilities:RasterUtilities.obj
 0001:0001a560       ?end@?$vector@KV?$allocator@K@std@@@std@@QAE?AV?$_Vector_iterator@KV?$allocator@K@std@@@2@XZ 1001b560 f i PlugInUtilities:RasterUtilities.obj
 0001:0001a590       ?begin@?$vector@_JV?$allocator@_J@std@@@std@@QAE?AV?$_Vector_iterator@_JV?$allocator@_J@std@@@2@XZ 1001b590 f i PlugInUtilities:RasterUtilities.obj
 0001:0001a5c0       ?end@?$vector@_JV?$allocator@_J@std@@@std@@QAE?AV?$_Vector_iterator@_JV?$allocator@_J@std@@@2@XZ 1001b5c0 f i PlugInUtilities:RasterUtilities.obj
 0001:0001a5f0       ?begin@?$vector@_KV?$allocator@_K@std@@@std@@QAE?AV?$_Vector_iterator@_KV?$allocator@_K@std@@@2@XZ 1001b5f0 f i PlugInUtilities:RasterUtilities.obj
 0001:0001a620       ?end@?$vector@_KV?$allocator@_K@std@@@std@@QAE?AV?$_Vector_iterator@_KV?$allocator@_K@std@@@2@XZ 1001b620 f i PlugInUtilities:RasterUtilities.obj
 0001:0001a650       ?begin@?$vector@VInt64@@V?$allocator@VInt64@@@std@@@std@@QAE?AV?$_Vector_iterator@VInt64@@V?$allocator@VInt64@@@std@@@2@XZ 1001b650 f i PlugInUtilities:RasterUtilities.obj
 0001:0001a680       ?end@?$vector@VInt64@@V?$allocator@VInt64@@@std@@@std@@QAE?AV?$_Vector_iterator@VInt64@@V?$allocator@VInt64@@@std@@@2@XZ 1001b680 f i PlugInUtilities:RasterUtilities.obj
 0001:0001a6b0       ?begin@?$vector@VUInt64@@V?$allocator@VUInt64@@@std@@@std@@QAE?AV?$_Vector_iterator@VUInt64@@V?$allocator@VUInt64@@@std@@@2@XZ 1001b6b0 f i PlugInUtilities:RasterUtilities.obj
 0001:0001a6e0       ?end@?$vector@VUInt64@@V?$allocator@VUInt64@@@std@@@std@@QAE?AV?$_Vector_iterator@VUInt64@@V?$allocator@VUInt64@@@std@@@2@XZ 1001b6e0 f i PlugInUtilities:RasterUtilities.obj
 0001:0001a710       ?begin@?$vector@MV?$allocator@M@std@@@std@@QAE?AV?$_Vector_iterator@MV?$allocator@M@std@@@2@XZ 1001b710 f i PlugInUtilities:RasterUtilities.obj
 0001:0001a740       ?end@?$vector@MV?$allocator@M@std@@@std@@QAE?AV?$_Vector_iterator@MV?$allocator@M@std@@@2@XZ 1001b740 f i PlugInUtilities:RasterUtilities.obj
 0001:0001a770       ?begin@?$vector@_NV?$allocator@_N@std@@@std@@QAE?AV?$_Vb_iterator@V?$vector@_NV?$allocator@_N@std@@@std@@@2@XZ 1001b770 f i PlugInUtilities:RasterUtilities.obj
 0001:0001a7b0       ??D?$_Vb_iterator@V?$vector@_NV?$allocator@_N@std@@@std@@@std@@QBE?AV?$_Vb_reference@V?$vector@_NV?$allocator@_N@std@@@std@@@1@XZ 1001b7b0 f i PlugInUtilities:RasterUtilities.obj
 0001:0001a7e0       ??0?$_Vb_iterator@V?$vector@_NV?$allocator@_N@std@@@std@@@std@@QAE@ABV01@@Z 1001b7e0 f i PlugInUtilities:RasterUtilities.obj
 0001:0001a810       ?clear@?$vector@HV?$allocator@H@std@@@std@@QAEXXZ 1001b810 f i PlugInUtilities:RasterUtilities.obj
 0001:0001a850       ?erase@?$vector@NV?$allocator@N@std@@@std@@QAE?AV?$_Vector_iterator@NV?$allocator@N@std@@@2@V32@0@Z 1001b850 f i PlugInUtilities:RasterUtilities.obj
 0001:0001a8b0       ?erase@?$vector@DV?$allocator@D@std@@@std@@QAE?AV?$_Vector_iterator@DV?$allocator@D@std@@@2@V32@0@Z 1001b8b0 f i PlugInUtilities:RasterUtilities.obj
 0001:0001a910       ?erase@?$vector@EV?$allocator@E@std@@@std@@QAE?AV?$_Vector_iterator@EV?$allocator@E@std@@@2@V32@0@Z 1001b910 f i PlugInUtilities:RasterUtilities.obj
 0001:0001a970       ?erase@?$vector@FV?$allocator@F@std@@@std@@QAE?AV?$_Vector_iterator@FV?$allocator@F@std@@@2@V32@0@Z 1001b970 f i PlugInUtilities:RasterUtilities.obj
 0001:0001a9d0       ?erase@?$vector@GV?$allocator@G@std@@@std@@QAE?AV?$_Vector_iterator@GV?$allocator@G@std@@@2@V32@0@Z 1001b9d0 f i PlugInUtilities:RasterUtilities.obj
 0001:0001aa30       ?erase@?$vector@IV?$allocator@I@std@@@std@@QAE?AV?$_Vector_iterator@IV?$allocator@I@std@@@2@V32@0@Z 1001ba30 f i PlugInUtilities:RasterUtilities.obj
 0001:0001aa90       ?erase@?$vector@JV?$allocator@J@std@@@std@@QAE?AV?$_Vector_iterator@JV?$allocator@J@std@@@2@V32@0@Z 1001ba90 f i PlugInUtilities:RasterUtilities.obj
 0001:0001aaf0       ?erase@?$vector@KV?$allocator@K@std@@@std@@QAE?AV?$_Vector_iterator@KV?$allocator@K@std@@@2@V32@0@Z 1001baf0 f i PlugInUtilities:RasterUtilities.obj
 0001:0001ab50       ?erase@?$vector@_JV?$allocator@_J@std@@@std@@QAE?AV?$_Vector_iterator@_JV?$allocator@_J@std@@@2@V32@0@Z 1001bb50 f i PlugInUtilities:RasterUtilities.obj
 0001:0001abb0       ?erase@?$vector@_KV?$allocator@_K@std@@@std@@QAE?AV?$_Vector_iterator@_KV?$allocator@_K@std@@@2@V32@0@Z 1001bbb0 f i PlugInUtilities:RasterUtilities.obj
 0001:0001ac10       ?erase@?$vector@MV?$allocator@M@std@@@std@@QAE?AV?$_Vector_iterator@MV?$allocator@M@std@@@2@V32@0@Z 1001bc10 f i PlugInUtilities:RasterUtilities.obj
 0001:0001ac70       ?_My_cont_begin@?$_Vb_iter_base@V?$vector@_NV?$allocator@_N@std@@@std@@@std@@QBEPAIXZ 1001bc70 f i PlugInUtilities:RasterUtilities.obj
 0001:0001ac90       ??$?RVDimensionDescriptor@@@?$bind_t@XV?$mf1@XVDimensionDescriptor@@_N@_mfi@boost@@V?$list2@V?$arg@$00@boost@@V?$value@_N@_bi@2@@_bi@3@@_bi@boost@@QAEXAAVDimensionDescriptor@@@Z 1001bc90 f i PlugInUtilities:RasterUtilities.obj
 0001:0001acb0       ??$unchecked_uninitialized_copy@V?$_Vector_const_iterator@V?$EnumWrapper@W4RasterChannelTypeEnum@@@@V?$allocator@V?$EnumWrapper@W4RasterChannelTypeEnum@@@@@std@@@std@@PAV?$EnumWrapper@W4RasterChannelTypeEnum@@@@V?$allocator@V?$EnumWrapper@W4RasterChannelTypeEnum@@@@@2@@stdext@@YAPAV?$EnumWrapper@W4RasterChannelTypeEnum@@@@V?$_Vector_const_iterator@V?$EnumWrapper@W4RasterChannelTypeEnum@@@@V?$allocator@V?$EnumWrapper@W4RasterChannelTypeEnum@@@@@std@@@std@@0PAV1@AAV?$allocator@V?$EnumWrapper@W4RasterChannelTypeEnum@@@@@3@@Z 1001bcb0 f i PlugInUtilities:RasterUtilities.obj
 0001:0001ace0       ??$unchecked_uninitialized_copy@V?$_Vector_const_iterator@HV?$allocator@H@std@@@std@@PAHV?$allocator@H@2@@stdext@@YAPAHV?$_Vector_const_iterator@HV?$allocator@H@std@@@std@@0PAHAAV?$allocator@H@2@@Z 1001bce0 f i PlugInUtilities:RasterUtilities.obj
 0001:0001ad10       ??$_Destroy_range@V?$Location@H$01@Opticks@@V?$allocator@V?$Location@H$01@Opticks@@@std@@@std@@YAXPAV?$Location@H$01@Opticks@@0AAV?$allocator@V?$Location@H$01@Opticks@@@0@U_Nonscalar_ptr_iterator_tag@0@@Z 1001bd10 f i PlugInUtilities:RasterUtilities.obj
 0001:0001ad20       ??$_Uninit_fill_n@PAV?$Location@H$01@Opticks@@IV12@V?$allocator@V?$Location@H$01@Opticks@@@std@@@std@@YAXPAV?$Location@H$01@Opticks@@IABV12@AAV?$allocator@V?$Location@H$01@Opticks@@@0@U_Nonscalar_ptr_iterator_tag@0@U_Range_checked_iterator_tag@0@@Z 1001bd20 f i PlugInUtilities:RasterUtilities.obj
 0001:0001ad60       ??$_Uninit_fill_n@PAHIHV?$allocator@H@std@@@std@@YAXPAHIABHAAV?$allocator@H@0@U_Scalar_ptr_iterator_tag@0@U_Range_checked_iterator_tag@0@@Z 1001bd60 f i PlugInUtilities:RasterUtilities.obj
 0001:0001ad90       ??$_Unchecked_uninitialized_move@PAHPAHV?$allocator@H@std@@@stdext@@YAPAHPAH00AAV?$allocator@H@std@@@Z 1001bd90 f i PlugInUtilities:RasterUtilities.obj
 0001:0001adc0       ??$_Umove@V?$_Vector_iterator@HV?$allocator@H@std@@@std@@@?$vector@HV?$allocator@H@std@@@std@@IAEPAHV?$_Vector_iterator@HV?$allocator@H@std@@@1@0PAH@Z 1001bdc0 f i PlugInUtilities:RasterUtilities.obj
 0001:0001ae00       ??$_Ucopy@PAVInt64@@@?$vector@VInt64@@V?$allocator@VInt64@@@std@@@std@@IAEPAVInt64@@PAV2@00@Z 1001be00 f i PlugInUtilities:RasterUtilities.obj
 0001:0001ae30       ??$_Destroy_range@VInt64@@V?$allocator@VInt64@@@std@@@std@@YAXPAVInt64@@0AAV?$allocator@VInt64@@@0@@Z 1001be30 f i PlugInUtilities:RasterUtilities.obj
 0001:0001ae40       ??$unchecked_uninitialized_fill_n@PAVInt64@@IV1@V?$allocator@VInt64@@@std@@@stdext@@YAXPAVInt64@@IABV1@AAV?$allocator@VInt64@@@std@@@Z 1001be40 f i PlugInUtilities:RasterUtilities.obj
 0001:0001ae70       ??$_Ucopy@PAVUInt64@@@?$vector@VUInt64@@V?$allocator@VUInt64@@@std@@@std@@IAEPAVUInt64@@PAV2@00@Z 1001be70 f i PlugInUtilities:RasterUtilities.obj
 0001:0001aea0       ??$_Destroy_range@VUInt64@@V?$allocator@VUInt64@@@std@@@std@@YAXPAVUInt64@@0AAV?$allocator@VUInt64@@@0@@Z 1001bea0 f i PlugInUtilities:RasterUtilities.obj
 0001:0001aeb0       ??$unchecked_uninitialized_fill_n@PAVUInt64@@IV1@V?$allocator@VUInt64@@@std@@@stdext@@YAXPAVUInt64@@IABV1@AAV?$allocator@VUInt64@@@std@@@Z 1001beb0 f i PlugInUtilities:RasterUtilities.obj
 0001:0001aee0       ??$_Umove@PAN@?$vector@NV?$allocator@N@std@@@std@@IAEPANPAN00@Z 1001bee0 f i PlugInUtilities:RasterUtilities.obj
 0001:0001af20       ??$_Umove@PAD@?$vector@DV?$allocator@D@std@@@std@@IAEPADPAD00@Z 1001bf20 f i PlugInUtilities:RasterUtilities.obj
 0001:0001af50       ??$_Umove@PAE@?$vector@EV?$allocator@E@std@@@std@@IAEPAEPAE00@Z 1001bf50 f i PlugInUtilities:RasterUtilities.obj
 0001:0001af80       ??$_Umove@PAF@?$vector@FV?$allocator@F@std@@@std@@IAEPAFPAF00@Z 1001bf80 f i PlugInUtilities:RasterUtilities.obj
 0001:0001afb0       ??$_Umove@PAG@?$vector@GV?$allocator@G@std@@@std@@IAEPAGPAG00@Z 1001bfb0 f i PlugInUtilities:RasterUtilities.obj
 0001:0001afe0       ??$_Umove@PAI@?$vector@IV?$allocator@I@std@@@std@@IAEPAIPAI00@Z 1001bfe0 f i PlugInUtilities:RasterUtilities.obj
 0001:0001b020       ??$_Umove@PAJ@?$vector@JV?$allocator@J@std@@@std@@IAEPAJPAJ00@Z 1001c020 f i PlugInUtilities:RasterUtilities.obj
 0001:0001b060       ??$_Umove@PAK@?$vector@KV?$allocator@K@std@@@std@@IAEPAKPAK00@Z 1001c060 f i PlugInUtilities:RasterUtilities.obj
 0001:0001b0a0       ??$_Umove@PA_J@?$vector@_JV?$allocator@_J@std@@@std@@IAEPA_JPA_J00@Z 1001c0a0 f i PlugInUtilities:RasterUtilities.obj
 0001:0001b0e0       ??$_Umove@PA_K@?$vector@_KV?$allocator@_K@std@@@std@@IAEPA_KPA_K00@Z 1001c0e0 f i PlugInUtilities:RasterUtilities.obj
 0001:0001b120       ??$_Unchecked_move_backward@PAVInt64@@PAV1@@stdext@@YAPAVInt64@@PAV1@00@Z 1001c120 f i PlugInUtilities:RasterUtilities.obj
 0001:0001b150       ??$_Unchecked_move_backward@PAVUInt64@@PAV1@@stdext@@YAPAVUInt64@@PAV1@00@Z 1001c150 f i PlugInUtilities:RasterUtilities.obj
 0001:0001b180       ??$_Umove@PAM@?$vector@MV?$allocator@M@std@@@std@@IAEPAMPAM00@Z 1001c180 f i PlugInUtilities:RasterUtilities.obj
 0001:0001b1c0       ??$_Equal@PBVDimensionDescriptor@@V?$_Vector_const_iterator@VDimensionDescriptor@@V?$allocator@VDimensionDescriptor@@@std@@@std@@@std@@YA_NPBVDimensionDescriptor@@0V?$_Vector_const_iterator@VDimensionDescriptor@@V?$allocator@VDimensionDescriptor@@@std@@@0@Urandom_access_iterator_tag@0@U_Range_checked_iterator_tag@0@@Z 1001c1c0 f i PlugInUtilities:RasterUtilities.obj
 0001:0001b230       ??$_Uninit_move@PAVDimensionDescriptor@@PAV1@V?$allocator@VDimensionDescriptor@@@std@@U_Undefined_move_tag@3@@std@@YAPAVDimensionDescriptor@@PAV1@00AAV?$allocator@VDimensionDescriptor@@@0@U_Undefined_move_tag@0@U_Range_checked_iterator_tag@0@@Z 1001c230 f i PlugInUtilities:RasterUtilities.obj
 0001:0001b250       ??$_Uninit_move@PAV?$EnumWrapper@W4RasterChannelTypeEnum@@@@PAV1@V?$allocator@V?$EnumWrapper@W4RasterChannelTypeEnum@@@@@std@@U_Undefined_move_tag@3@@std@@YAPAV?$EnumWrapper@W4RasterChannelTypeEnum@@@@PAV1@00AAV?$allocator@V?$EnumWrapper@W4RasterChannelTypeEnum@@@@@0@U_Undefined_move_tag@0@U_Range_checked_iterator_tag@0@@Z 1001c250 f i PlugInUtilities:RasterUtilities.obj
 0001:0001b270       ??$_Unchecked_uninitialized_move@V?$_Vector_iterator@V?$basic_string@DU?$char_traits@D@std@@V?$allocator@D@2@@std@@V?$allocator@V?$basic_string@DU?$char_traits@D@std@@V?$allocator@D@2@@std@@@2@@std@@PAV?$basic_string@DU?$char_traits@D@std@@V?$allocator@D@2@@2@V?$allocator@V?$basic_string@DU?$char_traits@D@std@@V?$allocator@D@2@@std@@@2@@stdext@@YAPAV?$basic_string@DU?$char_traits@D@std@@V?$allocator@D@2@@std@@V?$_Vector_iterator@V?$basic_string@DU?$char_traits@D@std@@V?$allocator@D@2@@std@@V?$allocator@V?$basic_string@DU?$char_traits@D@std@@V?$allocator@D@2@@std@@@2@@2@0PAV12@AAV?$allocator@V?$basic_string@DU?$char_traits@D@std@@V?$allocator@D@2@@std@@@2@@Z 1001c270 f i PlugInUtilities:RasterUtilities.obj
 0001:0001b2a0       ??$_Unchecked_uninitialized_move@V?$_Vector_iterator@NV?$allocator@N@std@@@std@@PANV?$allocator@N@2@@stdext@@YAPANV?$_Vector_iterator@NV?$allocator@N@std@@@std@@0PANAAV?$allocator@N@2@@Z 1001c2a0 f i PlugInUtilities:RasterUtilities.obj
 0001:0001b2d0       ??$_Unchecked_uninitialized_move@V?$_Vector_iterator@DV?$allocator@D@std@@@std@@PADV?$allocator@D@2@@stdext@@YAPADV?$_Vector_iterator@DV?$allocator@D@std@@@std@@0PADAAV?$allocator@D@2@@Z 1001c2d0 f i PlugInUtilities:RasterUtilities.obj
 0001:0001b300       ??$_Unchecked_uninitialized_move@V?$_Vector_iterator@EV?$allocator@E@std@@@std@@PAEV?$allocator@E@2@@stdext@@YAPAEV?$_Vector_iterator@EV?$allocator@E@std@@@std@@0PAEAAV?$allocator@E@2@@Z 1001c300 f i PlugInUtilities:RasterUtilities.obj
 0001:0001b330       ??$_Unchecked_uninitialized_move@V?$_Vector_iterator@FV?$allocator@F@std@@@std@@PAFV?$allocator@F@2@@stdext@@YAPAFV?$_Vector_iterator@FV?$allocator@F@std@@@std@@0PAFAAV?$allocator@F@2@@Z 1001c330 f i PlugInUtilities:RasterUtilities.obj
 0001:0001b360       ??$_Unchecked_uninitialized_move@V?$_Vector_iterator@GV?$allocator@G@std@@@std@@PAGV?$allocator@G@2@@stdext@@YAPAGV?$_Vector_iterator@GV?$allocator@G@std@@@std@@0PAGAAV?$allocator@G@2@@Z 1001c360 f i PlugInUtilities:RasterUtilities.obj
 0001:0001b390       ??$_Unchecked_uninitialized_move@V?$_Vector_iterator@IV?$allocator@I@std@@@std@@PAIV?$allocator@I@2@@stdext@@YAPAIV?$_Vector_iterator@IV?$allocator@I@std@@@std@@0PAIAAV?$allocator@I@2@@Z 1001c390 f i PlugInUtilities:RasterUtilities.obj
 0001:0001b3c0       ??$_Unchecked_uninitialized_move@V?$_Vector_iterator@JV?$allocator@J@std@@@std@@PAJV?$allocator@J@2@@stdext@@YAPAJV?$_Vector_iterator@JV?$allocator@J@std@@@std@@0PAJAAV?$allocator@J@2@@Z 1001c3c0 f i PlugInUtilities:RasterUtilities.obj
 0001:0001b3f0       ??$_Unchecked_uninitialized_move@V?$_Vector_iterator@KV?$allocator@K@std@@@std@@PAKV?$allocator@K@2@@stdext@@YAPAKV?$_Vector_iterator@KV?$allocator@K@std@@@std@@0PAKAAV?$allocator@K@2@@Z 1001c3f0 f i PlugInUtilities:RasterUtilities.obj
 0001:0001b420       ??$_Unchecked_uninitialized_move@V?$_Vector_iterator@_JV?$allocator@_J@std@@@std@@PA_JV?$allocator@_J@2@@stdext@@YAPA_JV?$_Vector_iterator@_JV?$allocator@_J@std@@@std@@0PA_JAAV?$allocator@_J@2@@Z 1001c420 f i PlugInUtilities:RasterUtilities.obj
 0001:0001b450       ??$_Unchecked_uninitialized_move@V?$_Vector_iterator@_KV?$allocator@_K@std@@@std@@PA_KV?$allocator@_K@2@@stdext@@YAPA_KV?$_Vector_iterator@_KV?$allocator@_K@std@@@std@@0PA_KAAV?$allocator@_K@2@@Z 1001c450 f i PlugInUtilities:RasterUtilities.obj
 0001:0001b480       ??$_Unchecked_uninitialized_move@V?$_Vector_iterator@VInt64@@V?$allocator@VInt64@@@std@@@std@@PAVInt64@@V?$allocator@VInt64@@@2@@stdext@@YAPAVInt64@@V?$_Vector_iterator@VInt64@@V?$allocator@VInt64@@@std@@@std@@0PAV1@AAV?$allocator@VInt64@@@3@@Z 1001c480 f i PlugInUtilities:RasterUtilities.obj
 0001:0001b4b0       ??$_Unchecked_uninitialized_move@V?$_Vector_iterator@VUInt64@@V?$allocator@VUInt64@@@std@@@std@@PAVUInt64@@V?$allocator@VUInt64@@@2@@stdext@@YAPAVUInt64@@V?$_Vector_iterator@VUInt64@@V?$allocator@VUInt64@@@std@@@std@@0PAV1@AAV?$allocator@VUInt64@@@3@@Z 1001c4b0 f i PlugInUtilities:RasterUtilities.obj
 0001:0001b4e0       ??$_Unchecked_uninitialized_move@V?$_Vector_iterator@MV?$allocator@M@std@@@std@@PAMV?$allocator@M@2@@stdext@@YAPAMV?$_Vector_iterator@MV?$allocator@M@std@@@std@@0PAMAAV?$allocator@M@2@@Z 1001c4e0 f i PlugInUtilities:RasterUtilities.obj
 0001:0001b510       ??$unchecked_uninitialized_copy@PAV?$basic_string@DU?$char_traits@D@std@@V?$allocator@D@2@@std@@PAV12@V?$allocator@V?$basic_string@DU?$char_traits@D@std@@V?$allocator@D@2@@std@@@2@@stdext@@YAPAV?$basic_string@DU?$char_traits@D@std@@V?$allocator@D@2@@std@@PAV12@00AAV?$allocator@V?$basic_string@DU?$char_traits@D@std@@V?$allocator@D@2@@std@@@2@@Z 1001c510 f i PlugInUtilities:RasterUtilities.obj
 0001:0001b540       ??$unchecked_uninitialized_copy@V?$_Vector_const_iterator@NV?$allocator@N@std@@@std@@PANV?$allocator@N@2@@stdext@@YAPANV?$_Vector_const_iterator@NV?$allocator@N@std@@@std@@0PANAAV?$allocator@N@2@@Z 1001c540 f i PlugInUtilities:RasterUtilities.obj
 0001:0001b570       ??$_Uninit_fill_n@PANINV?$allocator@N@std@@@std@@YAXPANIABNAAV?$allocator@N@0@U_Scalar_ptr_iterator_tag@0@U_Range_checked_iterator_tag@0@@Z 1001c570 f i PlugInUtilities:RasterUtilities.obj
 0001:0001b590       ??$unchecked_uninitialized_copy@V?$_Vector_const_iterator@DV?$allocator@D@std@@@std@@PADV?$allocator@D@2@@stdext@@YAPADV?$_Vector_const_iterator@DV?$allocator@D@std@@@std@@0PADAAV?$allocator@D@2@@Z 1001c590 f i PlugInUtilities:RasterUtilities.obj
 0001:0001b5c0       ??$_Uninit_fill_n@PADIDV?$allocator@D@std@@@std@@YAXPADIABDAAV?$allocator@D@0@U_Scalar_ptr_iterator_tag@0@U_Range_checked_iterator_tag@0@@Z 1001c5c0 f i PlugInUtilities:RasterUtilities.obj
 0001:0001b5f0       ??$unchecked_uninitialized_copy@V?$_Vector_const_iterator@EV?$allocator@E@std@@@std@@PAEV?$allocator@E@2@@stdext@@YAPAEV?$_Vector_const_iterator@EV?$allocator@E@std@@@std@@0PAEAAV?$allocator@E@2@@Z 1001c5f0 f i PlugInUtilities:RasterUtilities.obj
 0001:0001b620       ??$_Uninit_fill_n@PAEIEV?$allocator@E@std@@@std@@YAXPAEIABEAAV?$allocator@E@0@U_Scalar_ptr_iterator_tag@0@U_Range_checked_iterator_tag@0@@Z 1001c620 f i PlugInUtilities:RasterUtilities.obj
 0001:0001b650       ??$unchecked_uninitialized_copy@V?$_Vector_const_iterator@FV?$allocator@F@std@@@std@@PAFV?$allocator@F@2@@stdext@@YAPAFV?$_Vector_const_iterator@FV?$allocator@F@std@@@std@@0PAFAAV?$allocator@F@2@@Z 1001c650 f i PlugInUtilities:RasterUtilities.obj
 0001:0001b680       ??$_Uninit_fill_n@PAFIFV?$allocator@F@std@@@std@@YAXPAFIABFAAV?$allocator@F@0@U_Scalar_ptr_iterator_tag@0@U_Range_checked_iterator_tag@0@@Z 1001c680 f i PlugInUtilities:RasterUtilities.obj
 0001:0001b6b0       ??$unchecked_uninitialized_copy@V?$_Vector_const_iterator@GV?$allocator@G@std@@@std@@PAGV?$allocator@G@2@@stdext@@YAPAGV?$_Vector_const_iterator@GV?$allocator@G@std@@@std@@0PAGAAV?$allocator@G@2@@Z 1001c6b0 f i PlugInUtilities:RasterUtilities.obj
 0001:0001b6e0       ??$_Uninit_fill_n@PAGIGV?$allocator@G@std@@@std@@YAXPAGIABGAAV?$allocator@G@0@U_Scalar_ptr_iterator_tag@0@U_Range_checked_iterator_tag@0@@Z 1001c6e0 f i PlugInUtilities:RasterUtilities.obj
 0001:0001b710       ??$unchecked_uninitialized_copy@V?$_Vector_const_iterator@IV?$allocator@I@std@@@std@@PAIV?$allocator@I@2@@stdext@@YAPAIV?$_Vector_const_iterator@IV?$allocator@I@std@@@std@@0PAIAAV?$allocator@I@2@@Z 1001c710 f i PlugInUtilities:RasterUtilities.obj
 0001:0001b740       ??$_Uninit_fill_n@PAIIIV?$allocator@I@std@@@std@@YAXPAIIABIAAV?$allocator@I@0@U_Scalar_ptr_iterator_tag@0@U_Range_checked_iterator_tag@0@@Z 1001c740 f i PlugInUtilities:RasterUtilities.obj
 0001:0001b770       ??$unchecked_uninitialized_copy@V?$_Vector_const_iterator@JV?$allocator@J@std@@@std@@PAJV?$allocator@J@2@@stdext@@YAPAJV?$_Vector_const_iterator@JV?$allocator@J@std@@@std@@0PAJAAV?$allocator@J@2@@Z 1001c770 f i PlugInUtilities:RasterUtilities.obj
 0001:0001b7a0       ??$_Uninit_fill_n@PAJIJV?$allocator@J@std@@@std@@YAXPAJIABJAAV?$allocator@J@0@U_Scalar_ptr_iterator_tag@0@U_Range_checked_iterator_tag@0@@Z 1001c7a0 f i PlugInUtilities:RasterUtilities.obj
 0001:0001b7d0       ??$unchecked_uninitialized_copy@V?$_Vector_const_iterator@KV?$allocator@K@std@@@std@@PAKV?$allocator@K@2@@stdext@@YAPAKV?$_Vector_const_iterator@KV?$allocator@K@std@@@std@@0PAKAAV?$allocator@K@2@@Z 1001c7d0 f i PlugInUtilities:RasterUtilities.obj
 0001:0001b800       ??$_Uninit_fill_n@PAKIKV?$allocator@K@std@@@std@@YAXPAKIABKAAV?$allocator@K@0@U_Scalar_ptr_iterator_tag@0@U_Range_checked_iterator_tag@0@@Z 1001c800 f i PlugInUtilities:RasterUtilities.obj
 0001:0001b830       ??$unchecked_uninitialized_copy@V?$_Vector_const_iterator@_JV?$allocator@_J@std@@@std@@PA_JV?$allocator@_J@2@@stdext@@YAPA_JV?$_Vector_const_iterator@_JV?$allocator@_J@std@@@std@@0PA_JAAV?$allocator@_J@2@@Z 1001c830 f i PlugInUtilities:RasterUtilities.obj
 0001:0001b860       ??$_Uninit_fill_n@PA_JI_JV?$allocator@_J@std@@@std@@YAXPA_JIAB_JAAV?$allocator@_J@0@U_Scalar_ptr_iterator_tag@0@U_Range_checked_iterator_tag@0@@Z 1001c860 f i PlugInUtilities:RasterUtilities.obj
 0001:0001b890       ??$unchecked_uninitialized_copy@V?$_Vector_const_iterator@_KV?$allocator@_K@std@@@std@@PA_KV?$allocator@_K@2@@stdext@@YAPA_KV?$_Vector_const_iterator@_KV?$allocator@_K@std@@@std@@0PA_KAAV?$allocator@_K@2@@Z 1001c890 f i PlugInUtilities:RasterUtilities.obj
 0001:0001b8c0       ??$_Uninit_fill_n@PA_KI_KV?$allocator@_K@std@@@std@@YAXPA_KIAB_KAAV?$allocator@_K@0@U_Scalar_ptr_iterator_tag@0@U_Range_checked_iterator_tag@0@@Z 1001c8c0 f i PlugInUtilities:RasterUtilities.obj
 0001:0001b8f0       ??$unchecked_uninitialized_copy@V?$_Vector_const_iterator@VInt64@@V?$allocator@VInt64@@@std@@@std@@PAVInt64@@V?$allocator@VInt64@@@2@@stdext@@YAPAVInt64@@V?$_Vector_const_iterator@VInt64@@V?$allocator@VInt64@@@std@@@std@@0PAV1@AAV?$allocator@VInt64@@@3@@Z 1001c8f0 f i PlugInUtilities:RasterUtilities.obj
 0001:0001b920       ??$unchecked_uninitialized_copy@V?$_Vector_const_iterator@VUInt64@@V?$allocator@VUInt64@@@std@@@std@@PAVUInt64@@V?$allocator@VUInt64@@@2@@stdext@@YAPAVUInt64@@V?$_Vector_const_iterator@VUInt64@@V?$allocator@VUInt64@@@std@@@std@@0PAV1@AAV?$allocator@VUInt64@@@3@@Z 1001c920 f i PlugInUtilities:RasterUtilities.obj
 0001:0001b950       ??$unchecked_uninitialized_copy@V?$_Vector_const_iterator@MV?$allocator@M@std@@@std@@PAMV?$allocator@M@2@@stdext@@YAPAMV?$_Vector_const_iterator@MV?$allocator@M@std@@@std@@0PAMAAV?$allocator@M@2@@Z 1001c950 f i PlugInUtilities:RasterUtilities.obj
 0001:0001b980       ??$_Uninit_fill_n@PAMIMV?$allocator@M@std@@@std@@YAXPAMIABMAAV?$allocator@M@0@U_Scalar_ptr_iterator_tag@0@U_Range_checked_iterator_tag@0@@Z 1001c980 f i PlugInUtilities:RasterUtilities.obj
 0001:0001b9a0       ??$_Unchecked_uninitialized_move@PAVInt64@@PAV1@V?$allocator@VInt64@@@std@@@stdext@@YAPAVInt64@@PAV1@00AAV?$allocator@VInt64@@@std@@@Z 1001c9a0 f i PlugInUtilities:RasterUtilities.obj
 0001:0001b9d0       ??$_Unchecked_uninitialized_move@PAVUInt64@@PAV1@V?$allocator@VUInt64@@@std@@@stdext@@YAPAVUInt64@@PAV1@00AAV?$allocator@VUInt64@@@std@@@Z 1001c9d0 f i PlugInUtilities:RasterUtilities.obj
 0001:0001ba00       ??$unchecked_uninitialized_copy@PAV?$Location@H$01@Opticks@@PAV12@V?$allocator@V?$Location@H$01@Opticks@@@std@@@stdext@@YAPAV?$Location@H$01@Opticks@@PAV12@00AAV?$allocator@V?$Location@H$01@Opticks@@@std@@@Z 1001ca00 f i PlugInUtilities:RasterUtilities.obj
 0001:0001ba30       ??$_Checked_base@V?$_Vb_iterator@V?$vector@_NV?$allocator@_N@std@@@std@@@std@@@std@@YA?AV?$_Vb_iterator@V?$vector@_NV?$allocator@_N@std@@@std@@@0@AAV10@U_Unchanged_checked_iterator_base_type_tag@0@@Z 1001ca30 f i PlugInUtilities:RasterUtilities.obj
 0001:0001ba60       ?_Dec@?$_Vb_const_iterator@V?$vector@_NV?$allocator@_N@std@@@std@@@std@@IAEXXZ 1001ca60 f i PlugInUtilities:RasterUtilities.obj
 0001:0001bab0       ?getBandName@?A0x92b3477e@@YA?AV?$basic_string@DU?$char_traits@D@std@@V?$allocator@D@2@@std@@PBV?$vector@V?$basic_string@DU?$char_traits@D@std@@V?$allocator@D@2@@std@@V?$allocator@V?$basic_string@DU?$char_traits@D@std@@V?$allocator@D@2@@std@@@2@@3@PBV23@ABVDimensionDescriptor@@@Z 1001cab0 f   PlugInUtilities:RasterUtilities.obj
 0001:0001bc20       ?getBandName@RasterUtilities@@YA?AV?$basic_string@DU?$char_traits@D@std@@V?$allocator@D@2@@std@@PBVRasterDataDescriptor@@VDimensionDescriptor@@@Z 1001cc20 f   PlugInUtilities:RasterUtilities.obj
 0001:0001be50       ??1?$vector@HV?$allocator@H@std@@@std@@QAE@XZ 1001ce50 f i PlugInUtilities:RasterUtilities.obj
 0001:0001be80       ?_Ufill@?$vector@VDimensionDescriptor@@V?$allocator@VDimensionDescriptor@@@std@@@std@@IAEPAVDimensionDescriptor@@PAV3@IABV3@@Z 1001ce80 f i PlugInUtilities:RasterUtilities.obj
 0001:0001bec0       ?_Ufill@?$vector@V?$EnumWrapper@W4RasterChannelTypeEnum@@@@V?$allocator@V?$EnumWrapper@W4RasterChannelTypeEnum@@@@@std@@@std@@IAEPAV?$EnumWrapper@W4RasterChannelTypeEnum@@@@PAV3@IABV3@@Z 1001cec0 f i PlugInUtilities:RasterUtilities.obj
 0001:0001bf00       ?_Destroy@?$vector@VDimensionDescriptor@@V?$allocator@VDimensionDescriptor@@@std@@@std@@IAEXPAVDimensionDescriptor@@0@Z 1001cf00 f i PlugInUtilities:RasterUtilities.obj
 0001:0001bf10       ?_Destroy@?$vector@V?$EnumWrapper@W4RasterChannelTypeEnum@@@@V?$allocator@V?$EnumWrapper@W4RasterChannelTypeEnum@@@@@std@@@std@@IAEXPAV?$EnumWrapper@W4RasterChannelTypeEnum@@@@0@Z 1001cf10 f i PlugInUtilities:RasterUtilities.obj
 0001:0001bf20       ??$for_each@V?$_Vector_iterator@VDimensionDescriptor@@V?$allocator@VDimensionDescriptor@@@std@@@std@@V?$bind_t@XV?$mf1@XVDimensionDescriptor@@_N@_mfi@boost@@V?$list2@V?$arg@$00@boost@@V?$value@_N@_bi@2@@_bi@3@@_bi@boost@@@std@@YA?AV?$bind_t@XV?$mf1@XVDimensionDescriptor@@_N@_mfi@boost@@V?$list2@V?$arg@$00@boost@@V?$value@_N@_bi@2@@_bi@3@@_bi@boost@@V?$_Vector_iterator@VDimensionDescriptor@@V?$allocator@VDimensionDescriptor@@@std@@@0@0V123@@Z 1001cf20 f i PlugInUtilities:RasterUtilities.obj
 0001:0001bf60       ??$_Ucopy@V?$_Vector_const_iterator@V?$EnumWrapper@W4RasterChannelTypeEnum@@@@V?$allocator@V?$EnumWrapper@W4RasterChannelTypeEnum@@@@@std@@@std@@@?$vector@V?$EnumWrapper@W4RasterChannelTypeEnum@@@@V?$allocator@V?$EnumWrapper@W4RasterChannelTypeEnum@@@@@std@@@std@@IAEPAV?$EnumWrapper@W4RasterChannelTypeEnum@@@@V?$_Vector_const_iterator@V?$EnumWrapper@W4RasterChannelTypeEnum@@@@V?$allocator@V?$EnumWrapper@W4RasterChannelTypeEnum@@@@@std@@@1@0PAV2@@Z 1001cf60 f i PlugInUtilities:RasterUtilities.obj
 0001:0001bf90       ??$_Ucopy@V?$_Vector_const_iterator@HV?$allocator@H@std@@@std@@@?$vector@HV?$allocator@H@std@@@std@@IAEPAHV?$_Vector_const_iterator@HV?$allocator@H@std@@@1@0PAH@Z 1001cf90 f i PlugInUtilities:RasterUtilities.obj
 0001:0001bfd0       ??$_Destroy_range@V?$Location@H$01@Opticks@@V?$allocator@V?$Location@H$01@Opticks@@@std@@@std@@YAXPAV?$Location@H$01@Opticks@@0AAV?$allocator@V?$Location@H$01@Opticks@@@0@@Z 1001cfd0 f i PlugInUtilities:RasterUtilities.obj
 0001:0001bfe0       ??$unchecked_uninitialized_fill_n@PAV?$Location@H$01@Opticks@@IV12@V?$allocator@V?$Location@H$01@Opticks@@@std@@@stdext@@YAXPAV?$Location@H$01@Opticks@@IABV12@AAV?$allocator@V?$Location@H$01@Opticks@@@std@@@Z 1001cfe0 f i PlugInUtilities:RasterUtilities.obj
 0001:0001c010       ??$unchecked_uninitialized_fill_n@PAHIHV?$allocator@H@std@@@stdext@@YAXPAHIABHAAV?$allocator@H@std@@@Z 1001d010 f i PlugInUtilities:RasterUtilities.obj
 0001:0001c040       ??$_Umove@PAH@?$vector@HV?$allocator@H@std@@@std@@IAEPAHPAH00@Z 1001d040 f i PlugInUtilities:RasterUtilities.obj
 0001:0001c080       ?reserve@?$vector@HV?$allocator@H@std@@@std@@QAEXI@Z 1001d080 f i PlugInUtilities:RasterUtilities.obj
 0001:0001c130       ??4?$vector@HV?$allocator@H@std@@@std@@QAEAAV01@ABV01@@Z 1001d130 f i PlugInUtilities:RasterUtilities.obj
 0001:0001c260       ?_Destroy@?$vector@VInt64@@V?$allocator@VInt64@@@std@@@std@@IAEXPAVInt64@@0@Z 1001d260 f i PlugInUtilities:RasterUtilities.obj
 0001:0001c270       ?_Tidy@?$vector@VInt64@@V?$allocator@VInt64@@@std@@@std@@IAEXXZ 1001d270 f i PlugInUtilities:RasterUtilities.obj
 0001:0001c2a0       ?_Ufill@?$vector@VInt64@@V?$allocator@VInt64@@@std@@@std@@IAEPAVInt64@@PAV3@IABV3@@Z 1001d2a0 f i PlugInUtilities:RasterUtilities.obj
 0001:0001c2e0       ?_Destroy@?$vector@VUInt64@@V?$allocator@VUInt64@@@std@@@std@@IAEXPAVUInt64@@0@Z 1001d2e0 f i PlugInUtilities:RasterUtilities.obj
 0001:0001c2f0       ?_Tidy@?$vector@VUInt64@@V?$allocator@VUInt64@@@std@@@std@@IAEXXZ 1001d2f0 f i PlugInUtilities:RasterUtilities.obj
 0001:0001c320       ?_Ufill@?$vector@VUInt64@@V?$allocator@VUInt64@@@std@@@std@@IAEPAVUInt64@@PAV3@IABV3@@Z 1001d320 f i PlugInUtilities:RasterUtilities.obj
 0001:0001c360       ?clear@?$vector@NV?$allocator@N@std@@@std@@QAEXXZ 1001d360 f i PlugInUtilities:RasterUtilities.obj
 0001:0001c3a0       ?clear@?$vector@DV?$allocator@D@std@@@std@@QAEXXZ 1001d3a0 f i PlugInUtilities:RasterUtilities.obj
 0001:0001c3f0       ?clear@?$vector@EV?$allocator@E@std@@@std@@QAEXXZ 1001d3f0 f i PlugInUtilities:RasterUtilities.obj
 0001:0001c440       ?clear@?$vector@FV?$allocator@F@std@@@std@@QAEXXZ 1001d440 f i PlugInUtilities:RasterUtilities.obj
 0001:0001c480       ?clear@?$vector@GV?$allocator@G@std@@@std@@QAEXXZ 1001d480 f i PlugInUtilities:RasterUtilities.obj
 0001:0001c4c0       ?clear@?$vector@IV?$allocator@I@std@@@std@@QAEXXZ 1001d4c0 f i PlugInUtilities:RasterUtilities.obj
 0001:0001c500       ?clear@?$vector@JV?$allocator@J@std@@@std@@QAEXXZ 1001d500 f i PlugInUtilities:RasterUtilities.obj
 0001:0001c540       ?clear@?$vector@KV?$allocator@K@std@@@std@@QAEXXZ 1001d540 f i PlugInUtilities:RasterUtilities.obj
 0001:0001c580       ?clear@?$vector@_JV?$allocator@_J@std@@@std@@QAEXXZ 1001d580 f i PlugInUtilities:RasterUtilities.obj
 0001:0001c5c0       ?clear@?$vector@_KV?$allocator@_K@std@@@std@@QAEXXZ 1001d5c0 f i PlugInUtilities:RasterUtilities.obj
 0001:0001c600       ?clear@?$vector@MV?$allocator@M@std@@@std@@QAEXXZ 1001d600 f i PlugInUtilities:RasterUtilities.obj
 0001:0001c640       ?_My_actual_offset@?$_Vb_iter_base@V?$vector@_NV?$allocator@_N@std@@@std@@@std@@QBEIXZ 1001d640 f i PlugInUtilities:RasterUtilities.obj
 0001:0001c670       ?erase@?$vector@VInt64@@V?$allocator@VInt64@@@std@@@std@@QAE?AV?$_Vector_iterator@VInt64@@V?$allocator@VInt64@@@std@@@2@V32@0@Z 1001d670 f i PlugInUtilities:RasterUtilities.obj
 0001:0001c6d0       ?erase@?$vector@VUInt64@@V?$allocator@VUInt64@@@std@@@std@@QAE?AV?$_Vector_iterator@VUInt64@@V?$allocator@VUInt64@@@std@@@2@V32@0@Z 1001d6d0 f i PlugInUtilities:RasterUtilities.obj
 0001:0001c730       ??Y?$_Vb_const_iterator@V?$vector@_NV?$allocator@_N@std@@@std@@@std@@QAEAAV01@H@Z 1001d730 f i PlugInUtilities:RasterUtilities.obj
 0001:0001c800       ??$equal@V?$_Vector_const_iterator@VDimensionDescriptor@@V?$allocator@VDimensionDescriptor@@@std@@@std@@V12@@std@@YA_NV?$_Vector_const_iterator@VDimensionDescriptor@@V?$allocator@VDimensionDescriptor@@@std@@@0@00@Z 1001d800 f i PlugInUtilities:RasterUtilities.obj
 0001:0001c830       ??$_Unchecked_uninitialized_move@PAVDimensionDescriptor@@PAV1@V?$allocator@VDimensionDescriptor@@@std@@@stdext@@YAPAVDimensionDescriptor@@PAV1@00AAV?$allocator@VDimensionDescriptor@@@std@@@Z 1001d830 f i PlugInUtilities:RasterUtilities.obj
 0001:0001c860       ??$_Unchecked_uninitialized_move@PAV?$EnumWrapper@W4RasterChannelTypeEnum@@@@PAV1@V?$allocator@V?$EnumWrapper@W4RasterChannelTypeEnum@@@@@std@@@stdext@@YAPAV?$EnumWrapper@W4RasterChannelTypeEnum@@@@PAV1@00AAV?$allocator@V?$EnumWrapper@W4RasterChannelTypeEnum@@@@@std@@@Z 1001d860 f i PlugInUtilities:RasterUtilities.obj
 0001:0001c890       ??$_Umove@V?$_Vector_iterator@V?$basic_string@DU?$char_traits@D@std@@V?$allocator@D@2@@std@@V?$allocator@V?$basic_string@DU?$char_traits@D@std@@V?$allocator@D@2@@std@@@2@@std@@@?$vector@V?$basic_string@DU?$char_traits@D@std@@V?$allocator@D@2@@std@@V?$allocator@V?$basic_string@DU?$char_traits@D@std@@V?$allocator@D@2@@std@@@2@@std@@IAEPAV?$basic_string@DU?$char_traits@D@std@@V?$allocator@D@2@@1@V?$_Vector_iterator@V?$basic_string@DU?$char_traits@D@std@@V?$allocator@D@2@@std@@V?$allocator@V?$basic_string@DU?$char_traits@D@std@@V?$allocator@D@2@@std@@@2@@1@0PAV21@@Z 1001d890 f i PlugInUtilities:RasterUtilities.obj
 0001:0001c8c0       ??$_Umove@V?$_Vector_iterator@NV?$allocator@N@std@@@std@@@?$vector@NV?$allocator@N@std@@@std@@IAEPANV?$_Vector_iterator@NV?$allocator@N@std@@@1@0PAN@Z 1001d8c0 f i PlugInUtilities:RasterUtilities.obj
 0001:0001c900       ??$_Umove@V?$_Vector_iterator@DV?$allocator@D@std@@@std@@@?$vector@DV?$allocator@D@std@@@std@@IAEPADV?$_Vector_iterator@DV?$allocator@D@std@@@1@0PAD@Z 1001d900 f i PlugInUtilities:RasterUtilities.obj
 0001:0001c930       ??$_Umove@V?$_Vector_iterator@EV?$allocator@E@std@@@std@@@?$vector@EV?$allocator@E@std@@@std@@IAEPAEV?$_Vector_iterator@EV?$allocator@E@std@@@1@0PAE@Z 1001d930 f i PlugInUtilities:RasterUtilities.obj
 0001:0001c960       ??$_Umove@V?$_Vector_iterator@FV?$allocator@F@std@@@std@@@?$vector@FV?$allocator@F@std@@@std@@IAEPAFV?$_Vector_iterator@FV?$allocator@F@std@@@1@0PAF@Z 1001d960 f i PlugInUtilities:RasterUtilities.obj
 0001:0001c990       ??$_Umove@V?$_Vector_iterator@GV?$allocator@G@std@@@std@@@?$vector@GV?$allocator@G@std@@@std@@IAEPAGV?$_Vector_iterator@GV?$allocator@G@std@@@1@0PAG@Z 1001d990 f i PlugInUtilities:RasterUtilities.obj
 0001:0001c9c0       ??$_Umove@V?$_Vector_iterator@IV?$allocator@I@std@@@std@@@?$vector@IV?$allocator@I@std@@@std@@IAEPAIV?$_Vector_iterator@IV?$allocator@I@std@@@1@0PAI@Z 1001d9c0 f i PlugInUtilities:RasterUtilities.obj
 0001:0001ca00       ??$_Umove@V?$_Vector_iterator@JV?$allocator@J@std@@@std@@@?$vector@JV?$allocator@J@std@@@std@@IAEPAJV?$_Vector_iterator@JV?$allocator@J@std@@@1@0PAJ@Z 1001da00 f i PlugInUtilities:RasterUtilities.obj
 0001:0001ca40       ??$_Umove@V?$_Vector_iterator@KV?$allocator@K@std@@@std@@@?$vector@KV?$allocator@K@std@@@std@@IAEPAKV?$_Vector_iterator@KV?$allocator@K@std@@@1@0PAK@Z 1001da40 f i PlugInUtilities:RasterUtilities.obj
 0001:0001ca80       ??$_Umove@V?$_Vector_iterator@_JV?$allocator@_J@std@@@std@@@?$vector@_JV?$allocator@_J@std@@@std@@IAEPA_JV?$_Vector_iterator@_JV?$allocator@_J@std@@@1@0PA_J@Z 1001da80 f i PlugInUtilities:RasterUtilities.obj
 0001:0001cac0       ??$_Umove@V?$_Vector_iterator@_KV?$allocator@_K@std@@@std@@@?$vector@_KV?$allocator@_K@std@@@std@@IAEPA_KV?$_Vector_iterator@_KV?$allocator@_K@std@@@1@0PA_K@Z 1001dac0 f i PlugInUtilities:RasterUtilities.obj
 0001:0001cb00       ??$_Umove@V?$_Vector_iterator@VInt64@@V?$allocator@VInt64@@@std@@@std@@@?$vector@VInt64@@V?$allocator@VInt64@@@std@@@std@@IAEPAVInt64@@V?$_Vector_iterator@VInt64@@V?$allocator@VInt64@@@std@@@1@0PAV2@@Z 1001db00 f i PlugInUtilities:RasterUtilities.obj
 0001:0001cb30       ??$_Umove@V?$_Vector_iterator@VUInt64@@V?$allocator@VUInt64@@@std@@@std@@@?$vector@VUInt64@@V?$allocator@VUInt64@@@std@@@std@@IAEPAVUInt64@@V?$_Vector_iterator@VUInt64@@V?$allocator@VUInt64@@@std@@@1@0PAV2@@Z 1001db30 f i PlugInUtilities:RasterUtilities.obj
 0001:0001cb60       ??$_Umove@V?$_Vector_iterator@MV?$allocator@M@std@@@std@@@?$vector@MV?$allocator@M@std@@@std@@IAEPAMV?$_Vector_iterator@MV?$allocator@M@std@@@1@0PAM@Z 1001db60 f i PlugInUtilities:RasterUtilities.obj
 0001:0001cba0       ??$_Ucopy@PAV?$basic_string@DU?$char_traits@D@std@@V?$allocator@D@2@@std@@@?$vector@V?$basic_string@DU?$char_traits@D@std@@V?$allocator@D@2@@std@@V?$allocator@V?$basic_string@DU?$char_traits@D@std@@V?$allocator@D@2@@std@@@2@@std@@IAEPAV?$basic_string@DU?$char_traits@D@std@@V?$allocator@D@2@@1@PAV21@00@Z 1001dba0 f i PlugInUtilities:RasterUtilities.obj
 0001:0001cbd0       ??$_Ucopy@V?$_Vector_const_iterator@NV?$allocator@N@std@@@std@@@?$vector@NV?$allocator@N@std@@@std@@IAEPANV?$_Vector_const_iterator@NV?$allocator@N@std@@@1@0PAN@Z 1001dbd0 f i PlugInUtilities:RasterUtilities.obj
 0001:0001cc10       ??$unchecked_uninitialized_fill_n@PANINV?$allocator@N@std@@@stdext@@YAXPANIABNAAV?$allocator@N@std@@@Z 1001dc10 f i PlugInUtilities:RasterUtilities.obj
 0001:0001cc30       ??$_Ucopy@V?$_Vector_const_iterator@DV?$allocator@D@std@@@std@@@?$vector@DV?$allocator@D@std@@@std@@IAEPADV?$_Vector_const_iterator@DV?$allocator@D@std@@@1@0PAD@Z 1001dc30 f i PlugInUtilities:RasterUtilities.obj
 0001:0001cc60       ??$unchecked_uninitialized_fill_n@PADIDV?$allocator@D@std@@@stdext@@YAXPADIABDAAV?$allocator@D@std@@@Z 1001dc60 f i PlugInUtilities:RasterUtilities.obj
 0001:0001cc90       ??$_Ucopy@V?$_Vector_const_iterator@EV?$allocator@E@std@@@std@@@?$vector@EV?$allocator@E@std@@@std@@IAEPAEV?$_Vector_const_iterator@EV?$allocator@E@std@@@1@0PAE@Z 1001dc90 f i PlugInUtilities:RasterUtilities.obj
 0001:0001ccc0       ??$unchecked_uninitialized_fill_n@PAEIEV?$allocator@E@std@@@stdext@@YAXPAEIABEAAV?$allocator@E@std@@@Z 1001dcc0 f i PlugInUtilities:RasterUtilities.obj
 0001:0001ccf0       ??$_Ucopy@V?$_Vector_const_iterator@FV?$allocator@F@std@@@std@@@?$vector@FV?$allocator@F@std@@@std@@IAEPAFV?$_Vector_const_iterator@FV?$allocator@F@std@@@1@0PAF@Z 1001dcf0 f i PlugInUtilities:RasterUtilities.obj
 0001:0001cd20       ??$unchecked_uninitialized_fill_n@PAFIFV?$allocator@F@std@@@stdext@@YAXPAFIABFAAV?$allocator@F@std@@@Z 1001dd20 f i PlugInUtilities:RasterUtilities.obj
 0001:0001cd50       ??$_Ucopy@V?$_Vector_const_iterator@GV?$allocator@G@std@@@std@@@?$vector@GV?$allocator@G@std@@@std@@IAEPAGV?$_Vector_const_iterator@GV?$allocator@G@std@@@1@0PAG@Z 1001dd50 f i PlugInUtilities:RasterUtilities.obj
 0001:0001cd80       ??$unchecked_uninitialized_fill_n@PAGIGV?$allocator@G@std@@@stdext@@YAXPAGIABGAAV?$allocator@G@std@@@Z 1001dd80 f i PlugInUtilities:RasterUtilities.obj
 0001:0001cdb0       ??$_Ucopy@V?$_Vector_const_iterator@IV?$allocator@I@std@@@std@@@?$vector@IV?$allocator@I@std@@@std@@IAEPAIV?$_Vector_const_iterator@IV?$allocator@I@std@@@1@0PAI@Z 1001ddb0 f i PlugInUtilities:RasterUtilities.obj
 0001:0001cdf0       ??$unchecked_uninitialized_fill_n@PAIIIV?$allocator@I@std@@@stdext@@YAXPAIIABIAAV?$allocator@I@std@@@Z 1001ddf0 f i PlugInUtilities:RasterUtilities.obj
 0001:0001ce20       ??$_Ucopy@V?$_Vector_const_iterator@JV?$allocator@J@std@@@std@@@?$vector@JV?$allocator@J@std@@@std@@IAEPAJV?$_Vector_const_iterator@JV?$allocator@J@std@@@1@0PAJ@Z 1001de20 f i PlugInUtilities:RasterUtilities.obj
 0001:0001ce60       ??$unchecked_uninitialized_fill_n@PAJIJV?$allocator@J@std@@@stdext@@YAXPAJIABJAAV?$allocator@J@std@@@Z 1001de60 f i PlugInUtilities:RasterUtilities.obj
 0001:0001ce90       ??$_Ucopy@V?$_Vector_const_iterator@KV?$allocator@K@std@@@std@@@?$vector@KV?$allocator@K@std@@@std@@IAEPAKV?$_Vector_const_iterator@KV?$allocator@K@std@@@1@0PAK@Z 1001de90 f i PlugInUtilities:RasterUtilities.obj
 0001:0001ced0       ??$unchecked_uninitialized_fill_n@PAKIKV?$allocator@K@std@@@stdext@@YAXPAKIABKAAV?$allocator@K@std@@@Z 1001ded0 f i PlugInUtilities:RasterUtilities.obj
 0001:0001cf00       ??$_Ucopy@V?$_Vector_const_iterator@_JV?$allocator@_J@std@@@std@@@?$vector@_JV?$allocator@_J@std@@@std@@IAEPA_JV?$_Vector_const_iterator@_JV?$allocator@_J@std@@@1@0PA_J@Z 1001df00 f i PlugInUtilities:RasterUtilities.obj
 0001:0001cf40       ??$unchecked_uninitialized_fill_n@PA_JI_JV?$allocator@_J@std@@@stdext@@YAXPA_JIAB_JAAV?$allocator@_J@std@@@Z 1001df40 f i PlugInUtilities:RasterUtilities.obj
 0001:0001cf70       ??$_Ucopy@V?$_Vector_const_iterator@_KV?$allocator@_K@std@@@std@@@?$vector@_KV?$allocator@_K@std@@@std@@IAEPA_KV?$_Vector_const_iterator@_KV?$allocator@_K@std@@@1@0PA_K@Z 1001df70 f i PlugInUtilities:RasterUtilities.obj
 0001:0001cfb0       ??$unchecked_uninitialized_fill_n@PA_KI_KV?$allocator@_K@std@@@stdext@@YAXPA_KIAB_KAAV?$allocator@_K@std@@@Z 1001dfb0 f i PlugInUtilities:RasterUtilities.obj
 0001:0001cfe0       ??$_Ucopy@V?$_Vector_const_iterator@VInt64@@V?$allocator@VInt64@@@std@@@std@@@?$vector@VInt64@@V?$allocator@VInt64@@@std@@@std@@IAEPAVInt64@@V?$_Vector_const_iterator@VInt64@@V?$allocator@VInt64@@@std@@@1@0PAV2@@Z 1001dfe0 f i PlugInUtilities:RasterUtilities.obj
 0001:0001d010       ??$_Ucopy@V?$_Vector_const_iterator@VUInt64@@V?$allocator@VUInt64@@@std@@@std@@@?$vector@VUInt64@@V?$allocator@VUInt64@@@std@@@std@@IAEPAVUInt64@@V?$_Vector_const_iterator@VUInt64@@V?$allocator@VUInt64@@@std@@@1@0PAV2@@Z 1001e010 f i PlugInUtilities:RasterUtilities.obj
 0001:0001d040       ??$_Ucopy@V?$_Vector_const_iterator@MV?$allocator@M@std@@@std@@@?$vector@MV?$allocator@M@std@@@std@@IAEPAMV?$_Vector_const_iterator@MV?$allocator@M@std@@@1@0PAM@Z 1001e040 f i PlugInUtilities:RasterUtilities.obj
 0001:0001d080       ??$unchecked_uninitialized_fill_n@PAMIMV?$allocator@M@std@@@stdext@@YAXPAMIABMAAV?$allocator@M@std@@@Z 1001e080 f i PlugInUtilities:RasterUtilities.obj
 0001:0001d0a0       ??$_Umove@PAVInt64@@@?$vector@VInt64@@V?$allocator@VInt64@@@std@@@std@@IAEPAVInt64@@PAV2@00@Z 1001e0a0 f i PlugInUtilities:RasterUtilities.obj
 0001:0001d0d0       ??$_Umove@PAVUInt64@@@?$vector@VUInt64@@V?$allocator@VUInt64@@@std@@@std@@IAEPAVUInt64@@PAV2@00@Z 1001e0d0 f i PlugInUtilities:RasterUtilities.obj
 0001:0001d100       ??$_Uninit_move@PAV?$Location@H$01@Opticks@@PAV12@V?$allocator@V?$Location@H$01@Opticks@@@std@@U_Undefined_move_tag@4@@std@@YAPAV?$Location@H$01@Opticks@@PAV12@00AAV?$allocator@V?$Location@H$01@Opticks@@@0@U_Undefined_move_tag@0@U_Range_checked_iterator_tag@0@@Z 1001e100 f i PlugInUtilities:RasterUtilities.obj
 0001:0001d120       ??$_Checked_base@V?$_Vb_iterator@V?$vector@_NV?$allocator@_N@std@@@std@@@std@@@std@@YA?AV?$_Vb_iterator@V?$vector@_NV?$allocator@_N@std@@@std@@@0@AAV10@@Z 1001e120 f i PlugInUtilities:RasterUtilities.obj
 0001:0001d150       ?_Inc@?$_Vb_const_iterator@V?$vector@_NV?$allocator@_N@std@@@std@@@std@@IAEXXZ 1001e150 f i PlugInUtilities:RasterUtilities.obj
 0001:0001d1c0       ??F?$_Vb_const_iterator@V?$vector@_NV?$allocator@_N@std@@@std@@@std@@QAEAAV01@XZ 1001e1c0 f i PlugInUtilities:RasterUtilities.obj
 0001:0001d210       ??0?$vector@HV?$allocator@H@std@@@std@@QAE@ABV01@@Z 1001e210 f i PlugInUtilities:RasterUtilities.obj
 0001:0001d2b0       ?erase@?$vector@VDimensionDescriptor@@V?$allocator@VDimensionDescriptor@@@std@@@std@@QAE?AV?$_Vector_iterator@VDimensionDescriptor@@V?$allocator@VDimensionDescriptor@@@std@@@2@V32@0@Z 1001e2b0 f i PlugInUtilities:RasterUtilities.obj
 0001:0001d300       ?_Tidy@?$vector@VDimensionDescriptor@@V?$allocator@VDimensionDescriptor@@@std@@@std@@IAEXXZ 1001e300 f i PlugInUtilities:RasterUtilities.obj
 0001:0001d330       ?_Destroy@?$vector@V?$Location@H$01@Opticks@@V?$allocator@V?$Location@H$01@Opticks@@@std@@@std@@IAEXPAV?$Location@H$01@Opticks@@0@Z 1001e330 f i PlugInUtilities:RasterUtilities.obj
 0001:0001d340       ?_Tidy@?$vector@V?$Location@H$01@Opticks@@V?$allocator@V?$Location@H$01@Opticks@@@std@@@std@@IAEXXZ 1001e340 f i PlugInUtilities:RasterUtilities.obj
 0001:0001d370       ?_Ufill@?$vector@V?$Location@H$01@Opticks@@V?$allocator@V?$Location@H$01@Opticks@@@std@@@std@@IAEPAV?$Location@H$01@Opticks@@PAV34@IABV34@@Z 1001e370 f i PlugInUtilities:RasterUtilities.obj
 0001:0001d3b0       ?_Tidy@?$vector@V?$EnumWrapper@W4RasterChannelTypeEnum@@@@V?$allocator@V?$EnumWrapper@W4RasterChannelTypeEnum@@@@@std@@@std@@IAEXXZ 1001e3b0 f i PlugInUtilities:RasterUtilities.obj
 0001:0001d3e0       ?_Ufill@?$vector@HV?$allocator@H@std@@@std@@IAEPAHPAHIABH@Z 1001e3e0 f i PlugInUtilities:RasterUtilities.obj
 0001:0001d410       ?_Insert_n@?$vector@HV?$allocator@H@std@@@std@@IAEXV?$_Vector_iterator@HV?$allocator@H@std@@@2@IABH@Z 1001e410 f i PlugInUtilities:RasterUtilities.obj
 0001:0001d5d0       ??$?8VDimensionDescriptor@@V?$allocator@VDimensionDescriptor@@@std@@@std@@YA_NABV?$vector@VDimensionDescriptor@@V?$allocator@VDimensionDescriptor@@@std@@@0@0@Z 1001e5d0 f i PlugInUtilities:RasterUtilities.obj
 0001:0001d660       ??$_Umove@PAVDimensionDescriptor@@@?$vector@VDimensionDescriptor@@V?$allocator@VDimensionDescriptor@@@std@@@std@@IAEPAVDimensionDescriptor@@PAV2@00@Z 1001e660 f i PlugInUtilities:RasterUtilities.obj
 0001:0001d690       ??$_Umove@PAV?$EnumWrapper@W4RasterChannelTypeEnum@@@@@?$vector@V?$EnumWrapper@W4RasterChannelTypeEnum@@@@V?$allocator@V?$EnumWrapper@W4RasterChannelTypeEnum@@@@@std@@@std@@IAEPAV?$EnumWrapper@W4RasterChannelTypeEnum@@@@PAV2@00@Z 1001e690 f i PlugInUtilities:RasterUtilities.obj
 0001:0001d6c0       ?reserve@?$vector@V?$basic_string@DU?$char_traits@D@std@@V?$allocator@D@2@@std@@V?$allocator@V?$basic_string@DU?$char_traits@D@std@@V?$allocator@D@2@@std@@@2@@std@@QAEXI@Z 1001e6c0 f i PlugInUtilities:RasterUtilities.obj
 0001:0001d800       ?reserve@?$vector@NV?$allocator@N@std@@@std@@QAEXI@Z 1001e800 f i PlugInUtilities:RasterUtilities.obj
 0001:0001d8b0       ?swap@?$vector@HV?$allocator@H@std@@@std@@QAEXAAV12@@Z 1001e8b0 f i PlugInUtilities:RasterUtilities.obj
 0001:0001d8e0       ?reserve@?$vector@DV?$allocator@D@std@@@std@@QAEXI@Z 1001e8e0 f i PlugInUtilities:RasterUtilities.obj
 0001:0001d980       ?reserve@?$vector@EV?$allocator@E@std@@@std@@QAEXI@Z 1001e980 f i PlugInUtilities:RasterUtilities.obj
 0001:0001da20       ?reserve@?$vector@FV?$allocator@F@std@@@std@@QAEXI@Z 1001ea20 f i PlugInUtilities:RasterUtilities.obj
 0001:0001dad0       ?reserve@?$vector@GV?$allocator@G@std@@@std@@QAEXI@Z 1001ead0 f i PlugInUtilities:RasterUtilities.obj
 0001:0001db80       ?reserve@?$vector@IV?$allocator@I@std@@@std@@QAEXI@Z 1001eb80 f i PlugInUtilities:RasterUtilities.obj
 0001:0001dc30       ?reserve@?$vector@JV?$allocator@J@std@@@std@@QAEXI@Z 1001ec30 f i PlugInUtilities:RasterUtilities.obj
 0001:0001dce0       ?reserve@?$vector@KV?$allocator@K@std@@@std@@QAEXI@Z 1001ece0 f i PlugInUtilities:RasterUtilities.obj
 0001:0001dd90       ?reserve@?$vector@_JV?$allocator@_J@std@@@std@@QAEXI@Z 1001ed90 f i PlugInUtilities:RasterUtilities.obj
 0001:0001de40       ?reserve@?$vector@_KV?$allocator@_K@std@@@std@@QAEXI@Z 1001ee40 f i PlugInUtilities:RasterUtilities.obj
 0001:0001def0       ??1?$vector@VInt64@@V?$allocator@VInt64@@@std@@@std@@QAE@XZ 1001eef0 f i PlugInUtilities:RasterUtilities.obj
 0001:0001df20       ?reserve@?$vector@VInt64@@V?$allocator@VInt64@@@std@@@std@@QAEXI@Z 1001ef20 f i PlugInUtilities:RasterUtilities.obj
 0001:0001e020       ??1?$vector@VUInt64@@V?$allocator@VUInt64@@@std@@@std@@QAE@XZ 1001f020 f i PlugInUtilities:RasterUtilities.obj
 0001:0001e050       ?reserve@?$vector@VUInt64@@V?$allocator@VUInt64@@@std@@@std@@QAEXI@Z 1001f050 f i PlugInUtilities:RasterUtilities.obj
 0001:0001e150       ?reserve@?$vector@MV?$allocator@M@std@@@std@@QAEXI@Z 1001f150 f i PlugInUtilities:RasterUtilities.obj
 0001:0001e200       ?reserve@?$vector@_NV?$allocator@_N@std@@@std@@QAEXI@Z 1001f200 f i PlugInUtilities:RasterUtilities.obj
 0001:0001e220       ??0?$vector@NV?$allocator@N@std@@@std@@QAE@ABV01@@Z 1001f220 f i PlugInUtilities:RasterUtilities.obj
 0001:0001e2c0       ??4?$vector@NV?$allocator@N@std@@@std@@QAEAAV01@ABV01@@Z 1001f2c0 f i PlugInUtilities:RasterUtilities.obj
 0001:0001e3f0       ?_Ufill@?$vector@NV?$allocator@N@std@@@std@@IAEPANPANIABN@Z 1001f3f0 f i PlugInUtilities:RasterUtilities.obj
 0001:0001e420       ??0?$vector@DV?$allocator@D@std@@@std@@QAE@ABV01@@Z 1001f420 f i PlugInUtilities:RasterUtilities.obj
 0001:0001e4b0       ??4?$vector@DV?$allocator@D@std@@@std@@QAEAAV01@ABV01@@Z 1001f4b0 f i PlugInUtilities:RasterUtilities.obj
 0001:0001e5e0       ?_Ufill@?$vector@DV?$allocator@D@std@@@std@@IAEPADPADIABD@Z 1001f5e0 f i PlugInUtilities:RasterUtilities.obj
 0001:0001e610       ??0?$vector@EV?$allocator@E@std@@@std@@QAE@ABV01@@Z 1001f610 f i PlugInUtilities:RasterUtilities.obj
 0001:0001e6a0       ??4?$vector@EV?$allocator@E@std@@@std@@QAEAAV01@ABV01@@Z 1001f6a0 f i PlugInUtilities:RasterUtilities.obj
 0001:0001e7c0       ?_Ufill@?$vector@EV?$allocator@E@std@@@std@@IAEPAEPAEIABE@Z 1001f7c0 f i PlugInUtilities:RasterUtilities.obj
 0001:0001e7f0       ??0?$vector@FV?$allocator@F@std@@@std@@QAE@ABV01@@Z 1001f7f0 f i PlugInUtilities:RasterUtilities.obj
 0001:0001e890       ??4?$vector@FV?$allocator@F@std@@@std@@QAEAAV01@ABV01@@Z 1001f890 f i PlugInUtilities:RasterUtilities.obj
 0001:0001e9b0       ?_Ufill@?$vector@FV?$allocator@F@std@@@std@@IAEPAFPAFIABF@Z 1001f9b0 f i PlugInUtilities:RasterUtilities.obj
 0001:0001e9e0       ??0?$vector@GV?$allocator@G@std@@@std@@QAE@ABV01@@Z 1001f9e0 f i PlugInUtilities:RasterUtilities.obj
 0001:0001ea80       ??4?$vector@GV?$allocator@G@std@@@std@@QAEAAV01@ABV01@@Z 1001fa80 f i PlugInUtilities:RasterUtilities.obj
 0001:0001eba0       ?_Ufill@?$vector@GV?$allocator@G@std@@@std@@IAEPAGPAGIABG@Z 1001fba0 f i PlugInUtilities:RasterUtilities.obj
 0001:0001ebd0       ??0?$vector@IV?$allocator@I@std@@@std@@QAE@ABV01@@Z 1001fbd0 f i PlugInUtilities:RasterUtilities.obj
 0001:0001ec70       ??4?$vector@IV?$allocator@I@std@@@std@@QAEAAV01@ABV01@@Z 1001fc70 f i PlugInUtilities:RasterUtilities.obj
 0001:0001eda0       ?_Ufill@?$vector@IV?$allocator@I@std@@@std@@IAEPAIPAIIABI@Z 1001fda0 f i PlugInUtilities:RasterUtilities.obj
 0001:0001edd0       ??0?$vector@JV?$allocator@J@std@@@std@@QAE@ABV01@@Z 1001fdd0 f i PlugInUtilities:RasterUtilities.obj
 0001:0001ee70       ??4?$vector@JV?$allocator@J@std@@@std@@QAEAAV01@ABV01@@Z 1001fe70 f i PlugInUtilities:RasterUtilities.obj
 0001:0001efa0       ?_Ufill@?$vector@JV?$allocator@J@std@@@std@@IAEPAJPAJIABJ@Z 1001ffa0 f i PlugInUtilities:RasterUtilities.obj
 0001:0001efd0       ??0?$vector@KV?$allocator@K@std@@@std@@QAE@ABV01@@Z 1001ffd0 f i PlugInUtilities:RasterUtilities.obj
 0001:0001f070       ??4?$vector@KV?$allocator@K@std@@@std@@QAEAAV01@ABV01@@Z 10020070 f i PlugInUtilities:RasterUtilities.obj
 0001:0001f1a0       ?_Ufill@?$vector@KV?$allocator@K@std@@@std@@IAEPAKPAKIABK@Z 100201a0 f i PlugInUtilities:RasterUtilities.obj
 0001:0001f1d0       ??0?$vector@_JV?$allocator@_J@std@@@std@@QAE@ABV01@@Z 100201d0 f i PlugInUtilities:RasterUtilities.obj
 0001:0001f270       ??4?$vector@_JV?$allocator@_J@std@@@std@@QAEAAV01@ABV01@@Z 10020270 f i PlugInUtilities:RasterUtilities.obj
 0001:0001f3a0       ?_Ufill@?$vector@_JV?$allocator@_J@std@@@std@@IAEPA_JPA_JIAB_J@Z 100203a0 f i PlugInUtilities:RasterUtilities.obj
 0001:0001f3e0       ??0?$vector@_KV?$allocator@_K@std@@@std@@QAE@ABV01@@Z 100203e0 f i PlugInUtilities:RasterUtilities.obj
 0001:0001f480       ??4?$vector@_KV?$allocator@_K@std@@@std@@QAEAAV01@ABV01@@Z 10020480 f i PlugInUtilities:RasterUtilities.obj
 0001:0001f5b0       ?_Ufill@?$vector@_KV?$allocator@_K@std@@@std@@IAEPA_KPA_KIAB_K@Z 100205b0 f i PlugInUtilities:RasterUtilities.obj
 0001:0001f5f0       ??0?$vector@VInt64@@V?$allocator@VInt64@@@std@@@std@@QAE@ABV01@@Z 100205f0 f i PlugInUtilities:RasterUtilities.obj
 0001:0001f6d0       ??0?$vector@VUInt64@@V?$allocator@VUInt64@@@std@@@std@@QAE@ABV01@@Z 100206d0 f i PlugInUtilities:RasterUtilities.obj
 0001:0001f7b0       ??0?$vector@MV?$allocator@M@std@@@std@@QAE@ABV01@@Z 100207b0 f i PlugInUtilities:RasterUtilities.obj
 0001:0001f850       ??4?$vector@MV?$allocator@M@std@@@std@@QAEAAV01@ABV01@@Z 10020850 f i PlugInUtilities:RasterUtilities.obj
 0001:0001f980       ?_Ufill@?$vector@MV?$allocator@M@std@@@std@@IAEPAMPAMIABM@Z 10020980 f i PlugInUtilities:RasterUtilities.obj
 0001:0001f9b0       ?_Getptr@?$_Vb_reference@V?$vector@_NV?$allocator@_N@std@@@std@@@std@@QBEPAIXZ 100209b0 f i PlugInUtilities:RasterUtilities.obj
 0001:0001fa00       ?_Insert_n@?$vector@NV?$allocator@N@std@@@std@@IAEXV?$_Vector_iterator@NV?$allocator@N@std@@@2@IABN@Z 10020a00 f i PlugInUtilities:RasterUtilities.obj
 0001:0001fbd0       ?_Insert_n@?$vector@DV?$allocator@D@std@@@std@@IAEXV?$_Vector_iterator@DV?$allocator@D@std@@@2@IABD@Z 10020bd0 f i PlugInUtilities:RasterUtilities.obj
 0001:0001fda0       ?_Insert_n@?$vector@EV?$allocator@E@std@@@std@@IAEXV?$_Vector_iterator@EV?$allocator@E@std@@@2@IABE@Z 10020da0 f i PlugInUtilities:RasterUtilities.obj
 0001:0001ff70       ?_Insert_n@?$vector@FV?$allocator@F@std@@@std@@IAEXV?$_Vector_iterator@FV?$allocator@F@std@@@2@IABF@Z 10020f70 f i PlugInUtilities:RasterUtilities.obj
 0001:00020140       ?_Insert_n@?$vector@GV?$allocator@G@std@@@std@@IAEXV?$_Vector_iterator@GV?$allocator@G@std@@@2@IABG@Z 10021140 f i PlugInUtilities:RasterUtilities.obj
 0001:00020310       ?_Insert_n@?$vector@IV?$allocator@I@std@@@std@@IAEXV?$_Vector_iterator@IV?$allocator@I@std@@@2@IABI@Z 10021310 f i PlugInUtilities:RasterUtilities.obj
 0001:000204d0       ?_Insert_n@?$vector@JV?$allocator@J@std@@@std@@IAEXV?$_Vector_iterator@JV?$allocator@J@std@@@2@IABJ@Z 100214d0 f i PlugInUtilities:RasterUtilities.obj
 0001:00020690       ?_Insert_n@?$vector@KV?$allocator@K@std@@@std@@IAEXV?$_Vector_iterator@KV?$allocator@K@std@@@2@IABK@Z 10021690 f i PlugInUtilities:RasterUtilities.obj
 0001:00020850       ?_Insert_n@?$vector@_JV?$allocator@_J@std@@@std@@IAEXV?$_Vector_iterator@_JV?$allocator@_J@std@@@2@IAB_J@Z 10021850 f i PlugInUtilities:RasterUtilities.obj
 0001:00020a20       ?_Insert_n@?$vector@_KV?$allocator@_K@std@@@std@@IAEXV?$_Vector_iterator@_KV?$allocator@_K@std@@@2@IAB_K@Z 10021a20 f i PlugInUtilities:RasterUtilities.obj
 0001:00020bf0       ?clear@?$vector@VInt64@@V?$allocator@VInt64@@@std@@@std@@QAEXXZ 10021bf0 f i PlugInUtilities:RasterUtilities.obj
 0001:00020c30       ?_Insert_n@?$vector@VInt64@@V?$allocator@VInt64@@@std@@@std@@IAEXV?$_Vector_iterator@VInt64@@V?$allocator@VInt64@@@std@@@2@IABVInt64@@@Z 10021c30 f i PlugInUtilities:RasterUtilities.obj
 0001:00020e80       ?clear@?$vector@VUInt64@@V?$allocator@VUInt64@@@std@@@std@@QAEXXZ 10021e80 f i PlugInUtilities:RasterUtilities.obj
 0001:00020ec0       ?_Insert_n@?$vector@VUInt64@@V?$allocator@VUInt64@@@std@@@std@@IAEXV?$_Vector_iterator@VUInt64@@V?$allocator@VUInt64@@@std@@@2@IABVUInt64@@@Z 10021ec0 f i PlugInUtilities:RasterUtilities.obj
 0001:00021110       ?_Insert_n@?$vector@MV?$allocator@M@std@@@std@@IAEXV?$_Vector_iterator@MV?$allocator@M@std@@@2@IABM@Z 10022110 f i PlugInUtilities:RasterUtilities.obj
 0001:000212d0       ??Y?$_Vb_iterator@V?$vector@_NV?$allocator@_N@std@@@std@@@std@@QAEAAV01@H@Z 100222d0 f i PlugInUtilities:RasterUtilities.obj
 0001:000212f0       ?resize@?$vector@IV?$allocator@I@std@@@std@@QAEXII@Z 100222f0 f i PlugInUtilities:RasterUtilities.obj
 0001:000213b0       ??$_Unchecked_uninitialized_move@V?$_Vector_iterator@V?$Location@H$01@Opticks@@V?$allocator@V?$Location@H$01@Opticks@@@std@@@std@@PAV?$Location@H$01@Opticks@@V?$allocator@V?$Location@H$01@Opticks@@@2@@stdext@@YAPAV?$Location@H$01@Opticks@@V?$_Vector_iterator@V?$Location@H$01@Opticks@@V?$allocator@V?$Location@H$01@Opticks@@@std@@@std@@0PAV12@AAV?$allocator@V?$Location@H$01@Opticks@@@4@@Z 100223b0 f i PlugInUtilities:RasterUtilities.obj
 0001:000213e0       ??$_Unchecked_uninitialized_move@PAV?$Location@H$01@Opticks@@PAV12@V?$allocator@V?$Location@H$01@Opticks@@@std@@@stdext@@YAPAV?$Location@H$01@Opticks@@PAV12@00AAV?$allocator@V?$Location@H$01@Opticks@@@std@@@Z 100223e0 f i PlugInUtilities:RasterUtilities.obj
 0001:00021410       ??4?$_Vb_reference@V?$vector@_NV?$allocator@_N@std@@@std@@@std@@QAEAAV01@_N@Z 10022410 f i PlugInUtilities:RasterUtilities.obj
 0001:00021440       ??Z?$_Vb_iterator@V?$vector@_NV?$allocator@_N@std@@@std@@@std@@QAEAAV01@H@Z 10022440 f i PlugInUtilities:RasterUtilities.obj
 0001:00021460       ??E?$_Vb_const_iterator@V?$vector@_NV?$allocator@_N@std@@@std@@@std@@QAEAAV01@XZ 10022460 f i PlugInUtilities:RasterUtilities.obj
 0001:00021470       ??F?$_Vb_iterator@V?$vector@_NV?$allocator@_N@std@@@std@@@std@@QAEAAV01@XZ 10022470 f i PlugInUtilities:RasterUtilities.obj
 0001:00021480       ?isSubcube@RasterUtilities@@YA_NPBVRasterDataDescriptor@@_N@Z 10022480 f   PlugInUtilities:RasterUtilities.obj
 0001:00021560       ??0?$vector@VDimensionDescriptor@@V?$allocator@VDimensionDescriptor@@@std@@@std@@QAE@ABV01@@Z 10022560 f i PlugInUtilities:RasterUtilities.obj
 0001:00021640       ??1?$vector@VDimensionDescriptor@@V?$allocator@VDimensionDescriptor@@@std@@@std@@QAE@XZ 10022640 f i PlugInUtilities:RasterUtilities.obj
 0001:00021670       ?clear@?$vector@VDimensionDescriptor@@V?$allocator@VDimensionDescriptor@@@std@@@std@@QAEXXZ 10022670 f i PlugInUtilities:RasterUtilities.obj
 0001:000216b0       ??1?$vector@V?$Location@H$01@Opticks@@V?$allocator@V?$Location@H$01@Opticks@@@std@@@std@@QAE@XZ 100226b0 f i PlugInUtilities:RasterUtilities.obj
 0001:000216e0       ??0?$vector@V?$EnumWrapper@W4RasterChannelTypeEnum@@@@V?$allocator@V?$EnumWrapper@W4RasterChannelTypeEnum@@@@@std@@@std@@QAE@ABV01@@Z 100226e0 f i PlugInUtilities:RasterUtilities.obj
 0001:000217c0       ??1?$vector@V?$EnumWrapper@W4RasterChannelTypeEnum@@@@V?$allocator@V?$EnumWrapper@W4RasterChannelTypeEnum@@@@@std@@@std@@QAE@XZ 100227c0 f i PlugInUtilities:RasterUtilities.obj
 0001:000217f0       ?_Construct_n@?$vector@VDimensionDescriptor@@V?$allocator@VDimensionDescriptor@@@std@@@std@@QAEXIABVDimensionDescriptor@@@Z 100227f0 f i PlugInUtilities:RasterUtilities.obj
 0001:000218a0       ?erase@?$vector@V?$Location@H$01@Opticks@@V?$allocator@V?$Location@H$01@Opticks@@@std@@@std@@QAE?AV?$_Vector_iterator@V?$Location@H$01@Opticks@@V?$allocator@V?$Location@H$01@Opticks@@@std@@@2@V32@0@Z 100228a0 f i PlugInUtilities:RasterUtilities.obj
 0001:00021900       ?insert@?$vector@HV?$allocator@H@std@@@std@@QAE?AV?$_Vector_iterator@HV?$allocator@H@std@@@2@V32@ABH@Z 10022900 f i PlugInUtilities:RasterUtilities.obj
 0001:00021990       ?_Insert_n@?$vector@VDimensionDescriptor@@V?$allocator@VDimensionDescriptor@@@std@@@std@@IAEXV?$_Vector_iterator@VDimensionDescriptor@@V?$allocator@VDimensionDescriptor@@@std@@@2@IABVDimensionDescriptor@@@Z 10022990 f i PlugInUtilities:RasterUtilities.obj
 0001:00021be0       ?_Insert_n@?$vector@V?$EnumWrapper@W4RasterChannelTypeEnum@@@@V?$allocator@V?$EnumWrapper@W4RasterChannelTypeEnum@@@@@std@@@std@@IAEXV?$_Vector_iterator@V?$EnumWrapper@W4RasterChannelTypeEnum@@@@V?$allocator@V?$EnumWrapper@W4RasterChannelTypeEnum@@@@@std@@@2@IABV?$EnumWrapper@W4RasterChannelTypeEnum@@@@@Z 10022be0 f i PlugInUtilities:RasterUtilities.obj
 0001:00021e30       ??$_Umove@V?$_Vector_iterator@V?$Location@H$01@Opticks@@V?$allocator@V?$Location@H$01@Opticks@@@std@@@std@@@?$vector@V?$Location@H$01@Opticks@@V?$allocator@V?$Location@H$01@Opticks@@@std@@@std@@IAEPAV?$Location@H$01@Opticks@@V?$_Vector_iterator@V?$Location@H$01@Opticks@@V?$allocator@V?$Location@H$01@Opticks@@@std@@@1@0PAV23@@Z 10022e30 f i PlugInUtilities:RasterUtilities.obj
 0001:00021e60       ??$_Umove@PAV?$Location@H$01@Opticks@@@?$vector@V?$Location@H$01@Opticks@@V?$allocator@V?$Location@H$01@Opticks@@@std@@@std@@IAEPAV?$Location@H$01@Opticks@@PAV23@00@Z 10022e60 f i PlugInUtilities:RasterUtilities.obj
 0001:00021e90       ?swap@?$vector@NV?$allocator@N@std@@@std@@QAEXAAV12@@Z 10022e90 f i PlugInUtilities:RasterUtilities.obj
 0001:00021ec0       ?swap@?$vector@DV?$allocator@D@std@@@std@@QAEXAAV12@@Z 10022ec0 f i PlugInUtilities:RasterUtilities.obj
 0001:00021ef0       ?swap@?$vector@EV?$allocator@E@std@@@std@@QAEXAAV12@@Z 10022ef0 f i PlugInUtilities:RasterUtilities.obj
 0001:00021f20       ?swap@?$vector@FV?$allocator@F@std@@@std@@QAEXAAV12@@Z 10022f20 f i PlugInUtilities:RasterUtilities.obj
 0001:00021f50       ?swap@?$vector@GV?$allocator@G@std@@@std@@QAEXAAV12@@Z 10022f50 f i PlugInUtilities:RasterUtilities.obj
 0001:00021f80       ?swap@?$vector@IV?$allocator@I@std@@@std@@QAEXAAV12@@Z 10022f80 f i PlugInUtilities:RasterUtilities.obj
 0001:00021fb0       ?swap@?$vector@JV?$allocator@J@std@@@std@@QAEXAAV12@@Z 10022fb0 f i PlugInUtilities:RasterUtilities.obj
 0001:00021fe0       ?swap@?$vector@KV?$allocator@K@std@@@std@@QAEXAAV12@@Z 10022fe0 f i PlugInUtilities:RasterUtilities.obj
 0001:00022010       ?swap@?$vector@_JV?$allocator@_J@std@@@std@@QAEXAAV12@@Z 10023010 f i PlugInUtilities:RasterUtilities.obj
 0001:00022040       ?swap@?$vector@_KV?$allocator@_K@std@@@std@@QAEXAAV12@@Z 10023040 f i PlugInUtilities:RasterUtilities.obj
 0001:00022070       ?swap@?$vector@MV?$allocator@M@std@@@std@@QAEXAAV12@@Z 10023070 f i PlugInUtilities:RasterUtilities.obj
 0001:000220a0       ?swap@?$vector@_NV?$allocator@_N@std@@@std@@QAEXAAV12@@Z 100230a0 f i PlugInUtilities:RasterUtilities.obj
 0001:000220e0       ??B?$_Vb_reference@V?$vector@_NV?$allocator@_N@std@@@std@@@std@@QBE_NXZ 100230e0 f i PlugInUtilities:RasterUtilities.obj
 0001:00022140       ?insert@?$vector@NV?$allocator@N@std@@@std@@QAE?AV?$_Vector_iterator@NV?$allocator@N@std@@@2@V32@ABN@Z 10023140 f i PlugInUtilities:RasterUtilities.obj
 0001:000221d0       ?insert@?$vector@DV?$allocator@D@std@@@std@@QAE?AV?$_Vector_iterator@DV?$allocator@D@std@@@2@V32@ABD@Z 100231d0 f i PlugInUtilities:RasterUtilities.obj
 0001:00022260       ?insert@?$vector@EV?$allocator@E@std@@@std@@QAE?AV?$_Vector_iterator@EV?$allocator@E@std@@@2@V32@ABE@Z 10023260 f i PlugInUtilities:RasterUtilities.obj
 0001:000222f0       ?insert@?$vector@FV?$allocator@F@std@@@std@@QAE?AV?$_Vector_iterator@FV?$allocator@F@std@@@2@V32@ABF@Z 100232f0 f i PlugInUtilities:RasterUtilities.obj
 0001:00022380       ?insert@?$vector@GV?$allocator@G@std@@@std@@QAE?AV?$_Vector_iterator@GV?$allocator@G@std@@@2@V32@ABG@Z 10023380 f i PlugInUtilities:RasterUtilities.obj
 0001:00022410       ?insert@?$vector@IV?$allocator@I@std@@@std@@QAE?AV?$_Vector_iterator@IV?$allocator@I@std@@@2@V32@ABI@Z 10023410 f i PlugInUtilities:RasterUtilities.obj
 0001:000224a0       ?insert@?$vector@JV?$allocator@J@std@@@std@@QAE?AV?$_Vector_iterator@JV?$allocator@J@std@@@2@V32@ABJ@Z 100234a0 f i PlugInUtilities:RasterUtilities.obj
 0001:00022530       ?insert@?$vector@KV?$allocator@K@std@@@std@@QAE?AV?$_Vector_iterator@KV?$allocator@K@std@@@2@V32@ABK@Z 10023530 f i PlugInUtilities:RasterUtilities.obj
 0001:000225c0       ?insert@?$vector@_JV?$allocator@_J@std@@@std@@QAE?AV?$_Vector_iterator@_JV?$allocator@_J@std@@@2@V32@AB_J@Z 100235c0 f i PlugInUtilities:RasterUtilities.obj
 0001:00022650       ?insert@?$vector@_KV?$allocator@_K@std@@@std@@QAE?AV?$_Vector_iterator@_KV?$allocator@_K@std@@@2@V32@AB_K@Z 10023650 f i PlugInUtilities:RasterUtilities.obj
 0001:000226e0       ??4?$vector@VInt64@@V?$allocator@VInt64@@@std@@@std@@QAEAAV01@ABV01@@Z 100236e0 f i PlugInUtilities:RasterUtilities.obj
 0001:00022820       ?insert@?$vector@VInt64@@V?$allocator@VInt64@@@std@@@std@@QAE?AV?$_Vector_iterator@VInt64@@V?$allocator@VInt64@@@std@@@2@V32@ABVInt64@@@Z 10023820 f i PlugInUtilities:RasterUtilities.obj
 0001:000228b0       ??4?$vector@VUInt64@@V?$allocator@VUInt64@@@std@@@std@@QAEAAV01@ABV01@@Z 100238b0 f i PlugInUtilities:RasterUtilities.obj
 0001:000229f0       ?insert@?$vector@VUInt64@@V?$allocator@VUInt64@@@std@@@std@@QAE?AV?$_Vector_iterator@VUInt64@@V?$allocator@VUInt64@@@std@@@2@V32@ABVUInt64@@@Z 100239f0 f i PlugInUtilities:RasterUtilities.obj
 0001:00022a80       ?insert@?$vector@MV?$allocator@M@std@@@std@@QAE?AV?$_Vector_iterator@MV?$allocator@M@std@@@2@V32@ABM@Z 10023a80 f i PlugInUtilities:RasterUtilities.obj
 0001:00022b10       ?end@?$vector@_NV?$allocator@_N@std@@@std@@QAE?AV?$_Vb_iterator@V?$vector@_NV?$allocator@_N@std@@@std@@@2@XZ 10023b10 f i PlugInUtilities:RasterUtilities.obj
 0001:00022b60       ??H?$_Vb_iterator@V?$vector@_NV?$allocator@_N@std@@@std@@@std@@QBE?AV01@H@Z 10023b60 f i PlugInUtilities:RasterUtilities.obj
 0001:00022bd0       ??E?$_Vb_iterator@V?$vector@_NV?$allocator@_N@std@@@std@@@std@@QAEAAV01@XZ 10023bd0 f i PlugInUtilities:RasterUtilities.obj
 0001:00022be0       ??G?$_Vb_iterator@V?$vector@_NV?$allocator@_N@std@@@std@@@std@@QBE?AV01@H@Z 10023be0 f i PlugInUtilities:RasterUtilities.obj
 0001:00022c50       ??4?$_Vb_reference@V?$vector@_NV?$allocator@_N@std@@@std@@@std@@QAEAAV01@ABV01@@Z 10023c50 f i PlugInUtilities:RasterUtilities.obj
 0001:00022ca0       ?setFileDescriptor@?A0x92b3477e@@YAXPAVDataDescriptor@@PAVFileDescriptor@@ABV?$basic_string@DU?$char_traits@D@std@@V?$allocator@D@2@@std@@2V?$EnumWrapper@W4EndianTypeEnum@@@@@Z 10023ca0 f   PlugInUtilities:RasterUtilities.obj
 0001:00023060       ?generateFileDescriptor@RasterUtilities@@YAPAVFileDescriptor@@PAVDataDescriptor@@ABV?$basic_string@DU?$char_traits@D@std@@V?$allocator@D@2@@std@@1V?$EnumWrapper@W4EndianTypeEnum@@@@@Z 10024060 f   PlugInUtilities:RasterUtilities.obj
 0001:00023110       ?generateAndSetFileDescriptor@RasterUtilities@@YAPAVFileDescriptor@@PAVDataDescriptor@@ABV?$basic_string@DU?$char_traits@D@std@@V?$allocator@D@2@@std@@1V?$EnumWrapper@W4EndianTypeEnum@@@@@Z 10024110 f   PlugInUtilities:RasterUtilities.obj
 0001:00023250       ?generateUnchippedRasterDataDescriptor@RasterUtilities@@YAPAVRasterDataDescriptor@@PBVRasterElement@@@Z 10024250 f   PlugInUtilities:RasterUtilities.obj
 0001:000236f0       ??0?$vector@VDimensionDescriptor@@V?$allocator@VDimensionDescriptor@@@std@@@std@@QAE@I@Z 100246f0 f i PlugInUtilities:RasterUtilities.obj
 0001:00023730       ?reserve@?$vector@V?$Location@H$01@Opticks@@V?$allocator@V?$Location@H$01@Opticks@@@std@@@std@@QAEXI@Z 10024730 f i PlugInUtilities:RasterUtilities.obj
 0001:00023860       ?clear@?$vector@V?$Location@H$01@Opticks@@V?$allocator@V?$Location@H$01@Opticks@@@std@@@std@@QAEXXZ 10024860 f i PlugInUtilities:RasterUtilities.obj
 0001:000238a0       ?push_back@?$vector@HV?$allocator@H@std@@@std@@QAEXABH@Z 100248a0 f i PlugInUtilities:RasterUtilities.obj
 0001:00023910       ?insert@?$vector@VDimensionDescriptor@@V?$allocator@VDimensionDescriptor@@@std@@@std@@QAE?AV?$_Vector_iterator@VDimensionDescriptor@@V?$allocator@VDimensionDescriptor@@@std@@@2@V32@ABVDimensionDescriptor@@@Z 10024910 f i PlugInUtilities:RasterUtilities.obj
 0001:000239a0       ?insert@?$vector@V?$EnumWrapper@W4RasterChannelTypeEnum@@@@V?$allocator@V?$EnumWrapper@W4RasterChannelTypeEnum@@@@@std@@@std@@QAE?AV?$_Vector_iterator@V?$EnumWrapper@W4RasterChannelTypeEnum@@@@V?$allocator@V?$EnumWrapper@W4RasterChannelTypeEnum@@@@@std@@@2@V32@ABV?$EnumWrapper@W4RasterChannelTypeEnum@@@@@Z 100249a0 f i PlugInUtilities:RasterUtilities.obj
 0001:00023a30       ?_Insert_n@?$vector@V?$Location@H$01@Opticks@@V?$allocator@V?$Location@H$01@Opticks@@@std@@@std@@IAEXV?$_Vector_iterator@V?$Location@H$01@Opticks@@V?$allocator@V?$Location@H$01@Opticks@@@std@@@2@IABV?$Location@H$01@Opticks@@@Z 10024a30 f i PlugInUtilities:RasterUtilities.obj
 0001:00023d30       ??$chipMetadataDimTemplate@H@?A0x92b3477e@@YA_NAAVDataVariant@@ABV?$vector@VDimensionDescriptor@@V?$allocator@VDimensionDescriptor@@@std@@@std@@@Z 10024d30 f i PlugInUtilities:RasterUtilities.obj
 0001:00023f00       ?push_back@?$vector@NV?$allocator@N@std@@@std@@QAEXABN@Z 10024f00 f i PlugInUtilities:RasterUtilities.obj
 0001:00023f70       ?push_back@?$vector@DV?$allocator@D@std@@@std@@QAEXABD@Z 10024f70 f i PlugInUtilities:RasterUtilities.obj
 0001:00023fe0       ?push_back@?$vector@EV?$allocator@E@std@@@std@@QAEXABE@Z 10024fe0 f i PlugInUtilities:RasterUtilities.obj
 0001:00024050       ?push_back@?$vector@FV?$allocator@F@std@@@std@@QAEXABF@Z 10025050 f i PlugInUtilities:RasterUtilities.obj
 0001:000240c0       ?push_back@?$vector@GV?$allocator@G@std@@@std@@QAEXABG@Z 100250c0 f i PlugInUtilities:RasterUtilities.obj
 0001:00024130       ?push_back@?$vector@IV?$allocator@I@std@@@std@@QAEXABI@Z 10025130 f i PlugInUtilities:RasterUtilities.obj
 0001:000241a0       ?push_back@?$vector@JV?$allocator@J@std@@@std@@QAEXABJ@Z 100251a0 f i PlugInUtilities:RasterUtilities.obj
 0001:00024210       ?push_back@?$vector@KV?$allocator@K@std@@@std@@QAEXABK@Z 10025210 f i PlugInUtilities:RasterUtilities.obj
 0001:00024280       ?push_back@?$vector@_JV?$allocator@_J@std@@@std@@QAEXAB_J@Z 10025280 f i PlugInUtilities:RasterUtilities.obj
 0001:000242f0       ?push_back@?$vector@_KV?$allocator@_K@std@@@std@@QAEXAB_K@Z 100252f0 f i PlugInUtilities:RasterUtilities.obj
 0001:00024360       ?push_back@?$vector@VInt64@@V?$allocator@VInt64@@@std@@@std@@QAEXABVInt64@@@Z 10025360 f i PlugInUtilities:RasterUtilities.obj
 0001:000243f0       ?swap@?$vector@VInt64@@V?$allocator@VInt64@@@std@@@std@@QAEXAAV12@@Z 100253f0 f i PlugInUtilities:RasterUtilities.obj
 0001:00024420       ?push_back@?$vector@VUInt64@@V?$allocator@VUInt64@@@std@@@std@@QAEXABVUInt64@@@Z 10025420 f i PlugInUtilities:RasterUtilities.obj
 0001:000244b0       ?swap@?$vector@VUInt64@@V?$allocator@VUInt64@@@std@@@std@@QAEXAAV12@@Z 100254b0 f i PlugInUtilities:RasterUtilities.obj
 0001:000244e0       ?push_back@?$vector@MV?$allocator@M@std@@@std@@QAEXABM@Z 100254e0 f i PlugInUtilities:RasterUtilities.obj
 0001:00024550       ??A?$vector@_NV?$allocator@_N@std@@@std@@QAE?AV?$_Vb_reference@V?$vector@_NV?$allocator@_N@std@@@std@@@1@I@Z 10025550 f i PlugInUtilities:RasterUtilities.obj
 0001:000245c0       ??4?$vector@V?$basic_string@DU?$char_traits@D@std@@V?$allocator@D@2@@std@@V?$allocator@V?$basic_string@DU?$char_traits@D@std@@V?$allocator@D@2@@std@@@2@@std@@QAEAAV01@ABV01@@Z 100255c0 f i PlugInUtilities:RasterUtilities.obj
 0001:00024750       ??$_Fill@V?$_Vb_iterator@V?$vector@_NV?$allocator@_N@std@@@std@@@std@@_N@std@@YAXV?$_Vb_iterator@V?$vector@_NV?$allocator@_N@std@@@std@@@0@0AB_N@Z 10025750 f i PlugInUtilities:RasterUtilities.obj
 0001:00024840       ??$_Copy_backward_opt@V?$_Vb_iterator@V?$vector@_NV?$allocator@_N@std@@@std@@@std@@V12@Uforward_iterator_tag@2@@std@@YA?AV?$_Vb_iterator@V?$vector@_NV?$allocator@_N@std@@@std@@@0@V10@00Uforward_iterator_tag@0@U_Nonscalar_ptr_iterator_tag@0@U_Range_checked_iterator_tag@0@@Z 10025840 f i PlugInUtilities:RasterUtilities.obj
 0001:00024a00       ?generateDimensionVector@RasterUtilities@@YA?AV?$vector@VDimensionDescriptor@@V?$allocator@VDimensionDescriptor@@@std@@@std@@I_N00@Z 10025a00 f   PlugInUtilities:RasterUtilities.obj
 0001:00024af0       ?generateRasterDataDescriptor@RasterUtilities@@YAPAVRasterDataDescriptor@@ABV?$basic_string@DU?$char_traits@D@std@@V?$allocator@D@2@@std@@PAVDataElement@@IIIV?$EnumWrapper@W4InterleaveFormatTypeEnum@@@@V?$EnumWrapper@W4EncodingTypeEnum@@@@V?$EnumWrapper@W4ProcessingLocationEnum@@@@@Z 10025af0 f   PlugInUtilities:RasterUtilities.obj
 0001:00024cb0       ?createRasterElement@RasterUtilities@@YAPAVRasterElement@@ABV?$basic_string@DU?$char_traits@D@std@@V?$allocator@D@2@@std@@IIIV?$EnumWrapper@W4EncodingTypeEnum@@@@V?$EnumWrapper@W4InterleaveFormatTypeEnum@@@@_NPAVDataElement@@@Z 10025cb0 f   PlugInUtilities:RasterUtilities.obj
 0001:00024da0       ?createRasterElement@RasterUtilities@@YAPAVRasterElement@@ABV?$basic_string@DU?$char_traits@D@std@@V?$allocator@D@2@@std@@IIV?$EnumWrapper@W4EncodingTypeEnum@@@@_NPAVDataElement@@@Z 10025da0 f   PlugInUtilities:RasterUtilities.obj
 0001:00024de0       ?getBandNames@RasterUtilities@@YA?AV?$vector@V?$basic_string@DU?$char_traits@D@std@@V?$allocator@D@2@@std@@V?$allocator@V?$basic_string@DU?$char_traits@D@std@@V?$allocator@D@2@@std@@@2@@std@@PBVRasterDataDescriptor@@@Z 10025de0 f   PlugInUtilities:RasterUtilities.obj
 0001:00025120       ?push_back@?$vector@VDimensionDescriptor@@V?$allocator@VDimensionDescriptor@@@std@@@std@@QAEXABVDimensionDescriptor@@@Z 10026120 f i PlugInUtilities:RasterUtilities.obj
 0001:000251b0       ?push_back@?$vector@V?$EnumWrapper@W4RasterChannelTypeEnum@@@@V?$allocator@V?$EnumWrapper@W4RasterChannelTypeEnum@@@@@std@@@std@@QAEXABV?$EnumWrapper@W4RasterChannelTypeEnum@@@@@Z 100261b0 f i PlugInUtilities:RasterUtilities.obj
 0001:00025240       ?insert@?$vector@V?$Location@H$01@Opticks@@V?$allocator@V?$Location@H$01@Opticks@@@std@@@std@@QAE?AV?$_Vector_iterator@V?$Location@H$01@Opticks@@V?$allocator@V?$Location@H$01@Opticks@@@std@@@2@V32@ABV?$Location@H$01@Opticks@@@Z 10026240 f i PlugInUtilities:RasterUtilities.obj
 0001:000252f0       ??$chipMetadataDimTemplate@D@?A0x92b3477e@@YA_NAAVDataVariant@@ABV?$vector@VDimensionDescriptor@@V?$allocator@VDimensionDescriptor@@@std@@@std@@@Z 100262f0 f i PlugInUtilities:RasterUtilities.obj
 0001:000254d0       ??$chipMetadataDimTemplate@E@?A0x92b3477e@@YA_NAAVDataVariant@@ABV?$vector@VDimensionDescriptor@@V?$allocator@VDimensionDescriptor@@@std@@@std@@@Z 100264d0 f i PlugInUtilities:RasterUtilities.obj
 0001:00025690       ??$chipMetadataDimTemplate@F@?A0x92b3477e@@YA_NAAVDataVariant@@ABV?$vector@VDimensionDescriptor@@V?$allocator@VDimensionDescriptor@@@std@@@std@@@Z 10026690 f i PlugInUtilities:RasterUtilities.obj
 0001:00025860       ??$chipMetadataDimTemplate@G@?A0x92b3477e@@YA_NAAVDataVariant@@ABV?$vector@VDimensionDescriptor@@V?$allocator@VDimensionDescriptor@@@std@@@std@@@Z 10026860 f i PlugInUtilities:RasterUtilities.obj
 0001:00025a30       ??$chipMetadataDimTemplate@I@?A0x92b3477e@@YA_NAAVDataVariant@@ABV?$vector@VDimensionDescriptor@@V?$allocator@VDimensionDescriptor@@@std@@@std@@@Z 10026a30 f i PlugInUtilities:RasterUtilities.obj
 0001:00025c00       ??$chipMetadataDimTemplate@J@?A0x92b3477e@@YA_NAAVDataVariant@@ABV?$vector@VDimensionDescriptor@@V?$allocator@VDimensionDescriptor@@@std@@@std@@@Z 10026c00 f i PlugInUtilities:RasterUtilities.obj
 0001:00025dd0       ??$chipMetadataDimTemplate@K@?A0x92b3477e@@YA_NAAVDataVariant@@ABV?$vector@VDimensionDescriptor@@V?$allocator@VDimensionDescriptor@@@std@@@std@@@Z 10026dd0 f i PlugInUtilities:RasterUtilities.obj
 0001:00025fa0       ??$chipMetadataDimTemplate@_J@?A0x92b3477e@@YA_NAAVDataVariant@@ABV?$vector@VDimensionDescriptor@@V?$allocator@VDimensionDescriptor@@@std@@@std@@@Z 10026fa0 f i PlugInUtilities:RasterUtilities.obj
 0001:00026170       ??$chipMetadataDimTemplate@_K@?A0x92b3477e@@YA_NAAVDataVariant@@ABV?$vector@VDimensionDescriptor@@V?$allocator@VDimensionDescriptor@@@std@@@std@@@Z 10027170 f i PlugInUtilities:RasterUtilities.obj
 0001:00026340       ??$chipMetadataDimTemplate@VInt64@@@?A0x92b3477e@@YA_NAAVDataVariant@@ABV?$vector@VDimensionDescriptor@@V?$allocator@VDimensionDescriptor@@@std@@@std@@@Z 10027340 f i PlugInUtilities:RasterUtilities.obj
 0001:00026510       ??$chipMetadataDimTemplate@VUInt64@@@?A0x92b3477e@@YA_NAAVDataVariant@@ABV?$vector@VDimensionDescriptor@@V?$allocator@VDimensionDescriptor@@@std@@@std@@@Z 10027510 f i PlugInUtilities:RasterUtilities.obj
 0001:000266e0       ??$chipMetadataDimTemplate@M@?A0x92b3477e@@YA_NAAVDataVariant@@ABV?$vector@VDimensionDescriptor@@V?$allocator@VDimensionDescriptor@@@std@@@std@@@Z 100276e0 f i PlugInUtilities:RasterUtilities.obj
 0001:000268b0       ??$chipMetadataDimTemplate@N@?A0x92b3477e@@YA_NAAVDataVariant@@ABV?$vector@VDimensionDescriptor@@V?$allocator@VDimensionDescriptor@@@std@@@std@@@Z 100278b0 f i PlugInUtilities:RasterUtilities.obj
 0001:00026a80       ?swap@?$vector@V?$basic_string@DU?$char_traits@D@std@@V?$allocator@D@2@@std@@V?$allocator@V?$basic_string@DU?$char_traits@D@std@@V?$allocator@D@2@@std@@@2@@std@@QAEXAAV12@@Z 10027a80 f i PlugInUtilities:RasterUtilities.obj
 0001:00026ab0       ??$fill@V?$_Vb_iterator@V?$vector@_NV?$allocator@_N@std@@@std@@@std@@_N@std@@YAXV?$_Vb_iterator@V?$vector@_NV?$allocator@_N@std@@@std@@@0@0AB_N@Z 10027ab0 f i PlugInUtilities:RasterUtilities.obj
 0001:00026b20       ??$_Copy_backward_opt@V?$_Vb_iterator@V?$vector@_NV?$allocator@_N@std@@@std@@@std@@V12@@std@@YA?AV?$_Vb_iterator@V?$vector@_NV?$allocator@_N@std@@@std@@@0@V10@00Urandom_access_iterator_tag@0@U_Nonscalar_ptr_iterator_tag@0@U_Range_checked_iterator_tag@0@@Z 10027b20 f i PlugInUtilities:RasterUtilities.obj
 0001:00026c00       ?subsetDimensionVector@RasterUtilities@@YA?AV?$vector@VDimensionDescriptor@@V?$allocator@VDimensionDescriptor@@@std@@@std@@ABV23@ABVDimensionDescriptor@@1I@Z 10027c00 f   PlugInUtilities:RasterUtilities.obj
 0001:00026da0       ?generateFileDescriptorForExport@RasterUtilities@@YAPAVFileDescriptor@@PBVDataDescriptor@@ABV?$basic_string@DU?$char_traits@D@std@@V?$allocator@D@2@@std@@ABVDimensionDescriptor@@2I22IABV?$vector@VDimensionDescriptor@@V?$allocator@VDimensionDescriptor@@@std@@@5@@Z 10027da0 f   PlugInUtilities:RasterUtilities.obj
 0001:00027370       ?generateFileDescriptorForExport@RasterUtilities@@YAPAVFileDescriptor@@PBVDataDescriptor@@ABV?$basic_string@DU?$char_traits@D@std@@V?$allocator@D@2@@std@@ABVDimensionDescriptor@@2I22I22I@Z 10028370 f   PlugInUtilities:RasterUtilities.obj
 0001:00027450       ?generateRasterDataDescriptor@RasterUtilities@@YAPAVRasterDataDescriptor@@ABV?$basic_string@DU?$char_traits@D@std@@V?$allocator@D@2@@std@@PAVDataElement@@IIV?$EnumWrapper@W4EncodingTypeEnum@@@@V?$EnumWrapper@W4ProcessingLocationEnum@@@@@Z 10028450 f   PlugInUtilities:RasterUtilities.obj
 0001:000274a0       ?subsetDataDescriptor@RasterUtilities@@YAXPAVDataDescriptor@@ABVDimensionDescriptor@@1I11IABV?$vector@VDimensionDescriptor@@V?$allocator@VDimensionDescriptor@@@std@@@std@@@Z 100284a0 f   PlugInUtilities:RasterUtilities.obj
 0001:00027730       ?subsetDataDescriptor@RasterUtilities@@YAXPAVDataDescriptor@@ABVDimensionDescriptor@@1I11I11I@Z 10028730 f   PlugInUtilities:RasterUtilities.obj
 0001:000277f0       ?getVisibleRasterChannels@RasterUtilities@@YA?AV?$vector@V?$EnumWrapper@W4RasterChannelTypeEnum@@@@V?$allocator@V?$EnumWrapper@W4RasterChannelTypeEnum@@@@@std@@@std@@XZ 100287f0 f   PlugInUtilities:RasterUtilities.obj
 0001:000278a0       ?push_back@?$vector@V?$Location@H$01@Opticks@@V?$allocator@V?$Location@H$01@Opticks@@@std@@@std@@QAEXABV?$Location@H$01@Opticks@@@Z 100288a0 f i PlugInUtilities:RasterUtilities.obj
 0001:00027940       ??$chipMetadataDimTemplate@V?$basic_string@DU?$char_traits@D@std@@V?$allocator@D@2@@std@@@?A0x92b3477e@@YA_NAAVDataVariant@@ABV?$vector@VDimensionDescriptor@@V?$allocator@VDimensionDescriptor@@@std@@@std@@@Z 10028940 f i PlugInUtilities:RasterUtilities.obj
 0001:00027b20       ??$copy_backward@V?$_Vb_iterator@V?$vector@_NV?$allocator@_N@std@@@std@@@std@@V12@@std@@YA?AV?$_Vb_iterator@V?$vector@_NV?$allocator@_N@std@@@std@@@0@V10@00@Z 10028b20 f i PlugInUtilities:RasterUtilities.obj
 0001:00027bd0       ?calculateNewPoints@?A0x92b3477e@@YAXV?$Location@H$01@Opticks@@0AAV?$vector@V?$Location@H$01@Opticks@@V?$allocator@V?$Location@H$01@Opticks@@@std@@@std@@@Z 10028bd0 f   PlugInUtilities:RasterUtilities.obj
 0001:00027d50       ?generateFileDescriptorForExport@RasterUtilities@@YAPAVFileDescriptor@@PBVDataDescriptor@@ABV?$basic_string@DU?$char_traits@D@std@@V?$allocator@D@2@@std@@@Z 10028d50 f   PlugInUtilities:RasterUtilities.obj
 0001:00027dd0       ?rotate@RasterUtilities@@YA_NPAVRasterElement@@PBV2@NHV?$EnumWrapper@W4InterpolationTypeEnum@RasterUtilities@@@@PAVProgress@@PA_N@Z 10028dd0 f   PlugInUtilities:RasterUtilities.obj
 0001:00029020       ?_Insert_x@?$vector@_NV?$allocator@_N@std@@@std@@IAEIV?$_Vb_iterator@V?$vector@_NV?$allocator@_N@std@@@std@@@2@I@Z 1002a020 f i PlugInUtilities:RasterUtilities.obj
 0001:000290f0       ?_Insert_n@?$vector@_NV?$allocator@_N@std@@@std@@IAEXV?$_Vb_iterator@V?$vector@_NV?$allocator@_N@std@@@std@@@2@I_N@Z 1002a0f0 f i PlugInUtilities:RasterUtilities.obj
 0001:000291c0       ?insert@?$vector@_NV?$allocator@_N@std@@@std@@QAE?AV?$_Vb_iterator@V?$vector@_NV?$allocator@_N@std@@@std@@@2@V32@_N@Z 1002a1c0 f i PlugInUtilities:RasterUtilities.obj
 0001:00029270       ?push_back@?$vector@_NV?$allocator@_N@std@@@std@@QAEX_N@Z 1002a270 f i PlugInUtilities:RasterUtilities.obj
 0001:000292d0       ??$chipMetadataDimTemplate@_N@?A0x92b3477e@@YA_NAAVDataVariant@@ABV?$vector@VDimensionDescriptor@@V?$allocator@VDimensionDescriptor@@@std@@@std@@@Z 1002a2d0 f i PlugInUtilities:RasterUtilities.obj
 0001:000294a0       ?chipMetadataDim@?A0x92b3477e@@YAXPAVDynamicObject@@ABV?$vector@VDimensionDescriptor@@V?$allocator@VDimensionDescriptor@@@std@@@std@@@Z 1002a4a0 f   PlugInUtilities:RasterUtilities.obj
 0001:00029750       ?chipMetadata@RasterUtilities@@YA_NPAVDynamicObject@@ABV?$vector@VDimensionDescriptor@@V?$allocator@VDimensionDescriptor@@@std@@@std@@11@Z 1002a750 f   PlugInUtilities:RasterUtilities.obj
 0001:00029930       ?LogVerificationErrorProc@@YAXPBD0I0@Z 1002a930 f   PlugInUtilities:AppVerify.obj
 0001:00029db0       ??1DataVariant@@QAE@XZ     1002adb0 f   PlugInUtilities:DataVariant.obj
 0001:00029dc0       ?isValid@DataVariant@@QBE_NXZ 1002adc0 f   PlugInUtilities:DataVariant.obj
 0001:00029dd0       ?getType@DataVariant@@QBEABVtype_info@@XZ 1002add0 f   PlugInUtilities:DataVariant.obj
 0001:00029df0       ?getTypeName@DataVariant@@QBE?AV?$basic_string@DU?$char_traits@D@std@@V?$allocator@D@2@@std@@XZ 1002adf0 f   PlugInUtilities:DataVariant.obj
 0001:00029e30       ?toXml@DataVariant@@QBE_NPAVXMLWriter@@@Z 1002ae30 f   PlugInUtilities:DataVariant.obj
 0001:00029e50       ??8DataVariant@@QBE_NABV0@@Z 1002ae50 f   PlugInUtilities:DataVariant.obj
 0001:00029e80       ?getPointerToValueAsVoid@DataVariant@@QBEPAXXZ 1002ae80 f   PlugInUtilities:DataVariant.obj
 0001:00029e90       ??0?$EnumWrapper@W4StatusEnum@DataVariant@@@@QAE@ABW4StatusEnum@DataVariant@@@Z 1002ae90 f i PlugInUtilities:DataVariant.obj
 0001:00029eb0       ??8?$EnumWrapper@W4StatusEnum@DataVariant@@@@QBE_NABW4StatusEnum@DataVariant@@@Z 1002aeb0 f i PlugInUtilities:DataVariant.obj
 0001:00029ed0       ??C?$Service@VDataVariantFactory@@@@QBEPAVDataVariantFactory@@XZ 1002aed0 f i PlugInUtilities:DataVariant.obj
 0001:00029ee0       ??$swap@PAVDataValueWrapper@@@std@@YAXAAPAVDataValueWrapper@@0@Z 1002aee0 f i PlugInUtilities:DataVariant.obj
 0001:00029f00       ??0DataVariant@@QAE@ABV0@@Z 1002af00 f   PlugInUtilities:DataVariant.obj
 0001:00029f30       ?toXmlString@DataVariant@@QBE?AV?$basic_string@DU?$char_traits@D@std@@V?$allocator@D@2@@std@@PAV?$EnumWrapper@W4StatusEnum@DataVariant@@@@@Z 1002af30 f   PlugInUtilities:DataVariant.obj
 0001:00029f90       ?fromXmlString@DataVariant@@QAE?AV?$EnumWrapper@W4StatusEnum@DataVariant@@@@ABV?$basic_string@DU?$char_traits@D@std@@V?$allocator@D@2@@std@@0@Z 1002af90 f   PlugInUtilities:DataVariant.obj
 0001:0002a030       ?toDisplayString@DataVariant@@QBE?AV?$basic_string@DU?$char_traits@D@std@@V?$allocator@D@2@@std@@PAV?$EnumWrapper@W4StatusEnum@DataVariant@@@@@Z 1002b030 f   PlugInUtilities:DataVariant.obj
 0001:0002a090       ?fromDisplayString@DataVariant@@QAE?AV?$EnumWrapper@W4StatusEnum@DataVariant@@@@ABV?$basic_string@DU?$char_traits@D@std@@V?$allocator@D@2@@std@@0@Z 1002b090 f   PlugInUtilities:DataVariant.obj
 0001:0002a130       ?fromXml@DataVariant@@QAE_NPAVDOMNode@xercesc_2_7@@I@Z 1002b130 f   PlugInUtilities:DataVariant.obj
 0001:0002a180       ?swap@DataVariant@@QAEAAV1@AAV1@@Z 1002b180 f   PlugInUtilities:DataVariant.obj
 0001:0002a1a0       ??4DataVariant@@QAEAAV0@ABV0@@Z 1002b1a0 f   PlugInUtilities:DataVariant.obj
 0001:0002a1d0       ?createWrapper@DataVariant@@ABEPAVDataValueWrapper@@PBXPBD_N@Z 1002b1d0 f   PlugInUtilities:DataVariant.obj
 0001:0002a250       ??1Endian@@QAE@XZ          1002b250 f   PlugInUtilities:Endian.obj
 0001:0002a260       ?getEndian@Endian@@QBE?AV?$EnumWrapper@W4EndianTypeEnum@@@@XZ 1002b260 f   PlugInUtilities:Endian.obj
 0001:0002a280       ??0?$EnumWrapper@W4EndianTypeEnum@@@@QAE@ABW4EndianTypeEnum@@@Z 1002b280 f i PlugInUtilities:Endian.obj
 0001:0002a2a0       ??8?$EnumWrapper@W4EndianTypeEnum@@@@QBE_NABW4EndianTypeEnum@@@Z 1002b2a0 f i PlugInUtilities:Endian.obj
 0001:0002a2c0       ?isBigEndian@Endian@@QBE_NXZ 1002b2c0 f   PlugInUtilities:Endian.obj
 0001:0002a2e0       ?isLittleEndian@Endian@@QBE_NXZ 1002b2e0 f   PlugInUtilities:Endian.obj
 0001:0002a300       ?getSystemEndian@Endian@@SA?AV?$EnumWrapper@W4EndianTypeEnum@@@@XZ 1002b300 f   PlugInUtilities:Endian.obj
 0001:0002a310       ??0Endian@@QAE@V?$EnumWrapper@W4EndianTypeEnum@@@@@Z 1002b310 f   PlugInUtilities:Endian.obj
 0001:0002a330       ??0Endian@@QAE@XZ          1002b330 f   PlugInUtilities:Endian.obj
 0001:0002a348       ??0?$basic_string@DU?$char_traits@D@std@@V?$allocator@D@2@@std@@QAE@ABV01@@Z 1002b348 f   msvcprt:MSVCP80.dll
 0001:0002a34e       ??1?$basic_string@DU?$char_traits@D@std@@V?$allocator@D@2@@std@@QAE@XZ 1002b34e f   msvcprt:MSVCP80.dll
 0001:0002a354       ??0?$basic_string@DU?$char_traits@D@std@@V?$allocator@D@2@@std@@QAE@PBD@Z 1002b354 f   msvcprt:MSVCP80.dll
 0001:0002a35a       ?_Lock@_Mutex@std@@QAEXXZ  1002b35a f   msvcprt:MSVCP80.dll
 0001:0002a360       ?_Unlock@_Mutex@std@@QAEXXZ 1002b360 f   msvcprt:MSVCP80.dll
 0001:0002a366       ??4?$basic_string@DU?$char_traits@D@std@@V?$allocator@D@2@@std@@QAEAAV01@ABV01@@Z 1002b366 f   msvcprt:MSVCP80.dll
 0001:0002a36c       ?swap@?$basic_string@DU?$char_traits@D@std@@V?$allocator@D@2@@std@@QAEXAAV12@@Z 1002b36c f   msvcprt:MSVCP80.dll
 0001:0002a372       ??0?$basic_string@DU?$char_traits@D@std@@V?$allocator@D@2@@std@@QAE@XZ 1002b372 f   msvcprt:MSVCP80.dll
 0001:0002a378       ?flush@?$basic_ostream@DU?$char_traits@D@std@@@std@@QAEAAV12@XZ 1002b378 f   msvcprt:MSVCP80.dll
 0001:0002a37e       ?_Osfx@?$basic_ostream@DU?$char_traits@D@std@@@std@@QAEXXZ 1002b37e f   msvcprt:MSVCP80.dll
 0001:0002a384       ?uncaught_exception@std@@YA_NXZ 1002b384 f   msvcprt:MSVCP80.dll
 0001:0002a38a       ?setstate@?$basic_ios@DU?$char_traits@D@std@@@std@@QAEXH_N@Z 1002b38a f   msvcprt:MSVCP80.dll
 0001:0002a390       ?sputn@?$basic_streambuf@DU?$char_traits@D@std@@@std@@QAEHPBDH@Z 1002b390 f   msvcprt:MSVCP80.dll
 0001:0002a396       ?sputc@?$basic_streambuf@DU?$char_traits@D@std@@@std@@QAEHD@Z 1002b396 f   msvcprt:MSVCP80.dll
 0001:0002a39c       ??_D?$basic_ofstream@DU?$char_traits@D@std@@@std@@QAEXXZ 1002b39c f   msvcprt:MSVCP80.dll
 0001:0002a3a2       ?close@?$basic_ofstream@DU?$char_traits@D@std@@@std@@QAEXXZ 1002b3a2 f   msvcprt:MSVCP80.dll
 0001:0002a3a8       ??6?$basic_ostream@DU?$char_traits@D@std@@@std@@QAEAAV01@G@Z 1002b3a8 f   msvcprt:MSVCP80.dll
 0001:0002a3ae       ??0?$basic_ofstream@DU?$char_traits@D@std@@@std@@QAE@PBDHH@Z 1002b3ae f   msvcprt:MSVCP80.dll
 0001:0002a3b4       ??6?$basic_ostream@DU?$char_traits@D@std@@@std@@QAEAAV01@F@Z 1002b3b4 f   msvcprt:MSVCP80.dll
 0001:0002a3ba       ??6?$basic_ostream@DU?$char_traits@D@std@@@std@@QAEAAV01@I@Z 1002b3ba f   msvcprt:MSVCP80.dll
 0001:0002a3c0       ??6?$basic_ostream@DU?$char_traits@D@std@@@std@@QAEAAV01@H@Z 1002b3c0 f   msvcprt:MSVCP80.dll
 0001:0002a3c6       ??6?$basic_ostream@DU?$char_traits@D@std@@@std@@QAEAAV01@M@Z 1002b3c6 f   msvcprt:MSVCP80.dll
 0001:0002a3cc       ??6?$basic_ostream@DU?$char_traits@D@std@@@std@@QAEAAV01@N@Z 1002b3cc f   msvcprt:MSVCP80.dll
 0001:0002a3d2       ??$?MDU?$char_traits@D@std@@V?$allocator@D@1@@std@@YA_NABV?$basic_string@DU?$char_traits@D@std@@V?$allocator@D@2@@0@0@Z 1002b3d2 f   msvcprt:MSVCP80.dll
 0001:0002a3d8       ?begin@?$basic_string@DU?$char_traits@D@std@@V?$allocator@D@2@@std@@QAE?AV?$_String_iterator@DU?$char_traits@D@std@@V?$allocator@D@2@@2@XZ 1002b3d8 f   msvcprt:MSVCP80.dll
 0001:0002a3de       ?end@?$basic_string@DU?$char_traits@D@std@@V?$allocator@D@2@@std@@QAE?AV?$_String_iterator@DU?$char_traits@D@std@@V?$allocator@D@2@@2@XZ 1002b3de f   msvcprt:MSVCP80.dll
 0001:0002a3e4       ?allocate@?$allocator@D@std@@QAEPADI@Z 1002b3e4 f   msvcprt:MSVCP80.dll
 0001:0002a3ea       ?deallocate@?$allocator@D@std@@QAEXPADI@Z 1002b3ea f   msvcprt:MSVCP80.dll
 0001:0002a3f0       ??_D?$basic_ostringstream@DU?$char_traits@D@std@@V?$allocator@D@2@@std@@QAEXXZ 1002b3f0 f   msvcprt:MSVCP80.dll
 0001:0002a3f6       ?str@?$basic_ostringstream@DU?$char_traits@D@std@@V?$allocator@D@2@@std@@QBE?AV?$basic_string@DU?$char_traits@D@std@@V?$allocator@D@2@@2@XZ 1002b3f6 f   msvcprt:MSVCP80.dll
 0001:0002a3fc       ??$?6DU?$char_traits@D@std@@V?$allocator@D@1@@std@@YAAAV?$basic_ostream@DU?$char_traits@D@std@@@0@AAV10@ABV?$basic_string@DU?$char_traits@D@std@@V?$allocator@D@2@@0@@Z 1002b3fc f   msvcprt:MSVCP80.dll
 0001:0002a402       ??0?$basic_ostringstream@DU?$char_traits@D@std@@V?$allocator@D@2@@std@@QAE@H@Z 1002b402 f   msvcprt:MSVCP80.dll
 0001:0002a408       ??$?8DU?$char_traits@D@std@@V?$allocator@D@1@@std@@YA_NABV?$basic_string@DU?$char_traits@D@std@@V?$allocator@D@2@@0@PBD@Z 1002b408 f   msvcprt:MSVCP80.dll
 0001:0002a40e       ??_D?$basic_stringstream@DU?$char_traits@D@std@@V?$allocator@D@2@@std@@QAEXXZ 1002b40e f   msvcprt:MSVCP80.dll
 0001:0002a414       ?str@?$basic_stringstream@DU?$char_traits@D@std@@V?$allocator@D@2@@std@@QBE?AV?$basic_string@DU?$char_traits@D@std@@V?$allocator@D@2@@2@XZ 1002b414 f   msvcprt:MSVCP80.dll
 0001:0002a41a       ??0?$basic_stringstream@DU?$char_traits@D@std@@V?$allocator@D@2@@std@@QAE@H@Z 1002b41a f   msvcprt:MSVCP80.dll
 0001:0002a420       ??$?HDU?$char_traits@D@std@@V?$allocator@D@1@@std@@YA?AV?$basic_string@DU?$char_traits@D@std@@V?$allocator@D@2@@0@ABV10@0@Z 1002b420 f   msvcprt:MSVCP80.dll
 0001:0002a426       ??$?HDU?$char_traits@D@std@@V?$allocator@D@1@@std@@YA?AV?$basic_string@DU?$char_traits@D@std@@V?$allocator@D@2@@0@ABV10@PBD@Z 1002b426 f   msvcprt:MSVCP80.dll
 0001:0002a42c       ??0exception@std@@QAE@ABQBD@Z 1002b42c f   MSVCRT:MSVCR80.dll
 0001:0002a432       ??0type_info@@AAE@ABV0@@Z  1002b432 f   MSVCRT:ti_inst.obj
 0001:0002a43d       ??_Etype_info@@UAEPAXI@Z   1002b43d f i MSVCRT:ti_inst.obj
 0001:0002a486       ??4type_info@@AAEAAV0@ABV0@@Z 1002b486 f   MSVCRT:ti_inst.obj
 0001:0002a48c       ?what@exception@std@@UBEPBDXZ 1002b48c f   MSVCRT:MSVCR80.dll
 0001:0002a492       ??1exception@std@@UAE@XZ   1002b492 f   MSVCRT:MSVCR80.dll
 0001:0002a498       ??3@YAXPAX@Z               1002b498 f   MSVCRT:MSVCR80.dll
 0001:0002a49e       ??0exception@std@@QAE@XZ   1002b49e f   MSVCRT:MSVCR80.dll
 0001:0002a4a4       ___CxxFrameHandler3        1002b4a4 f   MSVCRT:MSVCR80.dll
 0001:0002a4aa       __CxxThrowException@8      1002b4aa f   MSVCRT:MSVCR80.dll
 0001:0002a4b0       ??0exception@std@@QAE@ABV01@@Z 1002b4b0 f   MSVCRT:MSVCR80.dll
 0001:0002a4b6       __purecall                 1002b4b6 f   MSVCRT:MSVCR80.dll
 0001:0002a4bc       __invalid_parameter_noinfo 1002b4bc f   MSVCRT:MSVCR80.dll
 0001:0002a4c2       ___RTDynamicCast           1002b4c2 f   MSVCRT:MSVCR80.dll
 0001:0002a4c8       ??2@YAPAXI@Z               1002b4c8 f   MSVCRT:MSVCR80.dll
 0001:0002a4ce       _sprintf                   1002b4ce f   MSVCRT:MSVCR80.dll
 0001:0002a4e0       __onexit                   1002b4e0 f   MSVCRT:atonexit.obj
 0001:0002a585       _atexit                    1002b585 f   MSVCRT:atonexit.obj
 0001:0002a597       _NtCurrentTeb              1002b597 f i MSVCRT:crtdll.obj
 0001:0002a5eb       __CRT_INIT@12              1002b5eb f   MSVCRT:crtdll.obj
 0001:0002a8c4       __DllMainCRTStartup@12     1002b8c4 f   MSVCRT:crtdll.obj
 0001:0002a8e6       ??8type_info@@QBE_NABV0@@Z 1002b8e6 f   MSVCRT:MSVCR80.dll
 0001:0002a8ec       _memset                    1002b8ec f   MSVCRT:MSVCR80.dll
 0001:0002a8f2       _memmove_s                 1002b8f2 f   MSVCRT:MSVCR80.dll
 0001:0002a90a       ?__ArrayUnwind@@YGXPAXIHP6EX0@Z@Z 1002b90a f   MSVCRT:ehvecdtr.obj
 0001:0002a968       ??_M@YGXPAXIHP6EX0@Z@Z     1002b968 f   MSVCRT:ehvecdtr.obj
 0001:0002a9d0       __allmul                   1002b9d0 f   MSVCRT:llmul.obj
 0001:0002aa10       __alldiv                   1002ba10 f   MSVCRT:lldiv.obj
 0001:0002aaba       _memcpy                    1002baba f   MSVCRT:MSVCR80.dll
 0001:0002aac0       __ftol2_sse                1002bac0 f   MSVCRT:ftol2.obj
 0001:0002aac9       __ftol2_pentium4           1002bac9 f   MSVCRT:ftol2.obj
 0001:0002aadc       __ftol2_sse_excpt          1002badc f   MSVCRT:ftol2.obj
 0001:0002aaf6       __ftol2                    1002baf6 f   MSVCRT:ftol2.obj
 0001:0002ab6c       __CIsin                    1002bb6c f   MSVCRT:MSVCR80.dll
 0001:0002ab72       __CIcos                    1002bb72 f   MSVCRT:MSVCR80.dll
 0001:0002ab78       _getenv                    1002bb78 f   MSVCRT:MSVCR80.dll
 0001:0002ab7e       __unlock                   1002bb7e f   MSVCRT:MSVCR80.dll
 0001:0002ab84       ___dllonexit               1002bb84 f   MSVCRT:MSVCR80.dll
 0001:0002ab8a       __encode_pointer           1002bb8a f   MSVCRT:MSVCR80.dll
 0001:0002ab90       __lock                     1002bb90 f   MSVCRT:MSVCR80.dll
 0001:0002ab96       __decode_pointer           1002bb96 f   MSVCRT:MSVCR80.dll
 0001:0002ab9c       __SEH_prolog4              1002bb9c f   MSVCRT:sehprolg4.obj
 0001:0002abe1       __SEH_epilog4              1002bbe1 f   MSVCRT:sehprolg4.obj
 0001:0002abf5       __except_handler4          1002bbf5 f   MSVCRT:chandler4gs.obj
 0001:0002ac18       ___clean_type_info_names   1002bc18 f   MSVCRT:tncleanup.obj
 0001:0002ac24       __RTC_Initialize           1002bc24 f   MSVCRT:initsect.obj
 0001:0002ac48       __RTC_Terminate            1002bc48 f   MSVCRT:initsect.obj
 0001:0002ac6c       __malloc_crt               1002bc6c f   MSVCRT:MSVCR80.dll
 0001:0002ac72       _free                      1002bc72 f   MSVCRT:MSVCR80.dll
 0001:0002ac78       __encoded_null             1002bc78 f   MSVCRT:MSVCR80.dll
 0001:0002ac80       __ValidateImageBase        1002bc80 f   MSVCRT:pesect.obj
 0001:0002acb0       __FindPESection            1002bcb0 f   MSVCRT:pesect.obj
 0001:0002ad00       __IsNonwritableInCurrentImage 1002bd00 f   MSVCRT:pesect.obj
 0001:0002adbc       __initterm                 1002bdbc f   MSVCRT:MSVCR80.dll
 0001:0002adc2       __initterm_e               1002bdc2 f   MSVCRT:MSVCR80.dll
 0001:0002adc8       __amsg_exit                1002bdc8 f   MSVCRT:MSVCR80.dll
 0001:0002adce       ___CppXcptFilter           1002bdce f   MSVCRT:MSVCR80.dll
 0001:0002add4       _DllMain@12                1002bdd4 f   MSVCRT:dllmain.obj
 0001:0002adf4       ___security_init_cookie    1002bdf4 f   MSVCRT:gs_support.obj
 0001:0002ae88       ?terminate@@YAXXZ          1002be88 f   MSVCRT:MSVCR80.dll
 0001:0002aede       __get_sse2_info            1002bede f   MSVCRT:cpu_disp.obj
 0001:0002af3e       ___sse2_available_init     1002bf3e f   MSVCRT:cpu_disp.obj
 0001:0002af4c       ??1type_info@@UAE@XZ       1002bf4c f   MSVCRT:MSVCR80.dll
 0001:0002af4c       ?_type_info_dtor_internal_method@type_info@@QAEXXZ 1002bf4c f   MSVCRT:MSVCR80.dll
 0001:0002af52       @__security_check_cookie@4 1002bf52 f   MSVCRT:secchk.obj
 0001:0002af62       __except_handler4_common   1002bf62 f   MSVCRT:MSVCR80.dll
 0001:0002af68       ___clean_type_info_names_internal 1002bf68 f   MSVCRT:MSVCR80.dll
 0001:0002af6e       ___report_gsfailure        1002bf6e f   MSVCRT:gs_report.obj
 0001:0002b072       __crt_debugger_hook        1002c072 f   MSVCRT:MSVCR80.dll
 0001:0002b078       ?hide@QWidget@@QAEXXZ      1002c078 f   QtGui4:QtGui4.dll
 0001:0002b07e       _InterlockedExchange@8     1002c07e f   kernel32:KERNEL32.dll
 0001:0002b084       _Sleep@4                   1002c084 f   kernel32:KERNEL32.dll
 0001:0002b08a       _InterlockedCompareExchange@12 1002c08a f   kernel32:KERNEL32.dll
 0001:0002b090       _DisableThreadLibraryCalls@4 1002c090 f   kernel32:KERNEL32.dll
 0001:0002b096       _QueryPerformanceCounter@4 1002c096 f   kernel32:KERNEL32.dll
 0001:0002b09c       _GetTickCount@0            1002c09c f   kernel32:KERNEL32.dll
 0001:0002b0a2       _GetCurrentThreadId@0      1002c0a2 f   kernel32:KERNEL32.dll
 0001:0002b0a8       _GetCurrentProcessId@0     1002c0a8 f   kernel32:KERNEL32.dll
 0001:0002b0ae       _GetSystemTimeAsFileTime@4 1002c0ae f   kernel32:KERNEL32.dll
 0001:0002b0b4       _TerminateProcess@8        1002c0b4 f   kernel32:KERNEL32.dll
 0001:0002b0ba       _GetCurrentProcess@0       1002c0ba f   kernel32:KERNEL32.dll
 0001:0002b0c0       _UnhandledExceptionFilter@4 1002c0c0 f   kernel32:KERNEL32.dll
 0001:0002b0c6       _SetUnhandledExceptionFilter@4 1002c0c6 f   kernel32:KERNEL32.dll
 0001:0002b0cc       _IsDebuggerPresent@0       1002c0cc f   kernel32:KERNEL32.dll
 0001:0002d230       ??__FsignalName@?1??signalDeleted@Subject@@SAABV?$basic_string@DU?$char_traits@D@std@@V?$allocator@D@2@@std@@XZ@YAXXZ 1002e230 f i PlugInLib:ViewerShell.obj
 0001:0002d240       ??__FsignalName@?1??signalSessionClosed@ApplicationServices@@SAABV?$basic_string@DU?$char_traits@D@std@@V?$allocator@D@2@@std@@XZ@YAXXZ 1002e240 f i PlugInLib:ViewerShell.obj
 0002:00000000       __imp__IsDebuggerPresent@0 1002f000     kernel32:KERNEL32.dll
 0002:00000004       __imp__SetUnhandledExceptionFilter@4 1002f004     kernel32:KERNEL32.dll
 0002:00000008       __imp__UnhandledExceptionFilter@4 1002f008     kernel32:KERNEL32.dll
 0002:0000000c       __imp__GetCurrentProcess@0 1002f00c     kernel32:KERNEL32.dll
 0002:00000010       __imp__TerminateProcess@8  1002f010     kernel32:KERNEL32.dll
 0002:00000014       __imp__GetSystemTimeAsFileTime@4 1002f014     kernel32:KERNEL32.dll
 0002:00000018       __imp__GetCurrentProcessId@0 1002f018     kernel32:KERNEL32.dll
 0002:0000001c       __imp__GetCurrentThreadId@0 1002f01c     kernel32:KERNEL32.dll
 0002:00000020       __imp__GetTickCount@0      1002f020     kernel32:KERNEL32.dll
 0002:00000024       __imp__QueryPerformanceCounter@4 1002f024     kernel32:KERNEL32.dll
 0002:00000028       __imp__DisableThreadLibraryCalls@4 1002f028     kernel32:KERNEL32.dll
 0002:0000002c       __imp__InterlockedCompareExchange@12 1002f02c     kernel32:KERNEL32.dll
 0002:00000030       __imp__Sleep@4             1002f030     kernel32:KERNEL32.dll
 0002:00000034       __imp__InterlockedExchange@8 1002f034     kernel32:KERNEL32.dll
 0002:00000038       \177KERNEL32_NULL_THUNK_DATA 1002f038     kernel32:KERNEL32.dll
 0002:0000003c       __imp_??$?HDU?$char_traits@D@std@@V?$allocator@D@1@@std@@YA?AV?$basic_string@DU?$char_traits@D@std@@V?$allocator@D@2@@0@ABV10@PBD@Z 1002f03c     msvcprt:MSVCP80.dll
 0002:00000040       __imp_??$?HDU?$char_traits@D@std@@V?$allocator@D@1@@std@@YA?AV?$basic_string@DU?$char_traits@D@std@@V?$allocator@D@2@@0@ABV10@0@Z 1002f040     msvcprt:MSVCP80.dll
 0002:00000044       __imp_??0?$basic_stringstream@DU?$char_traits@D@std@@V?$allocator@D@2@@std@@QAE@H@Z 1002f044     msvcprt:MSVCP80.dll
 0002:00000048       __imp_??0?$basic_string@DU?$char_traits@D@std@@V?$allocator@D@2@@std@@QAE@ABV01@@Z 1002f048     msvcprt:MSVCP80.dll
 0002:0000004c       __imp_??1?$basic_string@DU?$char_traits@D@std@@V?$allocator@D@2@@std@@QAE@XZ 1002f04c     msvcprt:MSVCP80.dll
 0002:00000050       __imp_??0?$basic_string@DU?$char_traits@D@std@@V?$allocator@D@2@@std@@QAE@PBD@Z 1002f050     msvcprt:MSVCP80.dll
 0002:00000054       __imp_?_Lock@_Mutex@std@@QAEXXZ 1002f054     msvcprt:MSVCP80.dll
 0002:00000058       __imp_?_Unlock@_Mutex@std@@QAEXXZ 1002f058     msvcprt:MSVCP80.dll
 0002:0000005c       __imp_??4?$basic_string@DU?$char_traits@D@std@@V?$allocator@D@2@@std@@QAEAAV01@ABV01@@Z 1002f05c     msvcprt:MSVCP80.dll
 0002:00000060       __imp_?swap@?$basic_string@DU?$char_traits@D@std@@V?$allocator@D@2@@std@@QAEXAAV12@@Z 1002f060     msvcprt:MSVCP80.dll
 0002:00000064       __imp_??0?$basic_string@DU?$char_traits@D@std@@V?$allocator@D@2@@std@@QAE@XZ 1002f064     msvcprt:MSVCP80.dll
 0002:00000068       __imp_?flush@?$basic_ostream@DU?$char_traits@D@std@@@std@@QAEAAV12@XZ 1002f068     msvcprt:MSVCP80.dll
 0002:0000006c       __imp_?_Osfx@?$basic_ostream@DU?$char_traits@D@std@@@std@@QAEXXZ 1002f06c     msvcprt:MSVCP80.dll
 0002:00000070       __imp_?uncaught_exception@std@@YA_NXZ 1002f070     msvcprt:MSVCP80.dll
 0002:00000074       __imp_?setstate@?$basic_ios@DU?$char_traits@D@std@@@std@@QAEXH_N@Z 1002f074     msvcprt:MSVCP80.dll
 0002:00000078       __imp_?sputn@?$basic_streambuf@DU?$char_traits@D@std@@@std@@QAEHPBDH@Z 1002f078     msvcprt:MSVCP80.dll
 0002:0000007c       __imp_?sputc@?$basic_streambuf@DU?$char_traits@D@std@@@std@@QAEHD@Z 1002f07c     msvcprt:MSVCP80.dll
 0002:00000080       __imp_??_D?$basic_ofstream@DU?$char_traits@D@std@@@std@@QAEXXZ 1002f080     msvcprt:MSVCP80.dll
 0002:00000084       __imp_?close@?$basic_ofstream@DU?$char_traits@D@std@@@std@@QAEXXZ 1002f084     msvcprt:MSVCP80.dll
 0002:00000088       __imp_??6?$basic_ostream@DU?$char_traits@D@std@@@std@@QAEAAV01@G@Z 1002f088     msvcprt:MSVCP80.dll
 0002:0000008c       __imp_??0?$basic_ofstream@DU?$char_traits@D@std@@@std@@QAE@PBDHH@Z 1002f08c     msvcprt:MSVCP80.dll
 0002:00000090       __imp_??6?$basic_ostream@DU?$char_traits@D@std@@@std@@QAEAAV01@F@Z 1002f090     msvcprt:MSVCP80.dll
 0002:00000094       __imp_??6?$basic_ostream@DU?$char_traits@D@std@@@std@@QAEAAV01@I@Z 1002f094     msvcprt:MSVCP80.dll
 0002:00000098       __imp_??6?$basic_ostream@DU?$char_traits@D@std@@@std@@QAEAAV01@H@Z 1002f098     msvcprt:MSVCP80.dll
 0002:0000009c       __imp_??6?$basic_ostream@DU?$char_traits@D@std@@@std@@QAEAAV01@M@Z 1002f09c     msvcprt:MSVCP80.dll
 0002:000000a0       __imp_??6?$basic_ostream@DU?$char_traits@D@std@@@std@@QAEAAV01@N@Z 1002f0a0     msvcprt:MSVCP80.dll
 0002:000000a4       __imp_??$?MDU?$char_traits@D@std@@V?$allocator@D@1@@std@@YA_NABV?$basic_string@DU?$char_traits@D@std@@V?$allocator@D@2@@0@0@Z 1002f0a4     msvcprt:MSVCP80.dll
 0002:000000a8       __imp_?begin@?$basic_string@DU?$char_traits@D@std@@V?$allocator@D@2@@std@@QAE?AV?$_String_iterator@DU?$char_traits@D@std@@V?$allocator@D@2@@2@XZ 1002f0a8     msvcprt:MSVCP80.dll
 0002:000000ac       __imp_?end@?$basic_string@DU?$char_traits@D@std@@V?$allocator@D@2@@std@@QAE?AV?$_String_iterator@DU?$char_traits@D@std@@V?$allocator@D@2@@2@XZ 1002f0ac     msvcprt:MSVCP80.dll
 0002:000000b0       __imp_?allocate@?$allocator@D@std@@QAEPADI@Z 1002f0b0     msvcprt:MSVCP80.dll
 0002:000000b4       __imp_?deallocate@?$allocator@D@std@@QAEXPADI@Z 1002f0b4     msvcprt:MSVCP80.dll
 0002:000000b8       __imp_??_D?$basic_ostringstream@DU?$char_traits@D@std@@V?$allocator@D@2@@std@@QAEXXZ 1002f0b8     msvcprt:MSVCP80.dll
 0002:000000bc       __imp_?str@?$basic_ostringstream@DU?$char_traits@D@std@@V?$allocator@D@2@@std@@QBE?AV?$basic_string@DU?$char_traits@D@std@@V?$allocator@D@2@@2@XZ 1002f0bc     msvcprt:MSVCP80.dll
 0002:000000c0       __imp_??$?6DU?$char_traits@D@std@@V?$allocator@D@1@@std@@YAAAV?$basic_ostream@DU?$char_traits@D@std@@@0@AAV10@ABV?$basic_string@DU?$char_traits@D@std@@V?$allocator@D@2@@0@@Z 1002f0c0     msvcprt:MSVCP80.dll
 0002:000000c4       __imp_??0?$basic_ostringstream@DU?$char_traits@D@std@@V?$allocator@D@2@@std@@QAE@H@Z 1002f0c4     msvcprt:MSVCP80.dll
 0002:000000c8       __imp_??$?8DU?$char_traits@D@std@@V?$allocator@D@1@@std@@YA_NABV?$basic_string@DU?$char_traits@D@std@@V?$allocator@D@2@@0@PBD@Z 1002f0c8     msvcprt:MSVCP80.dll
 0002:000000cc       __imp_??_D?$basic_stringstream@DU?$char_traits@D@std@@V?$allocator@D@2@@std@@QAEXXZ 1002f0cc     msvcprt:MSVCP80.dll
 0002:000000d0       __imp_?str@?$basic_stringstream@DU?$char_traits@D@std@@V?$allocator@D@2@@std@@QBE?AV?$basic_string@DU?$char_traits@D@std@@V?$allocator@D@2@@2@XZ 1002f0d0     msvcprt:MSVCP80.dll
 0002:000000d4       \177MSVCP80_NULL_THUNK_DATA 1002f0d4     msvcprt:MSVCP80.dll
 0002:000000d8       __imp___malloc_crt         1002f0d8     MSVCRT:MSVCR80.dll
 0002:000000dc       __imp____clean_type_info_names_internal 1002f0dc     MSVCRT:MSVCR80.dll
 0002:000000e0       __imp___except_handler4_common 1002f0e0     MSVCRT:MSVCR80.dll
 0002:000000e4       __imp_?_type_info_dtor_internal_method@type_info@@QAEXXZ 1002f0e4     MSVCRT:MSVCR80.dll
 0002:000000e8       __imp_??0exception@std@@QAE@ABQBD@Z 1002f0e8     MSVCRT:MSVCR80.dll
 0002:000000ec       __imp_?what@exception@std@@UBEPBDXZ 1002f0ec     MSVCRT:MSVCR80.dll
 0002:000000f0       __imp_??1exception@std@@UAE@XZ 1002f0f0     MSVCRT:MSVCR80.dll
 0002:000000f4       __imp_??3@YAXPAX@Z         1002f0f4     MSVCRT:MSVCR80.dll
 0002:000000f8       __imp_??0exception@std@@QAE@XZ 1002f0f8     MSVCRT:MSVCR80.dll
 0002:000000fc       __imp____CxxFrameHandler3  1002f0fc     MSVCRT:MSVCR80.dll
 0002:00000100       __imp___CxxThrowException@8 1002f100     MSVCRT:MSVCR80.dll
 0002:00000104       __imp_??0exception@std@@QAE@ABV01@@Z 1002f104     MSVCRT:MSVCR80.dll
 0002:00000108       __imp___purecall           1002f108     MSVCRT:MSVCR80.dll
 0002:0000010c       __imp___invalid_parameter_noinfo 1002f10c     MSVCRT:MSVCR80.dll
 0002:00000110       __imp____RTDynamicCast     1002f110     MSVCRT:MSVCR80.dll
 0002:00000114       __imp_??2@YAPAXI@Z         1002f114     MSVCRT:MSVCR80.dll
 0002:00000118       __imp__sprintf             1002f118     MSVCRT:MSVCR80.dll
 0002:0000011c       __imp_??8type_info@@QBE_NABV0@@Z 1002f11c     MSVCRT:MSVCR80.dll
 0002:00000120       __imp__memset              1002f120     MSVCRT:MSVCR80.dll
 0002:00000124       __imp__memmove_s           1002f124     MSVCRT:MSVCR80.dll
 0002:00000128       __imp__memcpy              1002f128     MSVCRT:MSVCR80.dll
 0002:0000012c       __imp___CIsin              1002f12c     MSVCRT:MSVCR80.dll
 0002:00000130       __imp___CIcos              1002f130     MSVCRT:MSVCR80.dll
 0002:00000134       __imp__getenv              1002f134     MSVCRT:MSVCR80.dll
 0002:00000138       __imp___unlock             1002f138     MSVCRT:MSVCR80.dll
 0002:0000013c       __imp____dllonexit         1002f13c     MSVCRT:MSVCR80.dll
 0002:00000140       __imp___encode_pointer     1002f140     MSVCRT:MSVCR80.dll
 0002:00000144       __imp___lock               1002f144     MSVCRT:MSVCR80.dll
 0002:00000148       __imp___onexit             1002f148     MSVCRT:MSVCR80.dll
 0002:0000014c       __imp___decode_pointer     1002f14c     MSVCRT:MSVCR80.dll
 0002:00000150       __imp__free                1002f150     MSVCRT:MSVCR80.dll
 0002:00000154       __imp___encoded_null       1002f154     MSVCRT:MSVCR80.dll
 0002:00000158       __imp___initterm           1002f158     MSVCRT:MSVCR80.dll
 0002:0000015c       __imp___initterm_e         1002f15c     MSVCRT:MSVCR80.dll
 0002:00000160       __imp___amsg_exit          1002f160     MSVCRT:MSVCR80.dll
 0002:00000164       __imp___adjust_fdiv        1002f164     MSVCRT:MSVCR80.dll
 0002:00000168       __imp____CppXcptFilter     1002f168     MSVCRT:MSVCR80.dll
 0002:0000016c       __imp_?terminate@@YAXXZ    1002f16c     MSVCRT:MSVCR80.dll
 0002:00000170       __imp___crt_debugger_hook  1002f170     MSVCRT:MSVCR80.dll
 0002:00000174       \177MSVCR80_NULL_THUNK_DATA 1002f174     MSVCRT:MSVCR80.dll
 0002:00000178       __imp_??0QObject@@QAE@PAV0@@Z 1002f178     QtCore4:QtCore4.dll
 0002:0000017c       __imp_?staticMetaObject@QObject@@2UQMetaObject@@B 1002f17c     QtCore4:QtCore4.dll
 0002:00000180       __imp_??1QObject@@UAE@XZ   1002f180     QtCore4:QtCore4.dll
 0002:00000184       __imp_?event@QObject@@UAE_NPAVQEvent@@@Z 1002f184     QtCore4:QtCore4.dll
 0002:00000188       __imp_?qt_metacall@QObject@@UAEHW4Call@QMetaObject@@HPAPAX@Z 1002f188     QtCore4:QtCore4.dll
 0002:0000018c       __imp_?qt_metacast@QObject@@UAEPAXPBD@Z 1002f18c     QtCore4:QtCore4.dll
 0002:00000190       __imp_?fromAscii_helper@QString@@CAPAUData@1@PBDH@Z 1002f190     QtCore4:QtCore4.dll
 0002:00000194       __imp_?shared_null@QString@@0UData@1@A 1002f194     QtCore4:QtCore4.dll
 0002:00000198       __imp_?free@QString@@CAXPAUData@1@@Z 1002f198     QtCore4:QtCore4.dll
 0002:0000019c       __imp_??1QString@@QAE@XZ   1002f19c     QtCore4:QtCore4.dll
 0002:000001a0       __imp_?disconnectNotify@QObject@@MAEXPBD@Z 1002f1a0     QtCore4:QtCore4.dll
 0002:000001a4       __imp_?connectNotify@QObject@@MAEXPBD@Z 1002f1a4     QtCore4:QtCore4.dll
 0002:000001a8       __imp_?customEvent@QObject@@MAEXPAVQEvent@@@Z 1002f1a8     QtCore4:QtCore4.dll
 0002:000001ac       __imp_?childEvent@QObject@@MAEXPAVQChildEvent@@@Z 1002f1ac     QtCore4:QtCore4.dll
 0002:000001b0       __imp_?timerEvent@QObject@@MAEXPAVQTimerEvent@@@Z 1002f1b0     QtCore4:QtCore4.dll
 0002:000001b4       __imp_?eventFilter@QObject@@UAE_NPAV1@PAVQEvent@@@Z 1002f1b4     QtCore4:QtCore4.dll
 0002:000001b8       \177QtCore4_NULL_THUNK_DATA 1002f1b8     QtCore4:QtCore4.dll
 0002:000001bc       __imp_?critical@QMessageBox@@SAHPAVQWidget@@ABVQString@@1111HH@Z 1002f1bc     QtGui4:QtGui4.dll
 0002:000001c0       __imp_?hide@QWidget@@QAEXXZ 1002f1c0     QtGui4:QtGui4.dll
 0002:000001c4       \177QtGui4_NULL_THUNK_DATA 1002f1c4     QtGui4:QtGui4.dll
 0002:000001c8       ___xc_a                    1002f1c8     MSVCRT:cinitexe.obj
 0002:000001d4       ___xc_z                    1002f1d4     MSVCRT:cinitexe.obj
 0002:000001d8       ___xi_a                    1002f1d8     MSVCRT:cinitexe.obj
 0002:000001e4       ___xi_z                    1002f1e4     MSVCRT:cinitexe.obj
 0002:0000020c       ??_C@_0P@GHFPNOJB@bad?5allocation?$AA@ 1002f20c     DataMerge.obj
 0002:0000021c       ?collate@?$_Locbase@H@std@@2HB 1002f21c     DataMerge.obj
 0002:00000220       ?ctype@?$_Locbase@H@std@@2HB 1002f220     DataMerge.obj
 0002:00000224       ?monetary@?$_Locbase@H@std@@2HB 1002f224     DataMerge.obj
 0002:00000228       ?numeric@?$_Locbase@H@std@@2HB 1002f228     DataMerge.obj
 0002:0000022c       ?time@?$_Locbase@H@std@@2HB 1002f22c     DataMerge.obj
 0002:00000230       ?messages@?$_Locbase@H@std@@2HB 1002f230     DataMerge.obj
 0002:00000234       ?all@?$_Locbase@H@std@@2HB 1002f234     DataMerge.obj
 0002:00000238       ?none@?$_Locbase@H@std@@2HB 1002f238     DataMerge.obj
 0002:0000023c       ?skipws@?$_Iosb@H@std@@2W4_Fmtflags@12@B 1002f23c     DataMerge.obj
 0002:00000240       ?unitbuf@?$_Iosb@H@std@@2W4_Fmtflags@12@B 1002f240     DataMerge.obj
 0002:00000244       ?uppercase@?$_Iosb@H@std@@2W4_Fmtflags@12@B 1002f244     DataMerge.obj
 0002:00000248       ?showbase@?$_Iosb@H@std@@2W4_Fmtflags@12@B 1002f248     DataMerge.obj
 0002:0000024c       ?showpoint@?$_Iosb@H@std@@2W4_Fmtflags@12@B 1002f24c     DataMerge.obj
 0002:00000250       ?showpos@?$_Iosb@H@std@@2W4_Fmtflags@12@B 1002f250     DataMerge.obj
 0002:00000254       ?left@?$_Iosb@H@std@@2W4_Fmtflags@12@B 1002f254     DataMerge.obj
 0002:00000258       ?right@?$_Iosb@H@std@@2W4_Fmtflags@12@B 1002f258     DataMerge.obj
 0002:0000025c       ?internal@?$_Iosb@H@std@@2W4_Fmtflags@12@B 1002f25c     DataMerge.obj
 0002:00000260       ?dec@?$_Iosb@H@std@@2W4_Fmtflags@12@B 1002f260     DataMerge.obj
 0002:00000264       ?oct@?$_Iosb@H@std@@2W4_Fmtflags@12@B 1002f264     DataMerge.obj
 0002:00000268       ?hex@?$_Iosb@H@std@@2W4_Fmtflags@12@B 1002f268     DataMerge.obj
 0002:0000026c       ?scientific@?$_Iosb@H@std@@2W4_Fmtflags@12@B 1002f26c     DataMerge.obj
 0002:00000270       ?fixed@?$_Iosb@H@std@@2W4_Fmtflags@12@B 1002f270     DataMerge.obj
 0002:00000274       ?boolalpha@?$_Iosb@H@std@@2W4_Fmtflags@12@B 1002f274     DataMerge.obj
 0002:00000278       ?_Stdio@?$_Iosb@H@std@@2W4_Fmtflags@12@B 1002f278     DataMerge.obj
 0002:0000027c       ?adjustfield@?$_Iosb@H@std@@2W4_Fmtflags@12@B 1002f27c     DataMerge.obj
 0002:00000280       ?basefield@?$_Iosb@H@std@@2W4_Fmtflags@12@B 1002f280     DataMerge.obj
 0002:00000284       ?floatfield@?$_Iosb@H@std@@2W4_Fmtflags@12@B 1002f284     DataMerge.obj
 0002:00000288       ?goodbit@?$_Iosb@H@std@@2W4_Iostate@12@B 1002f288     DataMerge.obj
 0002:0000028c       ?eofbit@?$_Iosb@H@std@@2W4_Iostate@12@B 1002f28c     DataMerge.obj
 0002:00000290       ?failbit@?$_Iosb@H@std@@2W4_Iostate@12@B 1002f290     DataMerge.obj
 0002:00000294       ?badbit@?$_Iosb@H@std@@2W4_Iostate@12@B 1002f294     DataMerge.obj
 0002:00000298       ?_Hardfail@?$_Iosb@H@std@@2W4_Iostate@12@B 1002f298     DataMerge.obj
 0002:0000029c       ?in@?$_Iosb@H@std@@2W4_Openmode@12@B 1002f29c     DataMerge.obj
 0002:000002a0       ?out@?$_Iosb@H@std@@2W4_Openmode@12@B 1002f2a0     DataMerge.obj
 0002:000002a4       ?ate@?$_Iosb@H@std@@2W4_Openmode@12@B 1002f2a4     DataMerge.obj
 0002:000002a8       ?app@?$_Iosb@H@std@@2W4_Openmode@12@B 1002f2a8     DataMerge.obj
 0002:000002ac       ?trunc@?$_Iosb@H@std@@2W4_Openmode@12@B 1002f2ac     DataMerge.obj
 0002:000002b0       ?_Nocreate@?$_Iosb@H@std@@2W4_Openmode@12@B 1002f2b0     DataMerge.obj
 0002:000002b4       ?_Noreplace@?$_Iosb@H@std@@2W4_Openmode@12@B 1002f2b4     DataMerge.obj
 0002:000002b8       ?binary@?$_Iosb@H@std@@2W4_Openmode@12@B 1002f2b8     DataMerge.obj
 0002:000002bc       ?beg@?$_Iosb@H@std@@2W4_Seekdir@12@B 1002f2bc     DataMerge.obj
 0002:000002c0       ?cur@?$_Iosb@H@std@@2W4_Seekdir@12@B 1002f2c0     DataMerge.obj
 0002:000002c4       ?end@?$_Iosb@H@std@@2W4_Seekdir@12@B 1002f2c4     DataMerge.obj
 0002:000002cc       ??_7bad_alloc@std@@6B@     1002f2cc     DataMerge.obj
 0002:000002d8       ??_7logic_error@std@@6B@   1002f2d8     DataMerge.obj
 0002:000002e4       ??_7length_error@std@@6B@  1002f2e4     DataMerge.obj
 0002:000002ec       ??_C@_0DM@FIOOOCLL@DataAccessor?5back?9pointer?5to?5dat@ 1002f2ec     DataMerge.obj
 0002:0000032c       ??_7PlugInFactory@@6B@     1002f32c     DataMerge.obj
 0002:00000334       ??_C@_0CH@FKIDNGLE@?$HL1AA900B7?909FE?94d7b?9A8D4?925DEEDE@ 1002f334     DataMerge.obj
 0002:0000035c       ??_C@_0CI@DILHPJE@?$FLSpectral?5Data?5Merge?$FN?1SpectralDa@ 1002f35c     DataMerge.obj
 0002:00000388       ??_C@_0EE@MHPLEIOL@Merge?5one?9band?5spectral?5data?5int@ 1002f388     DataMerge.obj
 0002:000003cc       ??_C@_0BE@LJCNKBLN@Spectral?5Data?5Merge?$AA@ 1002f3cc     DataMerge.obj
 0002:000003e0       ??_C@_0DI@BNLMKDHI@Copyright?5?$CIC?$CJ?52008?0?5Ball?5Aerospa@ 1002f3e0     DataMerge.obj
 0002:00000418       ??_C@_06OANMLBJC@Sample?$AA@ 1002f418     DataMerge.obj
 0002:00000424       ??_7DataMerge@@6BSessionItemExt1@@@ 1002f424     DataMerge.obj
 0002:00000434       ??_7DataMerge@@6BPlugIn@@@ 1002f434     DataMerge.obj
 0002:00000494       ??_7DataMerge@@6BViewerShell@@@ 1002f494     DataMerge.obj
 0002:000004d4       ??_7DataMerge@@6BQObject@@@ 1002f4d4     DataMerge.obj
 0002:00000500       ??_C@_0BC@ICGJBBHK@Opticks?5Community?$AA@ 1002f500     DataMerge.obj
 0002:00000514       ??_C@_0BD@OLBABOEK@vector?$DMT?$DO?5too?5long?$AA@ 1002f514     DataMerge.obj
 0002:0000052c       ??_7?$Resource@VStep@@VMessageObject@@@@6B@ 1002f52c     DataMerge.obj
 0002:00000534       ??_7?$Resource@VDataRequest@@VFactoryObject@@@@6B@ 1002f534     DataMerge.obj
 0002:00000538       ??_C@_01CLKCMJKC@?5?$AA@   1002f538     DataMerge.obj
 0002:0000053c       ??_C@_0O@JINNKCJN@D?3?2data?$CFd?4txt?$AA@ 1002f53c     DataMerge.obj
 0002:00000550       ??_7StepResource@@6B@      1002f550     DataMerge.obj
 0002:00000558       ??_7?$FactoryResource@VDataRequest@@@@6B@ 1002f558     DataMerge.obj
 0002:0000055c       ??_C@_0BH@BFADOGBF@SpatialDataView?5error?$CB?$AA@ 1002f55c     DataMerge.obj
 0002:00000574       ??_C@_0BA@OLOMBGFK@DataMergeResult?$AA@ 1002f574     DataMerge.obj
 0002:00000584       ??_C@_0CA@FMENOPHD@Merge?5Data?5Column?5Format?5Error?$CB?$AA@ 1002f584     DataMerge.obj
 0002:000005a4       ??_C@_0BN@KLMOLBKI@Merge?5Data?5Row?5Format?5Error?$CB?$AA@ 1002f5a4     DataMerge.obj
 0002:000005c4       ??_C@_0BJ@LBCEBLPH@Merge?5Data?5Format?5Error?$CB?$AA@ 1002f5c4     DataMerge.obj
 0002:000005e0       ??_C@_0CA@KJKJDBKJ@pDesRaster?5Data?5Accessor?5Error?$CB?$AA@ 1002f5e0     DataMerge.obj
 0002:00000600       ??_C@_0O@IGKEMOHF@DataMergeCube?$AA@ 1002f600     DataMerge.obj
 0002:00000610       ??_C@_0BB@IHGBCFHF@Cube?5Data?5error?$CB?$AA@ 1002f610     DataMerge.obj
 0002:00000624       ??_C@_0BO@DBAFGKCP@No?5RasterElement?5input?5found?$CB?$AA@ 1002f624     DataMerge.obj
 0002:00000644       ??_C@_02GIPFHKNO@OK?$AA@   1002f644     DataMerge.obj
 0002:00000648       ??_C@_0O@NOOCEGCF@RasterElement?$AA@ 1002f648     DataMerge.obj
 0002:00000658       ??_C@_0BB@LKHHECID@Data?5Merge?5Begin?$AA@ 1002f658     DataMerge.obj
 0002:0000066c       ??_C@_03CGOPKBCD@app?$AA@  1002f66c     DataMerge.obj
 0002:00000670       ??_C@_0CF@MNMEDDIH@5E4BCD48?9E662?9408b?993AF?9F9127CE5@ 1002f670     DataMerge.obj
 0002:00000695       ??_C@_00CNPNBAHC@?$AA@     1002f695     DataMerge.obj
 0002:0000069c       ??_7BasicPlugInFactory@@6B@ 1002f69c     DataMerge.obj
 0002:000006a8       ??_7DataMergePlugInFactory@SpectralDataMerge@@6B@ 1002f6a8     DataMerge.obj
 0002:000006b0       ??_C@_09LDNHLGFA@DataMerge?$AA@ 1002f6b0     DataMerge.obj
 0002:000006bc       ??_C@_0CD@LKFILPEI@SpectralDataMergeInstantiatePlug@ 1002f6bc     ModuleManager.obj
 0002:000006e0       ??_C@_0BC@PNFDIAAA@SpectralDataMerge?$AA@ 1002f6e0     ModuleManager.obj
 0002:0000075c       ??_C@_0M@JLCADHDP@ViewerShell?$AA@ 1002f75c     moc_DataMerge.obj
 0002:0000076c       ??_7SlotWrapper@Slot@@6B@  1002f76c     PlugInLib:ViewerShell.obj
 0002:00000788       ??_7PlugInCallback@@6B@    1002f788     PlugInLib:ViewerShell.obj
 0002:0000079c       ??_C@_06PJECNADJ@Viewer?$AA@ 1002f79c     PlugInLib:ViewerShell.obj
 0002:000007a8       ??_7?$SlotValue@VViewerShell@@@Slot@@6B@ 1002f7a8     PlugInLib:ViewerShell.obj
 0002:000007c4       ??_7?$SlotValue@V?$SafePtr@VApplicationServices@@@@@Slot@@6B@ 1002f7c4     PlugInLib:ViewerShell.obj
 0002:000007dc       ??_C@_0BB@JLIMABD@Subject?3?3Deleted?$AA@ 1002f7dc     PlugInLib:ViewerShell.obj
 0002:000007f0       ??_C@_0CD@NKDKNGIP@ApplicationServices?3?3SessionClos@ 1002f7f0     PlugInLib:ViewerShell.obj
 0002:00000818       ??_7ViewerCallback@@6B@    1002f818     PlugInLib:ViewerShell.obj
 0002:0000082c       ??_C@_0BI@COLNOGJN@pT?5?$CB?$DN?50?5?$CG?$CG?5pMethod?5?$CB?$DN?50?$AA@ 1002f82c     PlugInLib:ViewerShell.obj
 0002:00000844       ??_C@_0DN@JAJKOECL@C?3?2Opticks?2Rollup?2Opticks?2Code?2A@ 1002f844     PlugInLib:ViewerShell.obj
 0002:00000888       ??_7?$SafePtr@VApplicationServices@@@@6B@ 1002f888     PlugInLib:ViewerShell.obj
 0002:00000890       ??_7?$AttachmentPtr@VApplicationServices@@@@6B@ 1002f890     PlugInLib:ViewerShell.obj
 0002:00000898       ??_7ViewerShell@@6BSessionItemExt1@@@ 1002f898     PlugInLib:ViewerShell.obj
 0002:000008a4       ??_7ViewerShell@@6BPlugIn@@@ 1002f8a4     PlugInLib:ViewerShell.obj
 0002:00000904       ??_7ViewerShell@@6B@       1002f904     PlugInLib:ViewerShell.obj
 0002:00000944       ??_7Executable@@6B@        1002f944     PlugInLib:ExecutableShell.obj
 0002:00000980       ??_7ExecutableShell@@6BSessionItemExt1@@@ 1002f980     PlugInLib:ExecutableShell.obj
 0002:0000098c       ??_7ExecutableShell@@6BPlugIn@@@ 1002f98c     PlugInLib:ExecutableShell.obj
 0002:000009ec       ??_7ExecutableShell@@6B@   1002f9ec     PlugInLib:ExecutableShell.obj
 0002:00000a28       ??_7out_of_range@std@@6B@  1002fa28     PlugInLib:PlugInShell.obj
 0002:00000a34       ??_7SessionItem@@6B@       1002fa34     PlugInLib:PlugInShell.obj
 0002:00000a64       ??_7SessionItemExt1@@6B@   1002fa64     PlugInLib:PlugInShell.obj
 0002:00000a74       ??_7PlugIn@@6B@            1002fa74     PlugInLib:PlugInShell.obj
 0002:00000ad0       ??_C@_0P@JLMCDHHI@pItemExt1?5?$CB?$DN?50?$AA@ 1002fad0     PlugInLib:PlugInShell.obj
 0002:00000ae0       ??_C@_0BC@EMCJJKHH@?4?2PlugInShell?4cpp?$AA@ 1002fae0     PlugInLib:PlugInShell.obj
 0002:00000af8       ??_7?$Resource@VSettableSessionItem@@VFactoryObject@@@@6B@ 1002faf8     PlugInLib:PlugInShell.obj
 0002:00000b00       ??_7?$FactoryResource@VSettableSessionItem@@@@6B@ 1002fb00     PlugInLib:PlugInShell.obj
 0002:00000b04       ??_C@_0BE@JONHPENG@map?1set?$DMT?$DO?5too?5long?$AA@ 1002fb04     PlugInLib:PlugInShell.obj
 0002:00000b18       ??_C@_0BM@PAPJHAGI@invalid?5map?1set?$DMT?$DO?5iterator?$AA@ 1002fb18     PlugInLib:PlugInShell.obj
 0002:00000b38       ??_7PlugInShell@@6BSessionItemExt1@@@ 1002fb38     PlugInLib:PlugInShell.obj
 0002:00000b44       ??_7PlugInShell@@6BPlugIn@@@ 1002fb44     PlugInLib:PlugInShell.obj
 0002:00000ba0       ??_C@_05ILABNDBH@4?43?43?$AA@ 1002fba0     PlugInLib:PlugInShell.obj
 0002:00000ba8       ??_C@_0BF@CBGMDFFH@ApplicationServices2?$AA@ 1002fba8     PlugInUtilities:Service.obj
 0002:00000bc0       ??_C@_0BB@FJJDPHAA@UtilityServices2?$AA@ 1002fbc0     PlugInUtilities:Service.obj
 0002:00000bd4       ??_C@_0P@IDKJDNID@ModelServices2?$AA@ 1002fbd4     PlugInUtilities:Service.obj
 0002:00000be4       ??_C@_0BD@NJOLPMIK@AnimationServices2?$AA@ 1002fbe4     PlugInUtilities:Service.obj
 0002:00000bf8       ??_C@_0BB@DCGHPDHL@DesktopServices2?$AA@ 1002fbf8     PlugInUtilities:Service.obj
 0002:00000c0c       ??_C@_0BH@EIOKNJIO@PlugInManagerServices2?$AA@ 1002fc0c     PlugInUtilities:Service.obj
 0002:00000c28       ??_C@_0FK@BOFLLCAH@Attempting?5to?5use?5SessionExplore@ 1002fc28     PlugInUtilities:Service.obj
 0002:00000c84       ??_C@_0BB@ICFKALOH@Session?5Explorer?$AA@ 1002fc84     PlugInUtilities:Service.obj
 0002:00000c98       ??_C@_04DDKJGDCM@bool?$AA@ 1002fc98     PlugInUtilities:TypeConverter.obj
 0002:00000ca0       ??_C@_0N@FDIAEDPI@vector?$DMbool?$DO?$AA@ 1002fca0     PlugInUtilities:TypeConverter.obj
 0002:00000cb0       ??_C@_04ENMBGAPA@char?$AA@ 1002fcb0     PlugInUtilities:TypeConverter.obj
 0002:00000cb8       ??_C@_0N@NMJLLFAE@vector?$DMchar?$DO?$AA@ 1002fcb8     PlugInUtilities:TypeConverter.obj
 0002:00000cc8       ??_C@_0O@PPAIJIHF@unsigned?5char?$AA@ 1002fcc8     PlugInUtilities:TypeConverter.obj
 0002:00000cd8       ??_C@_0BG@IPHPNPDM@vector?$DMunsigned?5char?$DO?$AA@ 1002fcd8     PlugInUtilities:TypeConverter.obj
 0002:00000cf0       ??_C@_0M@MPLPCMBL@signed?5char?$AA@ 1002fcf0     PlugInUtilities:TypeConverter.obj
 0002:00000cfc       ??_C@_0BE@FHIKMJEO@vector?$DMsigned?5char?$DO?$AA@ 1002fcfc     PlugInUtilities:TypeConverter.obj
 0002:00000d10       ??_C@_05BFKKPKCG@short?$AA@ 1002fd10     PlugInUtilities:TypeConverter.obj
 0002:00000d18       ??_C@_0O@ODJHGOGI@vector?$DMshort?$DO?$AA@ 1002fd18     PlugInUtilities:TypeConverter.obj
 0002:00000d28       ??_C@_0P@IIMKEEHB@unsigned?5short?$AA@ 1002fd28     PlugInUtilities:TypeConverter.obj
 0002:00000d38       ??_C@_0BH@MLMGDCJM@vector?$DMunsigned?5short?$DO?$AA@ 1002fd38     PlugInUtilities:TypeConverter.obj
 0002:00000d50       ??_C@_03JBIPMCLC@int?$AA@  1002fd50     PlugInUtilities:TypeConverter.obj
 0002:00000d54       ??_C@_0M@KFCDPAGK@vector?$DMint?$DO?$AA@ 1002fd54     PlugInUtilities:TypeConverter.obj
 0002:00000d60       ??_C@_0N@OFHMGPAL@unsigned?5int?$AA@ 1002fd60     PlugInUtilities:TypeConverter.obj
 0002:00000d70       ??_C@_0BF@PCNKPIJI@vector?$DMunsigned?5int?$DO?$AA@ 1002fd70     PlugInUtilities:TypeConverter.obj
 0002:00000d88       ??_C@_04GOKPGOLB@long?$AA@ 1002fd88     PlugInUtilities:TypeConverter.obj
 0002:00000d90       ??_C@_0N@NNGDKKAM@vector?$DMlong?$DO?$AA@ 1002fd90     PlugInUtilities:TypeConverter.obj
 0002:00000da0       ??_C@_0O@NMGGJGDE@unsigned?5long?$AA@ 1002fda0     PlugInUtilities:TypeConverter.obj
 0002:00000db0       ??_C@_0BG@IOIHMADE@vector?$DMunsigned?5long?$DO?$AA@ 1002fdb0     PlugInUtilities:TypeConverter.obj
 0002:00000dc8       ??_C@_07GDNIBEMG@int64_t?$AA@ 1002fdc8     PlugInUtilities:TypeConverter.obj
 0002:00000dd0       ??_C@_0BA@MAOLBMJP@vector?$DMint64_t?$DO?$AA@ 1002fdd0     PlugInUtilities:TypeConverter.obj
 0002:00000de0       ??_C@_08FKMHFJJL@uint64_t?$AA@ 1002fde0     PlugInUtilities:TypeConverter.obj
 0002:00000dec       ??_C@_0BB@OPLNPMNG@vector?$DMuint64_t?$DO?$AA@ 1002fdec     PlugInUtilities:TypeConverter.obj
 0002:00000e00       ??_C@_05KNFBNCOH@float?$AA@ 1002fe00     PlugInUtilities:TypeConverter.obj
 0002:00000e08       ??_C@_0O@PEMGHGG@vector?$DMfloat?$DO?$AA@ 1002fe08     PlugInUtilities:TypeConverter.obj
 0002:00000e18       ??_C@_06BNJCAIGJ@double?$AA@ 1002fe18     PlugInUtilities:TypeConverter.obj
 0002:00000e20       ??_C@_0P@IGHPGLJL@vector?$DMdouble?$DO?$AA@ 1002fe20     PlugInUtilities:TypeConverter.obj
 0002:00000e30       ??_C@_04GKJNKENE@void?$AA@ 1002fe30     PlugInUtilities:TypeConverter.obj
 0002:00000e38       ??_C@_0N@OALPANBB@vector?$DMvoid?$DO?$AA@ 1002fe38     PlugInUtilities:TypeConverter.obj
 0002:00000e48       ??_C@_06ICGJLFIM@string?$AA@ 1002fe48     PlugInUtilities:TypeConverter.obj
 0002:00000e50       ??_C@_0P@FGIAIGNB@vector?$DMstring?$DO?$AA@ 1002fe50     PlugInUtilities:TypeConverter.obj
 0002:00000e60       ??_C@_0P@GCFBOKAJ@AnimationCycle?$AA@ 1002fe60     PlugInUtilities:TypeConverter.obj
 0002:00000e70       ??_C@_0BH@JFPCFADM@vector?$DMAnimationCycle?$DO?$AA@ 1002fe70     PlugInUtilities:TypeConverter.obj
 0002:00000e88       ??_C@_0P@CBCLBGGA@AnimationState?$AA@ 1002fe88     PlugInUtilities:TypeConverter.obj
 0002:00000e98       ??_C@_0BH@KBNPPDDM@vector?$DMAnimationState?$DO?$AA@ 1002fe98     PlugInUtilities:TypeConverter.obj
 0002:00000eb0       ??_C@_09NEIGAIIL@ArcRegion?$AA@ 1002feb0     PlugInUtilities:TypeConverter.obj
 0002:00000ebc       ??_C@_0BC@PKNDCFBM@vector?$DMArcRegion?$DO?$AA@ 1002febc     PlugInUtilities:TypeConverter.obj
 0002:00000ed0       ??_C@_0BB@DAPCCLPD@ComplexComponent?$AA@ 1002fed0     PlugInUtilities:TypeConverter.obj
 0002:00000ee4       ??_C@_0BJ@NKABDJHC@vector?$DMComplexComponent?$DO?$AA@ 1002fee4     PlugInUtilities:TypeConverter.obj
 0002:00000f00       ??_C@_0L@HMALMJG@DataOrigin?$AA@ 1002ff00     PlugInUtilities:TypeConverter.obj
 0002:00000f0c       ??_C@_0BD@LEAMLHHE@vector?$DMDataOrigin?$DO?$AA@ 1002ff0c     PlugInUtilities:TypeConverter.obj
 0002:00000f20       ??_C@_0M@GDNBMJPD@DisplayMode?$AA@ 1002ff20     PlugInUtilities:TypeConverter.obj
 0002:00000f2c       ??_C@_0BE@PJPHMNOB@vector?$DMDisplayMode?$DO?$AA@ 1002ff2c     PlugInUtilities:TypeConverter.obj
 0002:00000f40       ??_C@_0O@KEPDKPCL@DistanceUnits?$AA@ 1002ff40     PlugInUtilities:TypeConverter.obj
 0002:00000f50       ??_C@_0BG@DPHFIPI@vector?$DMDistanceUnits?$DO?$AA@ 1002ff50     PlugInUtilities:TypeConverter.obj
 0002:00000f68       ??_C@_0O@MNFNLMLH@DmsFormatType?$AA@ 1002ff68     PlugInUtilities:TypeConverter.obj
 0002:00000f78       ??_C@_0BG@PKCHCJIE@vector?$DMDmsFormatType?$DO?$AA@ 1002ff78     PlugInUtilities:TypeConverter.obj
 0002:00000f90       ??_C@_0N@OPBMJJNK@EncodingType?$AA@ 1002ff90     PlugInUtilities:TypeConverter.obj
 0002:00000fa0       ??_C@_0BF@DAEHKCM@vector?$DMEncodingType?$DO?$AA@ 1002ffa0     PlugInUtilities:TypeConverter.obj
 0002:00000fb8       ??_C@_0L@LKICPMJB@EndianType?$AA@ 1002ffb8     PlugInUtilities:TypeConverter.obj
 0002:00000fc4       ??_C@_0BD@CKNFGAJH@vector?$DMEndianType?$DO?$AA@ 1002ffc4     PlugInUtilities:TypeConverter.obj
 0002:00000fd8       ??_C@_09HNHLDKBC@FillStyle?$AA@ 1002ffd8     PlugInUtilities:TypeConverter.obj
 0002:00000fe4       ??_C@_0BC@HDKJPDMO@vector?$DMFillStyle?$DO?$AA@ 1002ffe4     PlugInUtilities:TypeConverter.obj
 0002:00000ff8       ??_C@_0O@LBKMKDP@InsetZoomMode?$AA@ 1002fff8     PlugInUtilities:TypeConverter.obj
 0002:00001008       ??_C@_0BG@BJICGFOA@vector?$DMInsetZoomMode?$DO?$AA@ 10030008     PlugInUtilities:TypeConverter.obj
 0002:00001020       ??_C@_0BF@BBDOMFLI@InterleaveFormatType?$AA@ 10030020     PlugInUtilities:TypeConverter.obj
 0002:00001038       ??_C@_0BN@DOCOFHKH@vector?$DMInterleaveFormatType?$DO?$AA@ 10030038     PlugInUtilities:TypeConverter.obj
 0002:00001058       ??_C@_09ONPDCMEA@GcpSymbol?$AA@ 10030058     PlugInUtilities:TypeConverter.obj
 0002:00001064       ??_C@_0BC@PGFMELAA@vector?$DMGcpSymbol?$DO?$AA@ 10030064     PlugInUtilities:TypeConverter.obj
 0002:00001078       ??_C@_0N@IMCEOJJI@GeocoordType?$AA@ 10030078     PlugInUtilities:TypeConverter.obj
 0002:00001088       ??_C@_0BF@JLLFGCOA@vector?$DMGeocoordType?$DO?$AA@ 10030088     PlugInUtilities:TypeConverter.obj
 0002:000010a0       ??_C@_0BC@PHECNJGI@GraphicObjectType?$AA@ 100300a0     PlugInUtilities:TypeConverter.obj
 0002:000010b4       ??_C@_0BK@BFCBCLB@vector?$DMGraphicObjectType?$DO?$AA@ 100300b4     PlugInUtilities:TypeConverter.obj
 0002:000010d0       ??_C@_0M@PMGHKEKB@LatLonStyle?$AA@ 100300d0     PlugInUtilities:TypeConverter.obj
 0002:000010dc       ??_C@_0BE@HMANELFE@vector?$DMLatLonStyle?$DO?$AA@ 100300dc     PlugInUtilities:TypeConverter.obj
 0002:000010f0       ??_C@_09GIEPNBNM@LayerType?$AA@ 100300f0     PlugInUtilities:TypeConverter.obj
 0002:000010fc       ??_C@_0BC@PGACIJC@vector?$DMLayerType?$DO?$AA@ 100300fc     PlugInUtilities:TypeConverter.obj
 0002:00001110       ??_C@_09LNOEOIHF@LineStyle?$AA@ 10030110     PlugInUtilities:TypeConverter.obj
 0002:0000111c       ??_C@_0BC@KALPJIOH@vector?$DMLineStyle?$DO?$AA@ 1003011c     PlugInUtilities:TypeConverter.obj
 0002:00001130       ??_C@_0N@GOLOEBKA@PanLimitType?$AA@ 10030130     PlugInUtilities:TypeConverter.obj
 0002:00001140       ??_C@_0BF@LDFFEANG@vector?$DMPanLimitType?$DO?$AA@ 10030140     PlugInUtilities:TypeConverter.obj
 0002:00001158       ??_C@_08LBIMPFBI@PassArea?$AA@ 10030158     PlugInUtilities:TypeConverter.obj
 0002:00001164       ??_C@_0BB@JLOHGFOA@vector?$DMPassArea?$DO?$AA@ 10030164     PlugInUtilities:TypeConverter.obj
 0002:00001178       ??_C@_0P@HCIEEHEP@PlotObjectType?$AA@ 10030178     PlugInUtilities:TypeConverter.obj
 0002:00001188       ??_C@_0BH@KFNGBDE@vector?$DMPlotObjectType?$DO?$AA@ 10030188     PlugInUtilities:TypeConverter.obj
 0002:000011a0       ??_C@_0BH@GNIBEJED@Point?3?3PointSymbolType?$AA@ 100301a0     PlugInUtilities:TypeConverter.obj
 0002:000011b8       ??_C@_0BP@BGGBEEMC@vector?$DMPoint?3?3PointSymbolType?$DO?$AA@ 100301b8     PlugInUtilities:TypeConverter.obj
 0002:000011d8       ??_C@_0N@FDMBGMPN@PositionType?$AA@ 100301d8     PlugInUtilities:TypeConverter.obj
 0002:000011e8       ??_C@_0BF@KGLCBCLC@vector?$DMPositionType?$DO?$AA@ 100301e8     PlugInUtilities:TypeConverter.obj
 0002:00001200       ??_C@_0BD@MMBGDGPE@ProcessingLocation?$AA@ 10030200     PlugInUtilities:TypeConverter.obj
 0002:00001214       ??_C@_0BL@DLGAFOEB@vector?$DMProcessingLocation?$DO?$AA@ 10030214     PlugInUtilities:TypeConverter.obj
 0002:00001230       ??_C@_0BA@LMGFGCOF@SessionSaveType?$AA@ 10030230     PlugInUtilities:TypeConverter.obj
 0002:00001240       ??_C@_0BI@BALPMNL@vector?$DMSessionSaveType?$DO?$AA@ 10030240     PlugInUtilities:TypeConverter.obj
 0002:00001258       ??_C@_0BC@KGGNDDOL@RasterChannelType?$AA@ 10030258     PlugInUtilities:TypeConverter.obj
 0002:0000126c       ??_C@_0BK@HFLCOPMB@vector?$DMRasterChannelType?$DO?$AA@ 1003026c     PlugInUtilities:TypeConverter.obj
 0002:00001288       ??_C@_0M@KGOBGCLJ@ReleaseType?$AA@ 10030288     PlugInUtilities:TypeConverter.obj
 0002:00001294       ??_C@_0BE@GPDLFFME@vector?$DMReleaseType?$DO?$AA@ 10030294     PlugInUtilities:TypeConverter.obj
 0002:000012a8       ??_C@_0M@IEEADENJ@StretchType?$AA@ 100302a8     PlugInUtilities:TypeConverter.obj
 0002:000012b4       ??_C@_0BE@CCKLJFMK@vector?$DMStretchType?$DO?$AA@ 100302b4     PlugInUtilities:TypeConverter.obj
 0002:000012c8       ??_C@_0L@NFINBIND@SymbolType?$AA@ 100302c8     PlugInUtilities:TypeConverter.obj
 0002:000012d4       ??_C@_0BD@LCGIEPMP@vector?$DMSymbolType?$DO?$AA@ 100302d4     PlugInUtilities:TypeConverter.obj
 0002:000012e8       ??_C@_0M@PNFGIHI@RegionUnits?$AA@ 100302e8     PlugInUtilities:TypeConverter.obj
 0002:000012f4       ??_C@_0BE@IDPBJDOI@vector?$DMRegionUnits?$DO?$AA@ 100302f4     PlugInUtilities:TypeConverter.obj
 0002:00001308       ??_C@_0L@HABFLNPF@UnitSystem?$AA@ 10030308     PlugInUtilities:TypeConverter.obj
 0002:00001314       ??_C@_0BD@GAMAFCJH@vector?$DMUnitSystem?$DO?$AA@ 10030314     PlugInUtilities:TypeConverter.obj
 0002:00001328       ??_C@_08PNBAGKKP@UnitType?$AA@ 10030328     PlugInUtilities:TypeConverter.obj
 0002:00001334       ??_C@_0BB@MOKONPFA@vector?$DMUnitType?$DO?$AA@ 10030334     PlugInUtilities:TypeConverter.obj
 0002:00001348       ??_C@_0P@BEECLMNP@WindowSizeType?$AA@ 10030348     PlugInUtilities:TypeConverter.obj
 0002:00001358       ??_C@_0BH@PKDEDEIL@vector?$DMWindowSizeType?$DO?$AA@ 10030358     PlugInUtilities:TypeConverter.obj
 0002:00001370       ??_C@_0L@NEAJCNKD@WindowType?$AA@ 10030370     PlugInUtilities:TypeConverter.obj
 0002:0000137c       ??_C@_0BD@OCGMLKMG@vector?$DMWindowType?$DO?$AA@ 1003037c     PlugInUtilities:TypeConverter.obj
 0002:00001390       ??_C@_0BG@FJEAGFDH@AebInstallTransaction?$AA@ 10030390     PlugInUtilities:TypeConverter.obj
 0002:000013a8       ??_C@_0BO@FIEKCNCA@vector?$DMAebInstallTransaction?$DO?$AA@ 100303a8     PlugInUtilities:TypeConverter.obj
 0002:000013c8       ??_C@_0BC@OOPDAAI@ApplicationWindow?$AA@ 100303c8     PlugInUtilities:TypeConverter.obj
 0002:000013dc       ??_C@_0BK@EMBJNOAA@vector?$DMApplicationWindow?$DO?$AA@ 100303dc     PlugInUtilities:TypeConverter.obj
 0002:000013f8       ??_C@_09ONEINPNJ@Animation?$AA@ 100303f8     PlugInUtilities:TypeConverter.obj
 0002:00001404       ??_C@_0BC@HPIPNLBD@vector?$DMAnimation?$DO?$AA@ 10030404     PlugInUtilities:TypeConverter.obj
 0002:00001418       ??_C@_0BE@NPDKGNGO@AnimationController?$AA@ 10030418     PlugInUtilities:TypeConverter.obj
 0002:0000142c       ??_C@_0BM@HLGPMJLL@vector?$DMAnimationController?$DO?$AA@ 1003042c     PlugInUtilities:TypeConverter.obj
 0002:00001448       ??_C@_0BC@HJKDBGGF@AnnotationElement?$AA@ 10030448     PlugInUtilities:TypeConverter.obj
 0002:0000145c       ??_C@_0BK@HPGNIPMD@vector?$DMAnnotationElement?$DO?$AA@ 1003045c     PlugInUtilities:TypeConverter.obj
 0002:00001478       ??_C@_0BA@KAAGFGBH@AnnotationLayer?$AA@ 10030478     PlugInUtilities:TypeConverter.obj
 0002:00001488       ??_C@_0BI@FCKEAMNP@vector?$DMAnnotationLayer?$DO?$AA@ 10030488     PlugInUtilities:TypeConverter.obj
 0002:000014a0       ??_C@_03EBKHDLCO@Any?$AA@  100304a0     PlugInUtilities:TypeConverter.obj
 0002:000014a4       ??_C@_0M@FMEKAHPM@vector?$DMAny?$DO?$AA@ 100304a4     PlugInUtilities:TypeConverter.obj
 0002:000014b0       ??_C@_0L@ECIAHKNK@AoiElement?$AA@ 100304b0     PlugInUtilities:TypeConverter.obj
 0002:000014bc       ??_C@_0BD@MLCDPKAJ@vector?$DMAoiElement?$DO?$AA@ 100304bc     PlugInUtilities:TypeConverter.obj
 0002:000014d0       ??_C@_08FOBACOHH@AoiLayer?$AA@ 100304d0     PlugInUtilities:TypeConverter.obj
 0002:000014dc       ??_C@_0BB@EGAFIFPC@vector?$DMAoiLayer?$DO?$AA@ 100304dc     PlugInUtilities:TypeConverter.obj
 0002:000014f0       ??_C@_07IMLPMLBM@BitMask?$AA@ 100304f0     PlugInUtilities:TypeConverter.obj
 0002:000014f8       ??_C@_0BA@KGACEAIK@vector?$DMBitMask?$DO?$AA@ 100304f8     PlugInUtilities:TypeConverter.obj
 0002:00001508       ??_C@_0O@CJDDHMID@CartesianPlot?$AA@ 10030508     PlugInUtilities:TypeConverter.obj
 0002:00001518       ??_C@_0BG@NLHHLDPB@vector?$DMCartesianPlot?$DO?$AA@ 10030518     PlugInUtilities:TypeConverter.obj
 0002:00001530       ??_C@_0P@PEKDEFAE@Classification?$AA@ 10030530     PlugInUtilities:TypeConverter.obj
 0002:00001540       ??_C@_0BH@OLNFNOCO@vector?$DMClassification?$DO?$AA@ 10030540     PlugInUtilities:TypeConverter.obj
 0002:00001558       ??_C@_0BE@GLEOKAAM@ClassificationLayer?$AA@ 10030558     PlugInUtilities:TypeConverter.obj
 0002:0000156c       ??_C@_0BM@NIGHLNAC@vector?$DMClassificationLayer?$DO?$AA@ 1003056c     PlugInUtilities:TypeConverter.obj
 0002:00001588       ??_C@_09MBKNDBMC@ColorType?$AA@ 10030588     PlugInUtilities:TypeConverter.obj
 0002:00001594       ??_C@_0BC@PFMGPHBB@vector?$DMColorType?$DO?$AA@ 10030594     PlugInUtilities:TypeConverter.obj
 0002:000015a8       ??_C@_0P@GBNHJIMA@DataDescriptor?$AA@ 100305a8     PlugInUtilities:TypeConverter.obj
 0002:000015b8       ??_C@_0BH@HHEJKMFK@vector?$DMDataDescriptor?$DO?$AA@ 100305b8     PlugInUtilities:TypeConverter.obj
 0002:000015d0       ??_C@_0M@IDLNNGAG@DataElement?$AA@ 100305d0     PlugInUtilities:TypeConverter.obj
 0002:000015dc       ??_C@_0BE@DEMAKHGN@vector?$DMDataElement?$DO?$AA@ 100305dc     PlugInUtilities:TypeConverter.obj
 0002:000015f0       ??_C@_0BB@NOFIAIEN@DataElementGroup?$AA@ 100305f0     PlugInUtilities:TypeConverter.obj
 0002:00001604       ??_C@_0BJ@PGDGANNK@vector?$DMDataElementGroup?$DO?$AA@ 10030604     PlugInUtilities:TypeConverter.obj
 0002:00001620       ??_C@_0M@LMHCAHAK@DataRequest?$AA@ 10030620     PlugInUtilities:TypeConverter.obj
 0002:0000162c       ??_C@_0BE@DNEJCEJH@vector?$DMDataRequest?$DO?$AA@ 1003062c     PlugInUtilities:TypeConverter.obj
 0002:00001640       ??_C@_0BD@DLCGCPCN@DataVariantAnyData?$AA@ 10030640     PlugInUtilities:TypeConverter.obj
 0002:00001654       ??_C@_0BL@MEJIAECI@vector?$DMDataVariantAnyData?$DO?$AA@ 10030654     PlugInUtilities:TypeConverter.obj
 0002:00001670       ??_C@_08BFOPGFLN@DateTime?$AA@ 10030670     PlugInUtilities:TypeConverter.obj
 0002:0000167c       ??_C@_0BB@DNPPFBBH@vector?$DMDateTime?$DO?$AA@ 1003067c     PlugInUtilities:TypeConverter.obj
 0002:00001690       ??_C@_0BE@LIEGLNOE@DimensionDescriptor?$AA@ 10030690     PlugInUtilities:TypeConverter.obj
 0002:000016a4       ??_C@_0BM@HGGFNPFF@vector?$DMDimensionDescriptor?$DO?$AA@ 100306a4     PlugInUtilities:TypeConverter.obj
 0002:000016c0       ??_C@_0O@LIHDGLKA@DynamicObject?$AA@ 100306c0     PlugInUtilities:TypeConverter.obj
 0002:000016d0       ??_C@_0BG@HJIBICJE@vector?$DMDynamicObject?$DO?$AA@ 100306d0     PlugInUtilities:TypeConverter.obj
 0002:000016e8       ??_C@_0BA@DPGNDGIL@ExecutableAgent?$AA@ 100306e8     PlugInUtilities:TypeConverter.obj
 0002:000016f8       ??_C@_0BI@KLICLINA@vector?$DMExecutableAgent?$DO?$AA@ 100306f8     PlugInUtilities:TypeConverter.obj
 0002:00001710       ??_C@_0M@BDOMMID@ExportAgent?$AA@ 10030710     PlugInUtilities:TypeConverter.obj
 0002:0000171c       ??_C@_0BE@KJJAFDNI@vector?$DMExportAgent?$DO?$AA@ 1003071c     PlugInUtilities:TypeConverter.obj
 0002:00001730       ??_C@_0P@BHAKHJKP@FileDescriptor?$AA@ 10030730     PlugInUtilities:TypeConverter.obj
 0002:00001740       ??_C@_0BH@KKDCANHC@vector?$DMFileDescriptor?$DO?$AA@ 10030740     PlugInUtilities:TypeConverter.obj
 0002:00001758       ??_C@_0L@GMFIMLHM@FileFinder?$AA@ 10030758     PlugInUtilities:TypeConverter.obj
 0002:00001764       ??_C@_0BD@PELICEGF@vector?$DMFileFinder?$DO?$AA@ 10030764     PlugInUtilities:TypeConverter.obj
 0002:00001778       ??_C@_08JCOIAMOP@Filename?$AA@ 10030778     PlugInUtilities:TypeConverter.obj
 0002:00001784       ??_C@_0BB@LIBNGGKG@vector?$DMFilename?$DO?$AA@ 10030784     PlugInUtilities:TypeConverter.obj
 0002:00001798       ??_C@_0N@NPKDPOCM@FloatComplex?$AA@ 10030798     PlugInUtilities:TypeConverter.obj
 0002:000017a8       ??_C@_0BF@FHOKJCGC@vector?$DMFloatComplex?$DO?$AA@ 100307a8     PlugInUtilities:TypeConverter.obj
 0002:000017c0       ??_C@_04IEDBBIIG@Font?$AA@ 100307c0     PlugInUtilities:TypeConverter.obj
 0002:000017c8       ??_C@_0N@GFDEJBHF@vector?$DMFont?$DO?$AA@ 100307c8     PlugInUtilities:TypeConverter.obj
 0002:000017d8       ??_C@_08IIODJLKP@GcpLayer?$AA@ 100307d8     PlugInUtilities:TypeConverter.obj
 0002:000017e4       ??_C@_0BB@MONLCMKB@vector?$DMGcpLayer?$DO?$AA@ 100307e4     PlugInUtilities:TypeConverter.obj
 0002:000017f8       ??_C@_07MODANHOB@GcpList?$AA@ 100307f8     PlugInUtilities:TypeConverter.obj
 0002:00001800       ??_C@_0BA@GFEMEBDH@vector?$DMGcpList?$DO?$AA@ 10030800     PlugInUtilities:TypeConverter.obj
 0002:00001810       ??_C@_0P@DGOBACPK@GraphicElement?$AA@ 10030810     PlugInUtilities:TypeConverter.obj
 0002:00001820       ??_C@_0BH@LBBCEDHC@vector?$DMGraphicElement?$DO?$AA@ 10030820     PlugInUtilities:TypeConverter.obj
 0002:00001838       ??_C@_0N@JELMFKJC@GraphicLayer?$AA@ 10030838     PlugInUtilities:TypeConverter.obj
 0002:00001848       ??_C@_0BF@HLHIBDEN@vector?$DMGraphicLayer?$DO?$AA@ 10030848     PlugInUtilities:TypeConverter.obj
 0002:00001860       ??_C@_0O@OGOGAEAL@HistogramPlot?$AA@ 10030860     PlugInUtilities:TypeConverter.obj
 0002:00001870       ??_C@_0BG@DINLGNJL@vector?$DMHistogramPlot?$DO?$AA@ 10030870     PlugInUtilities:TypeConverter.obj
 0002:00001888       ??_C@_0M@NLJFOJIL@ImportAgent?$AA@ 10030888     PlugInUtilities:TypeConverter.obj
 0002:00001894       ??_C@_0BE@KHJBHAMP@vector?$DMImportAgent?$DO?$AA@ 10030894     PlugInUtilities:TypeConverter.obj
 0002:000018a8       ??_C@_0P@MGHFFHLC@IntegerComplex?$AA@ 100308a8     PlugInUtilities:TypeConverter.obj
 0002:000018b8       ??_C@_0BH@MJOFBOIF@vector?$DMIntegerComplex?$DO?$AA@ 100308b8     PlugInUtilities:TypeConverter.obj
 0002:000018d0       ??_C@_05DPPJJBMK@Int64?$AA@ 100308d0     PlugInUtilities:TypeConverter.obj
 0002:000018d8       ??_C@_0O@EKABJDFA@vector?$DMInt64?$DO?$AA@ 100308d8     PlugInUtilities:TypeConverter.obj
 0002:000018e8       ??_C@_0M@KMLFLDAE@LatLonLayer?$AA@ 100308e8     PlugInUtilities:TypeConverter.obj
 0002:000018f4       ??_C@_0BE@NKOBMOCE@vector?$DMLatLonLayer?$DO?$AA@ 100308f4     PlugInUtilities:TypeConverter.obj
 0002:00001908       ??_C@_05NHNHDHBP@Layer?$AA@ 10030908     PlugInUtilities:TypeConverter.obj
 0002:00001910       ??_C@_0O@LMFAJLKN@vector?$DMLayer?$DO?$AA@ 10030910     PlugInUtilities:TypeConverter.obj
 0002:00001920       ??_C@_0N@MAFNPHOD@LocationType?$AA@ 10030920     PlugInUtilities:TypeConverter.obj
 0002:00001930       ??_C@_0BF@FMCOLDEK@vector?$DMLocationType?$DO?$AA@ 10030930     PlugInUtilities:TypeConverter.obj
 0002:00001948       ??_C@_0BB@GPFDBOPP@MeasurementLayer?$AA@ 10030948     PlugInUtilities:TypeConverter.obj
 0002:0000195c       ??_C@_0BJ@NDOINEGM@vector?$DMMeasurementLayer?$DO?$AA@ 1003095c     PlugInUtilities:TypeConverter.obj
 0002:00001978       ??_C@_0BB@JHGIIGFI@OrthographicView?$AA@ 10030978     PlugInUtilities:TypeConverter.obj
 0002:0000198c       ??_C@_0BJ@JLKCNJLP@vector?$DMOrthographicView?$DO?$AA@ 1003098c     PlugInUtilities:TypeConverter.obj
 0002:000019a8       ??_C@_0BA@PDPHNCFA@PerspectiveView?$AA@ 100309a8     PlugInUtilities:TypeConverter.obj
 0002:000019b8       ??_C@_0BI@LKEPCJGI@vector?$DMPerspectiveView?$DO?$AA@ 100309b8     PlugInUtilities:TypeConverter.obj
 0002:000019d0       ??_C@_0BH@GPLFFOBB@Opticks?3?3PixelLocation?$AA@ 100309d0     PlugInUtilities:TypeConverter.obj
 0002:000019e8       ??_C@_0BP@JDAGEAAN@vector?$DMOpticks?3?3PixelLocation?$DO?$AA@ 100309e8     PlugInUtilities:TypeConverter.obj
 0002:00001a08       ??_C@_08NOLCAIBA@PlotView?$AA@ 10030a08     PlugInUtilities:TypeConverter.obj
 0002:00001a14       ??_C@_0BB@JFFDNDCP@vector?$DMPlotView?$DO?$AA@ 10030a14     PlugInUtilities:TypeConverter.obj
 0002:00001a28       ??_C@_0L@IKFIIEHD@PlotWidget?$AA@ 10030a28     PlugInUtilities:TypeConverter.obj
 0002:00001a34       ??_C@_0BD@GEOBDJLL@vector?$DMPlotWidget?$DO?$AA@ 10030a34     PlugInUtilities:TypeConverter.obj
 0002:00001a48       ??_C@_0L@PEOHOFCJ@PlotWindow?$AA@ 10030a48     PlugInUtilities:TypeConverter.obj
 0002:00001a54       ??_C@_0BD@OPCBDODA@vector?$DMPlotWindow?$DO?$AA@ 10030a54     PlugInUtilities:TypeConverter.obj
 0002:00001a68       ??_C@_09ILOPLGEE@PolarPlot?$AA@ 10030a68     PlugInUtilities:TypeConverter.obj
 0002:00001a74       ??_C@_0BC@PBFHJDID@vector?$DMPolarPlot?$DO?$AA@ 10030a74     PlugInUtilities:TypeConverter.obj
 0002:00001a88       ??_C@_0M@CODOOFLI@ProductView?$AA@ 10030a88     PlugInUtilities:TypeConverter.obj
 0002:00001a94       ??_C@_0BE@BILELKNF@vector?$DMProductView?$DO?$AA@ 10030a94     PlugInUtilities:TypeConverter.obj
 0002:00001aa8       ??_C@_0O@EMICLNIB@ProductWindow?$AA@ 10030aa8     PlugInUtilities:TypeConverter.obj
 0002:00001ab8       ??_C@_0BG@DFBMGDBM@vector?$DMProductWindow?$DO?$AA@ 10030ab8     PlugInUtilities:TypeConverter.obj
 0002:00001ad0       ??_C@_08DAJBHHIG@Progress?$AA@ 10030ad0     PlugInUtilities:TypeConverter.obj
 0002:00001adc       ??_C@_0BB@IMNBMGCB@vector?$DMProgress?$DO?$AA@ 10030adc     PlugInUtilities:TypeConverter.obj
 0002:00001af0       ??_C@_0BB@LJALFHPD@PseudocolorLayer?$AA@ 10030af0     PlugInUtilities:TypeConverter.obj
 0002:00001b04       ??_C@_0BJ@NKIIMAAO@vector?$DMPseudocolorLayer?$DO?$AA@ 10030b04     PlugInUtilities:TypeConverter.obj
 0002:00001b20       ??_C@_0BF@CAHHICLO@RasterDataDescriptor?$AA@ 10030b20     PlugInUtilities:TypeConverter.obj
 0002:00001b38       ??_C@_0BN@NHHMLLNF@vector?$DMRasterDataDescriptor?$DO?$AA@ 10030b38     PlugInUtilities:TypeConverter.obj
 0002:00001b58       ??_C@_0BG@OEDFGEBG@vector?$DMRasterElement?$DO?$AA@ 10030b58     PlugInUtilities:TypeConverter.obj
 0002:00001b70       ??_C@_0BF@FGKKGDNB@RasterFileDescriptor?$AA@ 10030b70     PlugInUtilities:TypeConverter.obj
 0002:00001b88       ??_C@_0BN@KAHBKPN@vector?$DMRasterFileDescriptor?$DO?$AA@ 10030b88     PlugInUtilities:TypeConverter.obj
 0002:00001ba8       ??_C@_0M@PBHBOCH@RasterLayer?$AA@ 10030ba8     PlugInUtilities:TypeConverter.obj
 0002:00001bb4       ??_C@_0BE@HICFBNPL@vector?$DMRasterLayer?$DO?$AA@ 10030bb4     PlugInUtilities:TypeConverter.obj
 0002:00001bc8       ??_C@_0M@JFEJLCPJ@SessionItem?$AA@ 10030bc8     PlugInUtilities:TypeConverter.obj
 0002:00001bd4       ??_C@_0BE@BJNELMIE@vector?$DMSessionItem?$DO?$AA@ 10030bd4     PlugInUtilities:TypeConverter.obj
 0002:00001be8       ??_C@_0BE@NDMBILLL@SettableSessionItem?$AA@ 10030be8     PlugInUtilities:TypeConverter.obj
 0002:00001bfc       ??_C@_0BM@INNKBEAG@vector?$DMSettableSessionItem?$DO?$AA@ 10030bfc     PlugInUtilities:TypeConverter.obj
 0002:00001c18       ??_C@_09GDNFOKKF@Signature?$AA@ 10030c18     PlugInUtilities:TypeConverter.obj
 0002:00001c24       ??_C@_0BC@CGLCHLDB@vector?$DMSignature?$DO?$AA@ 10030c24     PlugInUtilities:TypeConverter.obj
 0002:00001c38       ??_C@_0BB@EGOKEBGE@SignatureLibrary?$AA@ 10030c38     PlugInUtilities:TypeConverter.obj
 0002:00001c4c       ??_C@_0BJ@LEBMCHPP@vector?$DMSignatureLibrary?$DO?$AA@ 10030c4c     PlugInUtilities:TypeConverter.obj
 0002:00001c68       ??_C@_0O@LHAPAKGG@SignaturePlot?$AA@ 10030c68     PlugInUtilities:TypeConverter.obj
 0002:00001c78       ??_C@_0BG@LIJJJHA@vector?$DMSignaturePlot?$DO?$AA@ 10030c78     PlugInUtilities:TypeConverter.obj
 0002:00001c90       ??_C@_0N@FBGMLHKA@SignatureSet?$AA@ 10030c90     PlugInUtilities:TypeConverter.obj
 0002:00001ca0       ??_C@_0BF@LDGKJCCA@vector?$DMSignatureSet?$DO?$AA@ 10030ca0     PlugInUtilities:TypeConverter.obj
 0002:00001cb8       ??_C@_0BA@OLMDCPLD@SpatialDataView?$AA@ 10030cb8     PlugInUtilities:TypeConverter.obj
 0002:00001cc8       ??_C@_0BI@IDFEKOFH@vector?$DMSpatialDataView?$DO?$AA@ 10030cc8     PlugInUtilities:TypeConverter.obj
 0002:00001ce0       ??_C@_0BC@NEMHIKBJ@SpatialDataWindow?$AA@ 10030ce0     PlugInUtilities:TypeConverter.obj
 0002:00001cf4       ??_C@_0BK@CGHDNGEI@vector?$DMSpatialDataWindow?$DO?$AA@ 10030cf4     PlugInUtilities:TypeConverter.obj
 0002:00001d10       ??_C@_0P@LOGJLEMD@ThresholdLayer?$AA@ 10030d10     PlugInUtilities:TypeConverter.obj
 0002:00001d20       ??_C@_0BH@OOJPEDMM@vector?$DMThresholdLayer?$DO?$AA@ 10030d20     PlugInUtilities:TypeConverter.obj
 0002:00001d38       ??_C@_0O@MFEKJDME@TiePointLayer?$AA@ 10030d38     PlugInUtilities:TypeConverter.obj
 0002:00001d48       ??_C@_0BG@DDCDBOCN@vector?$DMTiePointLayer?$DO?$AA@ 10030d48     PlugInUtilities:TypeConverter.obj
 0002:00001d60       ??_C@_0N@NFFJOEIB@TiePointList?$AA@ 10030d60     PlugInUtilities:TypeConverter.obj
 0002:00001d70       ??_C@_0BF@PPIHLHCN@vector?$DMTiePointList?$DO?$AA@ 10030d70     PlugInUtilities:TypeConverter.obj
 0002:00001d88       ??_C@_06GCLKCJAH@UInt64?$AA@ 10030d88     PlugInUtilities:TypeConverter.obj
 0002:00001d90       ??_C@_0P@CMAKAPOF@vector?$DMUInt64?$DO?$AA@ 10030d90     PlugInUtilities:TypeConverter.obj
 0002:00001da0       ??_C@_05CFLIFMAE@Units?$AA@ 10030da0     PlugInUtilities:TypeConverter.obj
 0002:00001da8       ??_C@_0O@DGMHDNCK@vector?$DMUnits?$DO?$AA@ 10030da8     PlugInUtilities:TypeConverter.obj
 0002:00001db8       ??_C@_04OGMCGMPK@View?$AA@ 10030db8     PlugInUtilities:TypeConverter.obj
 0002:00001dc0       ??_C@_0N@DMOFFPBG@vector?$DMView?$DO?$AA@ 10030dc0     PlugInUtilities:TypeConverter.obj
 0002:00001dd0       ??_C@_06BKKJGDHO@Window?$AA@ 10030dd0     PlugInUtilities:TypeConverter.obj
 0002:00001dd8       ??_C@_0P@FKLNFDH@vector?$DMWindow?$DO?$AA@ 10030dd8     PlugInUtilities:TypeConverter.obj
 0002:00001de8       ??_C@_0N@LABCPEHB@WizardObject?$AA@ 10030de8     PlugInUtilities:TypeConverter.obj
 0002:00001df8       ??_C@_0BF@ECFPAOCB@vector?$DMWizardObject?$DO?$AA@ 10030df8     PlugInUtilities:TypeConverter.obj
 0002:00001e10       ??_C@_0BA@MEGFCOCI@WorkspaceWindow?$AA@ 10030e10     PlugInUtilities:TypeConverter.obj
 0002:00001e20       ??_C@_0BI@OEKGECJK@vector?$DMWorkspaceWindow?$DO?$AA@ 10030e20     PlugInUtilities:TypeConverter.obj
 0002:00001e38       ?value@integral_c_tag@mpl@boost@@2HB 10030e38     PlugInUtilities:RasterUtilities.obj
 0002:00001e3c       ?value@?$bool_@$0A@@mpl@boost@@2_NB 10030e3c     PlugInUtilities:RasterUtilities.obj
 0002:00001e3d       ?value@?$bool_@$00@mpl@boost@@2_NB 10030e3d     PlugInUtilities:RasterUtilities.obj
 0002:00001e70       ??_C@_0BM@NMJKDPPO@invalid?5vector?$DMT?$DO?5subscript?$AA@ 10030e70     PlugInUtilities:RasterUtilities.obj
 0002:00001e8c       ??_C@_0BG@EOMJEIFA@vector?$DMbool?$DO?5too?5long?$AA@ 10030e8c     PlugInUtilities:RasterUtilities.obj
 0002:00001ea8       ??_7?$Resource@VRasterFileDescriptor@@VFactoryObject@@@@6B@ 10030ea8     PlugInUtilities:RasterUtilities.obj
 0002:00001eb0       ??_7?$Resource@VFileDescriptor@@VFactoryObject@@@@6B@ 10030eb0     PlugInUtilities:RasterUtilities.obj
 0002:00001eb8       ??_7?$Resource@VRasterElement@@VModelObject@@@@6B@ 10030eb8     PlugInUtilities:RasterUtilities.obj
 0002:00001ec0       ??_7?$Resource@VRasterDataDescriptor@@VDataDescriptorObject@@@@6B@ 10030ec0     PlugInUtilities:RasterUtilities.obj
 0002:00001ec4       ??_C@_0BC@CFKCNGCF@END_METADATA_NAME?$AA@ 10030ec4     PlugInUtilities:RasterUtilities.obj
 0002:00001ed8       ??_C@_0BC@NNCGJFLC@CenterWavelengths?$AA@ 10030ed8     PlugInUtilities:RasterUtilities.obj
 0002:00001eec       ??_C@_04NLKMNLCE@Band?$AA@ 10030eec     PlugInUtilities:RasterUtilities.obj
 0002:00001ef4       ??_C@_07ONMEKKNJ@Special?$AA@ 10030ef4     PlugInUtilities:RasterUtilities.obj
 0002:00001f00       ??_7?$FactoryResource@VRasterFileDescriptor@@@@6B@ 10030f00     PlugInUtilities:RasterUtilities.obj
 0002:00001f08       ??_7?$FactoryResource@VFileDescriptor@@@@6B@ 10030f08     PlugInUtilities:RasterUtilities.obj
 0002:00001f10       ??_7?$ModelResource@VRasterElement@@@@6B@ 10030f10     PlugInUtilities:RasterUtilities.obj
 0002:00001f18       ??_7?$DataDescriptorResource@VRasterDataDescriptor@@@@6B@ 10030f18     PlugInUtilities:RasterUtilities.obj
 0002:00001f1c       ??_C@_0P@IBLOFKHH@BandNamePrefix?$AA@ 10030f1c     PlugInUtilities:RasterUtilities.obj
 0002:00001f2c       ??_C@_05FMHPGHJN@Names?$AA@ 10030f2c     PlugInUtilities:RasterUtilities.obj
 0002:00001f34       ??_C@_0P@EBIIIMDM@pRasterFd?5?$CB?$DN?50?$AA@ 10030f34     PlugInUtilities:RasterUtilities.obj
 0002:00001f44       ??_C@_0BG@OHKGCNBJ@?4?2RasterUtilities?4cpp?$AA@ 10030f44     PlugInUtilities:RasterUtilities.obj
 0002:00001f5c       ??_C@_08GHBJNIPF@pFd?5?$CB?$DN?50?$AA@ 10030f5c     PlugInUtilities:RasterUtilities.obj
 0002:00001f68       ??_C@_0L@FHOKLJLD@pCopy?5?$CB?$DN?50?$AA@ 10030f68     PlugInUtilities:RasterUtilities.obj
 0002:00001f74       ??_C@_08CFDMNPII@pDd?5?$CB?$DN?50?$AA@ 10030f74     PlugInUtilities:RasterUtilities.obj
 0002:00001f80       ??_C@_0BK@CMPNFKLB@pNewDescriptor?4get?$CI?$CJ?5?$CB?$DN?50?$AA@ 10030f80     PlugInUtilities:RasterUtilities.obj
 0002:00001f9c       ??_C@_0L@IJOFPDJK@TempImport?$AA@ 10030f9c     PlugInUtilities:RasterUtilities.obj
 0002:00001fa8       ??_C@_0CH@IGKKFGOK@selectedDimIter?9?$DOisActiveNumberV@ 10030fa8     PlugInUtilities:RasterUtilities.obj
 0002:00001fd0       ??_C@_0N@PPEOBDKJ@Invalid?5cube?$AA@ 10030fd0     PlugInUtilities:RasterUtilities.obj
 0002:00001fe0       ??_C@_0DF@PKIMGJHO@Desitnation?5cube?5is?5not?5compatib@ 10030fe0     PlugInUtilities:RasterUtilities.obj
 0002:00002018       ??_C@_0CF@HAJDCODB@Error?5calculating?5new?5row?5positi@ 10031018     PlugInUtilities:RasterUtilities.obj
 0002:00002040       ??_C@_0CH@JNHCBODG@pSrcRequest?4get?$CI?$CJ?5?$CG?$CG?5pDstRequest@ 10031040     PlugInUtilities:RasterUtilities.obj
 0002:00002068       ??_C@_0BL@NJILDDHB@Error?5reading?5source?5cube?4?$AA@ 10031068     PlugInUtilities:RasterUtilities.obj
 0002:00002084       ??_C@_0BE@OFIKBKA@Error?5copying?5data?4?$AA@ 10031084     PlugInUtilities:RasterUtilities.obj
 0002:00002098       ??_C@_0BB@JBGKLMKM@Aborted?5by?5user?4?$AA@ 10031098     PlugInUtilities:RasterUtilities.obj
 0002:000020ac       ??_C@_0O@NDKEEHMC@Warping?5rows?4?$AA@ 100310ac     PlugInUtilities:RasterUtilities.obj
 0002:000020bc       ??_C@_0CN@EACNLKHH@Invalid?5or?5unsupported?5interpola@ 100310bc     PlugInUtilities:RasterUtilities.obj
 0002:000020ec       ??_C@_0BI@OHEOJAOF@Calculating?5row?5shifts?4?$AA@ 100310ec     PlugInUtilities:RasterUtilities.obj
 0002:00002108       __real@41f0000000000000    10031108     PlugInUtilities:RasterUtilities.obj
 0002:00002110       __real@3fe0000000000000    10031110     PlugInUtilities:RasterUtilities.obj
 0002:00002118       ??_C@_0P@PFHBIBBL@pMetadata?5?$CB?$DN?50?$AA@ 10031118     PlugInUtilities:RasterUtilities.obj
 0002:00002128       ??_C@_06FFIACGFC@Column?$AA@ 10031128     PlugInUtilities:RasterUtilities.obj
 0002:00002130       ??_C@_03JMEKIEOG@Row?$AA@  10031130     PlugInUtilities:RasterUtilities.obj
 0002:00002134       ??_C@_0CF@PMFPIMGN@?5Error?3?5Verification?5Failed?6?6Ver@ 10031134     PlugInUtilities:AppVerify.obj
 0002:0000215c       ??_C@_0M@DDKFKEBA@?$CJ?6?5?5?5File?3?5?$AA@ 1003115c     PlugInUtilities:AppVerify.obj
 0002:00002168       ??_C@_0L@HINPDONE@?6?5?5?5Line?3?5?$AA@ 10031168     PlugInUtilities:AppVerify.obj
 0002:00002174       ??_C@_0BE@FEIDNADG@OPTICKS_SHOW_VERIFY?$AA@ 10031174     PlugInUtilities:AppVerify.obj
 0002:00002188       ??_C@_04LIDDHMOL@Line?$AA@ 10031188     PlugInUtilities:AppVerify.obj
 0002:00002190       ??_C@_04PBAHLACE@File?$AA@ 10031190     PlugInUtilities:AppVerify.obj
 0002:00002198       ??_C@_06NDEBMOO@Verify?$AA@ 10031198     PlugInUtilities:AppVerify.obj
 0002:000021a0       ??_C@_07BEIHKDLJ@Message?$AA@ 100311a0     PlugInUtilities:AppVerify.obj
 0002:000021a8       ??_C@_07OLJKCMAO@Opticks?$AA@ 100311a8     PlugInUtilities:AppVerify.obj
 0002:000021b0       ??_C@_09CMNEPOJL@Internal?5?$AA@ 100311b0     PlugInUtilities:AppVerify.obj
 0002:000021bc       ??_C@_06OOBNMOBD@?5Error?$AA@ 100311bc     PlugInUtilities:AppVerify.obj
 0002:000021c4       ??_C@_0CF@GHKIFMDF@94B15D95?94EBC?94ccd?99045?92F89D91C@ 100311c4     PlugInUtilities:AppVerify.obj
 0002:000021f0       ??_7type_info@@6B@         100311f0     MSVCRT:ti_inst.obj
 0002:000021f4       __pDefaultRawDllMain       100311f4     MSVCRT:crtdll.obj
 0002:000021f4       __pRawDllMain              100311f4     MSVCRT:crtdll.obj
 0002:000021f8       ?ProcessDetach@NativeDll@<CrtImplementationDetails>@@0IB 100311f8     MSVCRT:tncleanup.obj
 0002:000021fc       ?ProcessAttach@NativeDll@<CrtImplementationDetails>@@0IB 100311fc     MSVCRT:tncleanup.obj
 0002:00002200       ?ThreadAttach@NativeDll@<CrtImplementationDetails>@@0IB 10031200     MSVCRT:tncleanup.obj
 0002:00002204       ?ThreadDetach@NativeDll@<CrtImplementationDetails>@@0IB 10031204     MSVCRT:tncleanup.obj
 0002:00002208       ?ProcessVerifier@NativeDll@<CrtImplementationDetails>@@0IB 10031208     MSVCRT:tncleanup.obj
 0002:00002218       __load_config_used         10031218     MSVCRT:loadcfg.obj
 0002:000022b8       ??_R4bad_alloc@std@@6B@    100312b8     DataMerge.obj
 0002:000022cc       ??_R3bad_alloc@std@@8      100312cc     DataMerge.obj
 0002:000022dc       ??_R2bad_alloc@std@@8      100312dc     DataMerge.obj
 0002:000022e8       ??_R1A@?0A@EA@bad_alloc@std@@8 100312e8     DataMerge.obj
 0002:00002304       ??_R1A@?0A@EA@exception@std@@8 10031304     DataMerge.obj
 0002:00002320       ??_R3exception@std@@8      10031320     DataMerge.obj
 0002:00002330       ??_R2exception@std@@8      10031330     DataMerge.obj
 0002:00002338       ??_R4logic_error@std@@6B@  10031338     DataMerge.obj
 0002:0000234c       ??_R3logic_error@std@@8    1003134c     DataMerge.obj
 0002:0000235c       ??_R2logic_error@std@@8    1003135c     DataMerge.obj
 0002:00002368       ??_R1A@?0A@EA@logic_error@std@@8 10031368     DataMerge.obj
 0002:00002384       ??_R4length_error@std@@6B@ 10031384     DataMerge.obj
 0002:00002398       ??_R3length_error@std@@8   10031398     DataMerge.obj
 0002:000023a8       ??_R2length_error@std@@8   100313a8     DataMerge.obj
 0002:000023b8       ??_R1A@?0A@EA@length_error@std@@8 100313b8     DataMerge.obj
 0002:000023d4       ??_R4PlugInFactory@@6B@    100313d4     DataMerge.obj
 0002:000023e8       ??_R3PlugInFactory@@8      100313e8     DataMerge.obj
 0002:000023f8       ??_R2PlugInFactory@@8      100313f8     DataMerge.obj
 0002:00002400       ??_R1A@?0A@EA@PlugInFactory@@8 10031400     DataMerge.obj
 0002:0000241c       ??_R4DataMerge@@6BQObject@@@ 1003141c     DataMerge.obj
 0002:00002430       ??_R3DataMerge@@8          10031430     DataMerge.obj
 0002:00002440       ??_R2DataMerge@@8          10031440     DataMerge.obj
 0002:00002468       ??_R1A@?0A@EA@DataMerge@@8 10031468     DataMerge.obj
 0002:00002484       ??_R1A@?0A@EA@QObject@@8   10031484     DataMerge.obj
 0002:000024a0       ??_R3QObject@@8            100314a0     DataMerge.obj
 0002:000024b0       ??_R2QObject@@8            100314b0     DataMerge.obj
 0002:000024b8       ??_R17?0A@EA@ViewerShell@@8 100314b8     DataMerge.obj
 0002:000024d4       ??_R3ViewerShell@@8        100314d4     DataMerge.obj
 0002:000024e4       ??_R2ViewerShell@@8        100314e4     DataMerge.obj
 0002:00002504       ??_R1A@?0A@EA@ViewerShell@@8 10031504     DataMerge.obj
 0002:00002520       ??_R1A@?0A@EA@ExecutableShell@@8 10031520     DataMerge.obj
 0002:0000253c       ??_R3ExecutableShell@@8    1003153c     DataMerge.obj
 0002:0000254c       ??_R2ExecutableShell@@8    1003154c     DataMerge.obj
 0002:00002568       ??_R1A@?0A@EA@Executable@@8 10031568     DataMerge.obj
 0002:00002584       ??_R3Executable@@8         10031584     DataMerge.obj
 0002:00002594       ??_R2Executable@@8         10031594     DataMerge.obj
 0002:0000259c       ??_R13?0A@EA@PlugInShell@@8 1003159c     DataMerge.obj
 0002:000025b8       ??_R3PlugInShell@@8        100315b8     DataMerge.obj
 0002:000025c8       ??_R2PlugInShell@@8        100315c8     DataMerge.obj
 0002:000025dc       ??_R1A@?0A@EA@PlugInShell@@8 100315dc     DataMerge.obj
 0002:000025f8       ??_R1A@?0A@EA@PlugIn@@8    100315f8     DataMerge.obj
 0002:00002614       ??_R3PlugIn@@8             10031614     DataMerge.obj
 0002:00002624       ??_R2PlugIn@@8             10031624     DataMerge.obj
 0002:00002630       ??_R1A@?0A@EA@SessionItem@@8 10031630     DataMerge.obj
 0002:0000264c       ??_R3SessionItem@@8        1003164c     DataMerge.obj
 0002:0000265c       ??_R2SessionItem@@8        1003165c     DataMerge.obj
 0002:00002664       ??_R13?0A@EA@SessionItemExt1@@8 10031664     DataMerge.obj
 0002:00002680       ??_R3SessionItemExt1@@8    10031680     DataMerge.obj
 0002:00002690       ??_R2SessionItemExt1@@8    10031690     DataMerge.obj
 0002:00002698       ??_R1A@?0A@EA@SessionItemExt1@@8 10031698     DataMerge.obj
 0002:000026b4       ??_R13?0A@EA@PlugIn@@8     100316b4     DataMerge.obj
 0002:000026d0       ??_R13?0A@EA@SessionItem@@8 100316d0     DataMerge.obj
 0002:000026ec       ??_R17?0A@EA@SessionItemExt1@@8 100316ec     DataMerge.obj
 0002:00002708       ??_R17?0A@EA@ExecutableShell@@8 10031708     DataMerge.obj
 0002:00002724       ??_R17?0A@EA@Executable@@8 10031724     DataMerge.obj
 0002:00002740       ??_R1M@?0A@EA@PlugInShell@@8 10031740     DataMerge.obj
 0002:0000275c       ??_R1M@?0A@EA@PlugIn@@8    1003175c     DataMerge.obj
 0002:00002778       ??_R1M@?0A@EA@SessionItem@@8 10031778     DataMerge.obj
 0002:00002794       ??_R1BA@?0A@EA@SessionItemExt1@@8 10031794     DataMerge.obj
 0002:000027b0       ??_R4DataMerge@@6BViewerShell@@@ 100317b0     DataMerge.obj
 0002:000027c4       ??_R4DataMerge@@6BPlugIn@@@ 100317c4     DataMerge.obj
 0002:000027d8       ??_R4DataMerge@@6BSessionItemExt1@@@ 100317d8     DataMerge.obj
 0002:000027ec       ??_R4?$Resource@VStep@@VMessageObject@@@@6B@ 100317ec     DataMerge.obj
 0002:00002800       ??_R3?$Resource@VStep@@VMessageObject@@@@8 10031800     DataMerge.obj
 0002:00002810       ??_R2?$Resource@VStep@@VMessageObject@@@@8 10031810     DataMerge.obj
 0002:00002818       ??_R1A@?0A@EA@?$Resource@VStep@@VMessageObject@@@@8 10031818     DataMerge.obj
 0002:00002834       ??_R4?$Resource@VDataRequest@@VFactoryObject@@@@6B@ 10031834     DataMerge.obj
 0002:00002848       ??_R3?$Resource@VDataRequest@@VFactoryObject@@@@8 10031848     DataMerge.obj
 0002:00002858       ??_R2?$Resource@VDataRequest@@VFactoryObject@@@@8 10031858     DataMerge.obj
 0002:00002860       ??_R1A@?0A@EA@?$Resource@VDataRequest@@VFactoryObject@@@@8 10031860     DataMerge.obj
 0002:0000287c       ??_R4StepResource@@6B@     1003187c     DataMerge.obj
 0002:00002890       ??_R3StepResource@@8       10031890     DataMerge.obj
 0002:000028a0       ??_R2StepResource@@8       100318a0     DataMerge.obj
 0002:000028ac       ??_R1A@?0A@EA@StepResource@@8 100318ac     DataMerge.obj
 0002:000028c8       ??_R4?$FactoryResource@VDataRequest@@@@6B@ 100318c8     DataMerge.obj
 0002:000028dc       ??_R3?$FactoryResource@VDataRequest@@@@8 100318dc     DataMerge.obj
 0002:000028ec       ??_R2?$FactoryResource@VDataRequest@@@@8 100318ec     DataMerge.obj
 0002:000028f8       ??_R1A@?0A@EA@?$FactoryResource@VDataRequest@@@@8 100318f8     DataMerge.obj
 0002:00002914       ??_R4BasicPlugInFactory@@6B@ 10031914     DataMerge.obj
 0002:00002928       ??_R3BasicPlugInFactory@@8 10031928     DataMerge.obj
 0002:00002938       ??_R2BasicPlugInFactory@@8 10031938     DataMerge.obj
 0002:00002944       ??_R1A@?0A@EA@BasicPlugInFactory@@8 10031944     DataMerge.obj
 0002:00002960       ??_R4DataMergePlugInFactory@SpectralDataMerge@@6B@ 10031960     DataMerge.obj
 0002:00002974       ??_R3DataMergePlugInFactory@SpectralDataMerge@@8 10031974     DataMerge.obj
 0002:00002984       ??_R2DataMergePlugInFactory@SpectralDataMerge@@8 10031984     DataMerge.obj
 0002:00002994       ??_R1A@?0A@EA@DataMergePlugInFactory@SpectralDataMerge@@8 10031994     DataMerge.obj
 0002:000029b0       ??_R4SlotWrapper@Slot@@6B@ 100319b0     PlugInLib:ViewerShell.obj
 0002:000029c4       ??_R3SlotWrapper@Slot@@8   100319c4     PlugInLib:ViewerShell.obj
 0002:000029d4       ??_R2SlotWrapper@Slot@@8   100319d4     PlugInLib:ViewerShell.obj
 0002:000029dc       ??_R1A@?0A@EA@SlotWrapper@Slot@@8 100319dc     PlugInLib:ViewerShell.obj
 0002:000029f8       ??_R4PlugInCallback@@6B@   100319f8     PlugInLib:ViewerShell.obj
 0002:00002a0c       ??_R3PlugInCallback@@8     10031a0c     PlugInLib:ViewerShell.obj
 0002:00002a1c       ??_R2PlugInCallback@@8     10031a1c     PlugInLib:ViewerShell.obj
 0002:00002a24       ??_R1A@?0A@EA@PlugInCallback@@8 10031a24     PlugInLib:ViewerShell.obj
 0002:00002a40       ??_R4?$SlotValue@VViewerShell@@@Slot@@6B@ 10031a40     PlugInLib:ViewerShell.obj
 0002:00002a54       ??_R3?$SlotValue@VViewerShell@@@Slot@@8 10031a54     PlugInLib:ViewerShell.obj
 0002:00002a64       ??_R2?$SlotValue@VViewerShell@@@Slot@@8 10031a64     PlugInLib:ViewerShell.obj
 0002:00002a70       ??_R1A@?0A@EA@?$SlotValue@VViewerShell@@@Slot@@8 10031a70     PlugInLib:ViewerShell.obj
 0002:00002a8c       ??_R4?$SlotValue@V?$SafePtr@VApplicationServices@@@@@Slot@@6B@ 10031a8c     PlugInLib:ViewerShell.obj
 0002:00002aa0       ??_R3?$SlotValue@V?$SafePtr@VApplicationServices@@@@@Slot@@8 10031aa0     PlugInLib:ViewerShell.obj
 0002:00002ab0       ??_R2?$SlotValue@V?$SafePtr@VApplicationServices@@@@@Slot@@8 10031ab0     PlugInLib:ViewerShell.obj
 0002:00002abc       ??_R1A@?0A@EA@?$SlotValue@V?$SafePtr@VApplicationServices@@@@@Slot@@8 10031abc     PlugInLib:ViewerShell.obj
 0002:00002ad8       ??_R4ViewerCallback@@6B@   10031ad8     PlugInLib:ViewerShell.obj
 0002:00002aec       ??_R3ViewerCallback@@8     10031aec     PlugInLib:ViewerShell.obj
 0002:00002afc       ??_R2ViewerCallback@@8     10031afc     PlugInLib:ViewerShell.obj
 0002:00002b08       ??_R1A@?0A@EA@ViewerCallback@@8 10031b08     PlugInLib:ViewerShell.obj
 0002:00002b24       ??_R4?$SafePtr@VApplicationServices@@@@6B@ 10031b24     PlugInLib:ViewerShell.obj
 0002:00002b38       ??_R3?$SafePtr@VApplicationServices@@@@8 10031b38     PlugInLib:ViewerShell.obj
 0002:00002b48       ??_R2?$SafePtr@VApplicationServices@@@@8 10031b48     PlugInLib:ViewerShell.obj
 0002:00002b50       ??_R1A@?0A@EA@?$SafePtr@VApplicationServices@@@@8 10031b50     PlugInLib:ViewerShell.obj
 0002:00002b6c       ??_R4?$AttachmentPtr@VApplicationServices@@@@6B@ 10031b6c     PlugInLib:ViewerShell.obj
 0002:00002b80       ??_R3?$AttachmentPtr@VApplicationServices@@@@8 10031b80     PlugInLib:ViewerShell.obj
 0002:00002b90       ??_R2?$AttachmentPtr@VApplicationServices@@@@8 10031b90     PlugInLib:ViewerShell.obj
 0002:00002b9c       ??_R1A@?0A@EA@?$AttachmentPtr@VApplicationServices@@@@8 10031b9c     PlugInLib:ViewerShell.obj
 0002:00002bb8       ??_R4ViewerShell@@6B@      10031bb8     PlugInLib:ViewerShell.obj
 0002:00002bcc       ??_R4ViewerShell@@6BPlugIn@@@ 10031bcc     PlugInLib:ViewerShell.obj
 0002:00002be0       ??_R4ViewerShell@@6BSessionItemExt1@@@ 10031be0     PlugInLib:ViewerShell.obj
 0002:00002bf4       ??_R4Executable@@6B@       10031bf4     PlugInLib:ExecutableShell.obj
 0002:00002c08       ??_R4ExecutableShell@@6B@  10031c08     PlugInLib:ExecutableShell.obj
 0002:00002c1c       ??_R4ExecutableShell@@6BPlugIn@@@ 10031c1c     PlugInLib:ExecutableShell.obj
 0002:00002c30       ??_R4ExecutableShell@@6BSessionItemExt1@@@ 10031c30     PlugInLib:ExecutableShell.obj
 0002:00002c44       ??_R4out_of_range@std@@6B@ 10031c44     PlugInLib:PlugInShell.obj
 0002:00002c58       ??_R3out_of_range@std@@8   10031c58     PlugInLib:PlugInShell.obj
 0002:00002c68       ??_R2out_of_range@std@@8   10031c68     PlugInLib:PlugInShell.obj
 0002:00002c78       ??_R1A@?0A@EA@out_of_range@std@@8 10031c78     PlugInLib:PlugInShell.obj
 0002:00002c94       ??_R4SessionItem@@6B@      10031c94     PlugInLib:PlugInShell.obj
 0002:00002ca8       ??_R4SessionItemExt1@@6B@  10031ca8     PlugInLib:PlugInShell.obj
 0002:00002cbc       ??_R4PlugIn@@6B@           10031cbc     PlugInLib:PlugInShell.obj
 0002:00002cd0       ??_R4?$Resource@VSettableSessionItem@@VFactoryObject@@@@6B@ 10031cd0     PlugInLib:PlugInShell.obj
 0002:00002ce4       ??_R3?$Resource@VSettableSessionItem@@VFactoryObject@@@@8 10031ce4     PlugInLib:PlugInShell.obj
 0002:00002cf4       ??_R2?$Resource@VSettableSessionItem@@VFactoryObject@@@@8 10031cf4     PlugInLib:PlugInShell.obj
 0002:00002cfc       ??_R1A@?0A@EA@?$Resource@VSettableSessionItem@@VFactoryObject@@@@8 10031cfc     PlugInLib:PlugInShell.obj
 0002:00002d18       ??_R4?$FactoryResource@VSettableSessionItem@@@@6B@ 10031d18     PlugInLib:PlugInShell.obj
 0002:00002d2c       ??_R3?$FactoryResource@VSettableSessionItem@@@@8 10031d2c     PlugInLib:PlugInShell.obj
 0002:00002d3c       ??_R2?$FactoryResource@VSettableSessionItem@@@@8 10031d3c     PlugInLib:PlugInShell.obj
 0002:00002d48       ??_R1A@?0A@EA@?$FactoryResource@VSettableSessionItem@@@@8 10031d48     PlugInLib:PlugInShell.obj
 0002:00002d64       ??_R4PlugInShell@@6BPlugIn@@@ 10031d64     PlugInLib:PlugInShell.obj
 0002:00002d78       ??_R4PlugInShell@@6BSessionItemExt1@@@ 10031d78     PlugInLib:PlugInShell.obj
 0002:00002d8c       ??_R4?$Resource@VRasterFileDescriptor@@VFactoryObject@@@@6B@ 10031d8c     PlugInUtilities:RasterUtilities.obj
 0002:00002da0       ??_R3?$Resource@VRasterFileDescriptor@@VFactoryObject@@@@8 10031da0     PlugInUtilities:RasterUtilities.obj
 0002:00002db0       ??_R2?$Resource@VRasterFileDescriptor@@VFactoryObject@@@@8 10031db0     PlugInUtilities:RasterUtilities.obj
 0002:00002db8       ??_R1A@?0A@EA@?$Resource@VRasterFileDescriptor@@VFactoryObject@@@@8 10031db8     PlugInUtilities:RasterUtilities.obj
 0002:00002dd4       ??_R4?$Resource@VFileDescriptor@@VFactoryObject@@@@6B@ 10031dd4     PlugInUtilities:RasterUtilities.obj
 0002:00002de8       ??_R3?$Resource@VFileDescriptor@@VFactoryObject@@@@8 10031de8     PlugInUtilities:RasterUtilities.obj
 0002:00002df8       ??_R2?$Resource@VFileDescriptor@@VFactoryObject@@@@8 10031df8     PlugInUtilities:RasterUtilities.obj
 0002:00002e00       ??_R1A@?0A@EA@?$Resource@VFileDescriptor@@VFactoryObject@@@@8 10031e00     PlugInUtilities:RasterUtilities.obj
 0002:00002e1c       ??_R4?$Resource@VRasterElement@@VModelObject@@@@6B@ 10031e1c     PlugInUtilities:RasterUtilities.obj
 0002:00002e30       ??_R3?$Resource@VRasterElement@@VModelObject@@@@8 10031e30     PlugInUtilities:RasterUtilities.obj
 0002:00002e40       ??_R2?$Resource@VRasterElement@@VModelObject@@@@8 10031e40     PlugInUtilities:RasterUtilities.obj
 0002:00002e48       ??_R1A@?0A@EA@?$Resource@VRasterElement@@VModelObject@@@@8 10031e48     PlugInUtilities:RasterUtilities.obj
 0002:00002e64       ??_R4?$Resource@VRasterDataDescriptor@@VDataDescriptorObject@@@@6B@ 10031e64     PlugInUtilities:RasterUtilities.obj
 0002:00002e78       ??_R3?$Resource@VRasterDataDescriptor@@VDataDescriptorObject@@@@8 10031e78     PlugInUtilities:RasterUtilities.obj
 0002:00002e88       ??_R2?$Resource@VRasterDataDescriptor@@VDataDescriptorObject@@@@8 10031e88     PlugInUtilities:RasterUtilities.obj
 0002:00002e90       ??_R1A@?0A@EA@?$Resource@VRasterDataDescriptor@@VDataDescriptorObject@@@@8 10031e90     PlugInUtilities:RasterUtilities.obj
 0002:00002eac       ??_R4?$FactoryResource@VRasterFileDescriptor@@@@6B@ 10031eac     PlugInUtilities:RasterUtilities.obj
 0002:00002ec0       ??_R3?$FactoryResource@VRasterFileDescriptor@@@@8 10031ec0     PlugInUtilities:RasterUtilities.obj
 0002:00002ed0       ??_R2?$FactoryResource@VRasterFileDescriptor@@@@8 10031ed0     PlugInUtilities:RasterUtilities.obj
 0002:00002edc       ??_R1A@?0A@EA@?$FactoryResource@VRasterFileDescriptor@@@@8 10031edc     PlugInUtilities:RasterUtilities.obj
 0002:00002ef8       ??_R4?$FactoryResource@VFileDescriptor@@@@6B@ 10031ef8     PlugInUtilities:RasterUtilities.obj
 0002:00002f0c       ??_R3?$FactoryResource@VFileDescriptor@@@@8 10031f0c     PlugInUtilities:RasterUtilities.obj
 0002:00002f1c       ??_R2?$FactoryResource@VFileDescriptor@@@@8 10031f1c     PlugInUtilities:RasterUtilities.obj
 0002:00002f28       ??_R1A@?0A@EA@?$FactoryResource@VFileDescriptor@@@@8 10031f28     PlugInUtilities:RasterUtilities.obj
 0002:00002f44       ??_R4?$ModelResource@VRasterElement@@@@6B@ 10031f44     PlugInUtilities:RasterUtilities.obj
 0002:00002f58       ??_R3?$ModelResource@VRasterElement@@@@8 10031f58     PlugInUtilities:RasterUtilities.obj
 0002:00002f68       ??_R2?$ModelResource@VRasterElement@@@@8 10031f68     PlugInUtilities:RasterUtilities.obj
 0002:00002f74       ??_R1A@?0A@EA@?$ModelResource@VRasterElement@@@@8 10031f74     PlugInUtilities:RasterUtilities.obj
 0002:00002f90       ??_R4?$DataDescriptorResource@VRasterDataDescriptor@@@@6B@ 10031f90     PlugInUtilities:RasterUtilities.obj
 0002:00002fa4       ??_R3?$DataDescriptorResource@VRasterDataDescriptor@@@@8 10031fa4     PlugInUtilities:RasterUtilities.obj
 0002:00002fb4       ??_R2?$DataDescriptorResource@VRasterDataDescriptor@@@@8 10031fb4     PlugInUtilities:RasterUtilities.obj
 0002:00002fc0       ??_R1A@?0A@EA@?$DataDescriptorResource@VRasterDataDescriptor@@@@8 10031fc0     PlugInUtilities:RasterUtilities.obj
 0002:00002fdc       ??_R4type_info@@6B@        10031fdc     MSVCRT:ti_inst.obj
 0002:00002ff0       ??_R3type_info@@8          10031ff0     MSVCRT:ti_inst.obj
 0002:00003000       ??_R2type_info@@8          10032000     MSVCRT:ti_inst.obj
 0002:00003008       ??_R1A@?0A@EA@type_info@@8 10032008     MSVCRT:ti_inst.obj
 0002:00003030       ___safe_se_handler_table   10032030     <linker-defined>
 0002:00003328       ___rtc_iaa                 10032328     MSVCRT:initsect.obj
 0002:0000332c       ___rtc_izz                 1003232c     MSVCRT:initsect.obj
 0002:00003330       ___rtc_taa                 10032330     MSVCRT:initsect.obj
 0002:00003334       ___rtc_tzz                 10032334     MSVCRT:initsect.obj
 0002:00003364       __TI2?AVlogic_error@std@@  10032364     DataMerge.obj
 0002:000033a0       __CTA2?AVlogic_error@std@@ 100323a0     DataMerge.obj
 0002:000033ac       __CT??_R0?AVlogic_error@std@@@8??0logic_error@std@@QAE@ABV01@@Z40 100323ac     DataMerge.obj
 0002:000033c8       __CT??_R0?AVexception@std@@@8??0exception@std@@QAE@ABV01@@Z12 100323c8     DataMerge.obj
 0002:00003530       __TI3?AVlength_error@std@@ 10032530     DataMerge.obj
 0002:00003574       __CTA3?AVlength_error@std@@ 10032574     DataMerge.obj
 0002:00003584       __CT??_R0?AVlength_error@std@@@8??0length_error@std@@QAE@ABV01@@Z40 10032584     DataMerge.obj
 0002:000035a0       __TI2?AVbad_alloc@std@@    100325a0     DataMerge.obj
 0002:000035b0       __CTA2?AVbad_alloc@std@@   100325b0     DataMerge.obj
 0002:000035bc       __CT??_R0?AVbad_alloc@std@@@8??0bad_alloc@std@@QAE@ABV01@@Z12 100325bc     DataMerge.obj
 0002:00004b98       __TI3?AVout_of_range@std@@ 10033b98     PlugInLib:PlugInShell.obj
 0002:00004be4       __CTA3?AVout_of_range@std@@ 10033be4     PlugInLib:PlugInShell.obj
 0002:00004bf4       __CT??_R0?AVout_of_range@std@@@8??0out_of_range@std@@QAE@ABV01@@Z40 10033bf4     PlugInLib:PlugInShell.obj
 0002:00006634       __IMPORT_DESCRIPTOR_QtCore4 10035634     QtCore4:QtCore4.dll
 0002:00006648       __IMPORT_DESCRIPTOR_QtGui4 10035648     QtGui4:QtGui4.dll
 0002:0000665c       __IMPORT_DESCRIPTOR_MSVCP80 1003565c     msvcprt:MSVCP80.dll
 0002:00006670       __IMPORT_DESCRIPTOR_MSVCR80 10035670     MSVCRT:MSVCR80.dll
 0002:00006684       __IMPORT_DESCRIPTOR_KERNEL32 10035684     kernel32:KERNEL32.dll
 0002:00006698       __NULL_IMPORT_DESCRIPTOR   10035698     QtCore4:QtCore4.dll
 0003:00000004       ??_R0?AVbad_alloc@std@@@8  10037004     DataMerge.obj
 0003:00000020       ??_R0?AVexception@std@@@8  10037020     DataMerge.obj
 0003:0000003c       ??_R0?AVlogic_error@std@@@8 1003703c     DataMerge.obj
 0003:0000005c       ??_R0?AVlength_error@std@@@8 1003705c     DataMerge.obj
 0003:0000007c       ??_R0?AVPlugInFactory@@@8  1003707c     DataMerge.obj
 0003:00000098       ??_R0?AVDataMerge@@@8      10037098     DataMerge.obj
 0003:000000b0       ??_R0?AVQObject@@@8        100370b0     DataMerge.obj
 0003:000000c8       ??_R0?AVViewerShell@@@8    100370c8     DataMerge.obj
 0003:000000e4       ??_R0?AVExecutableShell@@@8 100370e4     DataMerge.obj
 0003:00000104       ??_R0?AVExecutable@@@8     10037104     DataMerge.obj
 0003:00000120       ??_R0?AVPlugInShell@@@8    10037120     DataMerge.obj
 0003:0000013c       ??_R0?AVPlugIn@@@8         1003713c     DataMerge.obj
 0003:00000154       ??_R0?AVSessionItem@@@8    10037154     DataMerge.obj
 0003:00000170       ??_R0?AVSessionItemExt1@@@8 10037170     DataMerge.obj
 0003:00000190       ??_R0?AVAnyData@@@8        10037190     DataMerge.obj
 0003:000001a8       ??_R0?AVAny@@@8            100371a8     DataMerge.obj
 0003:000001bc       ??_R0?AVDataElement@@@8    100371bc     DataMerge.obj
 0003:000001d8       ??_R0?AVRasterElement@@@8  100371d8     DataMerge.obj
 0003:000001f4       ??_R0?AV?$Resource@VStep@@VMessageObject@@@@@8 100371f4     DataMerge.obj
 0003:00000228       ??_R0?AV?$Resource@VDataRequest@@VFactoryObject@@@@@8 10037228     DataMerge.obj
 0003:00000260       ??_R0?AVStepResource@@@8   10037260     DataMerge.obj
 0003:0000027c       ??_R0?AV?$FactoryResource@VDataRequest@@@@@8 1003727c     DataMerge.obj
 0003:000002ac       ??_R0?AVBasicPlugInFactory@@@8 100372ac     DataMerge.obj
 0003:000002d0       ??_R0?AVDataMergePlugInFactory@SpectralDataMerge@@@8 100372d0     DataMerge.obj
 0003:0000030c       _SpectralDataMergeDescriptor 1003730c     ModuleManager.obj
 0003:00000320       ?staticMetaObject@DataMerge@@2UQMetaObject@@B 10037320     moc_DataMerge.obj
 0003:00000334       ??_R0?AVSlotWrapper@Slot@@@8 10037334     PlugInLib:ViewerShell.obj
 0003:00000354       ??_R0?AVPlugInCallback@@@8 10037354     PlugInLib:ViewerShell.obj
 0003:00000374       ??_R0?AV?$SlotValue@VViewerShell@@@Slot@@@8 10037374     PlugInLib:ViewerShell.obj
 0003:000003a4       ??_R0?AVObserver@@@8       100373a4     PlugInLib:ViewerShell.obj
 0003:000003c0       ??_R0?AV?$SlotValue@V?$SafePtr@VApplicationServices@@@@@Slot@@@8 100373c0     PlugInLib:ViewerShell.obj
 0003:00000404       ??_R0?AV?$SafePtr@VApplicationServices@@@@@8 10037404     PlugInLib:ViewerShell.obj
 0003:00000434       ??_R0?AVViewerCallback@@@8 10037434     PlugInLib:ViewerShell.obj
 0003:00000454       ??_R0?AV?$AttachmentPtr@VApplicationServices@@@@@8 10037454     PlugInLib:ViewerShell.obj
 0003:00000494       ??_R0?AVout_of_range@std@@@8 10037494     PlugInLib:PlugInShell.obj
 0003:000004b4       ??_R0?AVSettableSessionItem@@@8 100374b4     PlugInLib:PlugInShell.obj
 0003:000004d8       ??_R0?AVSettableSessionItemExt1@@@8 100374d8     PlugInLib:PlugInShell.obj
 0003:00000500       ??_R0?AV?$Resource@VSettableSessionItem@@VFactoryObject@@@@@8 10037500     PlugInLib:PlugInShell.obj
 0003:00000540       ??_R0?AV?$FactoryResource@VSettableSessionItem@@@@@8 10037540     PlugInLib:PlugInShell.obj
 0003:00000584       ??_R0?AVWindow@@@8         10037584     PlugInUtilities:Service.obj
 0003:0000059c       ??_R0?AVSessionExplorer@@@8 1003759c     PlugInUtilities:Service.obj
 0003:000005c8       ??_R0?AV?$basic_string@DU?$char_traits@D@std@@V?$allocator@D@2@@std@@@8 100375c8     PlugInUtilities:RasterUtilities.obj
 0003:00000618       ??_R0?AV?$vector@V?$basic_string@DU?$char_traits@D@std@@V?$allocator@D@2@@std@@V?$allocator@V?$basic_string@DU?$char_traits@D@std@@V?$allocator@D@2@@std@@@2@@std@@@8 10037618     PlugInUtilities:RasterUtilities.obj
 0003:000006c0       ??_R0?AV?$vector@NV?$allocator@N@std@@@std@@@8 100376c0     PlugInUtilities:RasterUtilities.obj
 0003:000006f4       ??_R0?AVDynamicObject@@@8  100376f4     PlugInUtilities:RasterUtilities.obj
 0003:00000710       ??_R0?AV?$vector@DV?$allocator@D@std@@@std@@@8 10037710     PlugInUtilities:RasterUtilities.obj
 0003:00000744       ??_R0?AV?$vector@EV?$allocator@E@std@@@std@@@8 10037744     PlugInUtilities:RasterUtilities.obj
 0003:00000778       ??_R0?AV?$vector@FV?$allocator@F@std@@@std@@@8 10037778     PlugInUtilities:RasterUtilities.obj
 0003:000007ac       ??_R0?AV?$vector@GV?$allocator@G@std@@@std@@@8 100377ac     PlugInUtilities:RasterUtilities.obj
 0003:000007e0       ??_R0?AV?$vector@HV?$allocator@H@std@@@std@@@8 100377e0     PlugInUtilities:RasterUtilities.obj
 0003:00000814       ??_R0?AV?$vector@IV?$allocator@I@std@@@std@@@8 10037814     PlugInUtilities:RasterUtilities.obj
 0003:00000848       ??_R0?AV?$vector@JV?$allocator@J@std@@@std@@@8 10037848     PlugInUtilities:RasterUtilities.obj
 0003:0000087c       ??_R0?AV?$vector@KV?$allocator@K@std@@@std@@@8 1003787c     PlugInUtilities:RasterUtilities.obj
 0003:000008b0       ??_R0?AV?$vector@_JV?$allocator@_J@std@@@std@@@8 100378b0     PlugInUtilities:RasterUtilities.obj
 0003:000008e4       ??_R0?AV?$vector@_KV?$allocator@_K@std@@@std@@@8 100378e4     PlugInUtilities:RasterUtilities.obj
 0003:00000918       ??_R0?AV?$vector@VInt64@@V?$allocator@VInt64@@@std@@@std@@@8 10037918     PlugInUtilities:RasterUtilities.obj
 0003:00000958       ??_R0?AV?$vector@VUInt64@@V?$allocator@VUInt64@@@std@@@std@@@8 10037958     PlugInUtilities:RasterUtilities.obj
 0003:0000099c       ??_R0?AV?$vector@MV?$allocator@M@std@@@std@@@8 1003799c     PlugInUtilities:RasterUtilities.obj
 0003:000009d0       ??_R0?AV?$vector@_NV?$allocator@_N@std@@@std@@@8 100379d0     PlugInUtilities:RasterUtilities.obj
 0003:00000a08       ??_R0?AV?$Resource@VRasterFileDescriptor@@VFactoryObject@@@@@8 10037a08     PlugInUtilities:RasterUtilities.obj
 0003:00000a4c       ??_R0?AV?$Resource@VFileDescriptor@@VFactoryObject@@@@@8 10037a4c     PlugInUtilities:RasterUtilities.obj
 0003:00000a88       ??_R0?AV?$Resource@VRasterElement@@VModelObject@@@@@8 10037a88     PlugInUtilities:RasterUtilities.obj
 0003:00000ac0       ??_R0?AV?$Resource@VRasterDataDescriptor@@VDataDescriptorObject@@@@@8 10037ac0     PlugInUtilities:RasterUtilities.obj
 0003:00000b08       ??_R0?AV?$FactoryResource@VRasterFileDescriptor@@@@@8 10037b08     PlugInUtilities:RasterUtilities.obj
 0003:00000b40       ??_R0?AV?$FactoryResource@VFileDescriptor@@@@@8 10037b40     PlugInUtilities:RasterUtilities.obj
 0003:00000b74       ??_R0?AV?$ModelResource@VRasterElement@@@@@8 10037b74     PlugInUtilities:RasterUtilities.obj
 0003:00000ba4       ??_R0?AV?$DataDescriptorResource@VRasterDataDescriptor@@@@@8 10037ba4     PlugInUtilities:RasterUtilities.obj
 0003:00000be4       ??_R0?AVFileDescriptor@@@8 10037be4     PlugInUtilities:RasterUtilities.obj
 0003:00000c04       ??_R0?AVRasterFileDescriptor@@@8 10037c04     PlugInUtilities:RasterUtilities.obj
 0003:00000c28       ??_R0?AVDataDescriptor@@@8 10037c28     PlugInUtilities:RasterUtilities.obj
 0003:00000c48       ??_R0?AVRasterDataDescriptor@@@8 10037c48     PlugInUtilities:RasterUtilities.obj
 0003:00000c6c       ??_R0?AVRasterDataDescriptorExt1@@@8 10037c6c     PlugInUtilities:RasterUtilities.obj
 0003:00000c9c       ??_R0X@8                   10037c9c     PlugInUtilities:DataVariant.obj
 0003:00000cac       ??_R0?AVtype_info@@@8      10037cac     MSVCRT:ti_inst.obj
 0003:00000cd0       ___native_dllmain_reason   10037cd0     MSVCRT:natstart.obj
 0003:00000cd4       ___native_vcclrit_reason   10037cd4     MSVCRT:natstart.obj
 0003:00000cd8       ___security_cookie         10037cd8     MSVCRT:gs_cookie.obj
 0003:00000cdc       ___security_cookie_complement 10037cdc     MSVCRT:gs_cookie.obj
 0003:00000cf4       ?mspName@ModuleManager@@0PBDB 10037cf4     ModuleManager.obj
 0003:00000cf8       ?mspVersion@ModuleManager@@0PBDB 10037cf8     ModuleManager.obj
 0003:00000cfc       ?mspDescription@ModuleManager@@0PBDB 10037cfc     ModuleManager.obj
 0003:00000d00       ?mspValidationKey@ModuleManager@@0PBDB 10037d00     ModuleManager.obj
 0003:00000d04       ?mspUniqueId@ModuleManager@@0PBDB 10037d04     ModuleManager.obj
 0003:00000d20       ?signalName@?1??signalDeleted@Subject@@SAABV?$basic_string@DU?$char_traits@D@std@@V?$allocator@D@2@@std@@XZ@4V34@A 10037d20     PlugInLib:ViewerShell.obj
 0003:00000d3c       ??_B?1??signalDeleted@Subject@@SAABV?$basic_string@DU?$char_traits@D@std@@V?$allocator@D@2@@std@@XZ@51 10037d3c     PlugInLib:ViewerShell.obj
 0003:00000d40       ?signalName@?1??signalSessionClosed@ApplicationServices@@SAABV?$basic_string@DU?$char_traits@D@std@@V?$allocator@D@2@@std@@XZ@4V34@A 10037d40     PlugInLib:ViewerShell.obj
 0003:00000d5c       ??_B?1??signalSessionClosed@ApplicationServices@@SAABV?$basic_string@DU?$char_traits@D@std@@V?$allocator@D@2@@std@@XZ@51 10037d5c     PlugInLib:ViewerShell.obj
 0003:00000d60       ?mspSingleton@ModuleManager@@0PAV1@A 10037d60     PlugInLib:ModuleManagerCommon.obj
 0003:00000d68       __forceCRTManifest         10037d68     MSVCRT:crtmanifest.obj
 0003:00000d6c       ?__type_info_root_node@@3U__type_info_node@@A 10037d6c     MSVCRT:tncleanup.obj
 0003:0000109c       ___sse2_available          1003809c     <common>
 0003:000010a0       __adjust_fdiv              100380a0     <common>
 0003:000010a4       ___native_startup_state    100380a4     <common>
 0003:000010a8       ___native_startup_lock     100380a8     <common>
 0003:000010ac       ___dyn_tls_init_callback   100380ac     <common>
 0003:000010b0       ___onexitend               100380b0     <common>
 0003:000010b4       ___onexitbegin             100380b4     <common>

 entry point at        0001:0002a8c4

 Static symbols

 0001:fffff000       __unwindfunclet$??0sentry@?$basic_ostream@DU?$char_traits@D@std@@@std@@QAE@AAV12@@Z$0 10000000 f   PlugInUtilities:AppVerify.obj
 0001:fffff000       __unwindfunclet$??0logic_error@std@@QAE@ABV?$basic_string@DU?$char_traits@D@std@@V?$allocator@D@2@@1@@Z$0 10000000 f   ModuleManager.obj
 0001:fffff000       __unwindfunclet$??0logic_error@std@@QAE@ABV?$basic_string@DU?$char_traits@D@std@@V?$allocator@D@2@@1@@Z$0 10000000 f   PlugInLib:ExecutableShell.obj
 0001:fffff000       __unwindfunclet$?_Xlen@?$vector@V?$basic_string@DU?$char_traits@D@std@@V?$allocator@D@2@@std@@V?$allocator@V?$basic_string@DU?$char_traits@D@std@@V?$allocator@D@2@@std@@@2@@std@@KAXXZ$0 10000000 f   PlugInLib:ExecutableShell.obj
 0001:fffff000       __unwindfunclet$??1sentry@?$basic_ostream@DU?$char_traits@D@std@@@std@@QAE@XZ$0 10000000 f   PlugInUtilities:AppVerify.obj
 0001:fffff000       __unwindfunclet$??0logic_error@std@@QAE@ABV01@@Z$0 10000000 f   PlugInLib:ExecutableShell.obj
 0001:fffff000       __unwindfunclet$??0logic_error@std@@QAE@ABV01@@Z$0 10000000 f   ModuleManager.obj
 0001:fffff000       __unwindfunclet$??$_Construct@V?$basic_string@DU?$char_traits@D@std@@V?$allocator@D@2@@std@@V12@@std@@YAXPAV?$basic_string@DU?$char_traits@D@std@@V?$allocator@D@2@@0@ABV10@@Z$0 10000000 f   PlugInLib:ExecutableShell.obj
 0001:fffff000       __unwindfunclet$?construct@?$allocator@V?$basic_string@DU?$char_traits@D@std@@V?$allocator@D@2@@std@@@std@@QAEXPAV?$basic_string@DU?$char_traits@D@std@@V?$allocator@D@2@@2@ABV32@@Z$0 10000000 f   PlugInLib:ExecutableShell.obj
 0001:fffff000       __unwindfunclet$??$?6U?$char_traits@D@std@@@std@@YAAAV?$basic_ostream@DU?$char_traits@D@std@@@0@AAV10@PBD@Z$2 10000000 f   PlugInUtilities:AppVerify.obj
 0001:fffff000       __unwindfunclet$??$_Uninit_move@PAV?$basic_string@DU?$char_traits@D@std@@V?$allocator@D@2@@std@@PAV12@V?$allocator@V?$basic_string@DU?$char_traits@D@std@@V?$allocator@D@2@@std@@@2@@std@@YAPAV?$basic_string@DU?$char_traits@D@std@@V?$allocator@D@2@@0@PAV10@00AAV?$allocator@V?$basic_string@DU?$char_traits@D@std@@V?$allocator@D@2@@std@@@0@U_Swap_move_tag@0@U_Range_checked_iterator_tag@0@@Z$2 10000000 f   PlugInLib:ExecutableShell.obj
 0001:fffff000       __unwindfunclet$??$_Uninit_fill_n@PAV?$basic_string@DU?$char_traits@D@std@@V?$allocator@D@2@@std@@IV12@V?$allocator@V?$basic_string@DU?$char_traits@D@std@@V?$allocator@D@2@@std@@@2@@std@@YAXPAV?$basic_string@DU?$char_traits@D@std@@V?$allocator@D@2@@0@IABV10@AAV?$allocator@V?$basic_string@DU?$char_traits@D@std@@V?$allocator@D@2@@std@@@0@U_Nonscalar_ptr_iterator_tag@0@U_Range_checked_iterator_tag@0@@Z$2 10000000 f   PlugInLib:ExecutableShell.obj
 0001:fffff000       __unwindfunclet$??0logic_error@std@@QAE@ABV?$basic_string@DU?$char_traits@D@std@@V?$allocator@D@2@@1@@Z$0 10000000 f   PlugInUtilities:RasterUtilities.obj
 0001:fffff000       __unwindfunclet$?_Insert_n@?$vector@V?$basic_string@DU?$char_traits@D@std@@V?$allocator@D@2@@std@@V?$allocator@V?$basic_string@DU?$char_traits@D@std@@V?$allocator@D@2@@std@@@2@@std@@IAEXV?$_Vector_iterator@V?$basic_string@DU?$char_traits@D@std@@V?$allocator@D@2@@std@@V?$allocator@V?$basic_string@DU?$char_traits@D@std@@V?$allocator@D@2@@std@@@2@@2@IABV?$basic_string@DU?$char_traits@D@std@@V?$allocator@D@2@@2@@Z$4 10000000 f   PlugInLib:ExecutableShell.obj
 0001:fffff000       __unwindfunclet$??0logic_error@std@@QAE@ABV01@@Z$0 10000000 f   PlugInUtilities:Service.obj
 0001:fffff000       __unwindfunclet$??0logic_error@std@@QAE@ABV?$basic_string@DU?$char_traits@D@std@@V?$allocator@D@2@@1@@Z$0 10000000 f   PlugInUtilities:Service.obj
 0001:fffff000       __unwindfunclet$??0logic_error@std@@QAE@ABV?$basic_string@DU?$char_traits@D@std@@V?$allocator@D@2@@1@@Z$0 10000000 f   PlugInLib:PlugInShell.obj
 0001:fffff000       __unwindfunclet$?updateIfNeeded@DataAccessorImpl@@AAEXXZ$0 10000000 f   PlugInUtilities:RasterUtilities.obj
 0001:fffff000       __ehhandler$??0?$vector@V?$basic_string@DU?$char_traits@D@std@@V?$allocator@D@2@@std@@V?$allocator@V?$basic_string@DU?$char_traits@D@std@@V?$allocator@D@2@@std@@@2@@std@@QAE@ABV01@@Z 10000000 f   PlugInUtilities:RasterUtilities.obj
 0001:fffff000       __unwindfunclet$?obtainResource@FactoryObject@@QBEPAXABVArgs@FactoryAllocator@@@Z$0 10000000 f   PlugInLib:PlugInShell.obj
 0001:fffff000       __unwindfunclet$?releaseResource@FactoryObject@@QBEXABVArgs@FactoryAllocator@@PAX@Z$0 10000000 f   PlugInLib:PlugInShell.obj
 0001:fffff000       __unwindfunclet$??0logic_error@std@@QAE@ABV01@@Z$0 10000000 f   PlugInUtilities:RasterUtilities.obj
 0001:fffff000       __unwindfunclet$??0logic_error@std@@QAE@ABV01@@Z$0 10000000 f   PlugInLib:PlugInShell.obj
 0001:fffff000       __unwindfunclet$?_Insert_n@?$vector@V?$basic_string@DU?$char_traits@D@std@@V?$allocator@D@2@@std@@V?$allocator@V?$basic_string@DU?$char_traits@D@std@@V?$allocator@D@2@@std@@@2@@std@@IAEXV?$_Vector_iterator@V?$basic_string@DU?$char_traits@D@std@@V?$allocator@D@2@@std@@V?$allocator@V?$basic_string@DU?$char_traits@D@std@@V?$allocator@D@2@@std@@@2@@2@IABV?$basic_string@DU?$char_traits@D@std@@V?$allocator@D@2@@2@@Z$4 10000000 f   PlugInUtilities:RasterUtilities.obj
 0001:fffff000       __unwindfunclet$??$_Uninit_fill_n@PAV?$basic_string@DU?$char_traits@D@std@@V?$allocator@D@2@@std@@IV12@V?$allocator@V?$basic_string@DU?$char_traits@D@std@@V?$allocator@D@2@@std@@@2@@std@@YAXPAV?$basic_string@DU?$char_traits@D@std@@V?$allocator@D@2@@0@IABV10@AAV?$allocator@V?$basic_string@DU?$char_traits@D@std@@V?$allocator@D@2@@std@@@0@U_Nonscalar_ptr_iterator_tag@0@U_Range_checked_iterator_tag@0@@Z$2 10000000 f   PlugInUtilities:RasterUtilities.obj
 0001:fffff000       __unwindfunclet$?_Xlen@?$vector@V?$basic_string@DU?$char_traits@D@std@@V?$allocator@D@2@@std@@V?$allocator@V?$basic_string@DU?$char_traits@D@std@@V?$allocator@D@2@@std@@@2@@std@@KAXXZ$0 10000000 f   PlugInUtilities:RasterUtilities.obj
 0001:fffff000       __unwindfunclet$??0?$FactoryResource@VDataRequest@@@@QAE@XZ$0 10000000 f   PlugInUtilities:RasterUtilities.obj
 0001:fffff000       __unwindfunclet$??$_Uninit_move@PAV?$basic_string@DU?$char_traits@D@std@@V?$allocator@D@2@@std@@PAV12@V?$allocator@V?$basic_string@DU?$char_traits@D@std@@V?$allocator@D@2@@std@@@2@@std@@YAPAV?$basic_string@DU?$char_traits@D@std@@V?$allocator@D@2@@0@PAV10@00AAV?$allocator@V?$basic_string@DU?$char_traits@D@std@@V?$allocator@D@2@@std@@@0@U_Swap_move_tag@0@U_Range_checked_iterator_tag@0@@Z$2 10000000 f   PlugInUtilities:RasterUtilities.obj
 0001:fffff000       __unwindfunclet$??0logic_error@std@@QAE@ABV01@@Z$0 10000000 f   PlugInLib:ViewerShell.obj
 0001:fffff000       __unwindfunclet$??$_Uninit_copy@PBV?$basic_string@DU?$char_traits@D@std@@V?$allocator@D@2@@std@@PAV12@V?$allocator@V?$basic_string@DU?$char_traits@D@std@@V?$allocator@D@2@@std@@@2@@std@@YAPAV?$basic_string@DU?$char_traits@D@std@@V?$allocator@D@2@@0@PBV10@0PAV10@AAV?$allocator@V?$basic_string@DU?$char_traits@D@std@@V?$allocator@D@2@@std@@@0@U_Nonscalar_ptr_iterator_tag@0@U_Range_checked_iterator_tag@0@@Z$2 10000000 f   PlugInUtilities:RasterUtilities.obj
 0001:fffff000       __unwindfunclet$??0logic_error@std@@QAE@ABV?$basic_string@DU?$char_traits@D@std@@V?$allocator@D@2@@1@@Z$0 10000000 f   PlugInLib:ViewerShell.obj
 0001:fffff000       __unwindfunclet$??$_Construct@V?$basic_string@DU?$char_traits@D@std@@V?$allocator@D@2@@std@@V12@@std@@YAXPAV?$basic_string@DU?$char_traits@D@std@@V?$allocator@D@2@@0@ABV10@@Z$0 10000000 f   PlugInUtilities:RasterUtilities.obj
 0001:fffff000       __unwindfunclet$??1?$Resource@VDataRequest@@VFactoryObject@@@@UAE@XZ$0 10000000 f   PlugInUtilities:RasterUtilities.obj
 0001:fffff000       __unwindfunclet$?obtainResource@FactoryObject@@QBEPAXABVArgs@FactoryAllocator@@@Z$0 10000000 f   PlugInUtilities:RasterUtilities.obj
 0001:fffff000       __unwindfunclet$?construct@?$allocator@V?$basic_string@DU?$char_traits@D@std@@V?$allocator@D@2@@std@@@std@@QAEXPAV?$basic_string@DU?$char_traits@D@std@@V?$allocator@D@2@@2@ABV32@@Z$0 10000000 f   PlugInUtilities:RasterUtilities.obj
 0001:fffff000       __unwindfunclet$?releaseResource@FactoryObject@@QBEXABVArgs@FactoryAllocator@@PAX@Z$0 10000000 f   PlugInUtilities:RasterUtilities.obj
 0001:fffff000       __unwindfunclet$??$?6U?$char_traits@D@std@@@std@@YAAAV?$basic_ostream@DU?$char_traits@D@std@@@0@AAV10@PBD@Z$2 10000000 f   PlugInUtilities:RasterUtilities.obj
 0001:fffff000       __unwindfunclet$??0?$Resource@VDataRequest@@VFactoryObject@@@@QAE@ABVArgs@FactoryAllocator@@@Z$0 10000000 f   PlugInUtilities:RasterUtilities.obj
 0001:fffff000       __unwindfunclet$??1sentry@?$basic_ostream@DU?$char_traits@D@std@@@std@@QAE@XZ$0 10000000 f   PlugInUtilities:RasterUtilities.obj
 0001:fffff000       __unwindfunclet$??0sentry@?$basic_ostream@DU?$char_traits@D@std@@@std@@QAE@AAV12@@Z$0 10000000 f   PlugInUtilities:RasterUtilities.obj
 0001:fffff008       __ehhandler$??0sentry@?$basic_ostream@DU?$char_traits@D@std@@@std@@QAE@AAV12@@Z 10000008 f   PlugInUtilities:RasterUtilities.obj
 0001:fffff008       __unwindfunclet$??$?6U?$char_traits@D@std@@@std@@YAAAV?$basic_ostream@DU?$char_traits@D@std@@@0@AAV10@PBD@Z$3 10000008 f   PlugInUtilities:AppVerify.obj
 0001:fffff008       __ehhandler$??1sentry@?$basic_ostream@DU?$char_traits@D@std@@@std@@QAE@XZ 10000008 f   PlugInUtilities:RasterUtilities.obj
 0001:fffff008       __unwindfunclet$??$?6U?$char_traits@D@std@@@std@@YAAAV?$basic_ostream@DU?$char_traits@D@std@@@0@AAV10@PBD@Z$3 10000008 f   PlugInUtilities:RasterUtilities.obj
 0001:fffff008       __ehhandler$??1sentry@?$basic_ostream@DU?$char_traits@D@std@@@std@@QAE@XZ 10000008 f   PlugInUtilities:AppVerify.obj
 0001:fffff008       __ehhandler$??0sentry@?$basic_ostream@DU?$char_traits@D@std@@@std@@QAE@AAV12@@Z 10000008 f   PlugInUtilities:AppVerify.obj
 0001:fffff008       __unwindfunclet$??0?$FactoryResource@VDataRequest@@@@QAE@XZ$1 10000008 f   PlugInUtilities:RasterUtilities.obj
 0001:fffff009       __ehhandler$?obtainResource@FactoryObject@@QBEPAXABVArgs@FactoryAllocator@@@Z 10000009 f   PlugInUtilities:RasterUtilities.obj
 0001:fffff009       __ehhandler$??0logic_error@std@@QAE@ABV?$basic_string@DU?$char_traits@D@std@@V?$allocator@D@2@@1@@Z 10000009 f   PlugInLib:ExecutableShell.obj
 0001:fffff009       __ehhandler$?releaseResource@FactoryObject@@QBEXABVArgs@FactoryAllocator@@PAX@Z 10000009 f   PlugInUtilities:RasterUtilities.obj
 0001:fffff009       __ehhandler$??0logic_error@std@@QAE@ABV01@@Z 10000009 f   PlugInLib:ExecutableShell.obj
 0001:fffff009       __ehhandler$??0logic_error@std@@QAE@ABV01@@Z 10000009 f   ModuleManager.obj
 0001:fffff009       __ehhandler$??0logic_error@std@@QAE@ABV?$basic_string@DU?$char_traits@D@std@@V?$allocator@D@2@@1@@Z 10000009 f   ModuleManager.obj
 0001:fffff009       __ehhandler$??0logic_error@std@@QAE@ABV?$basic_string@DU?$char_traits@D@std@@V?$allocator@D@2@@1@@Z 10000009 f   PlugInLib:ViewerShell.obj
 0001:fffff009       __unwindfunclet$??$_Uninit_move@PAV?$basic_string@DU?$char_traits@D@std@@V?$allocator@D@2@@std@@PAV12@V?$allocator@V?$basic_string@DU?$char_traits@D@std@@V?$allocator@D@2@@std@@@2@@std@@YAPAV?$basic_string@DU?$char_traits@D@std@@V?$allocator@D@2@@0@PAV10@00AAV?$allocator@V?$basic_string@DU?$char_traits@D@std@@V?$allocator@D@2@@std@@@0@U_Swap_move_tag@0@U_Range_checked_iterator_tag@0@@Z$3 10000009 f   PlugInLib:ExecutableShell.obj
 0001:fffff009       __ehhandler$??0logic_error@std@@QAE@ABV?$basic_string@DU?$char_traits@D@std@@V?$allocator@D@2@@1@@Z 10000009 f   PlugInUtilities:RasterUtilities.obj
 0001:fffff009       __unwindfunclet$??$_Uninit_move@PAV?$basic_string@DU?$char_traits@D@std@@V?$allocator@D@2@@std@@PAV12@V?$allocator@V?$basic_string@DU?$char_traits@D@std@@V?$allocator@D@2@@std@@@2@@std@@YAPAV?$basic_string@DU?$char_traits@D@std@@V?$allocator@D@2@@0@PAV10@00AAV?$allocator@V?$basic_string@DU?$char_traits@D@std@@V?$allocator@D@2@@std@@@0@U_Swap_move_tag@0@U_Range_checked_iterator_tag@0@@Z$3 10000009 f   PlugInUtilities:RasterUtilities.obj
 0001:fffff009       __ehhandler$??0logic_error@std@@QAE@ABV01@@Z 10000009 f   PlugInLib:ViewerShell.obj
 0001:fffff009       __ehhandler$?_Insert_n@?$vector@V?$basic_string@DU?$char_traits@D@std@@V?$allocator@D@2@@std@@V?$allocator@V?$basic_string@DU?$char_traits@D@std@@V?$allocator@D@2@@std@@@2@@std@@IAEXV?$_Vector_iterator@V?$basic_string@DU?$char_traits@D@std@@V?$allocator@D@2@@std@@V?$allocator@V?$basic_string@DU?$char_traits@D@std@@V?$allocator@D@2@@std@@@2@@2@IABV?$basic_string@DU?$char_traits@D@std@@V?$allocator@D@2@@2@@Z 10000009 f   PlugInLib:ExecutableShell.obj
 0001:fffff009       __ehhandler$??0logic_error@std@@QAE@ABV01@@Z 10000009 f   PlugInUtilities:Service.obj
 0001:fffff009       __ehhandler$??0logic_error@std@@QAE@ABV?$basic_string@DU?$char_traits@D@std@@V?$allocator@D@2@@1@@Z 10000009 f   PlugInUtilities:Service.obj
 0001:fffff009       __ehhandler$??0logic_error@std@@QAE@ABV?$basic_string@DU?$char_traits@D@std@@V?$allocator@D@2@@1@@Z 10000009 f   PlugInLib:PlugInShell.obj
 0001:fffff009       __ehhandler$?updateIfNeeded@DataAccessorImpl@@AAEXXZ 10000009 f   PlugInUtilities:RasterUtilities.obj
 0001:fffff009       __unwindfunclet$?_Xlen@?$vector@V?$basic_string@DU?$char_traits@D@std@@V?$allocator@D@2@@std@@V?$allocator@V?$basic_string@DU?$char_traits@D@std@@V?$allocator@D@2@@std@@@2@@std@@KAXXZ$2 10000009 f   PlugInLib:ExecutableShell.obj
 0001:fffff009       __ehhandler$?obtainResource@FactoryObject@@QBEPAXABVArgs@FactoryAllocator@@@Z 10000009 f   PlugInLib:PlugInShell.obj
 0001:fffff009       __ehhandler$?releaseResource@FactoryObject@@QBEXABVArgs@FactoryAllocator@@PAX@Z 10000009 f   PlugInLib:PlugInShell.obj
 0001:fffff009       __ehhandler$?_Insert_n@?$vector@V?$basic_string@DU?$char_traits@D@std@@V?$allocator@D@2@@std@@V?$allocator@V?$basic_string@DU?$char_traits@D@std@@V?$allocator@D@2@@std@@@2@@std@@IAEXV?$_Vector_iterator@V?$basic_string@DU?$char_traits@D@std@@V?$allocator@D@2@@std@@V?$allocator@V?$basic_string@DU?$char_traits@D@std@@V?$allocator@D@2@@std@@@2@@2@IABV?$basic_string@DU?$char_traits@D@std@@V?$allocator@D@2@@2@@Z 10000009 f   PlugInUtilities:RasterUtilities.obj
 0001:fffff009       __ehhandler$??0logic_error@std@@QAE@ABV01@@Z 10000009 f   PlugInUtilities:RasterUtilities.obj
 0001:fffff009       __ehhandler$??0logic_error@std@@QAE@ABV01@@Z 10000009 f   PlugInLib:PlugInShell.obj
 0001:fffff009       __unwindfunclet$?_Xlen@?$vector@V?$basic_string@DU?$char_traits@D@std@@V?$allocator@D@2@@std@@V?$allocator@V?$basic_string@DU?$char_traits@D@std@@V?$allocator@D@2@@std@@@2@@std@@KAXXZ$2 10000009 f   PlugInUtilities:RasterUtilities.obj
 0001:fffff00b       __ehhandler$??0?$Resource@VDataRequest@@VFactoryObject@@@@QAE@ABVArgs@FactoryAllocator@@@Z 1000000b f   PlugInUtilities:RasterUtilities.obj
 0001:fffff00b       __ehhandler$??1?$Resource@VDataRequest@@VFactoryObject@@@@UAE@XZ 1000000b f   PlugInUtilities:RasterUtilities.obj
 0001:fffff010       __ehhandler$??$?6U?$char_traits@D@std@@@std@@YAAAV?$basic_ostream@DU?$char_traits@D@std@@@0@AAV10@PBD@Z 10000010 f   PlugInUtilities:RasterUtilities.obj
 0001:fffff010       __ehhandler$??0?$FactoryResource@VDataRequest@@@@QAE@XZ 10000010 f   PlugInUtilities:RasterUtilities.obj
 0001:fffff010       __ehhandler$??$?6U?$char_traits@D@std@@@std@@YAAAV?$basic_ostream@DU?$char_traits@D@std@@@0@AAV10@PBD@Z 10000010 f   PlugInUtilities:AppVerify.obj
 0001:fffff011       __ehhandler$??$_Construct@V?$basic_string@DU?$char_traits@D@std@@V?$allocator@D@2@@std@@V12@@std@@YAXPAV?$basic_string@DU?$char_traits@D@std@@V?$allocator@D@2@@0@ABV10@@Z 10000011 f   PlugInUtilities:RasterUtilities.obj
 0001:fffff011       __ehhandler$??$_Construct@V?$basic_string@DU?$char_traits@D@std@@V?$allocator@D@2@@std@@V12@@std@@YAXPAV?$basic_string@DU?$char_traits@D@std@@V?$allocator@D@2@@0@ABV10@@Z 10000011 f   PlugInLib:ExecutableShell.obj
 0001:fffff011       __ehhandler$?construct@?$allocator@V?$basic_string@DU?$char_traits@D@std@@V?$allocator@D@2@@std@@@std@@QAEXPAV?$basic_string@DU?$char_traits@D@std@@V?$allocator@D@2@@2@ABV32@@Z 10000011 f   PlugInUtilities:RasterUtilities.obj
 0001:fffff011       __ehhandler$??$_Uninit_fill_n@PAV?$basic_string@DU?$char_traits@D@std@@V?$allocator@D@2@@std@@IV12@V?$allocator@V?$basic_string@DU?$char_traits@D@std@@V?$allocator@D@2@@std@@@2@@std@@YAXPAV?$basic_string@DU?$char_traits@D@std@@V?$allocator@D@2@@0@IABV10@AAV?$allocator@V?$basic_string@DU?$char_traits@D@std@@V?$allocator@D@2@@std@@@0@U_Nonscalar_ptr_iterator_tag@0@U_Range_checked_iterator_tag@0@@Z 10000011 f   PlugInLib:ExecutableShell.obj
 0001:fffff011       __ehhandler$?construct@?$allocator@V?$basic_string@DU?$char_traits@D@std@@V?$allocator@D@2@@std@@@std@@QAEXPAV?$basic_string@DU?$char_traits@D@std@@V?$allocator@D@2@@2@ABV32@@Z 10000011 f   PlugInLib:ExecutableShell.obj
 0001:fffff011       __ehhandler$??$_Uninit_copy@PBV?$basic_string@DU?$char_traits@D@std@@V?$allocator@D@2@@std@@PAV12@V?$allocator@V?$basic_string@DU?$char_traits@D@std@@V?$allocator@D@2@@std@@@2@@std@@YAPAV?$basic_string@DU?$char_traits@D@std@@V?$allocator@D@2@@0@PBV10@0PAV10@AAV?$allocator@V?$basic_string@DU?$char_traits@D@std@@V?$allocator@D@2@@std@@@0@U_Nonscalar_ptr_iterator_tag@0@U_Range_checked_iterator_tag@0@@Z 10000011 f   PlugInUtilities:RasterUtilities.obj
 0001:fffff011       __ehhandler$??$_Uninit_fill_n@PAV?$basic_string@DU?$char_traits@D@std@@V?$allocator@D@2@@std@@IV12@V?$allocator@V?$basic_string@DU?$char_traits@D@std@@V?$allocator@D@2@@std@@@2@@std@@YAXPAV?$basic_string@DU?$char_traits@D@std@@V?$allocator@D@2@@0@IABV10@AAV?$allocator@V?$basic_string@DU?$char_traits@D@std@@V?$allocator@D@2@@std@@@0@U_Nonscalar_ptr_iterator_tag@0@U_Range_checked_iterator_tag@0@@Z 10000011 f   PlugInUtilities:RasterUtilities.obj
 0001:fffff012       __ehhandler$?_Xlen@?$vector@V?$basic_string@DU?$char_traits@D@std@@V?$allocator@D@2@@std@@V?$allocator@V?$basic_string@DU?$char_traits@D@std@@V?$allocator@D@2@@std@@@2@@std@@KAXXZ 10000012 f   PlugInLib:ExecutableShell.obj
 0001:fffff012       __ehhandler$?_Xlen@?$vector@V?$basic_string@DU?$char_traits@D@std@@V?$allocator@D@2@@std@@V?$allocator@V?$basic_string@DU?$char_traits@D@std@@V?$allocator@D@2@@std@@@2@@std@@KAXXZ 10000012 f   PlugInUtilities:RasterUtilities.obj
 0001:fffff01a       __ehhandler$??$_Uninit_move@PAV?$basic_string@DU?$char_traits@D@std@@V?$allocator@D@2@@std@@PAV12@V?$allocator@V?$basic_string@DU?$char_traits@D@std@@V?$allocator@D@2@@std@@@2@@std@@YAPAV?$basic_string@DU?$char_traits@D@std@@V?$allocator@D@2@@0@PAV10@00AAV?$allocator@V?$basic_string@DU?$char_traits@D@std@@V?$allocator@D@2@@std@@@0@U_Swap_move_tag@0@U_Range_checked_iterator_tag@0@@Z 1000001a f   PlugInLib:ExecutableShell.obj
 0001:fffff01a       __ehhandler$??$_Uninit_move@PAV?$basic_string@DU?$char_traits@D@std@@V?$allocator@D@2@@std@@PAV12@V?$allocator@V?$basic_string@DU?$char_traits@D@std@@V?$allocator@D@2@@std@@@2@@std@@YAPAV?$basic_string@DU?$char_traits@D@std@@V?$allocator@D@2@@0@PAV10@00AAV?$allocator@V?$basic_string@DU?$char_traits@D@std@@V?$allocator@D@2@@std@@@0@U_Swap_move_tag@0@U_Range_checked_iterator_tag@0@@Z 1000001a f   PlugInUtilities:RasterUtilities.obj
 0001:fffff05a       __catch$??$_Uninit_copy@PBV?$basic_string@DU?$char_traits@D@std@@V?$allocator@D@2@@std@@PAV12@V?$allocator@V?$basic_string@DU?$char_traits@D@std@@V?$allocator@D@2@@std@@@2@@std@@YAPAV?$basic_string@DU?$char_traits@D@std@@V?$allocator@D@2@@0@PBV10@0PAV10@AAV?$allocator@V?$basic_string@DU?$char_traits@D@std@@V?$allocator@D@2@@std@@@0@U_Nonscalar_ptr_iterator_tag@0@U_Range_checked_iterator_tag@0@@Z$0 1000005a f   PlugInUtilities:RasterUtilities.obj
 0001:fffff05c       __catch$??$_Uninit_fill_n@PAV?$basic_string@DU?$char_traits@D@std@@V?$allocator@D@2@@std@@IV12@V?$allocator@V?$basic_string@DU?$char_traits@D@std@@V?$allocator@D@2@@std@@@2@@std@@YAXPAV?$basic_string@DU?$char_traits@D@std@@V?$allocator@D@2@@0@IABV10@AAV?$allocator@V?$basic_string@DU?$char_traits@D@std@@V?$allocator@D@2@@std@@@0@U_Nonscalar_ptr_iterator_tag@0@U_Range_checked_iterator_tag@0@@Z$0 1000005c f   PlugInUtilities:RasterUtilities.obj
 0001:fffff05c       __catch$??$_Uninit_fill_n@PAV?$basic_string@DU?$char_traits@D@std@@V?$allocator@D@2@@std@@IV12@V?$allocator@V?$basic_string@DU?$char_traits@D@std@@V?$allocator@D@2@@std@@@2@@std@@YAXPAV?$basic_string@DU?$char_traits@D@std@@V?$allocator@D@2@@0@IABV10@AAV?$allocator@V?$basic_string@DU?$char_traits@D@std@@V?$allocator@D@2@@std@@@0@U_Nonscalar_ptr_iterator_tag@0@U_Range_checked_iterator_tag@0@@Z$0 1000005c f   PlugInLib:ExecutableShell.obj
 0001:fffff076       __catch$??$_Uninit_move@PAV?$basic_string@DU?$char_traits@D@std@@V?$allocator@D@2@@std@@PAV12@V?$allocator@V?$basic_string@DU?$char_traits@D@std@@V?$allocator@D@2@@std@@@2@@std@@YAPAV?$basic_string@DU?$char_traits@D@std@@V?$allocator@D@2@@0@PAV10@00AAV?$allocator@V?$basic_string@DU?$char_traits@D@std@@V?$allocator@D@2@@std@@@0@U_Swap_move_tag@0@U_Range_checked_iterator_tag@0@@Z$0 10000076 f   PlugInUtilities:RasterUtilities.obj
 0001:fffff076       __catch$??$_Uninit_move@PAV?$basic_string@DU?$char_traits@D@std@@V?$allocator@D@2@@std@@PAV12@V?$allocator@V?$basic_string@DU?$char_traits@D@std@@V?$allocator@D@2@@std@@@2@@std@@YAPAV?$basic_string@DU?$char_traits@D@std@@V?$allocator@D@2@@0@PAV10@00AAV?$allocator@V?$basic_string@DU?$char_traits@D@std@@V?$allocator@D@2@@std@@@0@U_Swap_move_tag@0@U_Range_checked_iterator_tag@0@@Z$0 10000076 f   PlugInLib:ExecutableShell.obj
 0001:fffff0b0       __catch$??0?$vector@V?$basic_string@DU?$char_traits@D@std@@V?$allocator@D@2@@std@@V?$allocator@V?$basic_string@DU?$char_traits@D@std@@V?$allocator@D@2@@std@@@2@@std@@QAE@ABV01@@Z$0 100000b0 f   PlugInUtilities:RasterUtilities.obj
 0001:fffff195       __catch$??$?6U?$char_traits@D@std@@@std@@YAAAV?$basic_ostream@DU?$char_traits@D@std@@@0@AAV10@PBD@Z$0 10000195 f   PlugInUtilities:AppVerify.obj
 0001:fffff195       __catch$??$?6U?$char_traits@D@std@@@std@@YAAAV?$basic_ostream@DU?$char_traits@D@std@@@0@AAV10@PBD@Z$0 10000195 f   PlugInUtilities:RasterUtilities.obj
 0001:fffff1d0       __catch$?_Insert_n@?$vector@V?$basic_string@DU?$char_traits@D@std@@V?$allocator@D@2@@std@@V?$allocator@V?$basic_string@DU?$char_traits@D@std@@V?$allocator@D@2@@std@@@2@@std@@IAEXV?$_Vector_iterator@V?$basic_string@DU?$char_traits@D@std@@V?$allocator@D@2@@std@@V?$allocator@V?$basic_string@DU?$char_traits@D@std@@V?$allocator@D@2@@std@@@2@@2@IABV?$basic_string@DU?$char_traits@D@std@@V?$allocator@D@2@@2@@Z$0 100001d0 f   PlugInLib:ExecutableShell.obj
 0001:fffff1d0       __catch$?_Insert_n@?$vector@V?$basic_string@DU?$char_traits@D@std@@V?$allocator@D@2@@std@@V?$allocator@V?$basic_string@DU?$char_traits@D@std@@V?$allocator@D@2@@std@@@2@@std@@IAEXV?$_Vector_iterator@V?$basic_string@DU?$char_traits@D@std@@V?$allocator@D@2@@std@@V?$allocator@V?$basic_string@DU?$char_traits@D@std@@V?$allocator@D@2@@std@@@2@@2@IABV?$basic_string@DU?$char_traits@D@std@@V?$allocator@D@2@@2@@Z$0 100001d0 f   PlugInUtilities:RasterUtilities.obj
 0001:fffff28a       __catch$?_Insert_n@?$vector@V?$basic_string@DU?$char_traits@D@std@@V?$allocator@D@2@@std@@V?$allocator@V?$basic_string@DU?$char_traits@D@std@@V?$allocator@D@2@@std@@@2@@std@@IAEXV?$_Vector_iterator@V?$basic_string@DU?$char_traits@D@std@@V?$allocator@D@2@@std@@V?$allocator@V?$basic_string@DU?$char_traits@D@std@@V?$allocator@D@2@@std@@@2@@2@IABV?$basic_string@DU?$char_traits@D@std@@V?$allocator@D@2@@2@@Z$2 1000028a f   PlugInLib:ExecutableShell.obj
 0001:fffff28a       __catch$?_Insert_n@?$vector@V?$basic_string@DU?$char_traits@D@std@@V?$allocator@D@2@@std@@V?$allocator@V?$basic_string@DU?$char_traits@D@std@@V?$allocator@D@2@@std@@@2@@std@@IAEXV?$_Vector_iterator@V?$basic_string@DU?$char_traits@D@std@@V?$allocator@D@2@@std@@V?$allocator@V?$basic_string@DU?$char_traits@D@std@@V?$allocator@D@2@@std@@@2@@2@IABV?$basic_string@DU?$char_traits@D@std@@V?$allocator@D@2@@2@@Z$2 1000028a f   PlugInUtilities:RasterUtilities.obj
 0001:00001715       __catch$??$?6U?$char_traits@D@std@@@std@@YAAAV?$basic_ostream@DU?$char_traits@D@std@@@0@AAV10@PBD@Z$0 10002715 f i DataMerge.obj
 0001:00001898       __catch$??$?6U?$char_traits@D@std@@@std@@YAAAV?$basic_ostream@DU?$char_traits@D@std@@@0@AAV10@D@Z$0 10002898 f i DataMerge.obj
 0001:000027b6       __catch$??$_Uninit_move@PAV?$basic_string@DU?$char_traits@D@std@@V?$allocator@D@2@@std@@PAV12@V?$allocator@V?$basic_string@DU?$char_traits@D@std@@V?$allocator@D@2@@std@@@2@@std@@YAPAV?$basic_string@DU?$char_traits@D@std@@V?$allocator@D@2@@0@PAV10@00AAV?$allocator@V?$basic_string@DU?$char_traits@D@std@@V?$allocator@D@2@@std@@@0@U_Swap_move_tag@0@U_Range_checked_iterator_tag@0@@Z$0 100037b6 f i DataMerge.obj
 0001:00002f1c       __catch$??$_Uninit_fill_n@PAV?$basic_string@DU?$char_traits@D@std@@V?$allocator@D@2@@std@@IV12@V?$allocator@V?$basic_string@DU?$char_traits@D@std@@V?$allocator@D@2@@std@@@2@@std@@YAXPAV?$basic_string@DU?$char_traits@D@std@@V?$allocator@D@2@@0@IABV10@AAV?$allocator@V?$basic_string@DU?$char_traits@D@std@@V?$allocator@D@2@@std@@@0@U_Nonscalar_ptr_iterator_tag@0@U_Range_checked_iterator_tag@0@@Z$0 10003f1c f i DataMerge.obj
 0001:000042f0       __catch$?_Insert_n@?$vector@V?$basic_string@DU?$char_traits@D@std@@V?$allocator@D@2@@std@@V?$allocator@V?$basic_string@DU?$char_traits@D@std@@V?$allocator@D@2@@std@@@2@@std@@IAEXV?$_Vector_iterator@V?$basic_string@DU?$char_traits@D@std@@V?$allocator@D@2@@std@@V?$allocator@V?$basic_string@DU?$char_traits@D@std@@V?$allocator@D@2@@std@@@2@@2@IABV?$basic_string@DU?$char_traits@D@std@@V?$allocator@D@2@@2@@Z$0 100052f0 f i DataMerge.obj
 0001:000043aa       __catch$?_Insert_n@?$vector@V?$basic_string@DU?$char_traits@D@std@@V?$allocator@D@2@@std@@V?$allocator@V?$basic_string@DU?$char_traits@D@std@@V?$allocator@D@2@@std@@@2@@std@@IAEXV?$_Vector_iterator@V?$basic_string@DU?$char_traits@D@std@@V?$allocator@D@2@@std@@V?$allocator@V?$basic_string@DU?$char_traits@D@std@@V?$allocator@D@2@@std@@@2@@2@IABV?$basic_string@DU?$char_traits@D@std@@V?$allocator@D@2@@2@@Z$2 100053aa f i DataMerge.obj
 0001:000047aa       __catch$??$_Uninit_copy@PBV?$basic_string@DU?$char_traits@D@std@@V?$allocator@D@2@@std@@PAV12@V?$allocator@V?$basic_string@DU?$char_traits@D@std@@V?$allocator@D@2@@std@@@2@@std@@YAPAV?$basic_string@DU?$char_traits@D@std@@V?$allocator@D@2@@0@PBV10@0PAV10@AAV?$allocator@V?$basic_string@DU?$char_traits@D@std@@V?$allocator@D@2@@std@@@0@U_Nonscalar_ptr_iterator_tag@0@U_Range_checked_iterator_tag@0@@Z$0 100057aa f i DataMerge.obj
 0001:000048f0       __catch$??0?$vector@V?$basic_string@DU?$char_traits@D@std@@V?$allocator@D@2@@std@@V?$allocator@V?$basic_string@DU?$char_traits@D@std@@V?$allocator@D@2@@std@@@2@@std@@QAE@ABV01@@Z$0 100058f0 f i DataMerge.obj
 0001:000055a0       __catch$??$_Uninit_copy@PAU?$pair@V?$basic_string@DU?$char_traits@D@std@@V?$allocator@D@2@@std@@PAVPlugInFactory@@@std@@PAU12@V?$allocator@U?$pair@V?$basic_string@DU?$char_traits@D@std@@V?$allocator@D@2@@std@@PAVPlugInFactory@@@std@@@2@@std@@YAPAU?$pair@V?$basic_string@DU?$char_traits@D@std@@V?$allocator@D@2@@std@@PAVPlugInFactory@@@0@PAU10@00AAV?$allocator@U?$pair@V?$basic_string@DU?$char_traits@D@std@@V?$allocator@D@2@@std@@PAVPlugInFactory@@@std@@@0@U_Nonscalar_ptr_iterator_tag@0@U_Range_checked_iterator_tag@0@@Z$0 100065a0 f i ModuleManager.obj
 0001:00005735       __catch$??$_Uninit_fill_n@PAU?$pair@V?$basic_string@DU?$char_traits@D@std@@V?$allocator@D@2@@std@@PAVPlugInFactory@@@std@@IU12@V?$allocator@U?$pair@V?$basic_string@DU?$char_traits@D@std@@V?$allocator@D@2@@std@@PAVPlugInFactory@@@std@@@2@@std@@YAXPAU?$pair@V?$basic_string@DU?$char_traits@D@std@@V?$allocator@D@2@@std@@PAVPlugInFactory@@@0@IABU10@AAV?$allocator@U?$pair@V?$basic_string@DU?$char_traits@D@std@@V?$allocator@D@2@@std@@PAVPlugInFactory@@@std@@@0@U_Nonscalar_ptr_iterator_tag@0@U_Range_checked_iterator_tag@0@@Z$0 10006735 f i ModuleManager.obj
 0001:00006803       __catch$?_Insert_n@?$vector@U?$pair@V?$basic_string@DU?$char_traits@D@std@@V?$allocator@D@2@@std@@PAVPlugInFactory@@@std@@V?$allocator@U?$pair@V?$basic_string@DU?$char_traits@D@std@@V?$allocator@D@2@@std@@PAVPlugInFactory@@@std@@@2@@std@@IAEXV?$_Vector_iterator@U?$pair@V?$basic_string@DU?$char_traits@D@std@@V?$allocator@D@2@@std@@PAVPlugInFactory@@@std@@V?$allocator@U?$pair@V?$basic_string@DU?$char_traits@D@std@@V?$allocator@D@2@@std@@PAVPlugInFactory@@@std@@@2@@2@IABU?$pair@V?$basic_string@DU?$char_traits@D@std@@V?$allocator@D@2@@std@@PAVPlugInFactory@@@2@@Z$0 10007803 f i ModuleManager.obj
 0001:0000688c       __catch$?_Insert_n@?$vector@U?$pair@V?$basic_string@DU?$char_traits@D@std@@V?$allocator@D@2@@std@@PAVPlugInFactory@@@std@@V?$allocator@U?$pair@V?$basic_string@DU?$char_traits@D@std@@V?$allocator@D@2@@std@@PAVPlugInFactory@@@std@@@2@@std@@IAEXV?$_Vector_iterator@U?$pair@V?$basic_string@DU?$char_traits@D@std@@V?$allocator@D@2@@std@@PAVPlugInFactory@@@std@@V?$allocator@U?$pair@V?$basic_string@DU?$char_traits@D@std@@V?$allocator@D@2@@std@@PAVPlugInFactory@@@std@@@2@@2@IABU?$pair@V?$basic_string@DU?$char_traits@D@std@@V?$allocator@D@2@@std@@PAVPlugInFactory@@@2@@Z$2 1000788c f i ModuleManager.obj
 0001:00008292       __catch$??$_Uninit_copy@PAU?$pair@V?$basic_string@DU?$char_traits@D@std@@V?$allocator@D@2@@std@@VSlot@@@std@@PAU12@V?$allocator@U?$pair@V?$basic_string@DU?$char_traits@D@std@@V?$allocator@D@2@@std@@VSlot@@@std@@@2@@std@@YAPAU?$pair@V?$basic_string@DU?$char_traits@D@std@@V?$allocator@D@2@@std@@VSlot@@@0@PAU10@00AAV?$allocator@U?$pair@V?$basic_string@DU?$char_traits@D@std@@V?$allocator@D@2@@std@@VSlot@@@std@@@0@U_Nonscalar_ptr_iterator_tag@0@U_Range_checked_iterator_tag@0@@Z$0 10009292 f i PlugInLib:ViewerShell.obj
 0001:00008467       __catch$??$_Uninit_fill_n@PAU?$pair@V?$basic_string@DU?$char_traits@D@std@@V?$allocator@D@2@@std@@VSlot@@@std@@IU12@V?$allocator@U?$pair@V?$basic_string@DU?$char_traits@D@std@@V?$allocator@D@2@@std@@VSlot@@@std@@@2@@std@@YAXPAU?$pair@V?$basic_string@DU?$char_traits@D@std@@V?$allocator@D@2@@std@@VSlot@@@0@IABU10@AAV?$allocator@U?$pair@V?$basic_string@DU?$char_traits@D@std@@V?$allocator@D@2@@std@@VSlot@@@std@@@0@U_Nonscalar_ptr_iterator_tag@0@U_Range_checked_iterator_tag@0@@Z$0 10009467 f i PlugInLib:ViewerShell.obj
 0001:000089ff       __catch$?_Insert_n@?$vector@U?$pair@V?$basic_string@DU?$char_traits@D@std@@V?$allocator@D@2@@std@@VSlot@@@std@@V?$allocator@U?$pair@V?$basic_string@DU?$char_traits@D@std@@V?$allocator@D@2@@std@@VSlot@@@std@@@2@@std@@IAEXV?$_Vector_iterator@U?$pair@V?$basic_string@DU?$char_traits@D@std@@V?$allocator@D@2@@std@@VSlot@@@std@@V?$allocator@U?$pair@V?$basic_string@DU?$char_traits@D@std@@V?$allocator@D@2@@std@@VSlot@@@std@@@2@@2@IABU?$pair@V?$basic_string@DU?$char_traits@D@std@@V?$allocator@D@2@@std@@VSlot@@@2@@Z$0 100099ff f i PlugInLib:ViewerShell.obj
 0001:00008a88       __catch$?_Insert_n@?$vector@U?$pair@V?$basic_string@DU?$char_traits@D@std@@V?$allocator@D@2@@std@@VSlot@@@std@@V?$allocator@U?$pair@V?$basic_string@DU?$char_traits@D@std@@V?$allocator@D@2@@std@@VSlot@@@std@@@2@@std@@IAEXV?$_Vector_iterator@U?$pair@V?$basic_string@DU?$char_traits@D@std@@V?$allocator@D@2@@std@@VSlot@@@std@@V?$allocator@U?$pair@V?$basic_string@DU?$char_traits@D@std@@V?$allocator@D@2@@std@@VSlot@@@std@@@2@@2@IABU?$pair@V?$basic_string@DU?$char_traits@D@std@@V?$allocator@D@2@@std@@VSlot@@@2@@Z$2 10009a88 f i PlugInLib:ViewerShell.obj
 0001:0000a4ee       __catch$?_Buynode@?$_Tree@V?$_Tmap_traits@V?$basic_string@DU?$char_traits@D@std@@V?$allocator@D@2@@std@@V12@U?$less@V?$basic_string@DU?$char_traits@D@std@@V?$allocator@D@2@@std@@@2@V?$allocator@U?$pair@$$CBV?$basic_string@DU?$char_traits@D@std@@V?$allocator@D@2@@std@@V12@@std@@@2@$0A@@std@@@std@@IAEPAU_Node@?$_Tree_nod@V?$_Tmap_traits@V?$basic_string@DU?$char_traits@D@std@@V?$allocator@D@2@@std@@V12@U?$less@V?$basic_string@DU?$char_traits@D@std@@V?$allocator@D@2@@std@@@2@V?$allocator@U?$pair@$$CBV?$basic_string@DU?$char_traits@D@std@@V?$allocator@D@2@@std@@V12@@std@@@2@$0A@@std@@@2@PAU342@00ABU?$pair@$$CBV?$basic_string@DU?$char_traits@D@std@@V?$allocator@D@2@@std@@V12@@2@D@Z$0 1000b4ee f i PlugInLib:PlugInShell.obj
 0001:0000ae82       __catch$?_Copy@?$_Tree@V?$_Tmap_traits@V?$basic_string@DU?$char_traits@D@std@@V?$allocator@D@2@@std@@V12@U?$less@V?$basic_string@DU?$char_traits@D@std@@V?$allocator@D@2@@std@@@2@V?$allocator@U?$pair@$$CBV?$basic_string@DU?$char_traits@D@std@@V?$allocator@D@2@@std@@V12@@std@@@2@$0A@@std@@@std@@IAEPAU_Node@?$_Tree_nod@V?$_Tmap_traits@V?$basic_string@DU?$char_traits@D@std@@V?$allocator@D@2@@std@@V12@U?$less@V?$basic_string@DU?$char_traits@D@std@@V?$allocator@D@2@@std@@@2@V?$allocator@U?$pair@$$CBV?$basic_string@DU?$char_traits@D@std@@V?$allocator@D@2@@std@@V12@@std@@@2@$0A@@std@@@2@PAU342@0@Z$0 1000be82 f i PlugInLib:PlugInShell.obj
 0001:0000b4f1       __catch$??0?$_Tree@V?$_Tmap_traits@V?$basic_string@DU?$char_traits@D@std@@V?$allocator@D@2@@std@@V12@U?$less@V?$basic_string@DU?$char_traits@D@std@@V?$allocator@D@2@@std@@@2@V?$allocator@U?$pair@$$CBV?$basic_string@DU?$char_traits@D@std@@V?$allocator@D@2@@std@@V12@@std@@@2@$0A@@std@@@std@@QAE@ABV01@@Z$0 1000c4f1 f i PlugInLib:PlugInShell.obj
 0001:000194aa       __catch$??$_Uninit_copy@PAV?$basic_string@DU?$char_traits@D@std@@V?$allocator@D@2@@std@@PAV12@V?$allocator@V?$basic_string@DU?$char_traits@D@std@@V?$allocator@D@2@@std@@@2@@std@@YAPAV?$basic_string@DU?$char_traits@D@std@@V?$allocator@D@2@@0@PAV10@00AAV?$allocator@V?$basic_string@DU?$char_traits@D@std@@V?$allocator@D@2@@std@@@0@U_Nonscalar_ptr_iterator_tag@0@U_Range_checked_iterator_tag@0@@Z$0 1001a4aa f i PlugInUtilities:RasterUtilities.obj
 0001:0001d7e6       __catch$?reserve@?$vector@V?$basic_string@DU?$char_traits@D@std@@V?$allocator@D@2@@std@@V?$allocator@V?$basic_string@DU?$char_traits@D@std@@V?$allocator@D@2@@std@@@2@@std@@QAEXI@Z$0 1001e7e6 f i PlugInUtilities:RasterUtilities.obj
 0001:0001e004       __catch$?reserve@?$vector@VInt64@@V?$allocator@VInt64@@@std@@@std@@QAEXI@Z$0 1001f004 f i PlugInUtilities:RasterUtilities.obj
 0001:0001e134       __catch$?reserve@?$vector@VUInt64@@V?$allocator@VUInt64@@@std@@@std@@QAEXI@Z$0 1001f134 f i PlugInUtilities:RasterUtilities.obj
 0001:0001f6ba       __catch$??0?$vector@VInt64@@V?$allocator@VInt64@@@std@@@std@@QAE@ABV01@@Z$0 100206ba f i PlugInUtilities:RasterUtilities.obj
 0001:0001f79a       __catch$??0?$vector@VUInt64@@V?$allocator@VUInt64@@@std@@@std@@QAE@ABV01@@Z$0 1002079a f i PlugInUtilities:RasterUtilities.obj
 0001:00020d9f       __catch$?_Insert_n@?$vector@VInt64@@V?$allocator@VInt64@@@std@@@std@@IAEXV?$_Vector_iterator@VInt64@@V?$allocator@VInt64@@@std@@@2@IABVInt64@@@Z$0 10021d9f f i PlugInUtilities:RasterUtilities.obj
 0001:00020dab       __catch$?_Insert_n@?$vector@VInt64@@V?$allocator@VInt64@@@std@@@std@@IAEXV?$_Vector_iterator@VInt64@@V?$allocator@VInt64@@@std@@@2@IABVInt64@@@Z$2 10021dab f i PlugInUtilities:RasterUtilities.obj
 0001:0002102f       __catch$?_Insert_n@?$vector@VUInt64@@V?$allocator@VUInt64@@@std@@@std@@IAEXV?$_Vector_iterator@VUInt64@@V?$allocator@VUInt64@@@std@@@2@IABVUInt64@@@Z$0 1002202f f i PlugInUtilities:RasterUtilities.obj
 0001:0002103b       __catch$?_Insert_n@?$vector@VUInt64@@V?$allocator@VUInt64@@@std@@@std@@IAEXV?$_Vector_iterator@VUInt64@@V?$allocator@VUInt64@@@std@@@2@IABVUInt64@@@Z$2 1002203b f i PlugInUtilities:RasterUtilities.obj
 0001:0002162c       __catch$??0?$vector@VDimensionDescriptor@@V?$allocator@VDimensionDescriptor@@@std@@@std@@QAE@ABV01@@Z$0 1002262c f i PlugInUtilities:RasterUtilities.obj
 0001:000217aa       __catch$??0?$vector@V?$EnumWrapper@W4RasterChannelTypeEnum@@@@V?$allocator@V?$EnumWrapper@W4RasterChannelTypeEnum@@@@@std@@@std@@QAE@ABV01@@Z$0 100227aa f i PlugInUtilities:RasterUtilities.obj
 0001:0002188a       __catch$?_Construct_n@?$vector@VDimensionDescriptor@@V?$allocator@VDimensionDescriptor@@@std@@@std@@QAEXIABVDimensionDescriptor@@@Z$0 1002288a f i PlugInUtilities:RasterUtilities.obj
 0001:00021b08       __catch$?_Insert_n@?$vector@VDimensionDescriptor@@V?$allocator@VDimensionDescriptor@@@std@@@std@@IAEXV?$_Vector_iterator@VDimensionDescriptor@@V?$allocator@VDimensionDescriptor@@@std@@@2@IABVDimensionDescriptor@@@Z$0 10022b08 f i PlugInUtilities:RasterUtilities.obj
 0001:00021b14       __catch$?_Insert_n@?$vector@VDimensionDescriptor@@V?$allocator@VDimensionDescriptor@@@std@@@std@@IAEXV?$_Vector_iterator@VDimensionDescriptor@@V?$allocator@VDimensionDescriptor@@@std@@@2@IABVDimensionDescriptor@@@Z$2 10022b14 f i PlugInUtilities:RasterUtilities.obj
 0001:00021d4f       __catch$?_Insert_n@?$vector@V?$EnumWrapper@W4RasterChannelTypeEnum@@@@V?$allocator@V?$EnumWrapper@W4RasterChannelTypeEnum@@@@@std@@@std@@IAEXV?$_Vector_iterator@V?$EnumWrapper@W4RasterChannelTypeEnum@@@@V?$allocator@V?$EnumWrapper@W4RasterChannelTypeEnum@@@@@std@@@2@IABV?$EnumWrapper@W4RasterChannelTypeEnum@@@@@Z$0 10022d4f f i PlugInUtilities:RasterUtilities.obj
 0001:00021d5b       __catch$?_Insert_n@?$vector@V?$EnumWrapper@W4RasterChannelTypeEnum@@@@V?$allocator@V?$EnumWrapper@W4RasterChannelTypeEnum@@@@@std@@@std@@IAEXV?$_Vector_iterator@V?$EnumWrapper@W4RasterChannelTypeEnum@@@@V?$allocator@V?$EnumWrapper@W4RasterChannelTypeEnum@@@@@std@@@2@IABV?$EnumWrapper@W4RasterChannelTypeEnum@@@@@Z$2 10022d5b f i PlugInUtilities:RasterUtilities.obj
 0001:00023840       __catch$?reserve@?$vector@V?$Location@H$01@Opticks@@V?$allocator@V?$Location@H$01@Opticks@@@std@@@std@@QAEXI@Z$0 10024840 f i PlugInUtilities:RasterUtilities.obj
 0001:00023bf5       __catch$?_Insert_n@?$vector@V?$Location@H$01@Opticks@@V?$allocator@V?$Location@H$01@Opticks@@@std@@@std@@IAEXV?$_Vector_iterator@V?$Location@H$01@Opticks@@V?$allocator@V?$Location@H$01@Opticks@@@std@@@2@IABV?$Location@H$01@Opticks@@@Z$0 10024bf5 f i PlugInUtilities:RasterUtilities.obj
 0001:00023c01       __catch$?_Insert_n@?$vector@V?$Location@H$01@Opticks@@V?$allocator@V?$Location@H$01@Opticks@@@std@@@std@@IAEXV?$_Vector_iterator@V?$Location@H$01@Opticks@@V?$allocator@V?$Location@H$01@Opticks@@@std@@@2@IABV?$Location@H$01@Opticks@@@Z$2 10024c01 f i PlugInUtilities:RasterUtilities.obj
 0001:0002a59e       _pre_c_init                1002b59e f   MSVCRT:crtdll.obj
 0001:0002a7ae       ___DllMainCRTStartup       1002b7ae f   MSVCRT:crtdll.obj
 0001:0002a8f8       ?ArrayUnwindFilter@@YAHPAU_EXCEPTION_POINTERS@@@Z 1002b8f8 f   MSVCRT:ehvecdtr.obj
 0001:0002ae8e       _has_osfxsr_set            1002be8e f   MSVCRT:cpu_disp.obj
 0001:0002b0e0       __unwindfunclet$??0logic_error@std@@QAE@ABV?$basic_string@DU?$char_traits@D@std@@V?$allocator@D@2@@1@@Z$0 1002c0e0 f   DataMerge.obj
 0001:0002b0e9       __ehhandler$??0logic_error@std@@QAE@ABV?$basic_string@DU?$char_traits@D@std@@V?$allocator@D@2@@1@@Z 1002c0e9 f   DataMerge.obj
 0001:0002b100       __unwindfunclet$?updateIfNeeded@DataAccessorImpl@@AAEXXZ$0 1002c100 f   DataMerge.obj
 0001:0002b109       __ehhandler$?updateIfNeeded@DataAccessorImpl@@AAEXXZ 1002c109 f   DataMerge.obj
 0001:0002b120       __unwindfunclet$??0logic_error@std@@QAE@ABV01@@Z$0 1002c120 f   DataMerge.obj
 0001:0002b129       __ehhandler$??0logic_error@std@@QAE@ABV01@@Z 1002c129 f   DataMerge.obj
 0001:0002b140       __unwindfunclet$??1Args@MessageObject@@QAE@XZ$0 1002c140 f   DataMerge.obj
 0001:0002b149       __unwindfunclet$??1Args@MessageObject@@QAE@XZ$1 1002c149 f   DataMerge.obj
 0001:0002b155       __unwindfunclet$??1Args@MessageObject@@QAE@XZ$2 1002c155 f   DataMerge.obj
 0001:0002b161       __unwindfunclet$??1Args@MessageObject@@QAE@XZ$3 1002c161 f   DataMerge.obj
 0001:0002b16d       __ehhandler$??1Args@MessageObject@@QAE@XZ 1002c16d f   DataMerge.obj
 0001:0002b180       __unwindfunclet$??0DataMerge@@QAE@XZ$0 1002c180 f   DataMerge.obj
 0001:0002b189       __unwindfunclet$??0DataMerge@@QAE@XZ$1 1002c189 f   DataMerge.obj
 0001:0002b194       __unwindfunclet$??0DataMerge@@QAE@XZ$2 1002c194 f   DataMerge.obj
 0001:0002b19d       __unwindfunclet$??0DataMerge@@QAE@XZ$3 1002c19d f   DataMerge.obj
 0001:0002b1a6       __unwindfunclet$??0DataMerge@@QAE@XZ$4 1002c1a6 f   DataMerge.obj
 0001:0002b1af       __unwindfunclet$??0DataMerge@@QAE@XZ$5 1002c1af f   DataMerge.obj
 0001:0002b1b8       __unwindfunclet$??0DataMerge@@QAE@XZ$6 1002c1b8 f   DataMerge.obj
 0001:0002b1c1       __unwindfunclet$??0DataMerge@@QAE@XZ$7 1002c1c1 f   DataMerge.obj
 0001:0002b1ca       __unwindfunclet$??0DataMerge@@QAE@XZ$8 1002c1ca f   DataMerge.obj
 0001:0002b1d3       __ehhandler$??0DataMerge@@QAE@XZ 1002c1d3 f   DataMerge.obj
 0001:0002b1e0       __unwindfunclet$??1DataMerge@@UAE@XZ$0 1002c1e0 f   DataMerge.obj
 0001:0002b1e9       __ehhandler$??1DataMerge@@UAE@XZ 1002c1e9 f   DataMerge.obj
 0001:0002b200       __unwindfunclet$??0Args@MessageObject@@QAE@ABU01@@Z$0 1002c200 f   DataMerge.obj
 0001:0002b209       __unwindfunclet$??0Args@MessageObject@@QAE@ABU01@@Z$1 1002c209 f   DataMerge.obj
 0001:0002b215       __unwindfunclet$??0Args@MessageObject@@QAE@ABU01@@Z$2 1002c215 f   DataMerge.obj
 0001:0002b221       __unwindfunclet$??0Args@MessageObject@@QAE@ABU01@@Z$3 1002c221 f   DataMerge.obj
 0001:0002b22d       __ehhandler$??0Args@MessageObject@@QAE@ABU01@@Z 1002c22d f   DataMerge.obj
 0001:0002b240       __unwindfunclet$?_Xlen@?$vector@V?$basic_string@DU?$char_traits@D@std@@V?$allocator@D@2@@std@@V?$allocator@V?$basic_string@DU?$char_traits@D@std@@V?$allocator@D@2@@std@@@2@@std@@KAXXZ$0 1002c240 f   DataMerge.obj
 0001:0002b249       __unwindfunclet$?_Xlen@?$vector@V?$basic_string@DU?$char_traits@D@std@@V?$allocator@D@2@@std@@V?$allocator@V?$basic_string@DU?$char_traits@D@std@@V?$allocator@D@2@@std@@@2@@std@@KAXXZ$2 1002c249 f   DataMerge.obj
 0001:0002b252       __ehhandler$?_Xlen@?$vector@V?$basic_string@DU?$char_traits@D@std@@V?$allocator@D@2@@std@@V?$allocator@V?$basic_string@DU?$char_traits@D@std@@V?$allocator@D@2@@std@@@2@@std@@KAXXZ 1002c252 f   DataMerge.obj
 0001:0002b260       __unwindfunclet$??$_Construct@V?$basic_string@DU?$char_traits@D@std@@V?$allocator@D@2@@std@@V12@@std@@YAXPAV?$basic_string@DU?$char_traits@D@std@@V?$allocator@D@2@@0@ABV10@@Z$0 1002c260 f   DataMerge.obj
 0001:0002b271       __ehhandler$??$_Construct@V?$basic_string@DU?$char_traits@D@std@@V?$allocator@D@2@@std@@V12@@std@@YAXPAV?$basic_string@DU?$char_traits@D@std@@V?$allocator@D@2@@0@ABV10@@Z 1002c271 f   DataMerge.obj
 0001:0002b280       __unwindfunclet$?obtainResource@FactoryObject@@QBEPAXABVArgs@FactoryAllocator@@@Z$0 1002c280 f   DataMerge.obj
 0001:0002b289       __ehhandler$?obtainResource@FactoryObject@@QBEPAXABVArgs@FactoryAllocator@@@Z 1002c289 f   DataMerge.obj
 0001:0002b2a0       __unwindfunclet$?releaseResource@FactoryObject@@QBEXABVArgs@FactoryAllocator@@PAX@Z$0 1002c2a0 f   DataMerge.obj
 0001:0002b2a9       __ehhandler$?releaseResource@FactoryObject@@QBEXABVArgs@FactoryAllocator@@PAX@Z 1002c2a9 f   DataMerge.obj
 0001:0002b2c0       __unwindfunclet$??0Args@MessageObject@@QAE@V?$basic_string@DU?$char_traits@D@std@@V?$allocator@D@2@@std@@0000_N@Z$0 1002c2c0 f   DataMerge.obj
 0001:0002b2c9       __unwindfunclet$??0Args@MessageObject@@QAE@V?$basic_string@DU?$char_traits@D@std@@V?$allocator@D@2@@std@@0000_N@Z$1 1002c2c9 f   DataMerge.obj
 0001:0002b2d2       __unwindfunclet$??0Args@MessageObject@@QAE@V?$basic_string@DU?$char_traits@D@std@@V?$allocator@D@2@@std@@0000_N@Z$2 1002c2d2 f   DataMerge.obj
 0001:0002b2db       __unwindfunclet$??0Args@MessageObject@@QAE@V?$basic_string@DU?$char_traits@D@std@@V?$allocator@D@2@@std@@0000_N@Z$3 1002c2db f   DataMerge.obj
 0001:0002b2e4       __unwindfunclet$??0Args@MessageObject@@QAE@V?$basic_string@DU?$char_traits@D@std@@V?$allocator@D@2@@std@@0000_N@Z$4 1002c2e4 f   DataMerge.obj
 0001:0002b2ed       __unwindfunclet$??0Args@MessageObject@@QAE@V?$basic_string@DU?$char_traits@D@std@@V?$allocator@D@2@@std@@0000_N@Z$5 1002c2ed f   DataMerge.obj
 0001:0002b2f6       __unwindfunclet$??0Args@MessageObject@@QAE@V?$basic_string@DU?$char_traits@D@std@@V?$allocator@D@2@@std@@0000_N@Z$6 1002c2f6 f   DataMerge.obj
 0001:0002b302       __unwindfunclet$??0Args@MessageObject@@QAE@V?$basic_string@DU?$char_traits@D@std@@V?$allocator@D@2@@std@@0000_N@Z$7 1002c302 f   DataMerge.obj
 0001:0002b30e       __unwindfunclet$??0Args@MessageObject@@QAE@V?$basic_string@DU?$char_traits@D@std@@V?$allocator@D@2@@std@@0000_N@Z$8 1002c30e f   DataMerge.obj
 0001:0002b31a       __unwindfunclet$??0Args@MessageObject@@QAE@V?$basic_string@DU?$char_traits@D@std@@V?$allocator@D@2@@std@@0000_N@Z$9 1002c31a f   DataMerge.obj
 0001:0002b326       __unwindfunclet$??0Args@MessageObject@@QAE@V?$basic_string@DU?$char_traits@D@std@@V?$allocator@D@2@@std@@0000_N@Z$10 1002c326 f   DataMerge.obj
 0001:0002b32f       __ehhandler$??0Args@MessageObject@@QAE@V?$basic_string@DU?$char_traits@D@std@@V?$allocator@D@2@@std@@0000_N@Z 1002c32f f   DataMerge.obj
 0001:0002b340       __unwindfunclet$??0?$Resource@VStep@@VMessageObject@@@@QAE@ABUArgs@MessageObject@@@Z$0 1002c340 f   DataMerge.obj
 0001:0002b34b       __ehhandler$??0?$Resource@VStep@@VMessageObject@@@@QAE@ABUArgs@MessageObject@@@Z 1002c34b f   DataMerge.obj
 0001:0002b360       __unwindfunclet$??0?$Resource@VDataRequest@@VFactoryObject@@@@QAE@ABVArgs@FactoryAllocator@@@Z$0 1002c360 f   DataMerge.obj
 0001:0002b36b       __ehhandler$??0?$Resource@VDataRequest@@VFactoryObject@@@@QAE@ABVArgs@FactoryAllocator@@@Z 1002c36b f   DataMerge.obj
 0001:0002b380       __unwindfunclet$??0sentry@?$basic_ostream@DU?$char_traits@D@std@@@std@@QAE@AAV12@@Z$0 1002c380 f   DataMerge.obj
 0001:0002b388       __ehhandler$??0sentry@?$basic_ostream@DU?$char_traits@D@std@@@std@@QAE@AAV12@@Z 1002c388 f   DataMerge.obj
 0001:0002b3a0       __unwindfunclet$??1sentry@?$basic_ostream@DU?$char_traits@D@std@@@std@@QAE@XZ$0 1002c3a0 f   DataMerge.obj
 0001:0002b3a8       __ehhandler$??1sentry@?$basic_ostream@DU?$char_traits@D@std@@@std@@QAE@XZ 1002c3a8 f   DataMerge.obj
 0001:0002b3c0       __unwindfunclet$??$?6U?$char_traits@D@std@@@std@@YAAAV?$basic_ostream@DU?$char_traits@D@std@@@0@AAV10@PBD@Z$2 1002c3c0 f   DataMerge.obj
 0001:0002b3c8       __unwindfunclet$??$?6U?$char_traits@D@std@@@std@@YAAAV?$basic_ostream@DU?$char_traits@D@std@@@0@AAV10@PBD@Z$3 1002c3c8 f   DataMerge.obj
 0001:0002b3d0       __ehhandler$??$?6U?$char_traits@D@std@@@std@@YAAAV?$basic_ostream@DU?$char_traits@D@std@@@0@AAV10@PBD@Z 1002c3d0 f   DataMerge.obj
 0001:0002b3e0       __unwindfunclet$?construct@?$allocator@V?$basic_string@DU?$char_traits@D@std@@V?$allocator@D@2@@std@@@std@@QAEXPAV?$basic_string@DU?$char_traits@D@std@@V?$allocator@D@2@@2@ABV32@@Z$0 1002c3e0 f   DataMerge.obj
 0001:0002b3f1       __ehhandler$?construct@?$allocator@V?$basic_string@DU?$char_traits@D@std@@V?$allocator@D@2@@std@@@std@@QAEXPAV?$basic_string@DU?$char_traits@D@std@@V?$allocator@D@2@@2@ABV32@@Z 1002c3f1 f   DataMerge.obj
 0001:0002b400       __unwindfunclet$??$?6U?$char_traits@D@std@@@std@@YAAAV?$basic_ostream@DU?$char_traits@D@std@@@0@AAV10@D@Z$2 1002c400 f   DataMerge.obj
 0001:0002b408       __unwindfunclet$??$?6U?$char_traits@D@std@@@std@@YAAAV?$basic_ostream@DU?$char_traits@D@std@@@0@AAV10@D@Z$3 1002c408 f   DataMerge.obj
 0001:0002b410       __ehhandler$??$?6U?$char_traits@D@std@@@std@@YAAAV?$basic_ostream@DU?$char_traits@D@std@@@0@AAV10@D@Z 1002c410 f   DataMerge.obj
 0001:0002b420       __unwindfunclet$??1?$Resource@VDataRequest@@VFactoryObject@@@@UAE@XZ$0 1002c420 f   DataMerge.obj
 0001:0002b42b       __ehhandler$??1?$Resource@VDataRequest@@VFactoryObject@@@@UAE@XZ 1002c42b f   DataMerge.obj
 0001:0002b440       __unwindfunclet$??1?$Resource@VStep@@VMessageObject@@@@UAE@XZ$0 1002c440 f   DataMerge.obj
 0001:0002b44b       __ehhandler$??1?$Resource@VStep@@VMessageObject@@@@UAE@XZ 1002c44b f   DataMerge.obj
 0001:0002b460       __unwindfunclet$??$mergeElement@G@?A0xe9836fa4@@YA_NPAGHHVDataAccessor@@1H@Z$0 1002c460 f   DataMerge.obj
 0001:0002b468       __unwindfunclet$??$mergeElement@G@?A0xe9836fa4@@YA_NPAGHHVDataAccessor@@1H@Z$1 1002c468 f   DataMerge.obj
 0001:0002b470       __unwindfunclet$??$mergeElement@G@?A0xe9836fa4@@YA_NPAGHHVDataAccessor@@1H@Z$2 1002c470 f   DataMerge.obj
 0001:0002b47c       __ehhandler$??$mergeElement@G@?A0xe9836fa4@@YA_NPAGHHVDataAccessor@@1H@Z 1002c47c f   DataMerge.obj
 0001:0002b490       __unwindfunclet$??$mergeElement@F@?A0xe9836fa4@@YA_NPAFHHVDataAccessor@@1H@Z$0 1002c490 f   DataMerge.obj
 0001:0002b498       __unwindfunclet$??$mergeElement@F@?A0xe9836fa4@@YA_NPAFHHVDataAccessor@@1H@Z$1 1002c498 f   DataMerge.obj
 0001:0002b4a0       __unwindfunclet$??$mergeElement@F@?A0xe9836fa4@@YA_NPAFHHVDataAccessor@@1H@Z$2 1002c4a0 f   DataMerge.obj
 0001:0002b4ac       __ehhandler$??$mergeElement@F@?A0xe9836fa4@@YA_NPAFHHVDataAccessor@@1H@Z 1002c4ac f   DataMerge.obj
 0001:0002b4c0       __unwindfunclet$??$mergeElement@I@?A0xe9836fa4@@YA_NPAIHHVDataAccessor@@1H@Z$0 1002c4c0 f   DataMerge.obj
 0001:0002b4c8       __unwindfunclet$??$mergeElement@I@?A0xe9836fa4@@YA_NPAIHHVDataAccessor@@1H@Z$1 1002c4c8 f   DataMerge.obj
 0001:0002b4d0       __unwindfunclet$??$mergeElement@I@?A0xe9836fa4@@YA_NPAIHHVDataAccessor@@1H@Z$2 1002c4d0 f   DataMerge.obj
 0001:0002b4dc       __ehhandler$??$mergeElement@I@?A0xe9836fa4@@YA_NPAIHHVDataAccessor@@1H@Z 1002c4dc f   DataMerge.obj
 0001:0002b4f0       __unwindfunclet$??$mergeElement@H@?A0xe9836fa4@@YA_NPAHHHVDataAccessor@@1H@Z$0 1002c4f0 f   DataMerge.obj
 0001:0002b4f8       __unwindfunclet$??$mergeElement@H@?A0xe9836fa4@@YA_NPAHHHVDataAccessor@@1H@Z$1 1002c4f8 f   DataMerge.obj
 0001:0002b500       __unwindfunclet$??$mergeElement@H@?A0xe9836fa4@@YA_NPAHHHVDataAccessor@@1H@Z$2 1002c500 f   DataMerge.obj
 0001:0002b50c       __ehhandler$??$mergeElement@H@?A0xe9836fa4@@YA_NPAHHHVDataAccessor@@1H@Z 1002c50c f   DataMerge.obj
 0001:0002b520       __unwindfunclet$??$mergeElement@M@?A0xe9836fa4@@YA_NPAMHHVDataAccessor@@1H@Z$0 1002c520 f   DataMerge.obj
 0001:0002b528       __unwindfunclet$??$mergeElement@M@?A0xe9836fa4@@YA_NPAMHHVDataAccessor@@1H@Z$1 1002c528 f   DataMerge.obj
 0001:0002b530       __unwindfunclet$??$mergeElement@M@?A0xe9836fa4@@YA_NPAMHHVDataAccessor@@1H@Z$2 1002c530 f   DataMerge.obj
 0001:0002b53c       __ehhandler$??$mergeElement@M@?A0xe9836fa4@@YA_NPAMHHVDataAccessor@@1H@Z 1002c53c f   DataMerge.obj
 0001:0002b550       __unwindfunclet$??$mergeElement@N@?A0xe9836fa4@@YA_NPANHHVDataAccessor@@1H@Z$0 1002c550 f   DataMerge.obj
 0001:0002b558       __unwindfunclet$??$mergeElement@N@?A0xe9836fa4@@YA_NPANHHVDataAccessor@@1H@Z$1 1002c558 f   DataMerge.obj
 0001:0002b560       __unwindfunclet$??$mergeElement@N@?A0xe9836fa4@@YA_NPANHHVDataAccessor@@1H@Z$2 1002c560 f   DataMerge.obj
 0001:0002b56c       __ehhandler$??$mergeElement@N@?A0xe9836fa4@@YA_NPANHHVDataAccessor@@1H@Z 1002c56c f   DataMerge.obj
 0001:0002b580       __unwindfunclet$??$_Uninit_move@PAV?$basic_string@DU?$char_traits@D@std@@V?$allocator@D@2@@std@@PAV12@V?$allocator@V?$basic_string@DU?$char_traits@D@std@@V?$allocator@D@2@@std@@@2@@std@@YAPAV?$basic_string@DU?$char_traits@D@std@@V?$allocator@D@2@@0@PAV10@00AAV?$allocator@V?$basic_string@DU?$char_traits@D@std@@V?$allocator@D@2@@std@@@0@U_Swap_move_tag@0@U_Range_checked_iterator_tag@0@@Z$2 1002c580 f   DataMerge.obj
 0001:0002b589       __unwindfunclet$??$_Uninit_move@PAV?$basic_string@DU?$char_traits@D@std@@V?$allocator@D@2@@std@@PAV12@V?$allocator@V?$basic_string@DU?$char_traits@D@std@@V?$allocator@D@2@@std@@@2@@std@@YAPAV?$basic_string@DU?$char_traits@D@std@@V?$allocator@D@2@@0@PAV10@00AAV?$allocator@V?$basic_string@DU?$char_traits@D@std@@V?$allocator@D@2@@std@@@0@U_Swap_move_tag@0@U_Range_checked_iterator_tag@0@@Z$3 1002c589 f   DataMerge.obj
 0001:0002b59a       __ehhandler$??$_Uninit_move@PAV?$basic_string@DU?$char_traits@D@std@@V?$allocator@D@2@@std@@PAV12@V?$allocator@V?$basic_string@DU?$char_traits@D@std@@V?$allocator@D@2@@std@@@2@@std@@YAPAV?$basic_string@DU?$char_traits@D@std@@V?$allocator@D@2@@0@PAV10@00AAV?$allocator@V?$basic_string@DU?$char_traits@D@std@@V?$allocator@D@2@@std@@@0@U_Swap_move_tag@0@U_Range_checked_iterator_tag@0@@Z 1002c59a f   DataMerge.obj
 0001:0002b5b0       __unwindfunclet$??0StepResource@@QAE@V?$basic_string@DU?$char_traits@D@std@@V?$allocator@D@2@@std@@0000@Z$0 1002c5b0 f   DataMerge.obj
 0001:0002b5b9       __unwindfunclet$??0StepResource@@QAE@V?$basic_string@DU?$char_traits@D@std@@V?$allocator@D@2@@std@@0000@Z$1 1002c5b9 f   DataMerge.obj
 0001:0002b5c2       __unwindfunclet$??0StepResource@@QAE@V?$basic_string@DU?$char_traits@D@std@@V?$allocator@D@2@@std@@0000@Z$2 1002c5c2 f   DataMerge.obj
 0001:0002b5cb       __unwindfunclet$??0StepResource@@QAE@V?$basic_string@DU?$char_traits@D@std@@V?$allocator@D@2@@std@@0000@Z$3 1002c5cb f   DataMerge.obj
 0001:0002b5d4       __unwindfunclet$??0StepResource@@QAE@V?$basic_string@DU?$char_traits@D@std@@V?$allocator@D@2@@std@@0000@Z$4 1002c5d4 f   DataMerge.obj
 0001:0002b5dd       __unwindfunclet$??0StepResource@@QAE@V?$basic_string@DU?$char_traits@D@std@@V?$allocator@D@2@@std@@0000@Z$5 1002c5dd f   DataMerge.obj
 0001:0002b5e9       __unwindfunclet$??0StepResource@@QAE@V?$basic_string@DU?$char_traits@D@std@@V?$allocator@D@2@@std@@0000@Z$6 1002c5e9 f   DataMerge.obj
 0001:0002b5f5       __unwindfunclet$??0StepResource@@QAE@V?$basic_string@DU?$char_traits@D@std@@V?$allocator@D@2@@std@@0000@Z$7 1002c5f5 f   DataMerge.obj
 0001:0002b601       __unwindfunclet$??0StepResource@@QAE@V?$basic_string@DU?$char_traits@D@std@@V?$allocator@D@2@@std@@0000@Z$8 1002c601 f   DataMerge.obj
 0001:0002b60d       __unwindfunclet$??0StepResource@@QAE@V?$basic_string@DU?$char_traits@D@std@@V?$allocator@D@2@@std@@0000@Z$10 1002c60d f   DataMerge.obj
 0001:0002b618       __unwindfunclet$??0StepResource@@QAE@V?$basic_string@DU?$char_traits@D@std@@V?$allocator@D@2@@std@@0000@Z$11 1002c618 f   DataMerge.obj
 0001:0002b623       __ehhandler$??0StepResource@@QAE@V?$basic_string@DU?$char_traits@D@std@@V?$allocator@D@2@@std@@0000@Z 1002c623 f   DataMerge.obj
 0001:0002b630       __unwindfunclet$??0?$FactoryResource@VDataRequest@@@@QAE@XZ$0 1002c630 f   DataMerge.obj
 0001:0002b638       __unwindfunclet$??0?$FactoryResource@VDataRequest@@@@QAE@XZ$1 1002c638 f   DataMerge.obj
 0001:0002b640       __ehhandler$??0?$FactoryResource@VDataRequest@@@@QAE@XZ 1002c640 f   DataMerge.obj
 0001:0002b650       __unwindfunclet$??$mergeElement@E@?A0xe9836fa4@@YA_NPAEHHVDataAccessor@@1H@Z$0 1002c650 f   DataMerge.obj
 0001:0002b658       __unwindfunclet$??$mergeElement@E@?A0xe9836fa4@@YA_NPAEHHVDataAccessor@@1H@Z$1 1002c658 f   DataMerge.obj
 0001:0002b660       __unwindfunclet$??$mergeElement@E@?A0xe9836fa4@@YA_NPAEHHVDataAccessor@@1H@Z$2 1002c660 f   DataMerge.obj
 0001:0002b66c       __ehhandler$??$mergeElement@E@?A0xe9836fa4@@YA_NPAEHHVDataAccessor@@1H@Z 1002c66c f   DataMerge.obj
 0001:0002b680       __unwindfunclet$??$mergeElement@C@?A0xe9836fa4@@YA_NPACHHVDataAccessor@@1H@Z$0 1002c680 f   DataMerge.obj
 0001:0002b688       __unwindfunclet$??$mergeElement@C@?A0xe9836fa4@@YA_NPACHHVDataAccessor@@1H@Z$1 1002c688 f   DataMerge.obj
 0001:0002b690       __unwindfunclet$??$mergeElement@C@?A0xe9836fa4@@YA_NPACHHVDataAccessor@@1H@Z$2 1002c690 f   DataMerge.obj
 0001:0002b69c       __ehhandler$??$mergeElement@C@?A0xe9836fa4@@YA_NPACHHVDataAccessor@@1H@Z 1002c69c f   DataMerge.obj
 0001:0002b6b0       __unwindfunclet$??$_Uninit_fill_n@PAV?$basic_string@DU?$char_traits@D@std@@V?$allocator@D@2@@std@@IV12@V?$allocator@V?$basic_string@DU?$char_traits@D@std@@V?$allocator@D@2@@std@@@2@@std@@YAXPAV?$basic_string@DU?$char_traits@D@std@@V?$allocator@D@2@@0@IABV10@AAV?$allocator@V?$basic_string@DU?$char_traits@D@std@@V?$allocator@D@2@@std@@@0@U_Nonscalar_ptr_iterator_tag@0@U_Range_checked_iterator_tag@0@@Z$2 1002c6b0 f   DataMerge.obj
 0001:0002b6c1       __ehhandler$??$_Uninit_fill_n@PAV?$basic_string@DU?$char_traits@D@std@@V?$allocator@D@2@@std@@IV12@V?$allocator@V?$basic_string@DU?$char_traits@D@std@@V?$allocator@D@2@@std@@@2@@std@@YAXPAV?$basic_string@DU?$char_traits@D@std@@V?$allocator@D@2@@0@IABV10@AAV?$allocator@V?$basic_string@DU?$char_traits@D@std@@V?$allocator@D@2@@std@@@0@U_Nonscalar_ptr_iterator_tag@0@U_Range_checked_iterator_tag@0@@Z 1002c6c1 f   DataMerge.obj
 0001:0002b6d0       __unwindfunclet$?showGui@DataMerge@@AAE_NXZ$0 1002c6d0 f   DataMerge.obj
 0001:0002b6dc       __unwindfunclet$?showGui@DataMerge@@AAE_NXZ$1 1002c6dc f   DataMerge.obj
 0001:0002b6e8       __unwindfunclet$?showGui@DataMerge@@AAE_NXZ$2 1002c6e8 f   DataMerge.obj
 0001:0002b6f4       __unwindfunclet$?showGui@DataMerge@@AAE_NXZ$3 1002c6f4 f   DataMerge.obj
 0001:0002b700       __unwindfunclet$?showGui@DataMerge@@AAE_NXZ$5 1002c700 f   DataMerge.obj
 0001:0002b70b       __unwindfunclet$?showGui@DataMerge@@AAE_NXZ$6 1002c70b f   DataMerge.obj
 0001:0002b717       __unwindfunclet$?showGui@DataMerge@@AAE_NXZ$7 1002c717 f   DataMerge.obj
 0001:0002b722       __unwindfunclet$?showGui@DataMerge@@AAE_NXZ$8 1002c722 f   DataMerge.obj
 0001:0002b72e       __unwindfunclet$?showGui@DataMerge@@AAE_NXZ$9 1002c72e f   DataMerge.obj
 0001:0002b73a       __unwindfunclet$?showGui@DataMerge@@AAE_NXZ$10 1002c73a f   DataMerge.obj
 0001:0002b746       __unwindfunclet$?showGui@DataMerge@@AAE_NXZ$11 1002c746 f   DataMerge.obj
 0001:0002b752       __unwindfunclet$?showGui@DataMerge@@AAE_NXZ$12 1002c752 f   DataMerge.obj
 0001:0002b75e       __unwindfunclet$?showGui@DataMerge@@AAE_NXZ$13 1002c75e f   DataMerge.obj
 0001:0002b76a       __unwindfunclet$?showGui@DataMerge@@AAE_NXZ$14 1002c76a f   DataMerge.obj
 0001:0002b776       __unwindfunclet$?showGui@DataMerge@@AAE_NXZ$15 1002c776 f   DataMerge.obj
 0001:0002b782       __unwindfunclet$?showGui@DataMerge@@AAE_NXZ$16 1002c782 f   DataMerge.obj
 0001:0002b78e       __unwindfunclet$?showGui@DataMerge@@AAE_NXZ$17 1002c78e f   DataMerge.obj
 0001:0002b79a       __unwindfunclet$?showGui@DataMerge@@AAE_NXZ$18 1002c79a f   DataMerge.obj
 0001:0002b7a6       __unwindfunclet$?showGui@DataMerge@@AAE_NXZ$19 1002c7a6 f   DataMerge.obj
 0001:0002b7b2       __unwindfunclet$?showGui@DataMerge@@AAE_NXZ$20 1002c7b2 f   DataMerge.obj
 0001:0002b7be       __unwindfunclet$?showGui@DataMerge@@AAE_NXZ$21 1002c7be f   DataMerge.obj
 0001:0002b7ca       __unwindfunclet$?showGui@DataMerge@@AAE_NXZ$22 1002c7ca f   DataMerge.obj
 0001:0002b7d5       __unwindfunclet$?showGui@DataMerge@@AAE_NXZ$23 1002c7d5 f   DataMerge.obj
 0001:0002b7e0       __unwindfunclet$?showGui@DataMerge@@AAE_NXZ$24 1002c7e0 f   DataMerge.obj
 0001:0002b7ec       __unwindfunclet$?showGui@DataMerge@@AAE_NXZ$25 1002c7ec f   DataMerge.obj
 0001:0002b7f8       __unwindfunclet$?showGui@DataMerge@@AAE_NXZ$26 1002c7f8 f   DataMerge.obj
 0001:0002b804       __unwindfunclet$?showGui@DataMerge@@AAE_NXZ$27 1002c804 f   DataMerge.obj
 0001:0002b810       __unwindfunclet$?showGui@DataMerge@@AAE_NXZ$28 1002c810 f   DataMerge.obj
 0001:0002b81c       __unwindfunclet$?showGui@DataMerge@@AAE_NXZ$29 1002c81c f   DataMerge.obj
 0001:0002b828       __unwindfunclet$?showGui@DataMerge@@AAE_NXZ$42 1002c828 f   DataMerge.obj
 0001:0002b833       __unwindfunclet$?showGui@DataMerge@@AAE_NXZ$43 1002c833 f   DataMerge.obj
 0001:0002b83e       __unwindfunclet$?showGui@DataMerge@@AAE_NXZ$44 1002c83e f   DataMerge.obj
 0001:0002b849       __unwindfunclet$?showGui@DataMerge@@AAE_NXZ$46 1002c849 f   DataMerge.obj
 0001:0002b854       __unwindfunclet$?showGui@DataMerge@@AAE_NXZ$48 1002c854 f   DataMerge.obj
 0001:0002b85f       __unwindfunclet$?showGui@DataMerge@@AAE_NXZ$50 1002c85f f   DataMerge.obj
 0001:0002b86a       __unwindfunclet$?showGui@DataMerge@@AAE_NXZ$52 1002c86a f   DataMerge.obj
 0001:0002b875       __unwindfunclet$?showGui@DataMerge@@AAE_NXZ$54 1002c875 f   DataMerge.obj
 0001:0002b880       __unwindfunclet$?showGui@DataMerge@@AAE_NXZ$56 1002c880 f   DataMerge.obj
 0001:0002b88b       __unwindfunclet$?showGui@DataMerge@@AAE_NXZ$58 1002c88b f   DataMerge.obj
 0001:0002b896       __unwindfunclet$?showGui@DataMerge@@AAE_NXZ$30 1002c896 f   DataMerge.obj
 0001:0002b8a2       __unwindfunclet$?showGui@DataMerge@@AAE_NXZ$31 1002c8a2 f   DataMerge.obj
 0001:0002b8ae       __unwindfunclet$?showGui@DataMerge@@AAE_NXZ$32 1002c8ae f   DataMerge.obj
 0001:0002b8ba       __unwindfunclet$?showGui@DataMerge@@AAE_NXZ$33 1002c8ba f   DataMerge.obj
 0001:0002b8c6       __unwindfunclet$?showGui@DataMerge@@AAE_NXZ$34 1002c8c6 f   DataMerge.obj
 0001:0002b8d2       __unwindfunclet$?showGui@DataMerge@@AAE_NXZ$35 1002c8d2 f   DataMerge.obj
 0001:0002b8de       __unwindfunclet$?showGui@DataMerge@@AAE_NXZ$36 1002c8de f   DataMerge.obj
 0001:0002b8ea       __unwindfunclet$?showGui@DataMerge@@AAE_NXZ$37 1002c8ea f   DataMerge.obj
 0001:0002b8f6       __unwindfunclet$?showGui@DataMerge@@AAE_NXZ$38 1002c8f6 f   DataMerge.obj
 0001:0002b902       __unwindfunclet$?showGui@DataMerge@@AAE_NXZ$39 1002c902 f   DataMerge.obj
 0001:0002b90e       __unwindfunclet$?showGui@DataMerge@@AAE_NXZ$40 1002c90e f   DataMerge.obj
 0001:0002b91a       __unwindfunclet$?showGui@DataMerge@@AAE_NXZ$41 1002c91a f   DataMerge.obj
 0001:0002b926       __unwindfunclet$?showGui@DataMerge@@AAE_NXZ$60 1002c926 f   DataMerge.obj
 0001:0002b932       __unwindfunclet$?showGui@DataMerge@@AAE_NXZ$61 1002c932 f   DataMerge.obj
 0001:0002b93e       __ehhandler$?showGui@DataMerge@@AAE_NXZ 1002c93e f   DataMerge.obj
 0001:0002b950       __unwindfunclet$?_Insert_n@?$vector@V?$basic_string@DU?$char_traits@D@std@@V?$allocator@D@2@@std@@V?$allocator@V?$basic_string@DU?$char_traits@D@std@@V?$allocator@D@2@@std@@@2@@std@@IAEXV?$_Vector_iterator@V?$basic_string@DU?$char_traits@D@std@@V?$allocator@D@2@@std@@V?$allocator@V?$basic_string@DU?$char_traits@D@std@@V?$allocator@D@2@@std@@@2@@2@IABV?$basic_string@DU?$char_traits@D@std@@V?$allocator@D@2@@2@@Z$4 1002c950 f   DataMerge.obj
 0001:0002b959       __ehhandler$?_Insert_n@?$vector@V?$basic_string@DU?$char_traits@D@std@@V?$allocator@D@2@@std@@V?$allocator@V?$basic_string@DU?$char_traits@D@std@@V?$allocator@D@2@@std@@@2@@std@@IAEXV?$_Vector_iterator@V?$basic_string@DU?$char_traits@D@std@@V?$allocator@D@2@@std@@V?$allocator@V?$basic_string@DU?$char_traits@D@std@@V?$allocator@D@2@@std@@@2@@2@IABV?$basic_string@DU?$char_traits@D@std@@V?$allocator@D@2@@2@@Z 1002c959 f   DataMerge.obj
 0001:0002b970       __unwindfunclet$?addPlugInName@BasicPlugInFactory@@AAEXV?$basic_string@DU?$char_traits@D@std@@V?$allocator@D@2@@std@@@Z$0 1002c970 f   DataMerge.obj
 0001:0002b979       __ehhandler$?addPlugInName@BasicPlugInFactory@@AAEXV?$basic_string@DU?$char_traits@D@std@@V?$allocator@D@2@@std@@@Z 1002c979 f   DataMerge.obj
 0001:0002b990       __unwindfunclet$??0BasicPlugInFactory@@QAE@ABV?$basic_string@DU?$char_traits@D@std@@V?$allocator@D@2@@std@@@Z$0 1002c990 f   DataMerge.obj
 0001:0002b99b       __unwindfunclet$??0BasicPlugInFactory@@QAE@ABV?$basic_string@DU?$char_traits@D@std@@V?$allocator@D@2@@std@@@Z$2 1002c99b f   DataMerge.obj
 0001:0002b9a4       __ehhandler$??0BasicPlugInFactory@@QAE@ABV?$basic_string@DU?$char_traits@D@std@@V?$allocator@D@2@@std@@@Z 1002c9a4 f   DataMerge.obj
 0001:0002b9b0       __unwindfunclet$??$_Uninit_copy@PBV?$basic_string@DU?$char_traits@D@std@@V?$allocator@D@2@@std@@PAV12@V?$allocator@V?$basic_string@DU?$char_traits@D@std@@V?$allocator@D@2@@std@@@2@@std@@YAPAV?$basic_string@DU?$char_traits@D@std@@V?$allocator@D@2@@0@PBV10@0PAV10@AAV?$allocator@V?$basic_string@DU?$char_traits@D@std@@V?$allocator@D@2@@std@@@0@U_Nonscalar_ptr_iterator_tag@0@U_Range_checked_iterator_tag@0@@Z$2 1002c9b0 f   DataMerge.obj
 0001:0002b9c1       __ehhandler$??$_Uninit_copy@PBV?$basic_string@DU?$char_traits@D@std@@V?$allocator@D@2@@std@@PAV12@V?$allocator@V?$basic_string@DU?$char_traits@D@std@@V?$allocator@D@2@@std@@@2@@std@@YAPAV?$basic_string@DU?$char_traits@D@std@@V?$allocator@D@2@@0@PBV10@0PAV10@AAV?$allocator@V?$basic_string@DU?$char_traits@D@std@@V?$allocator@D@2@@std@@@0@U_Nonscalar_ptr_iterator_tag@0@U_Range_checked_iterator_tag@0@@Z 1002c9c1 f   DataMerge.obj
 0001:0002b9d0       __ehhandler$??0?$vector@V?$basic_string@DU?$char_traits@D@std@@V?$allocator@D@2@@std@@V?$allocator@V?$basic_string@DU?$char_traits@D@std@@V?$allocator@D@2@@std@@@2@@std@@QAE@ABV01@@Z 1002c9d0 f   DataMerge.obj
 0001:0002b9e0       __unwindfunclet$??0DataMergePlugInFactory@SpectralDataMerge@@QAE@ABV?$basic_string@DU?$char_traits@D@std@@V?$allocator@D@2@@std@@@Z$0 1002c9e0 f   DataMerge.obj
 0001:0002b9e8       __ehhandler$??0DataMergePlugInFactory@SpectralDataMerge@@QAE@ABV?$basic_string@DU?$char_traits@D@std@@V?$allocator@D@2@@std@@@Z 1002c9e8 f   DataMerge.obj
 0001:0002ba00       __unwindfunclet$?createPlugIn@DataMergePlugInFactory@SpectralDataMerge@@UAEPAVPlugIn@@ABV?$basic_string@DU?$char_traits@D@std@@V?$allocator@D@2@@std@@@Z$0 1002ca00 f   DataMerge.obj
 0001:0002ba0b       __ehhandler$?createPlugIn@DataMergePlugInFactory@SpectralDataMerge@@UAEPAVPlugIn@@ABV?$basic_string@DU?$char_traits@D@std@@V?$allocator@D@2@@std@@@Z 1002ca0b f   DataMerge.obj
 0001:0002ba20       __unwindfunclet$??__EDataMergepluginFactory@SpectralDataMerge@@YAXXZ$0 1002ca20 f   DataMerge.obj
 0001:0002ba29       __unwindfunclet$??__EDataMergepluginFactory@SpectralDataMerge@@YAXXZ$1 1002ca29 f   DataMerge.obj
 0001:0002ba33       __ehhandler$??__EDataMergepluginFactory@SpectralDataMerge@@YAXXZ 1002ca33 f   DataMerge.obj
 0001:0002ba40       __unwindfunclet$?_Xlen@?$vector@U?$pair@V?$basic_string@DU?$char_traits@D@std@@V?$allocator@D@2@@std@@PAVPlugInFactory@@@std@@V?$allocator@U?$pair@V?$basic_string@DU?$char_traits@D@std@@V?$allocator@D@2@@std@@PAVPlugInFactory@@@std@@@2@@std@@KAXXZ$0 1002ca40 f   ModuleManager.obj
 0001:0002ba49       __unwindfunclet$?_Xlen@?$vector@U?$pair@V?$basic_string@DU?$char_traits@D@std@@V?$allocator@D@2@@std@@PAVPlugInFactory@@@std@@V?$allocator@U?$pair@V?$basic_string@DU?$char_traits@D@std@@V?$allocator@D@2@@std@@PAVPlugInFactory@@@std@@@2@@std@@KAXXZ$2 1002ca49 f   ModuleManager.obj
 0001:0002ba52       __ehhandler$?_Xlen@?$vector@U?$pair@V?$basic_string@DU?$char_traits@D@std@@V?$allocator@D@2@@std@@PAVPlugInFactory@@@std@@V?$allocator@U?$pair@V?$basic_string@DU?$char_traits@D@std@@V?$allocator@D@2@@std@@PAVPlugInFactory@@@std@@@2@@std@@KAXXZ 1002ca52 f   ModuleManager.obj
 0001:0002ba60       __unwindfunclet$??$_Construct@U?$pair@V?$basic_string@DU?$char_traits@D@std@@V?$allocator@D@2@@std@@PAVPlugInFactory@@@std@@U12@@std@@YAXPAU?$pair@V?$basic_string@DU?$char_traits@D@std@@V?$allocator@D@2@@std@@PAVPlugInFactory@@@0@ABU10@@Z$0 1002ca60 f   ModuleManager.obj
 0001:0002ba71       __ehhandler$??$_Construct@U?$pair@V?$basic_string@DU?$char_traits@D@std@@V?$allocator@D@2@@std@@PAVPlugInFactory@@@std@@U12@@std@@YAXPAU?$pair@V?$basic_string@DU?$char_traits@D@std@@V?$allocator@D@2@@std@@PAVPlugInFactory@@@0@ABU10@@Z 1002ca71 f   ModuleManager.obj
 0001:0002ba80       __unwindfunclet$??$_Rotate@PAU?$pair@V?$basic_string@DU?$char_traits@D@std@@V?$allocator@D@2@@std@@PAVPlugInFactory@@@std@@HU12@@std@@YAXPAU?$pair@V?$basic_string@DU?$char_traits@D@std@@V?$allocator@D@2@@std@@PAVPlugInFactory@@@0@00PAH0@Z$0 1002ca80 f   ModuleManager.obj
 0001:0002ba88       __ehhandler$??$_Rotate@PAU?$pair@V?$basic_string@DU?$char_traits@D@std@@V?$allocator@D@2@@std@@PAVPlugInFactory@@@std@@HU12@@std@@YAXPAU?$pair@V?$basic_string@DU?$char_traits@D@std@@V?$allocator@D@2@@std@@PAVPlugInFactory@@@0@00PAH0@Z 1002ca88 f   ModuleManager.obj
 0001:0002baa0       __unwindfunclet$??$make_pair@V?$basic_string@DU?$char_traits@D@std@@V?$allocator@D@2@@std@@PAVPlugInFactory@@@std@@YA?AU?$pair@V?$basic_string@DU?$char_traits@D@std@@V?$allocator@D@2@@std@@PAVPlugInFactory@@@0@V?$basic_string@DU?$char_traits@D@std@@V?$allocator@D@2@@0@PAVPlugInFactory@@@Z$0 1002caa0 f   ModuleManager.obj
 0001:0002baa9       __unwindfunclet$??$make_pair@V?$basic_string@DU?$char_traits@D@std@@V?$allocator@D@2@@std@@PAVPlugInFactory@@@std@@YA?AU?$pair@V?$basic_string@DU?$char_traits@D@std@@V?$allocator@D@2@@std@@PAVPlugInFactory@@@0@V?$basic_string@DU?$char_traits@D@std@@V?$allocator@D@2@@0@PAVPlugInFactory@@@Z$1 1002caa9 f   ModuleManager.obj
 0001:0002bac2       __ehhandler$??$make_pair@V?$basic_string@DU?$char_traits@D@std@@V?$allocator@D@2@@std@@PAVPlugInFactory@@@std@@YA?AU?$pair@V?$basic_string@DU?$char_traits@D@std@@V?$allocator@D@2@@std@@PAVPlugInFactory@@@0@V?$basic_string@DU?$char_traits@D@std@@V?$allocator@D@2@@0@PAVPlugInFactory@@@Z 1002cac2 f   ModuleManager.obj
 0001:0002bad0       __unwindfunclet$??$_Uninit_copy@PAU?$pair@V?$basic_string@DU?$char_traits@D@std@@V?$allocator@D@2@@std@@PAVPlugInFactory@@@std@@PAU12@V?$allocator@U?$pair@V?$basic_string@DU?$char_traits@D@std@@V?$allocator@D@2@@std@@PAVPlugInFactory@@@std@@@2@@std@@YAPAU?$pair@V?$basic_string@DU?$char_traits@D@std@@V?$allocator@D@2@@std@@PAVPlugInFactory@@@0@PAU10@00AAV?$allocator@U?$pair@V?$basic_string@DU?$char_traits@D@std@@V?$allocator@D@2@@std@@PAVPlugInFactory@@@std@@@0@U_Nonscalar_ptr_iterator_tag@0@U_Range_checked_iterator_tag@0@@Z$2 1002cad0 f   ModuleManager.obj
 0001:0002bae1       __ehhandler$??$_Uninit_copy@PAU?$pair@V?$basic_string@DU?$char_traits@D@std@@V?$allocator@D@2@@std@@PAVPlugInFactory@@@std@@PAU12@V?$allocator@U?$pair@V?$basic_string@DU?$char_traits@D@std@@V?$allocator@D@2@@std@@PAVPlugInFactory@@@std@@@2@@std@@YAPAU?$pair@V?$basic_string@DU?$char_traits@D@std@@V?$allocator@D@2@@std@@PAVPlugInFactory@@@0@PAU10@00AAV?$allocator@U?$pair@V?$basic_string@DU?$char_traits@D@std@@V?$allocator@D@2@@std@@PAVPlugInFactory@@@std@@@0@U_Nonscalar_ptr_iterator_tag@0@U_Range_checked_iterator_tag@0@@Z 1002cae1 f   ModuleManager.obj
 0001:0002baf0       __unwindfunclet$??$_Uninit_fill_n@PAU?$pair@V?$basic_string@DU?$char_traits@D@std@@V?$allocator@D@2@@std@@PAVPlugInFactory@@@std@@IU12@V?$allocator@U?$pair@V?$basic_string@DU?$char_traits@D@std@@V?$allocator@D@2@@std@@PAVPlugInFactory@@@std@@@2@@std@@YAXPAU?$pair@V?$basic_string@DU?$char_traits@D@std@@V?$allocator@D@2@@std@@PAVPlugInFactory@@@0@IABU10@AAV?$allocator@U?$pair@V?$basic_string@DU?$char_traits@D@std@@V?$allocator@D@2@@std@@PAVPlugInFactory@@@std@@@0@U_Nonscalar_ptr_iterator_tag@0@U_Range_checked_iterator_tag@0@@Z$2 1002caf0 f   ModuleManager.obj
 0001:0002bb01       __ehhandler$??$_Uninit_fill_n@PAU?$pair@V?$basic_string@DU?$char_traits@D@std@@V?$allocator@D@2@@std@@PAVPlugInFactory@@@std@@IU12@V?$allocator@U?$pair@V?$basic_string@DU?$char_traits@D@std@@V?$allocator@D@2@@std@@PAVPlugInFactory@@@std@@@2@@std@@YAXPAU?$pair@V?$basic_string@DU?$char_traits@D@std@@V?$allocator@D@2@@std@@PAVPlugInFactory@@@0@IABU10@AAV?$allocator@U?$pair@V?$basic_string@DU?$char_traits@D@std@@V?$allocator@D@2@@std@@PAVPlugInFactory@@@std@@@0@U_Nonscalar_ptr_iterator_tag@0@U_Range_checked_iterator_tag@0@@Z 1002cb01 f   ModuleManager.obj
 0001:0002bb10       __unwindfunclet$??RFactoryPtrComparator@@QAE_NU?$pair@V?$basic_string@DU?$char_traits@D@std@@V?$allocator@D@2@@std@@PAVPlugInFactory@@@std@@0@Z$0 1002cb10 f   ModuleManager.obj
 0001:0002bb18       __unwindfunclet$??RFactoryPtrComparator@@QAE_NU?$pair@V?$basic_string@DU?$char_traits@D@std@@V?$allocator@D@2@@std@@PAVPlugInFactory@@@std@@0@Z$1 1002cb18 f   ModuleManager.obj
 0001:0002bb20       __ehhandler$??RFactoryPtrComparator@@QAE_NU?$pair@V?$basic_string@DU?$char_traits@D@std@@V?$allocator@D@2@@std@@PAVPlugInFactory@@@std@@0@Z 1002cb20 f   ModuleManager.obj
 0001:0002bb30       __unwindfunclet$??$_Insertion_sort@PAU?$pair@V?$basic_string@DU?$char_traits@D@std@@V?$allocator@D@2@@std@@PAVPlugInFactory@@@std@@UFactoryPtrComparator@@@std@@YAXPAU?$pair@V?$basic_string@DU?$char_traits@D@std@@V?$allocator@D@2@@std@@PAVPlugInFactory@@@0@0UFactoryPtrComparator@@@Z$0 1002cb30 f   ModuleManager.obj
 0001:0002bb38       __unwindfunclet$??$_Insertion_sort@PAU?$pair@V?$basic_string@DU?$char_traits@D@std@@V?$allocator@D@2@@std@@PAVPlugInFactory@@@std@@UFactoryPtrComparator@@@std@@YAXPAU?$pair@V?$basic_string@DU?$char_traits@D@std@@V?$allocator@D@2@@std@@PAVPlugInFactory@@@0@0UFactoryPtrComparator@@@Z$2 1002cb38 f   ModuleManager.obj
 0001:0002bb40       __ehhandler$??$_Insertion_sort@PAU?$pair@V?$basic_string@DU?$char_traits@D@std@@V?$allocator@D@2@@std@@PAVPlugInFactory@@@std@@UFactoryPtrComparator@@@std@@YAXPAU?$pair@V?$basic_string@DU?$char_traits@D@std@@V?$allocator@D@2@@std@@PAVPlugInFactory@@@0@0UFactoryPtrComparator@@@Z 1002cb40 f   ModuleManager.obj
 0001:0002bb50       __unwindfunclet$??$_Med3@PAU?$pair@V?$basic_string@DU?$char_traits@D@std@@V?$allocator@D@2@@std@@PAVPlugInFactory@@@std@@UFactoryPtrComparator@@@std@@YAXPAU?$pair@V?$basic_string@DU?$char_traits@D@std@@V?$allocator@D@2@@std@@PAVPlugInFactory@@@0@00UFactoryPtrComparator@@@Z$0 1002cb50 f   ModuleManager.obj
 0001:0002bb58       __unwindfunclet$??$_Med3@PAU?$pair@V?$basic_string@DU?$char_traits@D@std@@V?$allocator@D@2@@std@@PAVPlugInFactory@@@std@@UFactoryPtrComparator@@@std@@YAXPAU?$pair@V?$basic_string@DU?$char_traits@D@std@@V?$allocator@D@2@@std@@PAVPlugInFactory@@@0@00UFactoryPtrComparator@@@Z$2 1002cb58 f   ModuleManager.obj
 0001:0002bb60       __unwindfunclet$??$_Med3@PAU?$pair@V?$basic_string@DU?$char_traits@D@std@@V?$allocator@D@2@@std@@PAVPlugInFactory@@@std@@UFactoryPtrComparator@@@std@@YAXPAU?$pair@V?$basic_string@DU?$char_traits@D@std@@V?$allocator@D@2@@std@@PAVPlugInFactory@@@0@00UFactoryPtrComparator@@@Z$4 1002cb60 f   ModuleManager.obj
 0001:0002bb68       __ehhandler$??$_Med3@PAU?$pair@V?$basic_string@DU?$char_traits@D@std@@V?$allocator@D@2@@std@@PAVPlugInFactory@@@std@@UFactoryPtrComparator@@@std@@YAXPAU?$pair@V?$basic_string@DU?$char_traits@D@std@@V?$allocator@D@2@@std@@PAVPlugInFactory@@@0@00UFactoryPtrComparator@@@Z 1002cb68 f   ModuleManager.obj
 0001:0002bb80       __unwindfunclet$??$_Push_heap@PAU?$pair@V?$basic_string@DU?$char_traits@D@std@@V?$allocator@D@2@@std@@PAVPlugInFactory@@@std@@HU12@UFactoryPtrComparator@@@std@@YAXPAU?$pair@V?$basic_string@DU?$char_traits@D@std@@V?$allocator@D@2@@std@@PAVPlugInFactory@@@0@HHU10@UFactoryPtrComparator@@@Z$0 1002cb80 f   ModuleManager.obj
 0001:0002bb88       __unwindfunclet$??$_Push_heap@PAU?$pair@V?$basic_string@DU?$char_traits@D@std@@V?$allocator@D@2@@std@@PAVPlugInFactory@@@std@@HU12@UFactoryPtrComparator@@@std@@YAXPAU?$pair@V?$basic_string@DU?$char_traits@D@std@@V?$allocator@D@2@@std@@PAVPlugInFactory@@@0@HHU10@UFactoryPtrComparator@@@Z$1 1002cb88 f   ModuleManager.obj
 0001:0002bb90       __ehhandler$??$_Push_heap@PAU?$pair@V?$basic_string@DU?$char_traits@D@std@@V?$allocator@D@2@@std@@PAVPlugInFactory@@@std@@HU12@UFactoryPtrComparator@@@std@@YAXPAU?$pair@V?$basic_string@DU?$char_traits@D@std@@V?$allocator@D@2@@std@@PAVPlugInFactory@@@0@HHU10@UFactoryPtrComparator@@@Z 1002cb90 f   ModuleManager.obj
 0001:0002bba0       __unwindfunclet$??$_Adjust_heap@PAU?$pair@V?$basic_string@DU?$char_traits@D@std@@V?$allocator@D@2@@std@@PAVPlugInFactory@@@std@@HU12@UFactoryPtrComparator@@@std@@YAXPAU?$pair@V?$basic_string@DU?$char_traits@D@std@@V?$allocator@D@2@@std@@PAVPlugInFactory@@@0@HHU10@UFactoryPtrComparator@@@Z$0 1002cba0 f   ModuleManager.obj
 0001:0002bba8       __unwindfunclet$??$_Adjust_heap@PAU?$pair@V?$basic_string@DU?$char_traits@D@std@@V?$allocator@D@2@@std@@PAVPlugInFactory@@@std@@HU12@UFactoryPtrComparator@@@std@@YAXPAU?$pair@V?$basic_string@DU?$char_traits@D@std@@V?$allocator@D@2@@std@@PAVPlugInFactory@@@0@HHU10@UFactoryPtrComparator@@@Z$1 1002cba8 f   ModuleManager.obj
 0001:0002bbb0       __ehhandler$??$_Adjust_heap@PAU?$pair@V?$basic_string@DU?$char_traits@D@std@@V?$allocator@D@2@@std@@PAVPlugInFactory@@@std@@HU12@UFactoryPtrComparator@@@std@@YAXPAU?$pair@V?$basic_string@DU?$char_traits@D@std@@V?$allocator@D@2@@std@@PAVPlugInFactory@@@0@HHU10@UFactoryPtrComparator@@@Z 1002cbb0 f   ModuleManager.obj
 0001:0002bbc0       __unwindfunclet$??$_Pop_heap@PAU?$pair@V?$basic_string@DU?$char_traits@D@std@@V?$allocator@D@2@@std@@PAVPlugInFactory@@@std@@HU12@UFactoryPtrComparator@@@std@@YAXPAU?$pair@V?$basic_string@DU?$char_traits@D@std@@V?$allocator@D@2@@std@@PAVPlugInFactory@@@0@00U10@UFactoryPtrComparator@@PAH@Z$0 1002cbc0 f   ModuleManager.obj
 0001:0002bbc8       __ehhandler$??$_Pop_heap@PAU?$pair@V?$basic_string@DU?$char_traits@D@std@@V?$allocator@D@2@@std@@PAVPlugInFactory@@@std@@HU12@UFactoryPtrComparator@@@std@@YAXPAU?$pair@V?$basic_string@DU?$char_traits@D@std@@V?$allocator@D@2@@std@@PAVPlugInFactory@@@0@00U10@UFactoryPtrComparator@@PAH@Z 1002cbc8 f   ModuleManager.obj
 0001:0002bbe0       __unwindfunclet$??$_Unguarded_partition@PAU?$pair@V?$basic_string@DU?$char_traits@D@std@@V?$allocator@D@2@@std@@PAVPlugInFactory@@@std@@UFactoryPtrComparator@@@std@@YA?AU?$pair@PAU?$pair@V?$basic_string@DU?$char_traits@D@std@@V?$allocator@D@2@@std@@PAVPlugInFactory@@@std@@PAU12@@0@PAU?$pair@V?$basic_string@DU?$char_traits@D@std@@V?$allocator@D@2@@std@@PAVPlugInFactory@@@0@0UFactoryPtrComparator@@@Z$0 1002cbe0 f   ModuleManager.obj
 0001:0002bbe8       __unwindfunclet$??$_Unguarded_partition@PAU?$pair@V?$basic_string@DU?$char_traits@D@std@@V?$allocator@D@2@@std@@PAVPlugInFactory@@@std@@UFactoryPtrComparator@@@std@@YA?AU?$pair@PAU?$pair@V?$basic_string@DU?$char_traits@D@std@@V?$allocator@D@2@@std@@PAVPlugInFactory@@@std@@PAU12@@0@PAU?$pair@V?$basic_string@DU?$char_traits@D@std@@V?$allocator@D@2@@std@@PAVPlugInFactory@@@0@0UFactoryPtrComparator@@@Z$2 1002cbe8 f   ModuleManager.obj
 0001:0002bbf0       __unwindfunclet$??$_Unguarded_partition@PAU?$pair@V?$basic_string@DU?$char_traits@D@std@@V?$allocator@D@2@@std@@PAVPlugInFactory@@@std@@UFactoryPtrComparator@@@std@@YA?AU?$pair@PAU?$pair@V?$basic_string@DU?$char_traits@D@std@@V?$allocator@D@2@@std@@PAVPlugInFactory@@@std@@PAU12@@0@PAU?$pair@V?$basic_string@DU?$char_traits@D@std@@V?$allocator@D@2@@std@@PAVPlugInFactory@@@0@0UFactoryPtrComparator@@@Z$4 1002cbf0 f   ModuleManager.obj
 0001:0002bbf8       __unwindfunclet$??$_Unguarded_partition@PAU?$pair@V?$basic_string@DU?$char_traits@D@std@@V?$allocator@D@2@@std@@PAVPlugInFactory@@@std@@UFactoryPtrComparator@@@std@@YA?AU?$pair@PAU?$pair@V?$basic_string@DU?$char_traits@D@std@@V?$allocator@D@2@@std@@PAVPlugInFactory@@@std@@PAU12@@0@PAU?$pair@V?$basic_string@DU?$char_traits@D@std@@V?$allocator@D@2@@std@@PAVPlugInFactory@@@0@0UFactoryPtrComparator@@@Z$6 1002cbf8 f   ModuleManager.obj
 0001:0002bc00       __unwindfunclet$??$_Unguarded_partition@PAU?$pair@V?$basic_string@DU?$char_traits@D@std@@V?$allocator@D@2@@std@@PAVPlugInFactory@@@std@@UFactoryPtrComparator@@@std@@YA?AU?$pair@PAU?$pair@V?$basic_string@DU?$char_traits@D@std@@V?$allocator@D@2@@std@@PAVPlugInFactory@@@std@@PAU12@@0@PAU?$pair@V?$basic_string@DU?$char_traits@D@std@@V?$allocator@D@2@@std@@PAVPlugInFactory@@@0@0UFactoryPtrComparator@@@Z$8 1002cc00 f   ModuleManager.obj
 0001:0002bc08       __unwindfunclet$??$_Unguarded_partition@PAU?$pair@V?$basic_string@DU?$char_traits@D@std@@V?$allocator@D@2@@std@@PAVPlugInFactory@@@std@@UFactoryPtrComparator@@@std@@YA?AU?$pair@PAU?$pair@V?$basic_string@DU?$char_traits@D@std@@V?$allocator@D@2@@std@@PAVPlugInFactory@@@std@@PAU12@@0@PAU?$pair@V?$basic_string@DU?$char_traits@D@std@@V?$allocator@D@2@@std@@PAVPlugInFactory@@@0@0UFactoryPtrComparator@@@Z$10 1002cc08 f   ModuleManager.obj
 0001:0002bc10       __unwindfunclet$??$_Unguarded_partition@PAU?$pair@V?$basic_string@DU?$char_traits@D@std@@V?$allocator@D@2@@std@@PAVPlugInFactory@@@std@@UFactoryPtrComparator@@@std@@YA?AU?$pair@PAU?$pair@V?$basic_string@DU?$char_traits@D@std@@V?$allocator@D@2@@std@@PAVPlugInFactory@@@std@@PAU12@@0@PAU?$pair@V?$basic_string@DU?$char_traits@D@std@@V?$allocator@D@2@@std@@PAVPlugInFactory@@@0@0UFactoryPtrComparator@@@Z$12 1002cc10 f   ModuleManager.obj
 0001:0002bc18       __unwindfunclet$??$_Unguarded_partition@PAU?$pair@V?$basic_string@DU?$char_traits@D@std@@V?$allocator@D@2@@std@@PAVPlugInFactory@@@std@@UFactoryPtrComparator@@@std@@YA?AU?$pair@PAU?$pair@V?$basic_string@DU?$char_traits@D@std@@V?$allocator@D@2@@std@@PAVPlugInFactory@@@std@@PAU12@@0@PAU?$pair@V?$basic_string@DU?$char_traits@D@std@@V?$allocator@D@2@@std@@PAVPlugInFactory@@@0@0UFactoryPtrComparator@@@Z$14 1002cc18 f   ModuleManager.obj
 0001:0002bc20       __ehhandler$??$_Unguarded_partition@PAU?$pair@V?$basic_string@DU?$char_traits@D@std@@V?$allocator@D@2@@std@@PAVPlugInFactory@@@std@@UFactoryPtrComparator@@@std@@YA?AU?$pair@PAU?$pair@V?$basic_string@DU?$char_traits@D@std@@V?$allocator@D@2@@std@@PAVPlugInFactory@@@std@@PAU12@@0@PAU?$pair@V?$basic_string@DU?$char_traits@D@std@@V?$allocator@D@2@@std@@PAVPlugInFactory@@@0@0UFactoryPtrComparator@@@Z 1002cc20 f   ModuleManager.obj
 0001:0002bc30       __unwindfunclet$?_Insert_n@?$vector@U?$pair@V?$basic_string@DU?$char_traits@D@std@@V?$allocator@D@2@@std@@PAVPlugInFactory@@@std@@V?$allocator@U?$pair@V?$basic_string@DU?$char_traits@D@std@@V?$allocator@D@2@@std@@PAVPlugInFactory@@@std@@@2@@std@@IAEXV?$_Vector_iterator@U?$pair@V?$basic_string@DU?$char_traits@D@std@@V?$allocator@D@2@@std@@PAVPlugInFactory@@@std@@V?$allocator@U?$pair@V?$basic_string@DU?$char_traits@D@std@@V?$allocator@D@2@@std@@PAVPlugInFactory@@@std@@@2@@2@IABU?$pair@V?$basic_string@DU?$char_traits@D@std@@V?$allocator@D@2@@std@@PAVPlugInFactory@@@2@@Z$4 1002cc30 f   ModuleManager.obj
 0001:0002bc38       __ehhandler$?_Insert_n@?$vector@U?$pair@V?$basic_string@DU?$char_traits@D@std@@V?$allocator@D@2@@std@@PAVPlugInFactory@@@std@@V?$allocator@U?$pair@V?$basic_string@DU?$char_traits@D@std@@V?$allocator@D@2@@std@@PAVPlugInFactory@@@std@@@2@@std@@IAEXV?$_Vector_iterator@U?$pair@V?$basic_string@DU?$char_traits@D@std@@V?$allocator@D@2@@std@@PAVPlugInFactory@@@std@@V?$allocator@U?$pair@V?$basic_string@DU?$char_traits@D@std@@V?$allocator@D@2@@std@@PAVPlugInFactory@@@std@@@2@@2@IABU?$pair@V?$basic_string@DU?$char_traits@D@std@@V?$allocator@D@2@@std@@PAVPlugInFactory@@@2@@Z 1002cc38 f   ModuleManager.obj
 0001:0002bc50       __unwindfunclet$?factories@SpectralDataMerge@@YAAAV?$vector@U?$pair@V?$basic_string@DU?$char_traits@D@std@@V?$allocator@D@2@@std@@PAVPlugInFactory@@@std@@V?$allocator@U?$pair@V?$basic_string@DU?$char_traits@D@std@@V?$allocator@D@2@@std@@PAVPlugInFactory@@@std@@@2@@std@@XZ$0 1002cc50 f   ModuleManager.obj
 0001:0002bc5e       __ehhandler$?factories@SpectralDataMerge@@YAAAV?$vector@U?$pair@V?$basic_string@DU?$char_traits@D@std@@V?$allocator@D@2@@std@@PAVPlugInFactory@@@std@@V?$allocator@U?$pair@V?$basic_string@DU?$char_traits@D@std@@V?$allocator@D@2@@std@@PAVPlugInFactory@@@std@@@2@@std@@XZ 1002cc5e f   ModuleManager.obj
 0001:0002bc70       __unwindfunclet$?addFactory@SpectralDataMerge@@YAXPAVPlugInFactory@@@Z$0 1002cc70 f   ModuleManager.obj
 0001:0002bc78       __unwindfunclet$?addFactory@SpectralDataMerge@@YAXPAVPlugInFactory@@@Z$2 1002cc78 f   ModuleManager.obj
 0001:0002bc80       __unwindfunclet$?addFactory@SpectralDataMerge@@YAXPAVPlugInFactory@@@Z$3 1002cc80 f   ModuleManager.obj
 0001:0002bc8e       __ehhandler$?addFactory@SpectralDataMerge@@YAXPAVPlugInFactory@@@Z 1002cc8e f   ModuleManager.obj
 0001:0002bca0       __unwindfunclet$?_Xlen@?$vector@U?$pair@V?$basic_string@DU?$char_traits@D@std@@V?$allocator@D@2@@std@@VSlot@@@std@@V?$allocator@U?$pair@V?$basic_string@DU?$char_traits@D@std@@V?$allocator@D@2@@std@@VSlot@@@std@@@2@@std@@KAXXZ$0 1002cca0 f   PlugInLib:ViewerShell.obj
 0001:0002bca9       __unwindfunclet$?_Xlen@?$vector@U?$pair@V?$basic_string@DU?$char_traits@D@std@@V?$allocator@D@2@@std@@VSlot@@@std@@V?$allocator@U?$pair@V?$basic_string@DU?$char_traits@D@std@@V?$allocator@D@2@@std@@VSlot@@@std@@@2@@std@@KAXXZ$2 1002cca9 f   PlugInLib:ViewerShell.obj
 0001:0002bcb2       __ehhandler$?_Xlen@?$vector@U?$pair@V?$basic_string@DU?$char_traits@D@std@@V?$allocator@D@2@@std@@VSlot@@@std@@V?$allocator@U?$pair@V?$basic_string@DU?$char_traits@D@std@@V?$allocator@D@2@@std@@VSlot@@@std@@@2@@std@@KAXXZ 1002ccb2 f   PlugInLib:ViewerShell.obj
 0001:0002bcc0       __unwindfunclet$?update@?$SlotValue@VViewerShell@@@Slot@@UBEXAAVSubject@@ABV?$basic_string@DU?$char_traits@D@std@@V?$allocator@D@2@@std@@ABVany@boost@@@Z$0 1002ccc0 f   PlugInLib:ViewerShell.obj
 0001:0002bcc9       __ehhandler$?update@?$SlotValue@VViewerShell@@@Slot@@UBEXAAVSubject@@ABV?$basic_string@DU?$char_traits@D@std@@V?$allocator@D@2@@std@@ABVany@boost@@@Z 1002ccc9 f   PlugInLib:ViewerShell.obj
 0001:0002bce0       __unwindfunclet$?update@?$SlotValue@V?$SafePtr@VApplicationServices@@@@@Slot@@UBEXAAVSubject@@ABV?$basic_string@DU?$char_traits@D@std@@V?$allocator@D@2@@std@@ABVany@boost@@@Z$0 1002cce0 f   PlugInLib:ViewerShell.obj
 0001:0002bce9       __ehhandler$?update@?$SlotValue@V?$SafePtr@VApplicationServices@@@@@Slot@@UBEXAAVSubject@@ABV?$basic_string@DU?$char_traits@D@std@@V?$allocator@D@2@@std@@ABVany@boost@@@Z 1002cce9 f   PlugInLib:ViewerShell.obj
 0001:0002bd00       __unwindfunclet$?signalDeleted@Subject@@SAABV?$basic_string@DU?$char_traits@D@std@@V?$allocator@D@2@@std@@XZ$0 1002cd00 f   PlugInLib:ViewerShell.obj
 0001:0002bd0e       __ehhandler$?signalDeleted@Subject@@SAABV?$basic_string@DU?$char_traits@D@std@@V?$allocator@D@2@@std@@XZ 1002cd0e f   PlugInLib:ViewerShell.obj
 0001:0002bd20       __unwindfunclet$?signalSessionClosed@ApplicationServices@@SAABV?$basic_string@DU?$char_traits@D@std@@V?$allocator@D@2@@std@@XZ$0 1002cd20 f   PlugInLib:ViewerShell.obj
 0001:0002bd2e       __ehhandler$?signalSessionClosed@ApplicationServices@@SAABV?$basic_string@DU?$char_traits@D@std@@V?$allocator@D@2@@std@@XZ 1002cd2e f   PlugInLib:ViewerShell.obj
 0001:0002bd40       __unwindfunclet$?abort@ViewerShell@@UAE_NXZ$0 1002cd40 f   PlugInLib:ViewerShell.obj
 0001:0002bd4b       __ehhandler$?abort@ViewerShell@@UAE_NXZ 1002cd4b f   PlugInLib:ViewerShell.obj
 0001:0002bd60       __unwindfunclet$??0?$pair@V?$basic_string@DU?$char_traits@D@std@@V?$allocator@D@2@@std@@VSlot@@@std@@QAE@ABU01@@Z$0 1002cd60 f   PlugInLib:ViewerShell.obj
 0001:0002bd69       __ehhandler$??0?$pair@V?$basic_string@DU?$char_traits@D@std@@V?$allocator@D@2@@std@@VSlot@@@std@@QAE@ABU01@@Z 1002cd69 f   PlugInLib:ViewerShell.obj
 0001:0002bd80       __unwindfunclet$??0?$pair@V?$basic_string@DU?$char_traits@D@std@@V?$allocator@D@2@@std@@VSlot@@@std@@QAE@ABV?$basic_string@DU?$char_traits@D@std@@V?$allocator@D@2@@1@ABVSlot@@@Z$0 1002cd80 f   PlugInLib:ViewerShell.obj
 0001:0002bd89       __ehhandler$??0?$pair@V?$basic_string@DU?$char_traits@D@std@@V?$allocator@D@2@@std@@VSlot@@@std@@QAE@ABV?$basic_string@DU?$char_traits@D@std@@V?$allocator@D@2@@1@ABVSlot@@@Z 1002cd89 f   PlugInLib:ViewerShell.obj
 0001:0002bda0       __unwindfunclet$??$_Construct@U?$pair@V?$basic_string@DU?$char_traits@D@std@@V?$allocator@D@2@@std@@VSlot@@@std@@U12@@std@@YAXPAU?$pair@V?$basic_string@DU?$char_traits@D@std@@V?$allocator@D@2@@std@@VSlot@@@0@ABU10@@Z$0 1002cda0 f   PlugInLib:ViewerShell.obj
 0001:0002bdb1       __ehhandler$??$_Construct@U?$pair@V?$basic_string@DU?$char_traits@D@std@@V?$allocator@D@2@@std@@VSlot@@@std@@U12@@std@@YAXPAU?$pair@V?$basic_string@DU?$char_traits@D@std@@V?$allocator@D@2@@std@@VSlot@@@0@ABU10@@Z 1002cdb1 f   PlugInLib:ViewerShell.obj
 0001:0002bdc0       __unwindfunclet$?detachFromDeleted@?$SafePtr@VApplicationServices@@@@AAEXXZ$0 1002cdc0 f   PlugInLib:ViewerShell.obj
 0001:0002bdc8       __ehhandler$?detachFromDeleted@?$SafePtr@VApplicationServices@@@@AAEXXZ 1002cdc8 f   PlugInLib:ViewerShell.obj
 0001:0002bde0       __unwindfunclet$?attachToDeleted@?$SafePtr@VApplicationServices@@@@AAEXXZ$0 1002cde0 f   PlugInLib:ViewerShell.obj
 0001:0002bde8       __ehhandler$?attachToDeleted@?$SafePtr@VApplicationServices@@@@AAEXXZ 1002cde8 f   PlugInLib:ViewerShell.obj
 0001:0002be00       __unwindfunclet$??$make_pair@V?$basic_string@DU?$char_traits@D@std@@V?$allocator@D@2@@std@@VSlot@@@std@@YA?AU?$pair@V?$basic_string@DU?$char_traits@D@std@@V?$allocator@D@2@@std@@VSlot@@@0@V?$basic_string@DU?$char_traits@D@std@@V?$allocator@D@2@@0@VSlot@@@Z$0 1002ce00 f   PlugInLib:ViewerShell.obj
 0001:0002be08       __unwindfunclet$??$make_pair@V?$basic_string@DU?$char_traits@D@std@@V?$allocator@D@2@@std@@VSlot@@@std@@YA?AU?$pair@V?$basic_string@DU?$char_traits@D@std@@V?$allocator@D@2@@std@@VSlot@@@0@V?$basic_string@DU?$char_traits@D@std@@V?$allocator@D@2@@0@VSlot@@@Z$1 1002ce08 f   PlugInLib:ViewerShell.obj
 0001:0002be11       __unwindfunclet$??$make_pair@V?$basic_string@DU?$char_traits@D@std@@V?$allocator@D@2@@std@@VSlot@@@std@@YA?AU?$pair@V?$basic_string@DU?$char_traits@D@std@@V?$allocator@D@2@@std@@VSlot@@@0@V?$basic_string@DU?$char_traits@D@std@@V?$allocator@D@2@@0@VSlot@@@Z$2 1002ce11 f   PlugInLib:ViewerShell.obj
 0001:0002be2a       __ehhandler$??$make_pair@V?$basic_string@DU?$char_traits@D@std@@V?$allocator@D@2@@std@@VSlot@@@std@@YA?AU?$pair@V?$basic_string@DU?$char_traits@D@std@@V?$allocator@D@2@@std@@VSlot@@@0@V?$basic_string@DU?$char_traits@D@std@@V?$allocator@D@2@@0@VSlot@@@Z 1002ce2a f   PlugInLib:ViewerShell.obj
 0001:0002be40       __unwindfunclet$?construct@?$allocator@U?$pair@V?$basic_string@DU?$char_traits@D@std@@V?$allocator@D@2@@std@@VSlot@@@std@@@std@@QAEXPAU?$pair@V?$basic_string@DU?$char_traits@D@std@@V?$allocator@D@2@@std@@VSlot@@@2@ABU32@@Z$0 1002ce40 f   PlugInLib:ViewerShell.obj
 0001:0002be51       __ehhandler$?construct@?$allocator@U?$pair@V?$basic_string@DU?$char_traits@D@std@@V?$allocator@D@2@@std@@VSlot@@@std@@@std@@QAEXPAU?$pair@V?$basic_string@DU?$char_traits@D@std@@V?$allocator@D@2@@std@@VSlot@@@2@ABU32@@Z 1002ce51 f   PlugInLib:ViewerShell.obj
 0001:0002be60       __unwindfunclet$??$_Uninit_copy@PAU?$pair@V?$basic_string@DU?$char_traits@D@std@@V?$allocator@D@2@@std@@VSlot@@@std@@PAU12@V?$allocator@U?$pair@V?$basic_string@DU?$char_traits@D@std@@V?$allocator@D@2@@std@@VSlot@@@std@@@2@@std@@YAPAU?$pair@V?$basic_string@DU?$char_traits@D@std@@V?$allocator@D@2@@std@@VSlot@@@0@PAU10@00AAV?$allocator@U?$pair@V?$basic_string@DU?$char_traits@D@std@@V?$allocator@D@2@@std@@VSlot@@@std@@@0@U_Nonscalar_ptr_iterator_tag@0@U_Range_checked_iterator_tag@0@@Z$2 1002ce60 f   PlugInLib:ViewerShell.obj
 0001:0002be71       __unwindfunclet$??$_Uninit_copy@PAU?$pair@V?$basic_string@DU?$char_traits@D@std@@V?$allocator@D@2@@std@@VSlot@@@std@@PAU12@V?$allocator@U?$pair@V?$basic_string@DU?$char_traits@D@std@@V?$allocator@D@2@@std@@VSlot@@@std@@@2@@std@@YAPAU?$pair@V?$basic_string@DU?$char_traits@D@std@@V?$allocator@D@2@@std@@VSlot@@@0@PAU10@00AAV?$allocator@U?$pair@V?$basic_string@DU?$char_traits@D@std@@V?$allocator@D@2@@std@@VSlot@@@std@@@0@U_Nonscalar_ptr_iterator_tag@0@U_Range_checked_iterator_tag@0@@Z$3 1002ce71 f   PlugInLib:ViewerShell.obj
 0001:0002be7a       __ehhandler$??$_Uninit_copy@PAU?$pair@V?$basic_string@DU?$char_traits@D@std@@V?$allocator@D@2@@std@@VSlot@@@std@@PAU12@V?$allocator@U?$pair@V?$basic_string@DU?$char_traits@D@std@@V?$allocator@D@2@@std@@VSlot@@@std@@@2@@std@@YAPAU?$pair@V?$basic_string@DU?$char_traits@D@std@@V?$allocator@D@2@@std@@VSlot@@@0@PAU10@00AAV?$allocator@U?$pair@V?$basic_string@DU?$char_traits@D@std@@V?$allocator@D@2@@std@@VSlot@@@std@@@0@U_Nonscalar_ptr_iterator_tag@0@U_Range_checked_iterator_tag@0@@Z 1002ce7a f   PlugInLib:ViewerShell.obj
 0001:0002be90       __unwindfunclet$??$_Uninit_fill_n@PAU?$pair@V?$basic_string@DU?$char_traits@D@std@@V?$allocator@D@2@@std@@VSlot@@@std@@IU12@V?$allocator@U?$pair@V?$basic_string@DU?$char_traits@D@std@@V?$allocator@D@2@@std@@VSlot@@@std@@@2@@std@@YAXPAU?$pair@V?$basic_string@DU?$char_traits@D@std@@V?$allocator@D@2@@std@@VSlot@@@0@IABU10@AAV?$allocator@U?$pair@V?$basic_string@DU?$char_traits@D@std@@V?$allocator@D@2@@std@@VSlot@@@std@@@0@U_Nonscalar_ptr_iterator_tag@0@U_Range_checked_iterator_tag@0@@Z$2 1002ce90 f   PlugInLib:ViewerShell.obj
 0001:0002bea1       __unwindfunclet$??$_Uninit_fill_n@PAU?$pair@V?$basic_string@DU?$char_traits@D@std@@V?$allocator@D@2@@std@@VSlot@@@std@@IU12@V?$allocator@U?$pair@V?$basic_string@DU?$char_traits@D@std@@V?$allocator@D@2@@std@@VSlot@@@std@@@2@@std@@YAXPAU?$pair@V?$basic_string@DU?$char_traits@D@std@@V?$allocator@D@2@@std@@VSlot@@@0@IABU10@AAV?$allocator@U?$pair@V?$basic_string@DU?$char_traits@D@std@@V?$allocator@D@2@@std@@VSlot@@@std@@@0@U_Nonscalar_ptr_iterator_tag@0@U_Range_checked_iterator_tag@0@@Z$3 1002cea1 f   PlugInLib:ViewerShell.obj
 0001:0002beaa       __ehhandler$??$_Uninit_fill_n@PAU?$pair@V?$basic_string@DU?$char_traits@D@std@@V?$allocator@D@2@@std@@VSlot@@@std@@IU12@V?$allocator@U?$pair@V?$basic_string@DU?$char_traits@D@std@@V?$allocator@D@2@@std@@VSlot@@@std@@@2@@std@@YAXPAU?$pair@V?$basic_string@DU?$char_traits@D@std@@V?$allocator@D@2@@std@@VSlot@@@0@IABU10@AAV?$allocator@U?$pair@V?$basic_string@DU?$char_traits@D@std@@V?$allocator@D@2@@std@@VSlot@@@std@@@0@U_Nonscalar_ptr_iterator_tag@0@U_Range_checked_iterator_tag@0@@Z 1002ceaa f   PlugInLib:ViewerShell.obj
 0001:0002bec0       __unwindfunclet$?_Insert_n@?$vector@U?$pair@V?$basic_string@DU?$char_traits@D@std@@V?$allocator@D@2@@std@@VSlot@@@std@@V?$allocator@U?$pair@V?$basic_string@DU?$char_traits@D@std@@V?$allocator@D@2@@std@@VSlot@@@std@@@2@@std@@IAEXV?$_Vector_iterator@U?$pair@V?$basic_string@DU?$char_traits@D@std@@V?$allocator@D@2@@std@@VSlot@@@std@@V?$allocator@U?$pair@V?$basic_string@DU?$char_traits@D@std@@V?$allocator@D@2@@std@@VSlot@@@std@@@2@@2@IABU?$pair@V?$basic_string@DU?$char_traits@D@std@@V?$allocator@D@2@@std@@VSlot@@@2@@Z$4 1002cec0 f   PlugInLib:ViewerShell.obj
 0001:0002bec8       __ehhandler$?_Insert_n@?$vector@U?$pair@V?$basic_string@DU?$char_traits@D@std@@V?$allocator@D@2@@std@@VSlot@@@std@@V?$allocator@U?$pair@V?$basic_string@DU?$char_traits@D@std@@V?$allocator@D@2@@std@@VSlot@@@std@@@2@@std@@IAEXV?$_Vector_iterator@U?$pair@V?$basic_string@DU?$char_traits@D@std@@V?$allocator@D@2@@std@@VSlot@@@std@@V?$allocator@U?$pair@V?$basic_string@DU?$char_traits@D@std@@V?$allocator@D@2@@std@@VSlot@@@std@@@2@@2@IABU?$pair@V?$basic_string@DU?$char_traits@D@std@@V?$allocator@D@2@@std@@VSlot@@@2@@Z 1002cec8 f   PlugInLib:ViewerShell.obj
 0001:0002bee0       __unwindfunclet$??0?$AttachmentPtr@VApplicationServices@@@@QAE@XZ$0 1002cee0 f   PlugInLib:ViewerShell.obj
 0001:0002bee8       __ehhandler$??0?$AttachmentPtr@VApplicationServices@@@@QAE@XZ 1002cee8 f   PlugInLib:ViewerShell.obj
 0001:0002bf00       __unwindfunclet$??1?$AttachmentPtr@VApplicationServices@@@@UAE@XZ$0 1002cf00 f   PlugInLib:ViewerShell.obj
 0001:0002bf08       __unwindfunclet$??1?$AttachmentPtr@VApplicationServices@@@@UAE@XZ$1 1002cf08 f   PlugInLib:ViewerShell.obj
 0001:0002bf13       __ehhandler$??1?$AttachmentPtr@VApplicationServices@@@@UAE@XZ 1002cf13 f   PlugInLib:ViewerShell.obj
 0001:0002bf20       __unwindfunclet$??1ViewerShell@@UAE@XZ$0 1002cf20 f   PlugInLib:ViewerShell.obj
 0001:0002bf28       __ehhandler$??1ViewerShell@@UAE@XZ 1002cf28 f   PlugInLib:ViewerShell.obj
 0001:0002bf40       __unwindfunclet$?addSignal@?$AttachmentPtr@VApplicationServices@@@@QAEXABV?$basic_string@DU?$char_traits@D@std@@V?$allocator@D@2@@std@@ABVSlot@@@Z$0 1002cf40 f   PlugInLib:ViewerShell.obj
 0001:0002bf48       __unwindfunclet$?addSignal@?$AttachmentPtr@VApplicationServices@@@@QAEXABV?$basic_string@DU?$char_traits@D@std@@V?$allocator@D@2@@std@@ABVSlot@@@Z$2 1002cf48 f   PlugInLib:ViewerShell.obj
 0001:0002bf50       __ehhandler$?addSignal@?$AttachmentPtr@VApplicationServices@@@@QAEXABV?$basic_string@DU?$char_traits@D@std@@V?$allocator@D@2@@std@@ABVSlot@@@Z 1002cf50 f   PlugInLib:ViewerShell.obj
 0001:0002bf60       __unwindfunclet$??0ViewerShell@@QAE@XZ$0 1002cf60 f   PlugInLib:ViewerShell.obj
 0001:0002bf68       __unwindfunclet$??0ViewerShell@@QAE@XZ$4 1002cf68 f   PlugInLib:ViewerShell.obj
 0001:0002bf70       __unwindfunclet$??0ViewerShell@@QAE@XZ$1 1002cf70 f   PlugInLib:ViewerShell.obj
 0001:0002bf7e       __unwindfunclet$??0ViewerShell@@QAE@XZ$2 1002cf7e f   PlugInLib:ViewerShell.obj
 0001:0002bf87       __unwindfunclet$??0ViewerShell@@QAE@XZ$3 1002cf87 f   PlugInLib:ViewerShell.obj
 0001:0002bf8f       __ehhandler$??0ViewerShell@@QAE@XZ 1002cf8f f   PlugInLib:ViewerShell.obj
 0001:0002bfa0       __unwindfunclet$??0ExecutableShell@@QAE@XZ$0 1002cfa0 f   PlugInLib:ExecutableShell.obj
 0001:0002bfa8       __unwindfunclet$??0ExecutableShell@@QAE@XZ$1 1002cfa8 f   PlugInLib:ExecutableShell.obj
 0001:0002bfb3       __ehhandler$??0ExecutableShell@@QAE@XZ 1002cfb3 f   PlugInLib:ExecutableShell.obj
 0001:0002bfc0       __unwindfunclet$??1ExecutableShell@@UAE@XZ$0 1002cfc0 f   PlugInLib:ExecutableShell.obj
 0001:0002bfc8       __unwindfunclet$??1ExecutableShell@@UAE@XZ$1 1002cfc8 f   PlugInLib:ExecutableShell.obj
 0001:0002bfef       __ehhandler$??1ExecutableShell@@UAE@XZ 1002cfef f   PlugInLib:ExecutableShell.obj
 0001:0002c000       __unwindfunclet$??1?$pair@$$CBV?$basic_string@DU?$char_traits@D@std@@V?$allocator@D@2@@std@@V12@@std@@QAE@XZ$0 1002d000 f   PlugInLib:PlugInShell.obj
 0001:0002c009       __ehhandler$??1?$pair@$$CBV?$basic_string@DU?$char_traits@D@std@@V?$allocator@D@2@@std@@V12@@std@@QAE@XZ 1002d009 f   PlugInLib:PlugInShell.obj
 0001:0002c020       __unwindfunclet$??0?$pair@$$CBV?$basic_string@DU?$char_traits@D@std@@V?$allocator@D@2@@std@@V12@@std@@QAE@ABV?$basic_string@DU?$char_traits@D@std@@V?$allocator@D@2@@1@0@Z$0 1002d020 f   PlugInLib:PlugInShell.obj
 0001:0002c029       __ehhandler$??0?$pair@$$CBV?$basic_string@DU?$char_traits@D@std@@V?$allocator@D@2@@std@@V12@@std@@QAE@ABV?$basic_string@DU?$char_traits@D@std@@V?$allocator@D@2@@1@0@Z 1002d029 f   PlugInLib:PlugInShell.obj
 0001:0002c040       __unwindfunclet$??0?$pair@$$CBV?$basic_string@DU?$char_traits@D@std@@V?$allocator@D@2@@std@@V12@@std@@QAE@ABU01@@Z$0 1002d040 f   PlugInLib:PlugInShell.obj
 0001:0002c049       __ehhandler$??0?$pair@$$CBV?$basic_string@DU?$char_traits@D@std@@V?$allocator@D@2@@std@@V12@@std@@QAE@ABU01@@Z 1002d049 f   PlugInLib:PlugInShell.obj
 0001:0002c060       __unwindfunclet$??1ContextMenuAction@@QAE@XZ$0 1002d060 f   PlugInLib:PlugInShell.obj
 0001:0002c06c       __ehhandler$??1ContextMenuAction@@QAE@XZ 1002d06c f   PlugInLib:PlugInShell.obj
 0001:0002c080       __unwindfunclet$??0?$Resource@VSettableSessionItem@@VFactoryObject@@@@QAE@ABVArgs@FactoryAllocator@@@Z$0 1002d080 f   PlugInLib:PlugInShell.obj
 0001:0002c08b       __ehhandler$??0?$Resource@VSettableSessionItem@@VFactoryObject@@@@QAE@ABVArgs@FactoryAllocator@@@Z 1002d08b f   PlugInLib:PlugInShell.obj
 0001:0002c0a0       __unwindfunclet$??1?$Resource@VSettableSessionItem@@VFactoryObject@@@@UAE@XZ$0 1002d0a0 f   PlugInLib:PlugInShell.obj
 0001:0002c0ab       __ehhandler$??1?$Resource@VSettableSessionItem@@VFactoryObject@@@@UAE@XZ 1002d0ab f   PlugInLib:PlugInShell.obj
 0001:0002c0c0       __unwindfunclet$?_Buynode@?$_Tree@V?$_Tmap_traits@V?$basic_string@DU?$char_traits@D@std@@V?$allocator@D@2@@std@@V12@U?$less@V?$basic_string@DU?$char_traits@D@std@@V?$allocator@D@2@@std@@@2@V?$allocator@U?$pair@$$CBV?$basic_string@DU?$char_traits@D@std@@V?$allocator@D@2@@std@@V12@@std@@@2@$0A@@std@@@std@@IAEPAU_Node@?$_Tree_nod@V?$_Tmap_traits@V?$basic_string@DU?$char_traits@D@std@@V?$allocator@D@2@@std@@V12@U?$less@V?$basic_string@DU?$char_traits@D@std@@V?$allocator@D@2@@std@@@2@V?$allocator@U?$pair@$$CBV?$basic_string@DU?$char_traits@D@std@@V?$allocator@D@2@@std@@V12@@std@@@2@$0A@@std@@@2@PAU342@00ABU?$pair@$$CBV?$basic_string@DU?$char_traits@D@std@@V?$allocator@D@2@@std@@V12@@2@D@Z$2 1002d0c0 f   PlugInLib:PlugInShell.obj
 0001:0002c0d1       __ehhandler$?_Buynode@?$_Tree@V?$_Tmap_traits@V?$basic_string@DU?$char_traits@D@std@@V?$allocator@D@2@@std@@V12@U?$less@V?$basic_string@DU?$char_traits@D@std@@V?$allocator@D@2@@std@@@2@V?$allocator@U?$pair@$$CBV?$basic_string@DU?$char_traits@D@std@@V?$allocator@D@2@@std@@V12@@std@@@2@$0A@@std@@@std@@IAEPAU_Node@?$_Tree_nod@V?$_Tmap_traits@V?$basic_string@DU?$char_traits@D@std@@V?$allocator@D@2@@std@@V12@U?$less@V?$basic_string@DU?$char_traits@D@std@@V?$allocator@D@2@@std@@@2@V?$allocator@U?$pair@$$CBV?$basic_string@DU?$char_traits@D@std@@V?$allocator@D@2@@std@@V12@@std@@@2@$0A@@std@@@2@PAU342@00ABU?$pair@$$CBV?$basic_string@DU?$char_traits@D@std@@V?$allocator@D@2@@std@@V12@@2@D@Z 1002d0d1 f   PlugInLib:PlugInShell.obj
 0001:0002c0e0       __unwindfunclet$??0?$FactoryResource@VSettableSessionItem@@@@QAE@XZ$0 1002d0e0 f   PlugInLib:PlugInShell.obj
 0001:0002c0e8       __unwindfunclet$??0?$FactoryResource@VSettableSessionItem@@@@QAE@XZ$1 1002d0e8 f   PlugInLib:PlugInShell.obj
 0001:0002c0f0       __ehhandler$??0?$FactoryResource@VSettableSessionItem@@@@QAE@XZ 1002d0f0 f   PlugInLib:PlugInShell.obj
 0001:0002c100       __unwindfunclet$?_Insert@?$_Tree@V?$_Tmap_traits@V?$basic_string@DU?$char_traits@D@std@@V?$allocator@D@2@@std@@V12@U?$less@V?$basic_string@DU?$char_traits@D@std@@V?$allocator@D@2@@std@@@2@V?$allocator@U?$pair@$$CBV?$basic_string@DU?$char_traits@D@std@@V?$allocator@D@2@@std@@V12@@std@@@2@$0A@@std@@@std@@IAE?AViterator@12@_NPAU_Node@?$_Tree_nod@V?$_Tmap_traits@V?$basic_string@DU?$char_traits@D@std@@V?$allocator@D@2@@std@@V12@U?$less@V?$basic_string@DU?$char_traits@D@std@@V?$allocator@D@2@@std@@@2@V?$allocator@U?$pair@$$CBV?$basic_string@DU?$char_traits@D@std@@V?$allocator@D@2@@std@@V12@@std@@@2@$0A@@std@@@2@ABU?$pair@$$CBV?$basic_string@DU?$char_traits@D@std@@V?$allocator@D@2@@std@@V12@@2@@Z$0 1002d100 f   PlugInLib:PlugInShell.obj
 0001:0002c109       __unwindfunclet$?_Insert@?$_Tree@V?$_Tmap_traits@V?$basic_string@DU?$char_traits@D@std@@V?$allocator@D@2@@std@@V12@U?$less@V?$basic_string@DU?$char_traits@D@std@@V?$allocator@D@2@@std@@@2@V?$allocator@U?$pair@$$CBV?$basic_string@DU?$char_traits@D@std@@V?$allocator@D@2@@std@@V12@@std@@@2@$0A@@std@@@std@@IAE?AViterator@12@_NPAU_Node@?$_Tree_nod@V?$_Tmap_traits@V?$basic_string@DU?$char_traits@D@std@@V?$allocator@D@2@@std@@V12@U?$less@V?$basic_string@DU?$char_traits@D@std@@V?$allocator@D@2@@std@@@2@V?$allocator@U?$pair@$$CBV?$basic_string@DU?$char_traits@D@std@@V?$allocator@D@2@@std@@V12@@std@@@2@$0A@@std@@@2@ABU?$pair@$$CBV?$basic_string@DU?$char_traits@D@std@@V?$allocator@D@2@@std@@V12@@2@@Z$2 1002d109 f   PlugInLib:PlugInShell.obj
 0001:0002c112       __ehhandler$?_Insert@?$_Tree@V?$_Tmap_traits@V?$basic_string@DU?$char_traits@D@std@@V?$allocator@D@2@@std@@V12@U?$less@V?$basic_string@DU?$char_traits@D@std@@V?$allocator@D@2@@std@@@2@V?$allocator@U?$pair@$$CBV?$basic_string@DU?$char_traits@D@std@@V?$allocator@D@2@@std@@V12@@std@@@2@$0A@@std@@@std@@IAE?AViterator@12@_NPAU_Node@?$_Tree_nod@V?$_Tmap_traits@V?$basic_string@DU?$char_traits@D@std@@V?$allocator@D@2@@std@@V12@U?$less@V?$basic_string@DU?$char_traits@D@std@@V?$allocator@D@2@@std@@@2@V?$allocator@U?$pair@$$CBV?$basic_string@DU?$char_traits@D@std@@V?$allocator@D@2@@std@@V12@@std@@@2@$0A@@std@@@2@ABU?$pair@$$CBV?$basic_string@DU?$char_traits@D@std@@V?$allocator@D@2@@std@@V12@@2@@Z 1002d112 f   PlugInLib:PlugInShell.obj
 0001:0002c120       __unwindfunclet$?_Erase@?$_Tree@V?$_Tmap_traits@V?$basic_string@DU?$char_traits@D@std@@V?$allocator@D@2@@std@@V12@U?$less@V?$basic_string@DU?$char_traits@D@std@@V?$allocator@D@2@@std@@@2@V?$allocator@U?$pair@$$CBV?$basic_string@DU?$char_traits@D@std@@V?$allocator@D@2@@std@@V12@@std@@@2@$0A@@std@@@std@@IAEXPAU_Node@?$_Tree_nod@V?$_Tmap_traits@V?$basic_string@DU?$char_traits@D@std@@V?$allocator@D@2@@std@@V12@U?$less@V?$basic_string@DU?$char_traits@D@std@@V?$allocator@D@2@@std@@@2@V?$allocator@U?$pair@$$CBV?$basic_string@DU?$char_traits@D@std@@V?$allocator@D@2@@std@@V12@@std@@@2@$0A@@std@@@2@@Z$1 1002d120 f   PlugInLib:PlugInShell.obj
 0001:0002c129       __ehhandler$?_Erase@?$_Tree@V?$_Tmap_traits@V?$basic_string@DU?$char_traits@D@std@@V?$allocator@D@2@@std@@V12@U?$less@V?$basic_string@DU?$char_traits@D@std@@V?$allocator@D@2@@std@@@2@V?$allocator@U?$pair@$$CBV?$basic_string@DU?$char_traits@D@std@@V?$allocator@D@2@@std@@V12@@std@@@2@$0A@@std@@@std@@IAEXPAU_Node@?$_Tree_nod@V?$_Tmap_traits@V?$basic_string@DU?$char_traits@D@std@@V?$allocator@D@2@@std@@V12@U?$less@V?$basic_string@DU?$char_traits@D@std@@V?$allocator@D@2@@std@@@2@V?$allocator@U?$pair@$$CBV?$basic_string@DU?$char_traits@D@std@@V?$allocator@D@2@@std@@V12@@std@@@2@$0A@@std@@@2@@Z 1002d129 f   PlugInLib:PlugInShell.obj
 0001:0002c140       __unwindfunclet$?erase@?$_Tree@V?$_Tmap_traits@V?$basic_string@DU?$char_traits@D@std@@V?$allocator@D@2@@std@@V12@U?$less@V?$basic_string@DU?$char_traits@D@std@@V?$allocator@D@2@@std@@@2@V?$allocator@U?$pair@$$CBV?$basic_string@DU?$char_traits@D@std@@V?$allocator@D@2@@std@@V12@@std@@@2@$0A@@std@@@std@@QAE?AViterator@12@V312@@Z$0 1002d140 f   PlugInLib:PlugInShell.obj
 0001:0002c149       __unwindfunclet$?erase@?$_Tree@V?$_Tmap_traits@V?$basic_string@DU?$char_traits@D@std@@V?$allocator@D@2@@std@@V12@U?$less@V?$basic_string@DU?$char_traits@D@std@@V?$allocator@D@2@@std@@@2@V?$allocator@U?$pair@$$CBV?$basic_string@DU?$char_traits@D@std@@V?$allocator@D@2@@std@@V12@@std@@@2@$0A@@std@@@std@@QAE?AViterator@12@V312@@Z$2 1002d149 f   PlugInLib:PlugInShell.obj
 0001:0002c152       __unwindfunclet$?erase@?$_Tree@V?$_Tmap_traits@V?$basic_string@DU?$char_traits@D@std@@V?$allocator@D@2@@std@@V12@U?$less@V?$basic_string@DU?$char_traits@D@std@@V?$allocator@D@2@@std@@@2@V?$allocator@U?$pair@$$CBV?$basic_string@DU?$char_traits@D@std@@V?$allocator@D@2@@std@@V12@@std@@@2@$0A@@std@@@std@@QAE?AViterator@12@V312@@Z$5 1002d152 f   PlugInLib:PlugInShell.obj
 0001:0002c15b       __ehhandler$?erase@?$_Tree@V?$_Tmap_traits@V?$basic_string@DU?$char_traits@D@std@@V?$allocator@D@2@@std@@V12@U?$less@V?$basic_string@DU?$char_traits@D@std@@V?$allocator@D@2@@std@@@2@V?$allocator@U?$pair@$$CBV?$basic_string@DU?$char_traits@D@std@@V?$allocator@D@2@@std@@V12@@std@@@2@$0A@@std@@@std@@QAE?AViterator@12@V312@@Z 1002d15b f   PlugInLib:PlugInShell.obj
 0001:0002c170       __ehhandler$?_Copy@?$_Tree@V?$_Tmap_traits@V?$basic_string@DU?$char_traits@D@std@@V?$allocator@D@2@@std@@V12@U?$less@V?$basic_string@DU?$char_traits@D@std@@V?$allocator@D@2@@std@@@2@V?$allocator@U?$pair@$$CBV?$basic_string@DU?$char_traits@D@std@@V?$allocator@D@2@@std@@V12@@std@@@2@$0A@@std@@@std@@IAEPAU_Node@?$_Tree_nod@V?$_Tmap_traits@V?$basic_string@DU?$char_traits@D@std@@V?$allocator@D@2@@std@@V12@U?$less@V?$basic_string@DU?$char_traits@D@std@@V?$allocator@D@2@@std@@@2@V?$allocator@U?$pair@$$CBV?$basic_string@DU?$char_traits@D@std@@V?$allocator@D@2@@std@@V12@@std@@@2@$0A@@std@@@2@PAU342@0@Z 1002d170 f   PlugInLib:PlugInShell.obj
 0001:0002c180       __unwindfunclet$?clear@?$list@UContextMenuAction@@V?$allocator@UContextMenuAction@@@std@@@std@@QAEXXZ$1 1002d180 f   PlugInLib:PlugInShell.obj
 0001:0002c18c       __ehhandler$?clear@?$list@UContextMenuAction@@V?$allocator@UContextMenuAction@@@std@@@std@@QAEXXZ 1002d18c f   PlugInLib:PlugInShell.obj
 0001:0002c1a0       __unwindfunclet$??A?$map@V?$basic_string@DU?$char_traits@D@std@@V?$allocator@D@2@@std@@V12@U?$less@V?$basic_string@DU?$char_traits@D@std@@V?$allocator@D@2@@std@@@2@V?$allocator@U?$pair@$$CBV?$basic_string@DU?$char_traits@D@std@@V?$allocator@D@2@@std@@V12@@std@@@2@@std@@QAEAAV?$basic_string@DU?$char_traits@D@std@@V?$allocator@D@2@@1@ABV21@@Z$0 1002d1a0 f   PlugInLib:PlugInShell.obj
 0001:0002c1a9       __unwindfunclet$??A?$map@V?$basic_string@DU?$char_traits@D@std@@V?$allocator@D@2@@std@@V12@U?$less@V?$basic_string@DU?$char_traits@D@std@@V?$allocator@D@2@@std@@@2@V?$allocator@U?$pair@$$CBV?$basic_string@DU?$char_traits@D@std@@V?$allocator@D@2@@std@@V12@@std@@@2@@std@@QAEAAV?$basic_string@DU?$char_traits@D@std@@V?$allocator@D@2@@1@ABV21@@Z$1 1002d1a9 f   PlugInLib:PlugInShell.obj
 0001:0002c1b1       __ehhandler$??A?$map@V?$basic_string@DU?$char_traits@D@std@@V?$allocator@D@2@@std@@V12@U?$less@V?$basic_string@DU?$char_traits@D@std@@V?$allocator@D@2@@std@@@2@V?$allocator@U?$pair@$$CBV?$basic_string@DU?$char_traits@D@std@@V?$allocator@D@2@@std@@V12@@std@@@2@@std@@QAEAAV?$basic_string@DU?$char_traits@D@std@@V?$allocator@D@2@@1@ABV21@@Z 1002d1b1 f   PlugInLib:PlugInShell.obj
 0001:0002c1c0       __ehhandler$??0?$_Tree@V?$_Tmap_traits@V?$basic_string@DU?$char_traits@D@std@@V?$allocator@D@2@@std@@V12@U?$less@V?$basic_string@DU?$char_traits@D@std@@V?$allocator@D@2@@std@@@2@V?$allocator@U?$pair@$$CBV?$basic_string@DU?$char_traits@D@std@@V?$allocator@D@2@@std@@V12@@std@@@2@$0A@@std@@@std@@QAE@ABV01@@Z 1002d1c0 f   PlugInLib:PlugInShell.obj
 0001:0002c1d0       __unwindfunclet$??1PlugInShell@@UAE@XZ$0 1002d1d0 f   PlugInLib:PlugInShell.obj
 0001:0002c1d8       __unwindfunclet$??1PlugInShell@@UAE@XZ$1 1002d1d8 f   PlugInLib:PlugInShell.obj
 0001:0002c1ff       __unwindfunclet$??1PlugInShell@@UAE@XZ$2 1002d1ff f   PlugInLib:PlugInShell.obj
 0001:0002c20a       __unwindfunclet$??1PlugInShell@@UAE@XZ$3 1002d20a f   PlugInLib:PlugInShell.obj
 0001:0002c216       __unwindfunclet$??1PlugInShell@@UAE@XZ$4 1002d216 f   PlugInLib:PlugInShell.obj
 0001:0002c222       __unwindfunclet$??1PlugInShell@@UAE@XZ$5 1002d222 f   PlugInLib:PlugInShell.obj
 0001:0002c22e       __unwindfunclet$??1PlugInShell@@UAE@XZ$6 1002d22e f   PlugInLib:PlugInShell.obj
 0001:0002c23c       __unwindfunclet$??1PlugInShell@@UAE@XZ$7 1002d23c f   PlugInLib:PlugInShell.obj
 0001:0002c24b       __unwindfunclet$??1PlugInShell@@UAE@XZ$8 1002d24b f   PlugInLib:PlugInShell.obj
 0001:0002c25a       __unwindfunclet$??1PlugInShell@@UAE@XZ$9 1002d25a f   PlugInLib:PlugInShell.obj
 0001:0002c269       __unwindfunclet$??1PlugInShell@@UAE@XZ$10 1002d269 f   PlugInLib:PlugInShell.obj
 0001:0002c278       __ehhandler$??1PlugInShell@@UAE@XZ 1002d278 f   PlugInLib:PlugInShell.obj
 0001:0002c290       __unwindfunclet$??0PlugInShell@@QAE@XZ$0 1002d290 f   PlugInLib:PlugInShell.obj
 0001:0002c298       __unwindfunclet$??0PlugInShell@@QAE@XZ$1 1002d298 f   PlugInLib:PlugInShell.obj
 0001:0002c2a3       __unwindfunclet$??0PlugInShell@@QAE@XZ$2 1002d2a3 f   PlugInLib:PlugInShell.obj
 0001:0002c2ae       __unwindfunclet$??0PlugInShell@@QAE@XZ$3 1002d2ae f   PlugInLib:PlugInShell.obj
 0001:0002c2ba       __unwindfunclet$??0PlugInShell@@QAE@XZ$4 1002d2ba f   PlugInLib:PlugInShell.obj
 0001:0002c2c6       __unwindfunclet$??0PlugInShell@@QAE@XZ$5 1002d2c6 f   PlugInLib:PlugInShell.obj
 0001:0002c2d2       __unwindfunclet$??0PlugInShell@@QAE@XZ$6 1002d2d2 f   PlugInLib:PlugInShell.obj
 0001:0002c2e0       __unwindfunclet$??0PlugInShell@@QAE@XZ$7 1002d2e0 f   PlugInLib:PlugInShell.obj
 0001:0002c2ef       __unwindfunclet$??0PlugInShell@@QAE@XZ$8 1002d2ef f   PlugInLib:PlugInShell.obj
 0001:0002c2fe       __unwindfunclet$??0PlugInShell@@QAE@XZ$9 1002d2fe f   PlugInLib:PlugInShell.obj
 0001:0002c30d       __unwindfunclet$??0PlugInShell@@QAE@XZ$10 1002d30d f   PlugInLib:PlugInShell.obj
 0001:0002c31c       __ehhandler$??0PlugInShell@@QAE@XZ 1002d31c f   PlugInLib:PlugInShell.obj
 0001:0002c330       __unwindfunclet$?get@?$Service@VSessionExplorer@@@@QBEPAVSessionExplorer@@XZ$0 1002d330 f   PlugInUtilities:Service.obj
 0001:0002c339       __unwindfunclet$?get@?$Service@VSessionExplorer@@@@QBEPAVSessionExplorer@@XZ$1 1002d339 f   PlugInUtilities:Service.obj
 0001:0002c342       __ehhandler$?get@?$Service@VSessionExplorer@@@@QBEPAVSessionExplorer@@XZ 1002d342 f   PlugInUtilities:Service.obj
 0001:0002c350       __unwindfunclet$??0Args@ModelObject@@QAE@V?$basic_string@DU?$char_traits@D@std@@V?$allocator@D@2@@std@@0PAVDataElement@@@Z$0 1002d350 f   PlugInUtilities:RasterUtilities.obj
 0001:0002c359       __unwindfunclet$??0Args@ModelObject@@QAE@V?$basic_string@DU?$char_traits@D@std@@V?$allocator@D@2@@std@@0PAVDataElement@@@Z$1 1002d359 f   PlugInUtilities:RasterUtilities.obj
 0001:0002c362       __unwindfunclet$??0Args@ModelObject@@QAE@V?$basic_string@DU?$char_traits@D@std@@V?$allocator@D@2@@std@@0PAVDataElement@@@Z$2 1002d362 f   PlugInUtilities:RasterUtilities.obj
 0001:0002c36e       __ehhandler$??0Args@ModelObject@@QAE@V?$basic_string@DU?$char_traits@D@std@@V?$allocator@D@2@@std@@0PAVDataElement@@@Z 1002d36e f   PlugInUtilities:RasterUtilities.obj
 0001:0002c380       __unwindfunclet$??0Args@ModelObject@@QAE@PAVDataDescriptor@@@Z$0 1002d380 f   PlugInUtilities:RasterUtilities.obj
 0001:0002c38c       __ehhandler$??0Args@ModelObject@@QAE@PAVDataDescriptor@@@Z 1002d38c f   PlugInUtilities:RasterUtilities.obj
 0001:0002c3a0       __unwindfunclet$??1Args@ModelObject@@QAE@XZ$0 1002d3a0 f   PlugInUtilities:RasterUtilities.obj
 0001:0002c3ac       __ehhandler$??1Args@ModelObject@@QAE@XZ 1002d3ac f   PlugInUtilities:RasterUtilities.obj
 0001:0002c3c0       __unwindfunclet$?_Xran@?$vector@V?$basic_string@DU?$char_traits@D@std@@V?$allocator@D@2@@std@@V?$allocator@V?$basic_string@DU?$char_traits@D@std@@V?$allocator@D@2@@std@@@2@@std@@KAXXZ$0 1002d3c0 f   PlugInUtilities:RasterUtilities.obj
 0001:0002c3c9       __unwindfunclet$?_Xran@?$vector@V?$basic_string@DU?$char_traits@D@std@@V?$allocator@D@2@@std@@V?$allocator@V?$basic_string@DU?$char_traits@D@std@@V?$allocator@D@2@@std@@@2@@std@@KAXXZ$2 1002d3c9 f   PlugInUtilities:RasterUtilities.obj
 0001:0002c3d2       __ehhandler$?_Xran@?$vector@V?$basic_string@DU?$char_traits@D@std@@V?$allocator@D@2@@std@@V?$allocator@V?$basic_string@DU?$char_traits@D@std@@V?$allocator@D@2@@std@@@2@@std@@KAXXZ 1002d3d2 f   PlugInUtilities:RasterUtilities.obj
 0001:0002c3e0       __unwindfunclet$?_Xlen@?$vector@V?$Location@H$01@Opticks@@V?$allocator@V?$Location@H$01@Opticks@@@std@@@std@@KAXXZ$0 1002d3e0 f   PlugInUtilities:RasterUtilities.obj
 0001:0002c3e9       __unwindfunclet$?_Xlen@?$vector@V?$Location@H$01@Opticks@@V?$allocator@V?$Location@H$01@Opticks@@@std@@@std@@KAXXZ$2 1002d3e9 f   PlugInUtilities:RasterUtilities.obj
 0001:0002c3f2       __ehhandler$?_Xlen@?$vector@V?$Location@H$01@Opticks@@V?$allocator@V?$Location@H$01@Opticks@@@std@@@std@@KAXXZ 1002d3f2 f   PlugInUtilities:RasterUtilities.obj
 0001:0002c400       __unwindfunclet$??0Args@ModelObject@@QAE@ABV01@@Z$0 1002d400 f   PlugInUtilities:RasterUtilities.obj
 0001:0002c40c       __ehhandler$??0Args@ModelObject@@QAE@ABV01@@Z 1002d40c f   PlugInUtilities:RasterUtilities.obj
 0001:0002c420       __unwindfunclet$?_Xlen@?$vector@VDimensionDescriptor@@V?$allocator@VDimensionDescriptor@@@std@@@std@@KAXXZ$0 1002d420 f   PlugInUtilities:RasterUtilities.obj
 0001:0002c429       __unwindfunclet$?_Xlen@?$vector@VDimensionDescriptor@@V?$allocator@VDimensionDescriptor@@@std@@@std@@KAXXZ$2 1002d429 f   PlugInUtilities:RasterUtilities.obj
 0001:0002c432       __ehhandler$?_Xlen@?$vector@VDimensionDescriptor@@V?$allocator@VDimensionDescriptor@@@std@@@std@@KAXXZ 1002d432 f   PlugInUtilities:RasterUtilities.obj
 0001:0002c440       __unwindfunclet$?_Xlen@?$vector@V?$EnumWrapper@W4RasterChannelTypeEnum@@@@V?$allocator@V?$EnumWrapper@W4RasterChannelTypeEnum@@@@@std@@@std@@KAXXZ$0 1002d440 f   PlugInUtilities:RasterUtilities.obj
 0001:0002c449       __unwindfunclet$?_Xlen@?$vector@V?$EnumWrapper@W4RasterChannelTypeEnum@@@@V?$allocator@V?$EnumWrapper@W4RasterChannelTypeEnum@@@@@std@@@std@@KAXXZ$2 1002d449 f   PlugInUtilities:RasterUtilities.obj
 0001:0002c452       __ehhandler$?_Xlen@?$vector@V?$EnumWrapper@W4RasterChannelTypeEnum@@@@V?$allocator@V?$EnumWrapper@W4RasterChannelTypeEnum@@@@@std@@@std@@KAXXZ 1002d452 f   PlugInUtilities:RasterUtilities.obj
 0001:0002c460       __unwindfunclet$?_Xlen@?$vector@HV?$allocator@H@std@@@std@@KAXXZ$0 1002d460 f   PlugInUtilities:RasterUtilities.obj
 0001:0002c469       __unwindfunclet$?_Xlen@?$vector@HV?$allocator@H@std@@@std@@KAXXZ$2 1002d469 f   PlugInUtilities:RasterUtilities.obj
 0001:0002c472       __ehhandler$?_Xlen@?$vector@HV?$allocator@H@std@@@std@@KAXXZ 1002d472 f   PlugInUtilities:RasterUtilities.obj
 0001:0002c480       __unwindfunclet$?_Xlen@?$vector@NV?$allocator@N@std@@@std@@KAXXZ$0 1002d480 f   PlugInUtilities:RasterUtilities.obj
 0001:0002c489       __unwindfunclet$?_Xlen@?$vector@NV?$allocator@N@std@@@std@@KAXXZ$2 1002d489 f   PlugInUtilities:RasterUtilities.obj
 0001:0002c492       __ehhandler$?_Xlen@?$vector@NV?$allocator@N@std@@@std@@KAXXZ 1002d492 f   PlugInUtilities:RasterUtilities.obj
 0001:0002c4a0       __unwindfunclet$?_Xlen@?$vector@DV?$allocator@D@std@@@std@@KAXXZ$0 1002d4a0 f   PlugInUtilities:RasterUtilities.obj
 0001:0002c4a9       __unwindfunclet$?_Xlen@?$vector@DV?$allocator@D@std@@@std@@KAXXZ$2 1002d4a9 f   PlugInUtilities:RasterUtilities.obj
 0001:0002c4b2       __ehhandler$?_Xlen@?$vector@DV?$allocator@D@std@@@std@@KAXXZ 1002d4b2 f   PlugInUtilities:RasterUtilities.obj
 0001:0002c4c0       __unwindfunclet$?_Xlen@?$vector@EV?$allocator@E@std@@@std@@KAXXZ$0 1002d4c0 f   PlugInUtilities:RasterUtilities.obj
 0001:0002c4c9       __unwindfunclet$?_Xlen@?$vector@EV?$allocator@E@std@@@std@@KAXXZ$2 1002d4c9 f   PlugInUtilities:RasterUtilities.obj
 0001:0002c4d2       __ehhandler$?_Xlen@?$vector@EV?$allocator@E@std@@@std@@KAXXZ 1002d4d2 f   PlugInUtilities:RasterUtilities.obj
 0001:0002c4e0       __unwindfunclet$?_Xlen@?$vector@FV?$allocator@F@std@@@std@@KAXXZ$0 1002d4e0 f   PlugInUtilities:RasterUtilities.obj
 0001:0002c4e9       __unwindfunclet$?_Xlen@?$vector@FV?$allocator@F@std@@@std@@KAXXZ$2 1002d4e9 f   PlugInUtilities:RasterUtilities.obj
 0001:0002c4f2       __ehhandler$?_Xlen@?$vector@FV?$allocator@F@std@@@std@@KAXXZ 1002d4f2 f   PlugInUtilities:RasterUtilities.obj
 0001:0002c500       __unwindfunclet$?_Xlen@?$vector@GV?$allocator@G@std@@@std@@KAXXZ$0 1002d500 f   PlugInUtilities:RasterUtilities.obj
 0001:0002c509       __unwindfunclet$?_Xlen@?$vector@GV?$allocator@G@std@@@std@@KAXXZ$2 1002d509 f   PlugInUtilities:RasterUtilities.obj
 0001:0002c512       __ehhandler$?_Xlen@?$vector@GV?$allocator@G@std@@@std@@KAXXZ 1002d512 f   PlugInUtilities:RasterUtilities.obj
 0001:0002c520       __unwindfunclet$?_Xlen@?$vector@IV?$allocator@I@std@@@std@@KAXXZ$0 1002d520 f   PlugInUtilities:RasterUtilities.obj
 0001:0002c529       __unwindfunclet$?_Xlen@?$vector@IV?$allocator@I@std@@@std@@KAXXZ$2 1002d529 f   PlugInUtilities:RasterUtilities.obj
 0001:0002c532       __ehhandler$?_Xlen@?$vector@IV?$allocator@I@std@@@std@@KAXXZ 1002d532 f   PlugInUtilities:RasterUtilities.obj
 0001:0002c540       __unwindfunclet$?_Xlen@?$vector@JV?$allocator@J@std@@@std@@KAXXZ$0 1002d540 f   PlugInUtilities:RasterUtilities.obj
 0001:0002c549       __unwindfunclet$?_Xlen@?$vector@JV?$allocator@J@std@@@std@@KAXXZ$2 1002d549 f   PlugInUtilities:RasterUtilities.obj
 0001:0002c552       __ehhandler$?_Xlen@?$vector@JV?$allocator@J@std@@@std@@KAXXZ 1002d552 f   PlugInUtilities:RasterUtilities.obj
 0001:0002c560       __unwindfunclet$?_Xlen@?$vector@KV?$allocator@K@std@@@std@@KAXXZ$0 1002d560 f   PlugInUtilities:RasterUtilities.obj
 0001:0002c569       __unwindfunclet$?_Xlen@?$vector@KV?$allocator@K@std@@@std@@KAXXZ$2 1002d569 f   PlugInUtilities:RasterUtilities.obj
 0001:0002c572       __ehhandler$?_Xlen@?$vector@KV?$allocator@K@std@@@std@@KAXXZ 1002d572 f   PlugInUtilities:RasterUtilities.obj
 0001:0002c580       __unwindfunclet$?_Xlen@?$vector@_JV?$allocator@_J@std@@@std@@KAXXZ$0 1002d580 f   PlugInUtilities:RasterUtilities.obj
 0001:0002c589       __unwindfunclet$?_Xlen@?$vector@_JV?$allocator@_J@std@@@std@@KAXXZ$2 1002d589 f   PlugInUtilities:RasterUtilities.obj
 0001:0002c592       __ehhandler$?_Xlen@?$vector@_JV?$allocator@_J@std@@@std@@KAXXZ 1002d592 f   PlugInUtilities:RasterUtilities.obj
 0001:0002c5a0       __unwindfunclet$?_Xlen@?$vector@_KV?$allocator@_K@std@@@std@@KAXXZ$0 1002d5a0 f   PlugInUtilities:RasterUtilities.obj
 0001:0002c5a9       __unwindfunclet$?_Xlen@?$vector@_KV?$allocator@_K@std@@@std@@KAXXZ$2 1002d5a9 f   PlugInUtilities:RasterUtilities.obj
 0001:0002c5b2       __ehhandler$?_Xlen@?$vector@_KV?$allocator@_K@std@@@std@@KAXXZ 1002d5b2 f   PlugInUtilities:RasterUtilities.obj
 0001:0002c5c0       __unwindfunclet$?_Xlen@?$vector@VInt64@@V?$allocator@VInt64@@@std@@@std@@KAXXZ$0 1002d5c0 f   PlugInUtilities:RasterUtilities.obj
 0001:0002c5c9       __unwindfunclet$?_Xlen@?$vector@VInt64@@V?$allocator@VInt64@@@std@@@std@@KAXXZ$2 1002d5c9 f   PlugInUtilities:RasterUtilities.obj
 0001:0002c5d2       __ehhandler$?_Xlen@?$vector@VInt64@@V?$allocator@VInt64@@@std@@@std@@KAXXZ 1002d5d2 f   PlugInUtilities:RasterUtilities.obj
 0001:0002c5e0       __unwindfunclet$?_Xlen@?$vector@VUInt64@@V?$allocator@VUInt64@@@std@@@std@@KAXXZ$0 1002d5e0 f   PlugInUtilities:RasterUtilities.obj
 0001:0002c5e9       __unwindfunclet$?_Xlen@?$vector@VUInt64@@V?$allocator@VUInt64@@@std@@@std@@KAXXZ$2 1002d5e9 f   PlugInUtilities:RasterUtilities.obj
 0001:0002c5f2       __ehhandler$?_Xlen@?$vector@VUInt64@@V?$allocator@VUInt64@@@std@@@std@@KAXXZ 1002d5f2 f   PlugInUtilities:RasterUtilities.obj
 0001:0002c600       __unwindfunclet$?_Xlen@?$vector@MV?$allocator@M@std@@@std@@KAXXZ$0 1002d600 f   PlugInUtilities:RasterUtilities.obj
 0001:0002c609       __unwindfunclet$?_Xlen@?$vector@MV?$allocator@M@std@@@std@@KAXXZ$2 1002d609 f   PlugInUtilities:RasterUtilities.obj
 0001:0002c612       __ehhandler$?_Xlen@?$vector@MV?$allocator@M@std@@@std@@KAXXZ 1002d612 f   PlugInUtilities:RasterUtilities.obj
 0001:0002c620       __unwindfunclet$?_Xlen@?$vector@_NV?$allocator@_N@std@@@std@@IBEXXZ$0 1002d620 f   PlugInUtilities:RasterUtilities.obj
 0001:0002c629       __unwindfunclet$?_Xlen@?$vector@_NV?$allocator@_N@std@@@std@@IBEXXZ$2 1002d629 f   PlugInUtilities:RasterUtilities.obj
 0001:0002c632       __ehhandler$?_Xlen@?$vector@_NV?$allocator@_N@std@@@std@@IBEXXZ 1002d632 f   PlugInUtilities:RasterUtilities.obj
 0001:0002c640       __unwindfunclet$?obtainResource@ModelObject@@QBEPAXABVArgs@1@@Z$0 1002d640 f   PlugInUtilities:RasterUtilities.obj
 0001:0002c649       __unwindfunclet$?obtainResource@ModelObject@@QBEPAXABVArgs@1@@Z$1 1002d649 f   PlugInUtilities:RasterUtilities.obj
 0001:0002c652       __ehhandler$?obtainResource@ModelObject@@QBEPAXABVArgs@1@@Z 1002d652 f   PlugInUtilities:RasterUtilities.obj
 0001:0002c660       __unwindfunclet$?obtainResource@DataDescriptorObject@@QBEPAXABVArgs@ModelObject@@@Z$0 1002d660 f   PlugInUtilities:RasterUtilities.obj
 0001:0002c669       __unwindfunclet$?obtainResource@DataDescriptorObject@@QBEPAXABVArgs@ModelObject@@@Z$1 1002d669 f   PlugInUtilities:RasterUtilities.obj
 0001:0002c672       __ehhandler$?obtainResource@DataDescriptorObject@@QBEPAXABVArgs@ModelObject@@@Z 1002d672 f   PlugInUtilities:RasterUtilities.obj
 0001:0002c680       __unwindfunclet$??0?$Resource@VRasterFileDescriptor@@VFactoryObject@@@@QAE@ABVArgs@FactoryAllocator@@@Z$0 1002d680 f   PlugInUtilities:RasterUtilities.obj
 0001:0002c68b       __ehhandler$??0?$Resource@VRasterFileDescriptor@@VFactoryObject@@@@QAE@ABVArgs@FactoryAllocator@@@Z 1002d68b f   PlugInUtilities:RasterUtilities.obj
 0001:0002c6a0       __unwindfunclet$??0?$Resource@VFileDescriptor@@VFactoryObject@@@@QAE@ABVArgs@FactoryAllocator@@@Z$0 1002d6a0 f   PlugInUtilities:RasterUtilities.obj
 0001:0002c6ab       __ehhandler$??0?$Resource@VFileDescriptor@@VFactoryObject@@@@QAE@ABVArgs@FactoryAllocator@@@Z 1002d6ab f   PlugInUtilities:RasterUtilities.obj
 0001:0002c6c0       __unwindfunclet$??0?$Resource@VRasterElement@@VModelObject@@@@QAE@ABVArgs@ModelObject@@@Z$0 1002d6c0 f   PlugInUtilities:RasterUtilities.obj
 0001:0002c6cb       __ehhandler$??0?$Resource@VRasterElement@@VModelObject@@@@QAE@ABVArgs@ModelObject@@@Z 1002d6cb f   PlugInUtilities:RasterUtilities.obj
 0001:0002c6e0       __unwindfunclet$??0?$Resource@VRasterDataDescriptor@@VDataDescriptorObject@@@@QAE@ABVArgs@ModelObject@@@Z$0 1002d6e0 f   PlugInUtilities:RasterUtilities.obj
 0001:0002c6eb       __ehhandler$??0?$Resource@VRasterDataDescriptor@@VDataDescriptorObject@@@@QAE@ABVArgs@ModelObject@@@Z 1002d6eb f   PlugInUtilities:RasterUtilities.obj
 0001:0002c700       __unwindfunclet$?findTrueColorDimensionDescriptors@?A0x92b3477e@@YA_NPBVRasterDataDescriptor@@AAVDimensionDescriptor@@11@Z$0 1002d700 f   PlugInUtilities:RasterUtilities.obj
 0001:0002c70c       __unwindfunclet$?findTrueColorDimensionDescriptors@?A0x92b3477e@@YA_NPBVRasterDataDescriptor@@AAVDimensionDescriptor@@11@Z$1 1002d70c f   PlugInUtilities:RasterUtilities.obj
 0001:0002c718       __unwindfunclet$?findTrueColorDimensionDescriptors@?A0x92b3477e@@YA_NPBVRasterDataDescriptor@@AAVDimensionDescriptor@@11@Z$2 1002d718 f   PlugInUtilities:RasterUtilities.obj
 0001:0002c721       __unwindfunclet$?findTrueColorDimensionDescriptors@?A0x92b3477e@@YA_NPBVRasterDataDescriptor@@AAVDimensionDescriptor@@11@Z$4 1002d721 f   PlugInUtilities:RasterUtilities.obj
 0001:0002c738       __ehhandler$?findTrueColorDimensionDescriptors@?A0x92b3477e@@YA_NPBVRasterDataDescriptor@@AAVDimensionDescriptor@@11@Z 1002d738 f   PlugInUtilities:RasterUtilities.obj
 0001:0002c750       __unwindfunclet$??1?$Resource@VRasterFileDescriptor@@VFactoryObject@@@@UAE@XZ$0 1002d750 f   PlugInUtilities:RasterUtilities.obj
 0001:0002c75b       __ehhandler$??1?$Resource@VRasterFileDescriptor@@VFactoryObject@@@@UAE@XZ 1002d75b f   PlugInUtilities:RasterUtilities.obj
 0001:0002c770       __unwindfunclet$??1?$Resource@VFileDescriptor@@VFactoryObject@@@@UAE@XZ$0 1002d770 f   PlugInUtilities:RasterUtilities.obj
 0001:0002c77b       __ehhandler$??1?$Resource@VFileDescriptor@@VFactoryObject@@@@UAE@XZ 1002d77b f   PlugInUtilities:RasterUtilities.obj
 0001:0002c790       __unwindfunclet$??1?$Resource@VRasterElement@@VModelObject@@@@UAE@XZ$0 1002d790 f   PlugInUtilities:RasterUtilities.obj
 0001:0002c79b       __ehhandler$??1?$Resource@VRasterElement@@VModelObject@@@@UAE@XZ 1002d79b f   PlugInUtilities:RasterUtilities.obj
 0001:0002c7b0       __unwindfunclet$??1?$Resource@VRasterDataDescriptor@@VDataDescriptorObject@@@@UAE@XZ$0 1002d7b0 f   PlugInUtilities:RasterUtilities.obj
 0001:0002c7bb       __ehhandler$??1?$Resource@VRasterDataDescriptor@@VDataDescriptorObject@@@@UAE@XZ 1002d7bb f   PlugInUtilities:RasterUtilities.obj
 0001:0002c7d0       __unwindfunclet$??$_Uninit_copy@PAV?$basic_string@DU?$char_traits@D@std@@V?$allocator@D@2@@std@@PAV12@V?$allocator@V?$basic_string@DU?$char_traits@D@std@@V?$allocator@D@2@@std@@@2@@std@@YAPAV?$basic_string@DU?$char_traits@D@std@@V?$allocator@D@2@@0@PAV10@00AAV?$allocator@V?$basic_string@DU?$char_traits@D@std@@V?$allocator@D@2@@std@@@0@U_Nonscalar_ptr_iterator_tag@0@U_Range_checked_iterator_tag@0@@Z$2 1002d7d0 f   PlugInUtilities:RasterUtilities.obj
 0001:0002c7e1       __ehhandler$??$_Uninit_copy@PAV?$basic_string@DU?$char_traits@D@std@@V?$allocator@D@2@@std@@PAV12@V?$allocator@V?$basic_string@DU?$char_traits@D@std@@V?$allocator@D@2@@std@@@2@@std@@YAPAV?$basic_string@DU?$char_traits@D@std@@V?$allocator@D@2@@0@PAV10@00AAV?$allocator@V?$basic_string@DU?$char_traits@D@std@@V?$allocator@D@2@@std@@@0@U_Nonscalar_ptr_iterator_tag@0@U_Range_checked_iterator_tag@0@@Z 1002d7e1 f   PlugInUtilities:RasterUtilities.obj
 0001:0002c7f0       __unwindfunclet$??0?$FactoryResource@VRasterFileDescriptor@@@@QAE@XZ$0 1002d7f0 f   PlugInUtilities:RasterUtilities.obj
 0001:0002c7f8       __unwindfunclet$??0?$FactoryResource@VRasterFileDescriptor@@@@QAE@XZ$1 1002d7f8 f   PlugInUtilities:RasterUtilities.obj
 0001:0002c800       __ehhandler$??0?$FactoryResource@VRasterFileDescriptor@@@@QAE@XZ 1002d800 f   PlugInUtilities:RasterUtilities.obj
 0001:0002c810       __unwindfunclet$??0?$FactoryResource@VRasterFileDescriptor@@@@QAE@PAVRasterFileDescriptor@@@Z$0 1002d810 f   PlugInUtilities:RasterUtilities.obj
 0001:0002c818       __unwindfunclet$??0?$FactoryResource@VRasterFileDescriptor@@@@QAE@PAVRasterFileDescriptor@@@Z$1 1002d818 f   PlugInUtilities:RasterUtilities.obj
 0001:0002c820       __ehhandler$??0?$FactoryResource@VRasterFileDescriptor@@@@QAE@PAVRasterFileDescriptor@@@Z 1002d820 f   PlugInUtilities:RasterUtilities.obj
 0001:0002c830       __unwindfunclet$??0?$FactoryResource@VFileDescriptor@@@@QAE@XZ$0 1002d830 f   PlugInUtilities:RasterUtilities.obj
 0001:0002c838       __unwindfunclet$??0?$FactoryResource@VFileDescriptor@@@@QAE@XZ$1 1002d838 f   PlugInUtilities:RasterUtilities.obj
 0001:0002c840       __ehhandler$??0?$FactoryResource@VFileDescriptor@@@@QAE@XZ 1002d840 f   PlugInUtilities:RasterUtilities.obj
 0001:0002c850       __unwindfunclet$??0?$ModelResource@VRasterElement@@@@QAE@PAVDataDescriptor@@@Z$0 1002d850 f   PlugInUtilities:RasterUtilities.obj
 0001:0002c858       __unwindfunclet$??0?$ModelResource@VRasterElement@@@@QAE@PAVDataDescriptor@@@Z$1 1002d858 f   PlugInUtilities:RasterUtilities.obj
 0001:0002c860       __unwindfunclet$??0?$ModelResource@VRasterElement@@@@QAE@PAVDataDescriptor@@@Z$2 1002d860 f   PlugInUtilities:RasterUtilities.obj
 0001:0002c869       __ehhandler$??0?$ModelResource@VRasterElement@@@@QAE@PAVDataDescriptor@@@Z 1002d869 f   PlugInUtilities:RasterUtilities.obj
 0001:0002c880       __unwindfunclet$??0?$DataDescriptorResource@VRasterDataDescriptor@@@@QAE@V?$basic_string@DU?$char_traits@D@std@@V?$allocator@D@2@@std@@0PAVDataElement@@@Z$0 1002d880 f   PlugInUtilities:RasterUtilities.obj
 0001:0002c889       __unwindfunclet$??0?$DataDescriptorResource@VRasterDataDescriptor@@@@QAE@V?$basic_string@DU?$char_traits@D@std@@V?$allocator@D@2@@std@@0PAVDataElement@@@Z$1 1002d889 f   PlugInUtilities:RasterUtilities.obj
 0001:0002c892       __unwindfunclet$??0?$DataDescriptorResource@VRasterDataDescriptor@@@@QAE@V?$basic_string@DU?$char_traits@D@std@@V?$allocator@D@2@@std@@0PAVDataElement@@@Z$2 1002d892 f   PlugInUtilities:RasterUtilities.obj
 0001:0002c89b       __unwindfunclet$??0?$DataDescriptorResource@VRasterDataDescriptor@@@@QAE@V?$basic_string@DU?$char_traits@D@std@@V?$allocator@D@2@@std@@0PAVDataElement@@@Z$4 1002d89b f   PlugInUtilities:RasterUtilities.obj
 0001:0002c8a3       __unwindfunclet$??0?$DataDescriptorResource@VRasterDataDescriptor@@@@QAE@V?$basic_string@DU?$char_traits@D@std@@V?$allocator@D@2@@std@@0PAVDataElement@@@Z$5 1002d8a3 f   PlugInUtilities:RasterUtilities.obj
 0001:0002c8ab       __unwindfunclet$??0?$DataDescriptorResource@VRasterDataDescriptor@@@@QAE@V?$basic_string@DU?$char_traits@D@std@@V?$allocator@D@2@@std@@0PAVDataElement@@@Z$6 1002d8ab f   PlugInUtilities:RasterUtilities.obj
 0001:0002c8b4       __ehhandler$??0?$DataDescriptorResource@VRasterDataDescriptor@@@@QAE@V?$basic_string@DU?$char_traits@D@std@@V?$allocator@D@2@@std@@0PAVDataElement@@@Z 1002d8b4 f   PlugInUtilities:RasterUtilities.obj
 0001:0002c8c0       __unwindfunclet$?getBandName@?A0x92b3477e@@YA?AV?$basic_string@DU?$char_traits@D@std@@V?$allocator@D@2@@std@@PBV?$vector@V?$basic_string@DU?$char_traits@D@std@@V?$allocator@D@2@@std@@V?$allocator@V?$basic_string@DU?$char_traits@D@std@@V?$allocator@D@2@@std@@@2@@3@PBV23@ABVDimensionDescriptor@@@Z$1 1002d8c0 f   PlugInUtilities:RasterUtilities.obj
 0001:0002c8cc       __unwindfunclet$?getBandName@?A0x92b3477e@@YA?AV?$basic_string@DU?$char_traits@D@std@@V?$allocator@D@2@@std@@PBV?$vector@V?$basic_string@DU?$char_traits@D@std@@V?$allocator@D@2@@std@@V?$allocator@V?$basic_string@DU?$char_traits@D@std@@V?$allocator@D@2@@std@@@2@@3@PBV23@ABVDimensionDescriptor@@@Z$2 1002d8cc f   PlugInUtilities:RasterUtilities.obj
 0001:0002c8d8       __unwindfunclet$?getBandName@?A0x92b3477e@@YA?AV?$basic_string@DU?$char_traits@D@std@@V?$allocator@D@2@@std@@PBV?$vector@V?$basic_string@DU?$char_traits@D@std@@V?$allocator@D@2@@std@@V?$allocator@V?$basic_string@DU?$char_traits@D@std@@V?$allocator@D@2@@std@@@2@@3@PBV23@ABVDimensionDescriptor@@@Z$0 1002d8d8 f   PlugInUtilities:RasterUtilities.obj
 0001:0002c8f8       __ehhandler$?getBandName@?A0x92b3477e@@YA?AV?$basic_string@DU?$char_traits@D@std@@V?$allocator@D@2@@std@@PBV?$vector@V?$basic_string@DU?$char_traits@D@std@@V?$allocator@D@2@@std@@V?$allocator@V?$basic_string@DU?$char_traits@D@std@@V?$allocator@D@2@@std@@@2@@3@PBV23@ABVDimensionDescriptor@@@Z 1002d8f8 f   PlugInUtilities:RasterUtilities.obj
 0001:0002c910       __unwindfunclet$?getBandName@RasterUtilities@@YA?AV?$basic_string@DU?$char_traits@D@std@@V?$allocator@D@2@@std@@PBVRasterDataDescriptor@@VDimensionDescriptor@@@Z$0 1002d910 f   PlugInUtilities:RasterUtilities.obj
 0001:0002c930       __unwindfunclet$?getBandName@RasterUtilities@@YA?AV?$basic_string@DU?$char_traits@D@std@@V?$allocator@D@2@@std@@PBVRasterDataDescriptor@@VDimensionDescriptor@@@Z$1 1002d930 f   PlugInUtilities:RasterUtilities.obj
 0001:0002c939       __unwindfunclet$?getBandName@RasterUtilities@@YA?AV?$basic_string@DU?$char_traits@D@std@@V?$allocator@D@2@@std@@PBVRasterDataDescriptor@@VDimensionDescriptor@@@Z$2 1002d939 f   PlugInUtilities:RasterUtilities.obj
 0001:0002c942       __unwindfunclet$?getBandName@RasterUtilities@@YA?AV?$basic_string@DU?$char_traits@D@std@@V?$allocator@D@2@@std@@PBVRasterDataDescriptor@@VDimensionDescriptor@@@Z$3 1002d942 f   PlugInUtilities:RasterUtilities.obj
 0001:0002c94b       __unwindfunclet$?getBandName@RasterUtilities@@YA?AV?$basic_string@DU?$char_traits@D@std@@V?$allocator@D@2@@std@@PBVRasterDataDescriptor@@VDimensionDescriptor@@@Z$5 1002d94b f   PlugInUtilities:RasterUtilities.obj
 0001:0002c95f       __unwindfunclet$?getBandName@RasterUtilities@@YA?AV?$basic_string@DU?$char_traits@D@std@@V?$allocator@D@2@@std@@PBVRasterDataDescriptor@@VDimensionDescriptor@@@Z$6 1002d95f f   PlugInUtilities:RasterUtilities.obj
 0001:0002c96b       __unwindfunclet$?getBandName@RasterUtilities@@YA?AV?$basic_string@DU?$char_traits@D@std@@V?$allocator@D@2@@std@@PBVRasterDataDescriptor@@VDimensionDescriptor@@@Z$7 1002d96b f   PlugInUtilities:RasterUtilities.obj
 0001:0002c977       __unwindfunclet$?getBandName@RasterUtilities@@YA?AV?$basic_string@DU?$char_traits@D@std@@V?$allocator@D@2@@std@@PBVRasterDataDescriptor@@VDimensionDescriptor@@@Z$9 1002d977 f   PlugInUtilities:RasterUtilities.obj
 0001:0002c98e       __ehhandler$?getBandName@RasterUtilities@@YA?AV?$basic_string@DU?$char_traits@D@std@@V?$allocator@D@2@@std@@PBVRasterDataDescriptor@@VDimensionDescriptor@@@Z 1002d98e f   PlugInUtilities:RasterUtilities.obj
 0001:0002c9a0       __ehhandler$?reserve@?$vector@V?$basic_string@DU?$char_traits@D@std@@V?$allocator@D@2@@std@@V?$allocator@V?$basic_string@DU?$char_traits@D@std@@V?$allocator@D@2@@std@@@2@@std@@QAEXI@Z 1002d9a0 f   PlugInUtilities:RasterUtilities.obj
 0001:0002c9b0       __ehhandler$?reserve@?$vector@VInt64@@V?$allocator@VInt64@@@std@@@std@@QAEXI@Z 1002d9b0 f   PlugInUtilities:RasterUtilities.obj
 0001:0002c9c0       __ehhandler$?reserve@?$vector@VUInt64@@V?$allocator@VUInt64@@@std@@@std@@QAEXI@Z 1002d9c0 f   PlugInUtilities:RasterUtilities.obj
 0001:0002c9d0       __ehhandler$??0?$vector@VInt64@@V?$allocator@VInt64@@@std@@@std@@QAE@ABV01@@Z 1002d9d0 f   PlugInUtilities:RasterUtilities.obj
 0001:0002c9e0       __ehhandler$??0?$vector@VUInt64@@V?$allocator@VUInt64@@@std@@@std@@QAE@ABV01@@Z 1002d9e0 f   PlugInUtilities:RasterUtilities.obj
 0001:0002c9f0       __ehhandler$?_Insert_n@?$vector@VInt64@@V?$allocator@VInt64@@@std@@@std@@IAEXV?$_Vector_iterator@VInt64@@V?$allocator@VInt64@@@std@@@2@IABVInt64@@@Z 1002d9f0 f   PlugInUtilities:RasterUtilities.obj
 0001:0002ca00       __ehhandler$?_Insert_n@?$vector@VUInt64@@V?$allocator@VUInt64@@@std@@@std@@IAEXV?$_Vector_iterator@VUInt64@@V?$allocator@VUInt64@@@std@@@2@IABVUInt64@@@Z 1002da00 f   PlugInUtilities:RasterUtilities.obj
 0001:0002ca10       __ehhandler$??0?$vector@VDimensionDescriptor@@V?$allocator@VDimensionDescriptor@@@std@@@std@@QAE@ABV01@@Z 1002da10 f   PlugInUtilities:RasterUtilities.obj
 0001:0002ca20       __ehhandler$??0?$vector@V?$EnumWrapper@W4RasterChannelTypeEnum@@@@V?$allocator@V?$EnumWrapper@W4RasterChannelTypeEnum@@@@@std@@@std@@QAE@ABV01@@Z 1002da20 f   PlugInUtilities:RasterUtilities.obj
 0001:0002ca30       __ehhandler$?_Construct_n@?$vector@VDimensionDescriptor@@V?$allocator@VDimensionDescriptor@@@std@@@std@@QAEXIABVDimensionDescriptor@@@Z 1002da30 f   PlugInUtilities:RasterUtilities.obj
 0001:0002ca40       __ehhandler$?_Insert_n@?$vector@VDimensionDescriptor@@V?$allocator@VDimensionDescriptor@@@std@@@std@@IAEXV?$_Vector_iterator@VDimensionDescriptor@@V?$allocator@VDimensionDescriptor@@@std@@@2@IABVDimensionDescriptor@@@Z 1002da40 f   PlugInUtilities:RasterUtilities.obj
 0001:0002ca50       __ehhandler$?_Insert_n@?$vector@V?$EnumWrapper@W4RasterChannelTypeEnum@@@@V?$allocator@V?$EnumWrapper@W4RasterChannelTypeEnum@@@@@std@@@std@@IAEXV?$_Vector_iterator@V?$EnumWrapper@W4RasterChannelTypeEnum@@@@V?$allocator@V?$EnumWrapper@W4RasterChannelTypeEnum@@@@@std@@@2@IABV?$EnumWrapper@W4RasterChannelTypeEnum@@@@@Z 1002da50 f   PlugInUtilities:RasterUtilities.obj
 0001:0002ca60       __unwindfunclet$?setFileDescriptor@?A0x92b3477e@@YAXPAVDataDescriptor@@PAVFileDescriptor@@ABV?$basic_string@DU?$char_traits@D@std@@V?$allocator@D@2@@std@@2V?$EnumWrapper@W4EndianTypeEnum@@@@@Z$0 1002da60 f   PlugInUtilities:RasterUtilities.obj
 0001:0002ca68       __unwindfunclet$?setFileDescriptor@?A0x92b3477e@@YAXPAVDataDescriptor@@PAVFileDescriptor@@ABV?$basic_string@DU?$char_traits@D@std@@V?$allocator@D@2@@std@@2V?$EnumWrapper@W4EndianTypeEnum@@@@@Z$1 1002da68 f   PlugInUtilities:RasterUtilities.obj
 0001:0002ca70       __unwindfunclet$?setFileDescriptor@?A0x92b3477e@@YAXPAVDataDescriptor@@PAVFileDescriptor@@ABV?$basic_string@DU?$char_traits@D@std@@V?$allocator@D@2@@std@@2V?$EnumWrapper@W4EndianTypeEnum@@@@@Z$2 1002da70 f   PlugInUtilities:RasterUtilities.obj
 0001:0002ca78       __ehhandler$?setFileDescriptor@?A0x92b3477e@@YAXPAVDataDescriptor@@PAVFileDescriptor@@ABV?$basic_string@DU?$char_traits@D@std@@V?$allocator@D@2@@std@@2V?$EnumWrapper@W4EndianTypeEnum@@@@@Z 1002da78 f   PlugInUtilities:RasterUtilities.obj
 0001:0002ca90       __unwindfunclet$?generateAndSetFileDescriptor@RasterUtilities@@YAPAVFileDescriptor@@PAVDataDescriptor@@ABV?$basic_string@DU?$char_traits@D@std@@V?$allocator@D@2@@std@@1V?$EnumWrapper@W4EndianTypeEnum@@@@@Z$0 1002da90 f   PlugInUtilities:RasterUtilities.obj
 0001:0002ca98       __unwindfunclet$?generateAndSetFileDescriptor@RasterUtilities@@YAPAVFileDescriptor@@PAVDataDescriptor@@ABV?$basic_string@DU?$char_traits@D@std@@V?$allocator@D@2@@std@@1V?$EnumWrapper@W4EndianTypeEnum@@@@@Z$1 1002da98 f   PlugInUtilities:RasterUtilities.obj
 0001:0002caa0       __ehhandler$?generateAndSetFileDescriptor@RasterUtilities@@YAPAVFileDescriptor@@PAVDataDescriptor@@ABV?$basic_string@DU?$char_traits@D@std@@V?$allocator@D@2@@std@@1V?$EnumWrapper@W4EndianTypeEnum@@@@@Z 1002daa0 f   PlugInUtilities:RasterUtilities.obj
 0001:0002cab0       __unwindfunclet$?generateUnchippedRasterDataDescriptor@RasterUtilities@@YAPAVRasterDataDescriptor@@PBVRasterElement@@@Z$0 1002dab0 f   PlugInUtilities:RasterUtilities.obj
 0001:0002cabb       __unwindfunclet$?generateUnchippedRasterDataDescriptor@RasterUtilities@@YAPAVRasterDataDescriptor@@PBVRasterElement@@@Z$1 1002dabb f   PlugInUtilities:RasterUtilities.obj
 0001:0002cac6       __unwindfunclet$?generateUnchippedRasterDataDescriptor@RasterUtilities@@YAPAVRasterDataDescriptor@@PBVRasterElement@@@Z$2 1002dac6 f   PlugInUtilities:RasterUtilities.obj
 0001:0002cad1       __unwindfunclet$?generateUnchippedRasterDataDescriptor@RasterUtilities@@YAPAVRasterDataDescriptor@@PBVRasterElement@@@Z$3 1002dad1 f   PlugInUtilities:RasterUtilities.obj
 0001:0002cadd       __unwindfunclet$?generateUnchippedRasterDataDescriptor@RasterUtilities@@YAPAVRasterDataDescriptor@@PBVRasterElement@@@Z$5 1002dadd f   PlugInUtilities:RasterUtilities.obj
 0001:0002cae5       __unwindfunclet$?generateUnchippedRasterDataDescriptor@RasterUtilities@@YAPAVRasterDataDescriptor@@PBVRasterElement@@@Z$6 1002dae5 f   PlugInUtilities:RasterUtilities.obj
 0001:0002caed       __ehhandler$?generateUnchippedRasterDataDescriptor@RasterUtilities@@YAPAVRasterDataDescriptor@@PBVRasterElement@@@Z 1002daed f   PlugInUtilities:RasterUtilities.obj
 0001:0002cb00       __ehhandler$?reserve@?$vector@V?$Location@H$01@Opticks@@V?$allocator@V?$Location@H$01@Opticks@@@std@@@std@@QAEXI@Z 1002db00 f   PlugInUtilities:RasterUtilities.obj
 0001:0002cb10       __ehhandler$?_Insert_n@?$vector@V?$Location@H$01@Opticks@@V?$allocator@V?$Location@H$01@Opticks@@@std@@@std@@IAEXV?$_Vector_iterator@V?$Location@H$01@Opticks@@V?$allocator@V?$Location@H$01@Opticks@@@std@@@2@IABV?$Location@H$01@Opticks@@@Z 1002db10 f   PlugInUtilities:RasterUtilities.obj
 0001:0002cb20       __unwindfunclet$??$chipMetadataDimTemplate@H@?A0x92b3477e@@YA_NAAVDataVariant@@ABV?$vector@VDimensionDescriptor@@V?$allocator@VDimensionDescriptor@@@std@@@std@@@Z$0 1002db20 f   PlugInUtilities:RasterUtilities.obj
 0001:0002cb28       __ehhandler$??$chipMetadataDimTemplate@H@?A0x92b3477e@@YA_NAAVDataVariant@@ABV?$vector@VDimensionDescriptor@@V?$allocator@VDimensionDescriptor@@@std@@@std@@@Z 1002db28 f   PlugInUtilities:RasterUtilities.obj
 0001:0002cb40       __unwindfunclet$?generateRasterDataDescriptor@RasterUtilities@@YAPAVRasterDataDescriptor@@ABV?$basic_string@DU?$char_traits@D@std@@V?$allocator@D@2@@std@@PAVDataElement@@IIIV?$EnumWrapper@W4InterleaveFormatTypeEnum@@@@V?$EnumWrapper@W4EncodingTypeEnum@@@@V?$EnumWrapper@W4ProcessingLocationEnum@@@@@Z$0 1002db40 f   PlugInUtilities:RasterUtilities.obj
 0001:0002cb49       __unwindfunclet$?generateRasterDataDescriptor@RasterUtilities@@YAPAVRasterDataDescriptor@@ABV?$basic_string@DU?$char_traits@D@std@@V?$allocator@D@2@@std@@PAVDataElement@@IIIV?$EnumWrapper@W4InterleaveFormatTypeEnum@@@@V?$EnumWrapper@W4EncodingTypeEnum@@@@V?$EnumWrapper@W4ProcessingLocationEnum@@@@@Z$1 1002db49 f   PlugInUtilities:RasterUtilities.obj
 0001:0002cb51       __unwindfunclet$?generateRasterDataDescriptor@RasterUtilities@@YAPAVRasterDataDescriptor@@ABV?$basic_string@DU?$char_traits@D@std@@V?$allocator@D@2@@std@@PAVDataElement@@IIIV?$EnumWrapper@W4InterleaveFormatTypeEnum@@@@V?$EnumWrapper@W4EncodingTypeEnum@@@@V?$EnumWrapper@W4ProcessingLocationEnum@@@@@Z$2 1002db51 f   PlugInUtilities:RasterUtilities.obj
 0001:0002cb59       __unwindfunclet$?generateRasterDataDescriptor@RasterUtilities@@YAPAVRasterDataDescriptor@@ABV?$basic_string@DU?$char_traits@D@std@@V?$allocator@D@2@@std@@PAVDataElement@@IIIV?$EnumWrapper@W4InterleaveFormatTypeEnum@@@@V?$EnumWrapper@W4EncodingTypeEnum@@@@V?$EnumWrapper@W4ProcessingLocationEnum@@@@@Z$3 1002db59 f   PlugInUtilities:RasterUtilities.obj
 0001:0002cb61       __ehhandler$?generateRasterDataDescriptor@RasterUtilities@@YAPAVRasterDataDescriptor@@ABV?$basic_string@DU?$char_traits@D@std@@V?$allocator@D@2@@std@@PAVDataElement@@IIIV?$EnumWrapper@W4InterleaveFormatTypeEnum@@@@V?$EnumWrapper@W4EncodingTypeEnum@@@@V?$EnumWrapper@W4ProcessingLocationEnum@@@@@Z 1002db61 f   PlugInUtilities:RasterUtilities.obj
 0001:0002cb70       __unwindfunclet$?createRasterElement@RasterUtilities@@YAPAVRasterElement@@ABV?$basic_string@DU?$char_traits@D@std@@V?$allocator@D@2@@std@@IIIV?$EnumWrapper@W4EncodingTypeEnum@@@@V?$EnumWrapper@W4InterleaveFormatTypeEnum@@@@_NPAVDataElement@@@Z$0 1002db70 f   PlugInUtilities:RasterUtilities.obj
 0001:0002cb78       __ehhandler$?createRasterElement@RasterUtilities@@YAPAVRasterElement@@ABV?$basic_string@DU?$char_traits@D@std@@V?$allocator@D@2@@std@@IIIV?$EnumWrapper@W4EncodingTypeEnum@@@@V?$EnumWrapper@W4InterleaveFormatTypeEnum@@@@_NPAVDataElement@@@Z 1002db78 f   PlugInUtilities:RasterUtilities.obj
 0001:0002cb90       __unwindfunclet$?getBandNames@RasterUtilities@@YA?AV?$vector@V?$basic_string@DU?$char_traits@D@std@@V?$allocator@D@2@@std@@V?$allocator@V?$basic_string@DU?$char_traits@D@std@@V?$allocator@D@2@@std@@@2@@std@@PBVRasterDataDescriptor@@@Z$0 1002db90 f   PlugInUtilities:RasterUtilities.obj
 0001:0002cb9b       __unwindfunclet$?getBandNames@RasterUtilities@@YA?AV?$vector@V?$basic_string@DU?$char_traits@D@std@@V?$allocator@D@2@@std@@V?$allocator@V?$basic_string@DU?$char_traits@D@std@@V?$allocator@D@2@@std@@@2@@std@@PBVRasterDataDescriptor@@@Z$1 1002db9b f   PlugInUtilities:RasterUtilities.obj
 0001:0002cbba       __unwindfunclet$?getBandNames@RasterUtilities@@YA?AV?$vector@V?$basic_string@DU?$char_traits@D@std@@V?$allocator@D@2@@std@@V?$allocator@V?$basic_string@DU?$char_traits@D@std@@V?$allocator@D@2@@std@@@2@@std@@PBVRasterDataDescriptor@@@Z$2 1002dbba f   PlugInUtilities:RasterUtilities.obj
 0001:0002cbc3       __unwindfunclet$?getBandNames@RasterUtilities@@YA?AV?$vector@V?$basic_string@DU?$char_traits@D@std@@V?$allocator@D@2@@std@@V?$allocator@V?$basic_string@DU?$char_traits@D@std@@V?$allocator@D@2@@std@@@2@@std@@PBVRasterDataDescriptor@@@Z$3 1002dbc3 f   PlugInUtilities:RasterUtilities.obj
 0001:0002cbcc       __unwindfunclet$?getBandNames@RasterUtilities@@YA?AV?$vector@V?$basic_string@DU?$char_traits@D@std@@V?$allocator@D@2@@std@@V?$allocator@V?$basic_string@DU?$char_traits@D@std@@V?$allocator@D@2@@std@@@2@@std@@PBVRasterDataDescriptor@@@Z$4 1002dbcc f   PlugInUtilities:RasterUtilities.obj
 0001:0002cbd5       __unwindfunclet$?getBandNames@RasterUtilities@@YA?AV?$vector@V?$basic_string@DU?$char_traits@D@std@@V?$allocator@D@2@@std@@V?$allocator@V?$basic_string@DU?$char_traits@D@std@@V?$allocator@D@2@@std@@@2@@std@@PBVRasterDataDescriptor@@@Z$6 1002dbd5 f   PlugInUtilities:RasterUtilities.obj
 0001:0002cbe9       __unwindfunclet$?getBandNames@RasterUtilities@@YA?AV?$vector@V?$basic_string@DU?$char_traits@D@std@@V?$allocator@D@2@@std@@V?$allocator@V?$basic_string@DU?$char_traits@D@std@@V?$allocator@D@2@@std@@@2@@std@@PBVRasterDataDescriptor@@@Z$7 1002dbe9 f   PlugInUtilities:RasterUtilities.obj
 0001:0002cbf5       __unwindfunclet$?getBandNames@RasterUtilities@@YA?AV?$vector@V?$basic_string@DU?$char_traits@D@std@@V?$allocator@D@2@@std@@V?$allocator@V?$basic_string@DU?$char_traits@D@std@@V?$allocator@D@2@@std@@@2@@std@@PBVRasterDataDescriptor@@@Z$8 1002dbf5 f   PlugInUtilities:RasterUtilities.obj
 0001:0002cc01       __unwindfunclet$?getBandNames@RasterUtilities@@YA?AV?$vector@V?$basic_string@DU?$char_traits@D@std@@V?$allocator@D@2@@std@@V?$allocator@V?$basic_string@DU?$char_traits@D@std@@V?$allocator@D@2@@std@@@2@@std@@PBVRasterDataDescriptor@@@Z$10 1002dc01 f   PlugInUtilities:RasterUtilities.obj
 0001:0002cc18       __unwindfunclet$?getBandNames@RasterUtilities@@YA?AV?$vector@V?$basic_string@DU?$char_traits@D@std@@V?$allocator@D@2@@std@@V?$allocator@V?$basic_string@DU?$char_traits@D@std@@V?$allocator@D@2@@std@@@2@@std@@PBVRasterDataDescriptor@@@Z$11 1002dc18 f   PlugInUtilities:RasterUtilities.obj
 0001:0002cc24       __ehhandler$?getBandNames@RasterUtilities@@YA?AV?$vector@V?$basic_string@DU?$char_traits@D@std@@V?$allocator@D@2@@std@@V?$allocator@V?$basic_string@DU?$char_traits@D@std@@V?$allocator@D@2@@std@@@2@@std@@PBVRasterDataDescriptor@@@Z 1002dc24 f   PlugInUtilities:RasterUtilities.obj
 0001:0002cc30       __unwindfunclet$??$chipMetadataDimTemplate@D@?A0x92b3477e@@YA_NAAVDataVariant@@ABV?$vector@VDimensionDescriptor@@V?$allocator@VDimensionDescriptor@@@std@@@std@@@Z$0 1002dc30 f   PlugInUtilities:RasterUtilities.obj
 0001:0002cc38       __ehhandler$??$chipMetadataDimTemplate@D@?A0x92b3477e@@YA_NAAVDataVariant@@ABV?$vector@VDimensionDescriptor@@V?$allocator@VDimensionDescriptor@@@std@@@std@@@Z 1002dc38 f   PlugInUtilities:RasterUtilities.obj
 0001:0002cc50       __unwindfunclet$??$chipMetadataDimTemplate@E@?A0x92b3477e@@YA_NAAVDataVariant@@ABV?$vector@VDimensionDescriptor@@V?$allocator@VDimensionDescriptor@@@std@@@std@@@Z$0 1002dc50 f   PlugInUtilities:RasterUtilities.obj
 0001:0002cc58       __ehhandler$??$chipMetadataDimTemplate@E@?A0x92b3477e@@YA_NAAVDataVariant@@ABV?$vector@VDimensionDescriptor@@V?$allocator@VDimensionDescriptor@@@std@@@std@@@Z 1002dc58 f   PlugInUtilities:RasterUtilities.obj
 0001:0002cc70       __unwindfunclet$??$chipMetadataDimTemplate@F@?A0x92b3477e@@YA_NAAVDataVariant@@ABV?$vector@VDimensionDescriptor@@V?$allocator@VDimensionDescriptor@@@std@@@std@@@Z$0 1002dc70 f   PlugInUtilities:RasterUtilities.obj
 0001:0002cc78       __ehhandler$??$chipMetadataDimTemplate@F@?A0x92b3477e@@YA_NAAVDataVariant@@ABV?$vector@VDimensionDescriptor@@V?$allocator@VDimensionDescriptor@@@std@@@std@@@Z 1002dc78 f   PlugInUtilities:RasterUtilities.obj
 0001:0002cc90       __unwindfunclet$??$chipMetadataDimTemplate@G@?A0x92b3477e@@YA_NAAVDataVariant@@ABV?$vector@VDimensionDescriptor@@V?$allocator@VDimensionDescriptor@@@std@@@std@@@Z$0 1002dc90 f   PlugInUtilities:RasterUtilities.obj
 0001:0002cc98       __ehhandler$??$chipMetadataDimTemplate@G@?A0x92b3477e@@YA_NAAVDataVariant@@ABV?$vector@VDimensionDescriptor@@V?$allocator@VDimensionDescriptor@@@std@@@std@@@Z 1002dc98 f   PlugInUtilities:RasterUtilities.obj
 0001:0002ccb0       __unwindfunclet$??$chipMetadataDimTemplate@I@?A0x92b3477e@@YA_NAAVDataVariant@@ABV?$vector@VDimensionDescriptor@@V?$allocator@VDimensionDescriptor@@@std@@@std@@@Z$0 1002dcb0 f   PlugInUtilities:RasterUtilities.obj
 0001:0002ccb8       __ehhandler$??$chipMetadataDimTemplate@I@?A0x92b3477e@@YA_NAAVDataVariant@@ABV?$vector@VDimensionDescriptor@@V?$allocator@VDimensionDescriptor@@@std@@@std@@@Z 1002dcb8 f   PlugInUtilities:RasterUtilities.obj
 0001:0002ccd0       __unwindfunclet$??$chipMetadataDimTemplate@J@?A0x92b3477e@@YA_NAAVDataVariant@@ABV?$vector@VDimensionDescriptor@@V?$allocator@VDimensionDescriptor@@@std@@@std@@@Z$0 1002dcd0 f   PlugInUtilities:RasterUtilities.obj
 0001:0002ccd8       __ehhandler$??$chipMetadataDimTemplate@J@?A0x92b3477e@@YA_NAAVDataVariant@@ABV?$vector@VDimensionDescriptor@@V?$allocator@VDimensionDescriptor@@@std@@@std@@@Z 1002dcd8 f   PlugInUtilities:RasterUtilities.obj
 0001:0002ccf0       __unwindfunclet$??$chipMetadataDimTemplate@K@?A0x92b3477e@@YA_NAAVDataVariant@@ABV?$vector@VDimensionDescriptor@@V?$allocator@VDimensionDescriptor@@@std@@@std@@@Z$0 1002dcf0 f   PlugInUtilities:RasterUtilities.obj
 0001:0002ccf8       __ehhandler$??$chipMetadataDimTemplate@K@?A0x92b3477e@@YA_NAAVDataVariant@@ABV?$vector@VDimensionDescriptor@@V?$allocator@VDimensionDescriptor@@@std@@@std@@@Z 1002dcf8 f   PlugInUtilities:RasterUtilities.obj
 0001:0002cd10       __unwindfunclet$??$chipMetadataDimTemplate@_J@?A0x92b3477e@@YA_NAAVDataVariant@@ABV?$vector@VDimensionDescriptor@@V?$allocator@VDimensionDescriptor@@@std@@@std@@@Z$0 1002dd10 f   PlugInUtilities:RasterUtilities.obj
 0001:0002cd18       __ehhandler$??$chipMetadataDimTemplate@_J@?A0x92b3477e@@YA_NAAVDataVariant@@ABV?$vector@VDimensionDescriptor@@V?$allocator@VDimensionDescriptor@@@std@@@std@@@Z 1002dd18 f   PlugInUtilities:RasterUtilities.obj
 0001:0002cd30       __unwindfunclet$??$chipMetadataDimTemplate@_K@?A0x92b3477e@@YA_NAAVDataVariant@@ABV?$vector@VDimensionDescriptor@@V?$allocator@VDimensionDescriptor@@@std@@@std@@@Z$0 1002dd30 f   PlugInUtilities:RasterUtilities.obj
 0001:0002cd38       __ehhandler$??$chipMetadataDimTemplate@_K@?A0x92b3477e@@YA_NAAVDataVariant@@ABV?$vector@VDimensionDescriptor@@V?$allocator@VDimensionDescriptor@@@std@@@std@@@Z 1002dd38 f   PlugInUtilities:RasterUtilities.obj
 0001:0002cd50       __unwindfunclet$??$chipMetadataDimTemplate@VInt64@@@?A0x92b3477e@@YA_NAAVDataVariant@@ABV?$vector@VDimensionDescriptor@@V?$allocator@VDimensionDescriptor@@@std@@@std@@@Z$0 1002dd50 f   PlugInUtilities:RasterUtilities.obj
 0001:0002cd58       __ehhandler$??$chipMetadataDimTemplate@VInt64@@@?A0x92b3477e@@YA_NAAVDataVariant@@ABV?$vector@VDimensionDescriptor@@V?$allocator@VDimensionDescriptor@@@std@@@std@@@Z 1002dd58 f   PlugInUtilities:RasterUtilities.obj
 0001:0002cd70       __unwindfunclet$??$chipMetadataDimTemplate@VUInt64@@@?A0x92b3477e@@YA_NAAVDataVariant@@ABV?$vector@VDimensionDescriptor@@V?$allocator@VDimensionDescriptor@@@std@@@std@@@Z$0 1002dd70 f   PlugInUtilities:RasterUtilities.obj
 0001:0002cd78       __ehhandler$??$chipMetadataDimTemplate@VUInt64@@@?A0x92b3477e@@YA_NAAVDataVariant@@ABV?$vector@VDimensionDescriptor@@V?$allocator@VDimensionDescriptor@@@std@@@std@@@Z 1002dd78 f   PlugInUtilities:RasterUtilities.obj
 0001:0002cd90       __unwindfunclet$??$chipMetadataDimTemplate@M@?A0x92b3477e@@YA_NAAVDataVariant@@ABV?$vector@VDimensionDescriptor@@V?$allocator@VDimensionDescriptor@@@std@@@std@@@Z$0 1002dd90 f   PlugInUtilities:RasterUtilities.obj
 0001:0002cd98       __ehhandler$??$chipMetadataDimTemplate@M@?A0x92b3477e@@YA_NAAVDataVariant@@ABV?$vector@VDimensionDescriptor@@V?$allocator@VDimensionDescriptor@@@std@@@std@@@Z 1002dd98 f   PlugInUtilities:RasterUtilities.obj
 0001:0002cdb0       __unwindfunclet$??$chipMetadataDimTemplate@N@?A0x92b3477e@@YA_NAAVDataVariant@@ABV?$vector@VDimensionDescriptor@@V?$allocator@VDimensionDescriptor@@@std@@@std@@@Z$0 1002ddb0 f   PlugInUtilities:RasterUtilities.obj
 0001:0002cdb8       __ehhandler$??$chipMetadataDimTemplate@N@?A0x92b3477e@@YA_NAAVDataVariant@@ABV?$vector@VDimensionDescriptor@@V?$allocator@VDimensionDescriptor@@@std@@@std@@@Z 1002ddb8 f   PlugInUtilities:RasterUtilities.obj
 0001:0002cdd0       __unwindfunclet$?subsetDimensionVector@RasterUtilities@@YA?AV?$vector@VDimensionDescriptor@@V?$allocator@VDimensionDescriptor@@@std@@@std@@ABV23@ABVDimensionDescriptor@@1I@Z$0 1002ddd0 f   PlugInUtilities:RasterUtilities.obj
 0001:0002cde9       __ehhandler$?subsetDimensionVector@RasterUtilities@@YA?AV?$vector@VDimensionDescriptor@@V?$allocator@VDimensionDescriptor@@@std@@@std@@ABV23@ABVDimensionDescriptor@@1I@Z 1002dde9 f   PlugInUtilities:RasterUtilities.obj
 0001:0002ce00       __unwindfunclet$?generateFileDescriptorForExport@RasterUtilities@@YAPAVFileDescriptor@@PBVDataDescriptor@@ABV?$basic_string@DU?$char_traits@D@std@@V?$allocator@D@2@@std@@ABVDimensionDescriptor@@2I22IABV?$vector@VDimensionDescriptor@@V?$allocator@VDimensionDescriptor@@@std@@@5@@Z$2 1002de00 f   PlugInUtilities:RasterUtilities.obj
 0001:0002ce0b       __unwindfunclet$?generateFileDescriptorForExport@RasterUtilities@@YAPAVFileDescriptor@@PBVDataDescriptor@@ABV?$basic_string@DU?$char_traits@D@std@@V?$allocator@D@2@@std@@ABVDimensionDescriptor@@2I22IABV?$vector@VDimensionDescriptor@@V?$allocator@VDimensionDescriptor@@@std@@@5@@Z$3 1002de0b f   PlugInUtilities:RasterUtilities.obj
 0001:0002ce16       __unwindfunclet$?generateFileDescriptorForExport@RasterUtilities@@YAPAVFileDescriptor@@PBVDataDescriptor@@ABV?$basic_string@DU?$char_traits@D@std@@V?$allocator@D@2@@std@@ABVDimensionDescriptor@@2I22IABV?$vector@VDimensionDescriptor@@V?$allocator@VDimensionDescriptor@@@std@@@5@@Z$4 1002de16 f   PlugInUtilities:RasterUtilities.obj
 0001:0002ce21       __ehhandler$?generateFileDescriptorForExport@RasterUtilities@@YAPAVFileDescriptor@@PBVDataDescriptor@@ABV?$basic_string@DU?$char_traits@D@std@@V?$allocator@D@2@@std@@ABVDimensionDescriptor@@2I22IABV?$vector@VDimensionDescriptor@@V?$allocator@VDimensionDescriptor@@@std@@@5@@Z 1002de21 f   PlugInUtilities:RasterUtilities.obj
 0001:0002ce30       __unwindfunclet$?generateFileDescriptorForExport@RasterUtilities@@YAPAVFileDescriptor@@PBVDataDescriptor@@ABV?$basic_string@DU?$char_traits@D@std@@V?$allocator@D@2@@std@@ABVDimensionDescriptor@@2I22I22I@Z$0 1002de30 f   PlugInUtilities:RasterUtilities.obj
 0001:0002ce38       __ehhandler$?generateFileDescriptorForExport@RasterUtilities@@YAPAVFileDescriptor@@PBVDataDescriptor@@ABV?$basic_string@DU?$char_traits@D@std@@V?$allocator@D@2@@std@@ABVDimensionDescriptor@@2I22I22I@Z 1002de38 f   PlugInUtilities:RasterUtilities.obj
 0001:0002ce50       __unwindfunclet$?subsetDataDescriptor@RasterUtilities@@YAXPAVDataDescriptor@@ABVDimensionDescriptor@@1I11IABV?$vector@VDimensionDescriptor@@V?$allocator@VDimensionDescriptor@@@std@@@std@@@Z$0 1002de50 f   PlugInUtilities:RasterUtilities.obj
 0001:0002ce58       __unwindfunclet$?subsetDataDescriptor@RasterUtilities@@YAXPAVDataDescriptor@@ABVDimensionDescriptor@@1I11IABV?$vector@VDimensionDescriptor@@V?$allocator@VDimensionDescriptor@@@std@@@std@@@Z$1 1002de58 f   PlugInUtilities:RasterUtilities.obj
 0001:0002ce60       __unwindfunclet$?subsetDataDescriptor@RasterUtilities@@YAXPAVDataDescriptor@@ABVDimensionDescriptor@@1I11IABV?$vector@VDimensionDescriptor@@V?$allocator@VDimensionDescriptor@@@std@@@std@@@Z$2 1002de60 f   PlugInUtilities:RasterUtilities.obj
 0001:0002ce68       __ehhandler$?subsetDataDescriptor@RasterUtilities@@YAXPAVDataDescriptor@@ABVDimensionDescriptor@@1I11IABV?$vector@VDimensionDescriptor@@V?$allocator@VDimensionDescriptor@@@std@@@std@@@Z 1002de68 f   PlugInUtilities:RasterUtilities.obj
 0001:0002ce80       __unwindfunclet$?subsetDataDescriptor@RasterUtilities@@YAXPAVDataDescriptor@@ABVDimensionDescriptor@@1I11I11I@Z$0 1002de80 f   PlugInUtilities:RasterUtilities.obj
 0001:0002ce88       __ehhandler$?subsetDataDescriptor@RasterUtilities@@YAXPAVDataDescriptor@@ABVDimensionDescriptor@@1I11I11I@Z 1002de88 f   PlugInUtilities:RasterUtilities.obj
 0001:0002cea0       __unwindfunclet$?getVisibleRasterChannels@RasterUtilities@@YA?AV?$vector@V?$EnumWrapper@W4RasterChannelTypeEnum@@@@V?$allocator@V?$EnumWrapper@W4RasterChannelTypeEnum@@@@@std@@@std@@XZ$0 1002dea0 f   PlugInUtilities:RasterUtilities.obj
 0001:0002ceb9       __ehhandler$?getVisibleRasterChannels@RasterUtilities@@YA?AV?$vector@V?$EnumWrapper@W4RasterChannelTypeEnum@@@@V?$allocator@V?$EnumWrapper@W4RasterChannelTypeEnum@@@@@std@@@std@@XZ 1002deb9 f   PlugInUtilities:RasterUtilities.obj
 0001:0002ced0       __unwindfunclet$??$chipMetadataDimTemplate@V?$basic_string@DU?$char_traits@D@std@@V?$allocator@D@2@@std@@@?A0x92b3477e@@YA_NAAVDataVariant@@ABV?$vector@VDimensionDescriptor@@V?$allocator@VDimensionDescriptor@@@std@@@std@@@Z$0 1002ded0 f   PlugInUtilities:RasterUtilities.obj
 0001:0002ced8       __ehhandler$??$chipMetadataDimTemplate@V?$basic_string@DU?$char_traits@D@std@@V?$allocator@D@2@@std@@@?A0x92b3477e@@YA_NAAVDataVariant@@ABV?$vector@VDimensionDescriptor@@V?$allocator@VDimensionDescriptor@@@std@@@std@@@Z 1002ded8 f   PlugInUtilities:RasterUtilities.obj
 0001:0002cef0       __unwindfunclet$?generateFileDescriptorForExport@RasterUtilities@@YAPAVFileDescriptor@@PBVDataDescriptor@@ABV?$basic_string@DU?$char_traits@D@std@@V?$allocator@D@2@@std@@@Z$0 1002def0 f   PlugInUtilities:RasterUtilities.obj
 0001:0002cef8       __ehhandler$?generateFileDescriptorForExport@RasterUtilities@@YAPAVFileDescriptor@@PBVDataDescriptor@@ABV?$basic_string@DU?$char_traits@D@std@@V?$allocator@D@2@@std@@@Z 1002def8 f   PlugInUtilities:RasterUtilities.obj
 0001:0002cf10       __unwindfunclet$?rotate@RasterUtilities@@YA_NPAVRasterElement@@PBV2@NHV?$EnumWrapper@W4InterpolationTypeEnum@RasterUtilities@@@@PAVProgress@@PA_N@Z$1 1002df10 f   PlugInUtilities:RasterUtilities.obj
 0001:0002cf1b       __unwindfunclet$?rotate@RasterUtilities@@YA_NPAVRasterElement@@PBV2@NHV?$EnumWrapper@W4InterpolationTypeEnum@RasterUtilities@@@@PAVProgress@@PA_N@Z$3 1002df1b f   PlugInUtilities:RasterUtilities.obj
 0001:0002cf26       __unwindfunclet$?rotate@RasterUtilities@@YA_NPAVRasterElement@@PBV2@NHV?$EnumWrapper@W4InterpolationTypeEnum@RasterUtilities@@@@PAVProgress@@PA_N@Z$6 1002df26 f   PlugInUtilities:RasterUtilities.obj
 0001:0002cf31       __unwindfunclet$?rotate@RasterUtilities@@YA_NPAVRasterElement@@PBV2@NHV?$EnumWrapper@W4InterpolationTypeEnum@RasterUtilities@@@@PAVProgress@@PA_N@Z$9 1002df31 f   PlugInUtilities:RasterUtilities.obj
 0001:0002cf3c       __unwindfunclet$?rotate@RasterUtilities@@YA_NPAVRasterElement@@PBV2@NHV?$EnumWrapper@W4InterpolationTypeEnum@RasterUtilities@@@@PAVProgress@@PA_N@Z$10 1002df3c f   PlugInUtilities:RasterUtilities.obj
 0001:0002cf47       __unwindfunclet$?rotate@RasterUtilities@@YA_NPAVRasterElement@@PBV2@NHV?$EnumWrapper@W4InterpolationTypeEnum@RasterUtilities@@@@PAVProgress@@PA_N@Z$11 1002df47 f   PlugInUtilities:RasterUtilities.obj
 0001:0002cf53       __unwindfunclet$?rotate@RasterUtilities@@YA_NPAVRasterElement@@PBV2@NHV?$EnumWrapper@W4InterpolationTypeEnum@RasterUtilities@@@@PAVProgress@@PA_N@Z$12 1002df53 f   PlugInUtilities:RasterUtilities.obj
 0001:0002cf5f       __unwindfunclet$?rotate@RasterUtilities@@YA_NPAVRasterElement@@PBV2@NHV?$EnumWrapper@W4InterpolationTypeEnum@RasterUtilities@@@@PAVProgress@@PA_N@Z$14 1002df5f f   PlugInUtilities:RasterUtilities.obj
 0001:0002cf6a       __unwindfunclet$?rotate@RasterUtilities@@YA_NPAVRasterElement@@PBV2@NHV?$EnumWrapper@W4InterpolationTypeEnum@RasterUtilities@@@@PAVProgress@@PA_N@Z$15 1002df6a f   PlugInUtilities:RasterUtilities.obj
 0001:0002cf75       __unwindfunclet$?rotate@RasterUtilities@@YA_NPAVRasterElement@@PBV2@NHV?$EnumWrapper@W4InterpolationTypeEnum@RasterUtilities@@@@PAVProgress@@PA_N@Z$16 1002df75 f   PlugInUtilities:RasterUtilities.obj
 0001:0002cf80       __unwindfunclet$?rotate@RasterUtilities@@YA_NPAVRasterElement@@PBV2@NHV?$EnumWrapper@W4InterpolationTypeEnum@RasterUtilities@@@@PAVProgress@@PA_N@Z$17 1002df80 f   PlugInUtilities:RasterUtilities.obj
 0001:0002cf8b       __unwindfunclet$?rotate@RasterUtilities@@YA_NPAVRasterElement@@PBV2@NHV?$EnumWrapper@W4InterpolationTypeEnum@RasterUtilities@@@@PAVProgress@@PA_N@Z$18 1002df8b f   PlugInUtilities:RasterUtilities.obj
 0001:0002cf97       __unwindfunclet$?rotate@RasterUtilities@@YA_NPAVRasterElement@@PBV2@NHV?$EnumWrapper@W4InterpolationTypeEnum@RasterUtilities@@@@PAVProgress@@PA_N@Z$21 1002df97 f   PlugInUtilities:RasterUtilities.obj
 0001:0002cfa2       __unwindfunclet$?rotate@RasterUtilities@@YA_NPAVRasterElement@@PBV2@NHV?$EnumWrapper@W4InterpolationTypeEnum@RasterUtilities@@@@PAVProgress@@PA_N@Z$19 1002dfa2 f   PlugInUtilities:RasterUtilities.obj
 0001:0002cfae       __unwindfunclet$?rotate@RasterUtilities@@YA_NPAVRasterElement@@PBV2@NHV?$EnumWrapper@W4InterpolationTypeEnum@RasterUtilities@@@@PAVProgress@@PA_N@Z$20 1002dfae f   PlugInUtilities:RasterUtilities.obj
 0001:0002cfba       __unwindfunclet$?rotate@RasterUtilities@@YA_NPAVRasterElement@@PBV2@NHV?$EnumWrapper@W4InterpolationTypeEnum@RasterUtilities@@@@PAVProgress@@PA_N@Z$24 1002dfba f   PlugInUtilities:RasterUtilities.obj
 0001:0002cfc6       __unwindfunclet$?rotate@RasterUtilities@@YA_NPAVRasterElement@@PBV2@NHV?$EnumWrapper@W4InterpolationTypeEnum@RasterUtilities@@@@PAVProgress@@PA_N@Z$25 1002dfc6 f   PlugInUtilities:RasterUtilities.obj
 0001:0002cfd2       __unwindfunclet$?rotate@RasterUtilities@@YA_NPAVRasterElement@@PBV2@NHV?$EnumWrapper@W4InterpolationTypeEnum@RasterUtilities@@@@PAVProgress@@PA_N@Z$26 1002dfd2 f   PlugInUtilities:RasterUtilities.obj
 0001:0002cfde       __unwindfunclet$?rotate@RasterUtilities@@YA_NPAVRasterElement@@PBV2@NHV?$EnumWrapper@W4InterpolationTypeEnum@RasterUtilities@@@@PAVProgress@@PA_N@Z$13 1002dfde f   PlugInUtilities:RasterUtilities.obj
 0001:0002cfea       __unwindfunclet$?rotate@RasterUtilities@@YA_NPAVRasterElement@@PBV2@NHV?$EnumWrapper@W4InterpolationTypeEnum@RasterUtilities@@@@PAVProgress@@PA_N@Z$2 1002dfea f   PlugInUtilities:RasterUtilities.obj
 0001:0002cff6       __unwindfunclet$?rotate@RasterUtilities@@YA_NPAVRasterElement@@PBV2@NHV?$EnumWrapper@W4InterpolationTypeEnum@RasterUtilities@@@@PAVProgress@@PA_N@Z$0 1002dff6 f   PlugInUtilities:RasterUtilities.obj
 0001:0002d002       __ehhandler$?rotate@RasterUtilities@@YA_NPAVRasterElement@@PBV2@NHV?$EnumWrapper@W4InterpolationTypeEnum@RasterUtilities@@@@PAVProgress@@PA_N@Z 1002e002 f   PlugInUtilities:RasterUtilities.obj
 0001:0002d010       __unwindfunclet$??$chipMetadataDimTemplate@_N@?A0x92b3477e@@YA_NAAVDataVariant@@ABV?$vector@VDimensionDescriptor@@V?$allocator@VDimensionDescriptor@@@std@@@std@@@Z$0 1002e010 f   PlugInUtilities:RasterUtilities.obj
 0001:0002d018       __ehhandler$??$chipMetadataDimTemplate@_N@?A0x92b3477e@@YA_NAAVDataVariant@@ABV?$vector@VDimensionDescriptor@@V?$allocator@VDimensionDescriptor@@@std@@@std@@@Z 1002e018 f   PlugInUtilities:RasterUtilities.obj
 0001:0002d030       __unwindfunclet$?chipMetadataDim@?A0x92b3477e@@YAXPAVDynamicObject@@ABV?$vector@VDimensionDescriptor@@V?$allocator@VDimensionDescriptor@@@std@@@std@@@Z$0 1002e030 f   PlugInUtilities:RasterUtilities.obj
 0001:0002d038       __unwindfunclet$?chipMetadataDim@?A0x92b3477e@@YAXPAVDynamicObject@@ABV?$vector@VDimensionDescriptor@@V?$allocator@VDimensionDescriptor@@@std@@@std@@@Z$1 1002e038 f   PlugInUtilities:RasterUtilities.obj
 0001:0002d041       __ehhandler$?chipMetadataDim@?A0x92b3477e@@YAXPAVDynamicObject@@ABV?$vector@VDimensionDescriptor@@V?$allocator@VDimensionDescriptor@@@std@@@std@@@Z 1002e041 f   PlugInUtilities:RasterUtilities.obj
 0001:0002d050       __unwindfunclet$?chipMetadata@RasterUtilities@@YA_NPAVDynamicObject@@ABV?$vector@VDimensionDescriptor@@V?$allocator@VDimensionDescriptor@@@std@@@std@@11@Z$0 1002e050 f   PlugInUtilities:RasterUtilities.obj
 0001:0002d059       __unwindfunclet$?chipMetadata@RasterUtilities@@YA_NPAVDynamicObject@@ABV?$vector@VDimensionDescriptor@@V?$allocator@VDimensionDescriptor@@@std@@@std@@11@Z$1 1002e059 f   PlugInUtilities:RasterUtilities.obj
 0001:0002d062       __unwindfunclet$?chipMetadata@RasterUtilities@@YA_NPAVDynamicObject@@ABV?$vector@VDimensionDescriptor@@V?$allocator@VDimensionDescriptor@@@std@@@std@@11@Z$2 1002e062 f   PlugInUtilities:RasterUtilities.obj
 0001:0002d06b       __unwindfunclet$?chipMetadata@RasterUtilities@@YA_NPAVDynamicObject@@ABV?$vector@VDimensionDescriptor@@V?$allocator@VDimensionDescriptor@@@std@@@std@@11@Z$3 1002e06b f   PlugInUtilities:RasterUtilities.obj
 0001:0002d074       __ehhandler$?chipMetadata@RasterUtilities@@YA_NPAVDynamicObject@@ABV?$vector@VDimensionDescriptor@@V?$allocator@VDimensionDescriptor@@@std@@@std@@11@Z 1002e074 f   PlugInUtilities:RasterUtilities.obj
 0001:0002d080       __unwindfunclet$?LogVerificationErrorProc@@YAXPBD0I0@Z$0 1002e080 f   PlugInUtilities:AppVerify.obj
 0001:0002d08c       __unwindfunclet$?LogVerificationErrorProc@@YAXPBD0I0@Z$1 1002e08c f   PlugInUtilities:AppVerify.obj
 0001:0002d098       __unwindfunclet$?LogVerificationErrorProc@@YAXPBD0I0@Z$2 1002e098 f   PlugInUtilities:AppVerify.obj
 0001:0002d0a4       __unwindfunclet$?LogVerificationErrorProc@@YAXPBD0I0@Z$3 1002e0a4 f   PlugInUtilities:AppVerify.obj
 0001:0002d0b0       __unwindfunclet$?LogVerificationErrorProc@@YAXPBD0I0@Z$4 1002e0b0 f   PlugInUtilities:AppVerify.obj
 0001:0002d0bc       __unwindfunclet$?LogVerificationErrorProc@@YAXPBD0I0@Z$5 1002e0bc f   PlugInUtilities:AppVerify.obj
 0001:0002d0c8       __unwindfunclet$?LogVerificationErrorProc@@YAXPBD0I0@Z$6 1002e0c8 f   PlugInUtilities:AppVerify.obj
 0001:0002d0d4       __unwindfunclet$?LogVerificationErrorProc@@YAXPBD0I0@Z$7 1002e0d4 f   PlugInUtilities:AppVerify.obj
 0001:0002d0e0       __unwindfunclet$?LogVerificationErrorProc@@YAXPBD0I0@Z$8 1002e0e0 f   PlugInUtilities:AppVerify.obj
 0001:0002d0ec       __unwindfunclet$?LogVerificationErrorProc@@YAXPBD0I0@Z$9 1002e0ec f   PlugInUtilities:AppVerify.obj
 0001:0002d0f8       __unwindfunclet$?LogVerificationErrorProc@@YAXPBD0I0@Z$10 1002e0f8 f   PlugInUtilities:AppVerify.obj
 0001:0002d104       __unwindfunclet$?LogVerificationErrorProc@@YAXPBD0I0@Z$11 1002e104 f   PlugInUtilities:AppVerify.obj
 0001:0002d110       __unwindfunclet$?LogVerificationErrorProc@@YAXPBD0I0@Z$12 1002e110 f   PlugInUtilities:AppVerify.obj
 0001:0002d11c       __unwindfunclet$?LogVerificationErrorProc@@YAXPBD0I0@Z$13 1002e11c f   PlugInUtilities:AppVerify.obj
 0001:0002d128       __unwindfunclet$?LogVerificationErrorProc@@YAXPBD0I0@Z$14 1002e128 f   PlugInUtilities:AppVerify.obj
 0001:0002d134       __unwindfunclet$?LogVerificationErrorProc@@YAXPBD0I0@Z$15 1002e134 f   PlugInUtilities:AppVerify.obj
 0001:0002d140       __ehhandler$?LogVerificationErrorProc@@YAXPBD0I0@Z 1002e140 f   PlugInUtilities:AppVerify.obj
 0001:0002d150       __unwindfunclet$?createWrapper@DataVariant@@ABEPAVDataValueWrapper@@PBXPBD_N@Z$0 1002e150 f   PlugInUtilities:DataVariant.obj
 0001:0002d159       __ehhandler$?createWrapper@DataVariant@@ABEPAVDataValueWrapper@@PBXPBD_N@Z 1002e159 f   PlugInUtilities:DataVariant.obj
 0001:0002d170       ??__EDataMergepluginFactory@SpectralDataMerge@@YAXXZ 1002e170 f   DataMerge.obj
 0001:0002d200       ??__E?staticMetaObject@DataMerge@@2UQMetaObject@@B@@YAXXZ 1002e200 f   moc_DataMerge.obj
 0001:0002d210       ??__FDataMergepluginFactory@SpectralDataMerge@@YAXXZ 1002e210 f   DataMerge.obj
 0001:0002d220       ??__FsFactories@?1??factories@SpectralDataMerge@@YAAAV?$vector@U?$pair@V?$basic_string@DU?$char_traits@D@std@@V?$allocator@D@2@@std@@PAVPlugInFactory@@@std@@V?$allocator@U?$pair@V?$basic_string@DU?$char_traits@D@std@@V?$allocator@D@2@@std@@PAVPlugInFactory@@@std@@@2@@std@@XZ@YAXXZ 1002e220 f   ModuleManager.obj

 Exports

  ordinal    name

        1    _SpectralDataMergeInstantiatePlugIn
               exported name: SpectralDataMergeInstantiatePlugIn
        2    _opticks_get_module_descriptor
               exported name: opticks_get_module_descriptor
