 DataMerge

 Timestamp is 4c39c973 (Sun Jul 11 21:38:59 2010)

 Preferred load address is 10000000

 Start         Length     Name                   Class
 0001:00000000 0000f414H .text                   CODE
 0001:0000f420 0000139aH .text$x                 CODE
 0001:000107c0 000000abH .text$yc                CODE
 0001:00010870 0000003bH .text$yd                CODE
 0002:00000000 000004b4H .idata$5                DATA
 0002:000004b4 00000004H .CRT$XCA                DATA
 0002:000004b8 0000000cH .CRT$XCU                DATA
 0002:000004c4 00000004H .CRT$XCZ                DATA
 0002:000004c8 00000004H .CRT$XIA                DATA
 0002:000004cc 00000004H .CRT$XIAA               DATA
 0002:000004d0 00000004H .CRT$XIZ                DATA
 0002:000004e0 00002490H .rdata                  DATA
 0002:00002970 00000069H .rdata$debug            DATA
 0002:000029dc 00000fb4H .rdata$r                DATA
 0002:00003990 000001b0H .rdata$sxdata           DATA
 0002:00003b40 00000004H .rtc$IAA                DATA
 0002:00003b44 00000004H .rtc$IZZ                DATA
 0002:00003b48 00000004H .rtc$TAA                DATA
 0002:00003b4c 00000004H .rtc$TZZ                DATA
 0002:00003b50 00001d9cH .xdata$x                DATA
 0002:000058ec 00000064H .idata$2                DATA
 0002:00005950 00000014H .idata$3                DATA
 0002:00005964 000004b4H .idata$4                DATA
 0002:00005e18 000034d2H .idata$6                DATA
 0002:000092f0 0000008bH .edata                  DATA
 0003:00000000 000007e0H .data                   DATA
 0003:000007e0 000003d4H .bss                    DATA

  Address         Publics by Value              Rva+Base       Lib:Object

 0000:00000000       __except_list              00000000     <absolute>
 0000:0000006c       ___safe_se_handler_count   0000006c     <absolute>
 0000:00009876       __fltused                  00009876     <absolute>
 0000:00009876       __ldused                   00009876     <absolute>
 0000:00000000       ___ImageBase               10000000     <linker-defined>
 0001:00000000       ??CDataAccessor@@QAEPAVDataAccessorImpl@@XZ 10001000 f i DataMerge.obj
 0001:00000010       ??0bad_alloc@std@@QAE@PBD@Z 10001010 f i DataMerge.obj
 0001:00000030       ??1bad_alloc@std@@UAE@XZ   10001030 f i DataMerge.obj
 0001:00000040       ??_Ebad_alloc@std@@UAEPAXI@Z 10001040 f i DataMerge.obj
 0001:00000040       ??_Gbad_alloc@std@@UAEPAXI@Z 10001040 f i DataMerge.obj
 0001:00000070       ??2@YAPAXIPAX@Z            10001070 f i DataMerge.obj
 0001:00000080       ??3@YAXPAX0@Z              10001080 f i DataMerge.obj
 0001:00000090       ??0_Iterator_base@std@@QAE@XZ 10001090 f i DataMerge.obj
 0001:000000a0       ??0logic_error@std@@QAE@ABV?$basic_string@DU?$char_traits@D@std@@V?$allocator@D@2@@1@@Z 100010a0 f i DataMerge.obj
 0001:00000100       ??1logic_error@std@@UAE@XZ 10001100 f i DataMerge.obj
 0001:00000120       ?what@logic_error@std@@UBEPBDXZ 10001120 f i DataMerge.obj
 0001:00000130       ??_Elogic_error@std@@UAEPAXI@Z 10001130 f i DataMerge.obj
 0001:00000130       ??_Glogic_error@std@@UAEPAXI@Z 10001130 f i DataMerge.obj
 0001:00000160       ??0length_error@std@@QAE@ABV?$basic_string@DU?$char_traits@D@std@@V?$allocator@D@2@@1@@Z 10001160 f i DataMerge.obj
 0001:00000180       ??1length_error@std@@UAE@XZ 10001180 f i DataMerge.obj
 0001:000001a0       ??_Glength_error@std@@UAEPAXI@Z 100011a0 f i DataMerge.obj
 0001:000001a0       ??_Elength_error@std@@UAEPAXI@Z 100011a0 f i DataMerge.obj
 0001:000001d0       ??0Args@FactoryAllocator@@QAE@PBD@Z 100011d0 f i DataMerge.obj
 0001:000001f0       ?getColumn@DataAccessorImpl@@QAEPAXXZ 100011f0 f i DataMerge.obj
 0001:00000200       ?updateIfNeeded@DataAccessorImpl@@AAEXXZ 10001200 f i DataMerge.obj
 0001:00000290       ??0logic_error@std@@QAE@ABV01@@Z 10001290 f i DataMerge.obj
 0001:000002f0       ??1Args@MessageObject@@QAE@XZ 100012f0 f i DataMerge.obj
 0001:00000370       ??0PlugInFactory@@QAE@XZ   10001370 f i DataMerge.obj
 0001:00000380       ??0DataMerge@@QAE@XZ       10001380 f   DataMerge.obj
 0001:00000570       ??1DataMerge@@UAE@XZ       10001570 f   DataMerge.obj
 0001:000005e0       ?getWidget@DataMerge@@UBEPAVQWidget@@XZ 100015e0 f   DataMerge.obj
 0001:000005f0       ?dialogClosed@DataMerge@@QAEXXZ 100015f0 f   DataMerge.obj
 0001:00000600       ?serialize@DataMerge@@UBE_NAAVSessionItemSerializer@@@Z 10001600 f   DataMerge.obj
 0001:00000620       ??C?$Service@VApplicationServices@@@@QBEPAVApplicationServices@@XZ 10001620 f i DataMerge.obj
 0001:00000630       ??C?$Service@VModelServices@@@@QBEPAVModelServices@@XZ 10001630 f i DataMerge.obj
 0001:00000640       ?get@?$Resource@VDataRequest@@VFactoryObject@@@@QAEPAVDataRequest@@XZ 10001640 f i DataMerge.obj
 0001:00000650       ?release@?$Resource@VDataRequest@@VFactoryObject@@@@QAEPAVDataRequest@@XZ 10001650 f i DataMerge.obj
 0001:00000660       ??0?$EnumWrapper@W4ResultEnum@Message@@@@QAE@ABW4ResultEnum@Message@@@Z 10001660 f i DataMerge.obj
 0001:00000680       ??C?$Service@VSessionManager@@@@QBEPAVSessionManager@@XZ 10001680 f i DataMerge.obj
 0001:00000690       ??C?$Service@VMessageLogMgr@@@@QBEPAVMessageLogMgr@@XZ 10001690 f i DataMerge.obj
 0001:000006a0       ??B?$EnumWrapper@W4EncodingTypeEnum@@@@QBE?AW4EncodingTypeEnum@@XZ 100016a0 f i DataMerge.obj
 0001:000006b0       ?size@?$vector@PAVDataElement@@V?$allocator@PAVDataElement@@@std@@@std@@QBEIXZ 100016b0 f i DataMerge.obj
 0001:000006d0       ??1Args@FactoryAllocator@@QAE@XZ 100016d0 f i DataMerge.obj
 0001:000006e0       ??0Args@MessageObject@@QAE@ABU01@@Z 100016e0 f i DataMerge.obj
 0001:00000780       ?capacity@?$vector@V?$basic_string@DU?$char_traits@D@std@@V?$allocator@D@2@@std@@V?$allocator@V?$basic_string@DU?$char_traits@D@std@@V?$allocator@D@2@@std@@@2@@std@@QBEIXZ 10001780 f i DataMerge.obj
 0001:000007b0       ?size@?$vector@V?$basic_string@DU?$char_traits@D@std@@V?$allocator@D@2@@std@@V?$allocator@V?$basic_string@DU?$char_traits@D@std@@V?$allocator@D@2@@std@@@2@@std@@QBEIXZ 100017b0 f i DataMerge.obj
 0001:000007e0       ??0?$allocator@V?$basic_string@DU?$char_traits@D@std@@V?$allocator@D@2@@std@@@std@@QAE@XZ 100017e0 f i DataMerge.obj
 0001:000007f0       ??0?$allocator@V?$basic_string@DU?$char_traits@D@std@@V?$allocator@D@2@@std@@@std@@QAE@ABV01@@Z 100017f0 f i DataMerge.obj
 0001:00000800       ?deallocate@?$allocator@V?$basic_string@DU?$char_traits@D@std@@V?$allocator@D@2@@std@@@std@@QAEXPAV?$basic_string@DU?$char_traits@D@std@@V?$allocator@D@2@@2@I@Z 10001800 f i DataMerge.obj
 0001:00000810       ?get@?$Resource@VStep@@VMessageObject@@@@QAEPAVStep@@XZ 10001810 f i DataMerge.obj
 0001:00000820       ??D?$_Vector_const_iterator@PAVDataElement@@V?$allocator@PAVDataElement@@@std@@@std@@QBEABQAVDataElement@@XZ 10001820 f i DataMerge.obj
 0001:00000850       ??E?$_Vector_const_iterator@PAVDataElement@@V?$allocator@PAVDataElement@@@std@@@std@@QAEAAV01@XZ 10001850 f i DataMerge.obj
 0001:00000880       ??8?$_Vector_const_iterator@PAVDataElement@@V?$allocator@PAVDataElement@@@std@@@std@@QBE_NABV01@@Z 10001880 f i DataMerge.obj
 0001:000008b0       ??Bsentry@?$basic_ostream@DU?$char_traits@D@std@@@std@@QBE_NXZ 100018b0 f i DataMerge.obj
 0001:000008c0       ??0Args@FactoryAllocator@@QAE@ABV01@@Z 100018c0 f i DataMerge.obj
 0001:000008e0       ?_Xlen@?$vector@V?$basic_string@DU?$char_traits@D@std@@V?$allocator@D@2@@std@@V?$allocator@V?$basic_string@DU?$char_traits@D@std@@V?$allocator@D@2@@std@@@2@@std@@KAXXZ 100018e0 f i DataMerge.obj
 0001:00000960       ??0length_error@std@@QAE@ABV01@@Z 10001960 f i DataMerge.obj
 0001:00000980       ?deallocate@?$allocator@PAVDataElement@@@std@@QAEXPAPAVDataElement@@I@Z 10001980 f i DataMerge.obj
 0001:00000990       ??0_Sentry_base@?$basic_ostream@DU?$char_traits@D@std@@@std@@QAE@AAV12@@Z 10001990 f i DataMerge.obj
 0001:000009c0       ??1_Sentry_base@?$basic_ostream@DU?$char_traits@D@std@@@std@@QAE@XZ 100019c0 f i DataMerge.obj
 0001:000009e0       ??0?$_Ranit@PAVDataElement@@HPBQAV1@ABQAV1@@std@@QAE@XZ 100019e0 f i DataMerge.obj
 0001:000009f0       ??0?$_Ranit@V?$basic_string@DU?$char_traits@D@std@@V?$allocator@D@2@@std@@HPBV12@ABV12@@std@@QAE@XZ 100019f0 f i DataMerge.obj
 0001:00000a00       ?max_size@?$allocator@V?$basic_string@DU?$char_traits@D@std@@V?$allocator@D@2@@std@@@std@@QBEIXZ 10001a00 f i DataMerge.obj
 0001:00000a10       ??G?$_Vector_const_iterator@V?$basic_string@DU?$char_traits@D@std@@V?$allocator@D@2@@std@@V?$allocator@V?$basic_string@DU?$char_traits@D@std@@V?$allocator@D@2@@std@@@2@@std@@QBEHABV01@@Z 10001a10 f i DataMerge.obj
 0001:00000a50       ??Y?$_Vector_const_iterator@V?$basic_string@DU?$char_traits@D@std@@V?$allocator@D@2@@std@@V?$allocator@V?$basic_string@DU?$char_traits@D@std@@V?$allocator@D@2@@std@@@2@@std@@QAEAAV01@H@Z 10001a50 f i DataMerge.obj
 0001:00000aa0       ??$model_cast@PAVRasterElement@@PAVDataElement@@@@YAPAVRasterElement@@PAVDataElement@@@Z 10001aa0 f i DataMerge.obj
 0001:00000b10       ??$_Allocate@V?$basic_string@DU?$char_traits@D@std@@V?$allocator@D@2@@std@@@std@@YAPAV?$basic_string@DU?$char_traits@D@std@@V?$allocator@D@2@@0@IPAV10@@Z 10001b10 f i DataMerge.obj
 0001:00000b80       ??0bad_alloc@std@@QAE@ABV01@@Z 10001b80 f i DataMerge.obj
 0001:00000ba0       ??$_Iter_random@PAV?$basic_string@DU?$char_traits@D@std@@V?$allocator@D@2@@std@@PAV12@@std@@YA?AUrandom_access_iterator_tag@0@ABQAV?$basic_string@DU?$char_traits@D@std@@V?$allocator@D@2@@0@0@Z 10001ba0 f i DataMerge.obj
 0001:00000bb0       ??$_Ptr_cat@PAV?$basic_string@DU?$char_traits@D@std@@V?$allocator@D@2@@std@@PAV12@@std@@YA?AU_Nonscalar_ptr_iterator_tag@0@AAPAV?$basic_string@DU?$char_traits@D@std@@V?$allocator@D@2@@0@0@Z 10001bb0 f i DataMerge.obj
 0001:00000bc0       ??$_Fill@PAV?$basic_string@DU?$char_traits@D@std@@V?$allocator@D@2@@std@@V12@@std@@YAXPAV?$basic_string@DU?$char_traits@D@std@@V?$allocator@D@2@@0@0ABV10@@Z 10001bc0 f i DataMerge.obj
 0001:00000bf0       ??$_Move_cat@PAV?$basic_string@DU?$char_traits@D@std@@V?$allocator@D@2@@std@@@std@@YA?AU_Swap_move_tag@0@ABQAV?$basic_string@DU?$char_traits@D@std@@V?$allocator@D@2@@0@@Z 10001bf0 f i DataMerge.obj
 0001:00000c00       ??$_Ptr_cat@PAPAVDataElement@@PAPAV1@@std@@YA?AU_Scalar_ptr_iterator_tag@0@AAPAPAVDataElement@@0@Z 10001c00 f i DataMerge.obj
 0001:00000c10       ??$_Destroy_range@PAVDataElement@@V?$allocator@PAVDataElement@@@std@@@std@@YAXPAPAVDataElement@@0AAV?$allocator@PAVDataElement@@@0@U_Scalar_ptr_iterator_tag@0@@Z 10001c10 f i DataMerge.obj
 0001:00000c20       ??$_Checked_base@PAV?$basic_string@DU?$char_traits@D@std@@V?$allocator@D@2@@std@@@std@@YAPAV?$basic_string@DU?$char_traits@D@std@@V?$allocator@D@2@@0@AAPAV10@U_Unchanged_checked_iterator_base_type_tag@0@@Z 10001c20 f i DataMerge.obj
 0001:00000c30       ??$_Construct@V?$basic_string@DU?$char_traits@D@std@@V?$allocator@D@2@@std@@V12@@std@@YAXPAV?$basic_string@DU?$char_traits@D@std@@V?$allocator@D@2@@0@ABV10@@Z 10001c30 f i DataMerge.obj
 0001:00000c80       ??_G?$basic_string@DU?$char_traits@D@std@@V?$allocator@D@2@@std@@QAEPAXI@Z 10001c80 f i DataMerge.obj
 0001:00000ca0       ??$swap@DU?$char_traits@D@std@@V?$allocator@D@2@@std@@YAXAAV?$basic_string@DU?$char_traits@D@std@@V?$allocator@D@2@@0@0@Z 10001ca0 f i DataMerge.obj
 0001:00000cb0       ??_EDataMerge@@WM@AEPAXI@Z 10001cb0 f i DataMerge.obj
 0001:00000cc0       ??_EDataMerge@@WBA@AEPAXI@Z 10001cc0 f i DataMerge.obj
 0001:00000cd0       ??_EDataMerge@@W7AEPAXI@Z  10001cd0 f i DataMerge.obj
 0001:00000ce0       ?getFactory@FactoryAllocator@@IBEPAVObjectFactory@@XZ 10001ce0 f i DataMerge.obj
 0001:00000d00       ?obtainResource@FactoryObject@@QBEPAXABVArgs@FactoryAllocator@@@Z 10001d00 f i DataMerge.obj
 0001:00000d90       ?releaseResource@FactoryObject@@QBEXABVArgs@FactoryAllocator@@PAX@Z 10001d90 f i DataMerge.obj
 0001:00000e20       ?toPixel@DataAccessorImpl@@QAEXHH@Z 10001e20 f i DataMerge.obj
 0001:00000e50       ??0Args@MessageObject@@QAE@V?$basic_string@DU?$char_traits@D@std@@V?$allocator@D@2@@std@@0000_N@Z 10001e50 f i DataMerge.obj
 0001:00000fa0       ?obtainResource@MessageObject@@QBEPAVMessage@@ABUArgs@1@@Z 10001fa0 f i DataMerge.obj
 0001:00001010       ?releaseResource@MessageObject@@QBEXABUArgs@1@PAVMessage@@@Z 10002010 f i DataMerge.obj
 0001:00001050       ??_EDataMerge@@UAEPAXI@Z   10002050 f i DataMerge.obj
 0001:00001050       ??_GDataMerge@@UAEPAXI@Z   10002050 f i DataMerge.obj
 0001:00001070       ??0?$Resource@VStep@@VMessageObject@@@@QAE@ABUArgs@MessageObject@@@Z 10002070 f i DataMerge.obj
 0001:000010e0       ??C?$Resource@VStep@@VMessageObject@@@@QAEPAVStep@@XZ 100020e0 f i DataMerge.obj
 0001:000010f0       ??D?$_Vector_iterator@PAVDataElement@@V?$allocator@PAVDataElement@@@std@@@std@@QBEAAPAVDataElement@@XZ 100020f0 f i DataMerge.obj
 0001:00001120       ??E?$_Vector_iterator@PAVDataElement@@V?$allocator@PAVDataElement@@@std@@@std@@QAEAAV01@XZ 10002120 f i DataMerge.obj
 0001:00001150       ??9?$_Vector_const_iterator@PAVDataElement@@V?$allocator@PAVDataElement@@@std@@@std@@QBE_NABV01@@Z 10002150 f i DataMerge.obj
 0001:00001180       ??0?$_Vector_val@V?$basic_string@DU?$char_traits@D@std@@V?$allocator@D@2@@std@@V?$allocator@V?$basic_string@DU?$char_traits@D@std@@V?$allocator@D@2@@std@@@2@@std@@IAE@V?$allocator@V?$basic_string@DU?$char_traits@D@std@@V?$allocator@D@2@@std@@@1@@Z 10002180 f i DataMerge.obj
 0001:00001190       ??0?$Resource@VDataRequest@@VFactoryObject@@@@QAE@ABVArgs@FactoryAllocator@@@Z 10002190 f i DataMerge.obj
 0001:000011f0       ?destroyIfOwned@?$Resource@VDataRequest@@VFactoryObject@@@@IAEXXZ 100021f0 f i DataMerge.obj
 0001:00001220       ?destroyIfOwned@?$Resource@VStep@@VMessageObject@@@@IAEXXZ 10002220 f i DataMerge.obj
 0001:00001270       ??0sentry@?$basic_ostream@DU?$char_traits@D@std@@@std@@QAE@AAV12@@Z 10002270 f i DataMerge.obj
 0001:00001300       ??1sentry@?$basic_ostream@DU?$char_traits@D@std@@@std@@QAE@XZ 10002300 f i DataMerge.obj
 0001:00001370       ?max_size@?$vector@V?$basic_string@DU?$char_traits@D@std@@V?$allocator@D@2@@std@@V?$allocator@V?$basic_string@DU?$char_traits@D@std@@V?$allocator@D@2@@std@@@2@@std@@QBEIXZ 10002370 f i DataMerge.obj
 0001:00001380       ?allocate@?$allocator@V?$basic_string@DU?$char_traits@D@std@@V?$allocator@D@2@@std@@@std@@QAEPAV?$basic_string@DU?$char_traits@D@std@@V?$allocator@D@2@@2@I@Z 10002380 f i DataMerge.obj
 0001:000013a0       ??0?$_Vector_const_iterator@PAVDataElement@@V?$allocator@PAVDataElement@@@std@@@std@@QAE@PAPAVDataElement@@PBU_Container_base@1@@Z 100023a0 f i DataMerge.obj
 0001:000013e0       ??0?$_Vector_const_iterator@V?$basic_string@DU?$char_traits@D@std@@V?$allocator@D@2@@std@@V?$allocator@V?$basic_string@DU?$char_traits@D@std@@V?$allocator@D@2@@std@@@2@@std@@QAE@PAV?$basic_string@DU?$char_traits@D@std@@V?$allocator@D@2@@1@PBU_Container_base@1@@Z 100023e0 f i DataMerge.obj
 0001:00001420       ??0?$_Vector_iterator@V?$basic_string@DU?$char_traits@D@std@@V?$allocator@D@2@@std@@V?$allocator@V?$basic_string@DU?$char_traits@D@std@@V?$allocator@D@2@@std@@@2@@std@@QAE@PAV?$basic_string@DU?$char_traits@D@std@@V?$allocator@D@2@@1@PBU_Container_base@1@@Z 10002420 f i DataMerge.obj
 0001:00001460       ??G?$_Vector_iterator@V?$basic_string@DU?$char_traits@D@std@@V?$allocator@D@2@@std@@V?$allocator@V?$basic_string@DU?$char_traits@D@std@@V?$allocator@D@2@@std@@@2@@std@@QBEHABV?$_Vector_const_iterator@V?$basic_string@DU?$char_traits@D@std@@V?$allocator@D@2@@std@@V?$allocator@V?$basic_string@DU?$char_traits@D@std@@V?$allocator@D@2@@std@@@2@@1@@Z 10002460 f i DataMerge.obj
 0001:000014a0       ??Y?$_Vector_iterator@V?$basic_string@DU?$char_traits@D@std@@V?$allocator@D@2@@std@@V?$allocator@V?$basic_string@DU?$char_traits@D@std@@V?$allocator@D@2@@std@@@2@@std@@QAEAAV01@H@Z 100024a0 f i DataMerge.obj
 0001:000014f0       ??$_Destroy_range@PAVDataElement@@V?$allocator@PAVDataElement@@@std@@@std@@YAXPAPAVDataElement@@0AAV?$allocator@PAVDataElement@@@0@@Z 100024f0 f i DataMerge.obj
 0001:00001500       ??$?6U?$char_traits@D@std@@@std@@YAAAV?$basic_ostream@DU?$char_traits@D@std@@@0@AAV10@PBD@Z 10002500 f i DataMerge.obj
 0001:000016c0       ??$_Checked_base@PAV?$basic_string@DU?$char_traits@D@std@@V?$allocator@D@2@@std@@@std@@YAPAV?$basic_string@DU?$char_traits@D@std@@V?$allocator@D@2@@0@AAPAV10@@Z 100026c0 f i DataMerge.obj
 0001:000016d0       ?construct@?$allocator@V?$basic_string@DU?$char_traits@D@std@@V?$allocator@D@2@@std@@@std@@QAEXPAV?$basic_string@DU?$char_traits@D@std@@V?$allocator@D@2@@2@ABV32@@Z 100026d0 f i DataMerge.obj
 0001:00001720       ??$?6U?$char_traits@D@std@@@std@@YAAAV?$basic_ostream@DU?$char_traits@D@std@@@0@AAV10@D@Z 10002720 f i DataMerge.obj
 0001:000018c0       ??$_Move_backward_opt@PAV?$basic_string@DU?$char_traits@D@std@@V?$allocator@D@2@@std@@PAV12@Uforward_iterator_tag@2@@std@@YAPAV?$basic_string@DU?$char_traits@D@std@@V?$allocator@D@2@@0@PAV10@00Uforward_iterator_tag@0@U_Swap_move_tag@0@U_Range_checked_iterator_tag@0@@Z 100028c0 f i DataMerge.obj
 0001:00001900       ??$_Destroy@V?$basic_string@DU?$char_traits@D@std@@V?$allocator@D@2@@std@@@std@@YAXPAV?$basic_string@DU?$char_traits@D@std@@V?$allocator@D@2@@0@@Z 10002900 f i DataMerge.obj
 0001:00001910       ??1?$Resource@VDataRequest@@VFactoryObject@@@@UAE@XZ 10002910 f i DataMerge.obj
 0001:00001990       ??1?$Resource@VStep@@VMessageObject@@@@UAE@XZ 10002990 f i DataMerge.obj
 0001:000019e0       ??_G?$Resource@VDataRequest@@VFactoryObject@@@@UAEPAXI@Z 100029e0 f i DataMerge.obj
 0001:000019e0       ??_E?$Resource@VDataRequest@@VFactoryObject@@@@UAEPAXI@Z 100029e0 f i DataMerge.obj
 0001:00001a00       ??_G?$Resource@VStep@@VMessageObject@@@@UAEPAXI@Z 10002a00 f i DataMerge.obj
 0001:00001a00       ??_E?$Resource@VStep@@VMessageObject@@@@UAEPAXI@Z 10002a00 f i DataMerge.obj
 0001:00001a20       ?end@?$vector@V?$basic_string@DU?$char_traits@D@std@@V?$allocator@D@2@@std@@V?$allocator@V?$basic_string@DU?$char_traits@D@std@@V?$allocator@D@2@@std@@@2@@std@@QAE?AV?$_Vector_iterator@V?$basic_string@DU?$char_traits@D@std@@V?$allocator@D@2@@std@@V?$allocator@V?$basic_string@DU?$char_traits@D@std@@V?$allocator@D@2@@std@@@2@@2@XZ 10002a20 f i DataMerge.obj
 0001:00001a50       ?_Buy@?$vector@V?$basic_string@DU?$char_traits@D@std@@V?$allocator@D@2@@std@@V?$allocator@V?$basic_string@DU?$char_traits@D@std@@V?$allocator@D@2@@std@@@2@@std@@IAE_NI@Z 10002a50 f i DataMerge.obj
 0001:00001ab0       ??0?$_Vector_iterator@PAVDataElement@@V?$allocator@PAVDataElement@@@std@@@std@@QAE@PAPAVDataElement@@PBU_Container_base@1@@Z 10002ab0 f i DataMerge.obj
 0001:00001af0       ?begin@?$vector@V?$basic_string@DU?$char_traits@D@std@@V?$allocator@D@2@@std@@V?$allocator@V?$basic_string@DU?$char_traits@D@std@@V?$allocator@D@2@@std@@@2@@std@@QAE?AV?$_Vector_iterator@V?$basic_string@DU?$char_traits@D@std@@V?$allocator@D@2@@std@@V?$allocator@V?$basic_string@DU?$char_traits@D@std@@V?$allocator@D@2@@std@@@2@@2@XZ 10002af0 f i DataMerge.obj
 0001:00001b20       ?_Destroy@?$vector@PAVDataElement@@V?$allocator@PAVDataElement@@@std@@@std@@IAEXPAPAVDataElement@@0@Z 10002b20 f i DataMerge.obj
 0001:00001b30       ??H?$_Vector_iterator@V?$basic_string@DU?$char_traits@D@std@@V?$allocator@D@2@@std@@V?$allocator@V?$basic_string@DU?$char_traits@D@std@@V?$allocator@D@2@@std@@@2@@std@@QBE?AV01@H@Z 10002b30 f i DataMerge.obj
 0001:00001b70       ??$mergeElement@G@?A0x2f705ce9@@YAXPAGHHVDataAccessor@@H@Z 10002b70 f i DataMerge.obj
 0001:00001cd0       ??$mergeElement@F@?A0x2f705ce9@@YAXPAFHHVDataAccessor@@H@Z 10002cd0 f i DataMerge.obj
 0001:00001e30       ??$mergeElement@I@?A0x2f705ce9@@YAXPAIHHVDataAccessor@@H@Z 10002e30 f i DataMerge.obj
 0001:00001f80       ??$mergeElement@H@?A0x2f705ce9@@YAXPAHHHVDataAccessor@@H@Z 10002f80 f i DataMerge.obj
 0001:000020d0       ??$mergeElement@M@?A0x2f705ce9@@YAXPAMHHVDataAccessor@@H@Z 100030d0 f i DataMerge.obj
 0001:00002230       ??$mergeElement@N@?A0x2f705ce9@@YAXPANHHVDataAccessor@@H@Z 10003230 f i DataMerge.obj
 0001:00002390       ??$fill@PAV?$basic_string@DU?$char_traits@D@std@@V?$allocator@D@2@@std@@V12@@std@@YAXPAV?$basic_string@DU?$char_traits@D@std@@V?$allocator@D@2@@0@0ABV10@@Z 10003390 f i DataMerge.obj
 0001:000023c0       ??$?6U?$char_traits@D@std@@@std@@YAAAV?$basic_ostream@DU?$char_traits@D@std@@@0@AAV10@E@Z 100033c0 f i DataMerge.obj
 0001:000023d0       ??$?6U?$char_traits@D@std@@@std@@YAAAV?$basic_ostream@DU?$char_traits@D@std@@@0@AAV10@C@Z 100033d0 f i DataMerge.obj
 0001:000023e0       ??$_Move_backward_opt@PAV?$basic_string@DU?$char_traits@D@std@@V?$allocator@D@2@@std@@PAV12@@std@@YAPAV?$basic_string@DU?$char_traits@D@std@@V?$allocator@D@2@@0@PAV10@00Urandom_access_iterator_tag@0@U_Swap_move_tag@0@U_Range_checked_iterator_tag@0@@Z 100033e0 f i DataMerge.obj
 0001:00002440       ?destroy@?$allocator@V?$basic_string@DU?$char_traits@D@std@@V?$allocator@D@2@@std@@@std@@QAEXPAV?$basic_string@DU?$char_traits@D@std@@V?$allocator@D@2@@2@@Z 10003440 f i DataMerge.obj
 0001:00002450       ??$_Uninit_move@PAV?$basic_string@DU?$char_traits@D@std@@V?$allocator@D@2@@std@@PAV12@V?$allocator@V?$basic_string@DU?$char_traits@D@std@@V?$allocator@D@2@@std@@@2@@std@@YAPAV?$basic_string@DU?$char_traits@D@std@@V?$allocator@D@2@@0@PAV10@00AAV?$allocator@V?$basic_string@DU?$char_traits@D@std@@V?$allocator@D@2@@std@@@0@U_Swap_move_tag@0@U_Range_checked_iterator_tag@0@@Z 10003450 f i DataMerge.obj
 0001:00002510       ??1?$FactoryResource@VDataRequest@@@@UAE@XZ 10003510 f i DataMerge.obj
 0001:00002520       ??0StepResource@@QAE@V?$basic_string@DU?$char_traits@D@std@@V?$allocator@D@2@@std@@0000@Z 10003520 f i DataMerge.obj
 0001:000026b0       ??1StepResource@@UAE@XZ    100036b0 f i DataMerge.obj
 0001:000026c0       ??0?$vector@V?$basic_string@DU?$char_traits@D@std@@V?$allocator@D@2@@std@@V?$allocator@V?$basic_string@DU?$char_traits@D@std@@V?$allocator@D@2@@std@@@2@@std@@QAE@XZ 100036c0 f i DataMerge.obj
 0001:000026d0       ??0?$FactoryResource@VDataRequest@@@@QAE@XZ 100036d0 f i DataMerge.obj
 0001:00002740       ?begin@?$vector@PAVDataElement@@V?$allocator@PAVDataElement@@@std@@@std@@QAE?AV?$_Vector_iterator@PAVDataElement@@V?$allocator@PAVDataElement@@@std@@@2@XZ 10003740 f i DataMerge.obj
 0001:00002770       ?end@?$vector@PAVDataElement@@V?$allocator@PAVDataElement@@@std@@@std@@QAE?AV?$_Vector_iterator@PAVDataElement@@V?$allocator@PAVDataElement@@@std@@@2@XZ 10003770 f i DataMerge.obj
 0001:000027a0       ??_E?$FactoryResource@VDataRequest@@@@UAEPAXI@Z 100037a0 f i DataMerge.obj
 0001:000027a0       ??_G?$FactoryResource@VDataRequest@@@@UAEPAXI@Z 100037a0 f i DataMerge.obj
 0001:000027c0       ?_Tidy@?$vector@PAVDataElement@@V?$allocator@PAVDataElement@@@std@@@std@@IAEXXZ 100037c0 f i DataMerge.obj
 0001:000027f0       ??$mergeElement@E@?A0x2f705ce9@@YAXPAEHHVDataAccessor@@H@Z 100037f0 f i DataMerge.obj
 0001:00002950       ??$mergeElement@C@?A0x2f705ce9@@YAXPACHHVDataAccessor@@H@Z 10003950 f i DataMerge.obj
 0001:00002ab0       ??$_Unchecked_move_backward@PAV?$basic_string@DU?$char_traits@D@std@@V?$allocator@D@2@@std@@PAV12@@stdext@@YAPAV?$basic_string@DU?$char_traits@D@std@@V?$allocator@D@2@@std@@PAV12@00@Z 10003ab0 f i DataMerge.obj
 0001:00002ae0       ??$_Destroy_range@V?$basic_string@DU?$char_traits@D@std@@V?$allocator@D@2@@std@@V?$allocator@V?$basic_string@DU?$char_traits@D@std@@V?$allocator@D@2@@std@@@2@@std@@YAXPAV?$basic_string@DU?$char_traits@D@std@@V?$allocator@D@2@@0@0AAV?$allocator@V?$basic_string@DU?$char_traits@D@std@@V?$allocator@D@2@@std@@@0@U_Nonscalar_ptr_iterator_tag@0@@Z 10003ae0 f i DataMerge.obj
 0001:00002b10       ??$_Uninit_fill_n@PAV?$basic_string@DU?$char_traits@D@std@@V?$allocator@D@2@@std@@IV12@V?$allocator@V?$basic_string@DU?$char_traits@D@std@@V?$allocator@D@2@@std@@@2@@std@@YAXPAV?$basic_string@DU?$char_traits@D@std@@V?$allocator@D@2@@0@IABV10@AAV?$allocator@V?$basic_string@DU?$char_traits@D@std@@V?$allocator@D@2@@std@@@0@U_Nonscalar_ptr_iterator_tag@0@U_Range_checked_iterator_tag@0@@Z 10003b10 f i DataMerge.obj
 0001:00002ba0       ??$_Unchecked_uninitialized_move@PAV?$basic_string@DU?$char_traits@D@std@@V?$allocator@D@2@@std@@PAV12@V?$allocator@V?$basic_string@DU?$char_traits@D@std@@V?$allocator@D@2@@std@@@2@@stdext@@YAPAV?$basic_string@DU?$char_traits@D@std@@V?$allocator@D@2@@std@@PAV12@00AAV?$allocator@V?$basic_string@DU?$char_traits@D@std@@V?$allocator@D@2@@std@@@2@@Z 10003ba0 f i DataMerge.obj
 0001:00002bd0       ??_EStepResource@@UAEPAXI@Z 10003bd0 f i DataMerge.obj
 0001:00002bd0       ??_GStepResource@@UAEPAXI@Z 10003bd0 f i DataMerge.obj
 0001:00002bf0       ??1?$vector@PAVDataElement@@V?$allocator@PAVDataElement@@@std@@@std@@QAE@XZ 10003bf0 f i DataMerge.obj
 0001:00002c20       ??$_Destroy_range@V?$basic_string@DU?$char_traits@D@std@@V?$allocator@D@2@@std@@V?$allocator@V?$basic_string@DU?$char_traits@D@std@@V?$allocator@D@2@@std@@@2@@std@@YAXPAV?$basic_string@DU?$char_traits@D@std@@V?$allocator@D@2@@0@0AAV?$allocator@V?$basic_string@DU?$char_traits@D@std@@V?$allocator@D@2@@std@@@0@@Z 10003c20 f i DataMerge.obj
 0001:00002c50       ??$unchecked_uninitialized_fill_n@PAV?$basic_string@DU?$char_traits@D@std@@V?$allocator@D@2@@std@@IV12@V?$allocator@V?$basic_string@DU?$char_traits@D@std@@V?$allocator@D@2@@std@@@2@@stdext@@YAXPAV?$basic_string@DU?$char_traits@D@std@@V?$allocator@D@2@@std@@IABV12@AAV?$allocator@V?$basic_string@DU?$char_traits@D@std@@V?$allocator@D@2@@std@@@2@@Z 10003c50 f i DataMerge.obj
 0001:00002c80       ??$_Umove@PAV?$basic_string@DU?$char_traits@D@std@@V?$allocator@D@2@@std@@@?$vector@V?$basic_string@DU?$char_traits@D@std@@V?$allocator@D@2@@std@@V?$allocator@V?$basic_string@DU?$char_traits@D@std@@V?$allocator@D@2@@std@@@2@@std@@IAEPAV?$basic_string@DU?$char_traits@D@std@@V?$allocator@D@2@@1@PAV21@00@Z 10003c80 f i DataMerge.obj
 0001:00002cb0       ?showGui@DataMerge@@AAE_NXZ 10003cb0 f   DataMerge.obj
 0001:000032a0       ?execute@DataMerge@@UAE_NPAVPlugInArgList@@0@Z 100042a0 f   DataMerge.obj
 0001:000032b0       ?deserialize@DataMerge@@UAE_NAAVSessionItemDeserializer@@@Z 100042b0 f   DataMerge.obj
 0001:000032c0       ?_Destroy@?$vector@V?$basic_string@DU?$char_traits@D@std@@V?$allocator@D@2@@std@@V?$allocator@V?$basic_string@DU?$char_traits@D@std@@V?$allocator@D@2@@std@@@2@@std@@IAEXPAV?$basic_string@DU?$char_traits@D@std@@V?$allocator@D@2@@2@0@Z 100042c0 f i DataMerge.obj
 0001:000032f0       ?_Tidy@?$vector@V?$basic_string@DU?$char_traits@D@std@@V?$allocator@D@2@@std@@V?$allocator@V?$basic_string@DU?$char_traits@D@std@@V?$allocator@D@2@@std@@@2@@std@@IAEXXZ 100042f0 f i DataMerge.obj
 0001:00003340       ?_Ufill@?$vector@V?$basic_string@DU?$char_traits@D@std@@V?$allocator@D@2@@std@@V?$allocator@V?$basic_string@DU?$char_traits@D@std@@V?$allocator@D@2@@std@@@2@@std@@IAEPAV?$basic_string@DU?$char_traits@D@std@@V?$allocator@D@2@@2@PAV32@IABV32@@Z 10004340 f i DataMerge.obj
 0001:00003380       ?_Insert_n@?$vector@V?$basic_string@DU?$char_traits@D@std@@V?$allocator@D@2@@std@@V?$allocator@V?$basic_string@DU?$char_traits@D@std@@V?$allocator@D@2@@std@@@2@@std@@IAEXV?$_Vector_iterator@V?$basic_string@DU?$char_traits@D@std@@V?$allocator@D@2@@std@@V?$allocator@V?$basic_string@DU?$char_traits@D@std@@V?$allocator@D@2@@std@@@2@@2@IABV?$basic_string@DU?$char_traits@D@std@@V?$allocator@D@2@@2@@Z 10004380 f i DataMerge.obj
 0001:000036a0       ??1?$vector@V?$basic_string@DU?$char_traits@D@std@@V?$allocator@D@2@@std@@V?$allocator@V?$basic_string@DU?$char_traits@D@std@@V?$allocator@D@2@@std@@@2@@std@@QAE@XZ 100046a0 f i DataMerge.obj
 0001:000036b0       ?insert@?$vector@V?$basic_string@DU?$char_traits@D@std@@V?$allocator@D@2@@std@@V?$allocator@V?$basic_string@DU?$char_traits@D@std@@V?$allocator@D@2@@std@@@2@@std@@QAE?AV?$_Vector_iterator@V?$basic_string@DU?$char_traits@D@std@@V?$allocator@D@2@@std@@V?$allocator@V?$basic_string@DU?$char_traits@D@std@@V?$allocator@D@2@@std@@@2@@2@V32@ABV?$basic_string@DU?$char_traits@D@std@@V?$allocator@D@2@@2@@Z 100046b0 f i DataMerge.obj
 0001:00003770       ??1BasicPlugInFactory@@QAE@XZ 10004770 f i DataMerge.obj
 0001:00003780       ??1DataMergePlugInFactory@SpectralDataMerge@@QAE@XZ 10004780 f i DataMerge.obj
 0001:00003790       ?push_back@?$vector@V?$basic_string@DU?$char_traits@D@std@@V?$allocator@D@2@@std@@V?$allocator@V?$basic_string@DU?$char_traits@D@std@@V?$allocator@D@2@@std@@@2@@std@@QAEXABV?$basic_string@DU?$char_traits@D@std@@V?$allocator@D@2@@2@@Z 10004790 f i DataMerge.obj
 0001:00003840       ?addPlugInName@BasicPlugInFactory@@AAEXV?$basic_string@DU?$char_traits@D@std@@V?$allocator@D@2@@std@@@Z 10004840 f i DataMerge.obj
 0001:00003890       ??0BasicPlugInFactory@@QAE@ABV?$basic_string@DU?$char_traits@D@std@@V?$allocator@D@2@@std@@@Z 10004890 f i DataMerge.obj
 0001:00003910       ??$_Ptr_cat@V?$_Vector_const_iterator@V?$basic_string@DU?$char_traits@D@std@@V?$allocator@D@2@@std@@V?$allocator@V?$basic_string@DU?$char_traits@D@std@@V?$allocator@D@2@@std@@@2@@std@@PAV?$basic_string@DU?$char_traits@D@std@@V?$allocator@D@2@@2@@std@@YA?AU_Nonscalar_ptr_iterator_tag@0@AAV?$_Vector_const_iterator@V?$basic_string@DU?$char_traits@D@std@@V?$allocator@D@2@@std@@V?$allocator@V?$basic_string@DU?$char_traits@D@std@@V?$allocator@D@2@@std@@@2@@0@AAPAV?$basic_string@DU?$char_traits@D@std@@V?$allocator@D@2@@0@@Z 10004910 f i DataMerge.obj
 0001:00003920       ?_Checked_iterator_base@?$_Vector_const_iterator@V?$basic_string@DU?$char_traits@D@std@@V?$allocator@D@2@@std@@V?$allocator@V?$basic_string@DU?$char_traits@D@std@@V?$allocator@D@2@@std@@@2@@std@@QBEPBV?$basic_string@DU?$char_traits@D@std@@V?$allocator@D@2@@2@XZ 10004920 f i DataMerge.obj
 0001:00003930       ??$_Checked_base@V?$_Vector_const_iterator@V?$basic_string@DU?$char_traits@D@std@@V?$allocator@D@2@@std@@V?$allocator@V?$basic_string@DU?$char_traits@D@std@@V?$allocator@D@2@@std@@@2@@std@@U_Different_checked_iterator_base_type_tag@2@@std@@YAPBV?$basic_string@DU?$char_traits@D@std@@V?$allocator@D@2@@0@AAV?$_Vector_const_iterator@V?$basic_string@DU?$char_traits@D@std@@V?$allocator@D@2@@std@@V?$allocator@V?$basic_string@DU?$char_traits@D@std@@V?$allocator@D@2@@std@@@2@@0@U_Different_checked_iterator_base_type_tag@0@@Z 10004930 f i DataMerge.obj
 0001:00003940       ?begin@?$vector@V?$basic_string@DU?$char_traits@D@std@@V?$allocator@D@2@@std@@V?$allocator@V?$basic_string@DU?$char_traits@D@std@@V?$allocator@D@2@@std@@@2@@std@@QBE?AV?$_Vector_const_iterator@V?$basic_string@DU?$char_traits@D@std@@V?$allocator@D@2@@std@@V?$allocator@V?$basic_string@DU?$char_traits@D@std@@V?$allocator@D@2@@std@@@2@@2@XZ 10004940 f i DataMerge.obj
 0001:00003970       ?end@?$vector@V?$basic_string@DU?$char_traits@D@std@@V?$allocator@D@2@@std@@V?$allocator@V?$basic_string@DU?$char_traits@D@std@@V?$allocator@D@2@@std@@@2@@std@@QBE?AV?$_Vector_const_iterator@V?$basic_string@DU?$char_traits@D@std@@V?$allocator@D@2@@std@@V?$allocator@V?$basic_string@DU?$char_traits@D@std@@V?$allocator@D@2@@std@@@2@@2@XZ 10004970 f i DataMerge.obj
 0001:000039a0       ??$_Checked_base@V?$_Vector_const_iterator@V?$basic_string@DU?$char_traits@D@std@@V?$allocator@D@2@@std@@V?$allocator@V?$basic_string@DU?$char_traits@D@std@@V?$allocator@D@2@@std@@@2@@std@@@std@@YAPBV?$basic_string@DU?$char_traits@D@std@@V?$allocator@D@2@@0@AAV?$_Vector_const_iterator@V?$basic_string@DU?$char_traits@D@std@@V?$allocator@D@2@@std@@V?$allocator@V?$basic_string@DU?$char_traits@D@std@@V?$allocator@D@2@@std@@@2@@0@@Z 100049a0 f i DataMerge.obj
 0001:000039b0       ??$_Uninit_copy@PBV?$basic_string@DU?$char_traits@D@std@@V?$allocator@D@2@@std@@PAV12@V?$allocator@V?$basic_string@DU?$char_traits@D@std@@V?$allocator@D@2@@std@@@2@@std@@YAPAV?$basic_string@DU?$char_traits@D@std@@V?$allocator@D@2@@0@PBV10@0PAV10@AAV?$allocator@V?$basic_string@DU?$char_traits@D@std@@V?$allocator@D@2@@std@@@0@U_Nonscalar_ptr_iterator_tag@0@U_Range_checked_iterator_tag@0@@Z 100049b0 f i DataMerge.obj
 0001:00003a40       ??$unchecked_uninitialized_copy@V?$_Vector_const_iterator@V?$basic_string@DU?$char_traits@D@std@@V?$allocator@D@2@@std@@V?$allocator@V?$basic_string@DU?$char_traits@D@std@@V?$allocator@D@2@@std@@@2@@std@@PAV?$basic_string@DU?$char_traits@D@std@@V?$allocator@D@2@@2@V?$allocator@V?$basic_string@DU?$char_traits@D@std@@V?$allocator@D@2@@std@@@2@@stdext@@YAPAV?$basic_string@DU?$char_traits@D@std@@V?$allocator@D@2@@std@@V?$_Vector_const_iterator@V?$basic_string@DU?$char_traits@D@std@@V?$allocator@D@2@@std@@V?$allocator@V?$basic_string@DU?$char_traits@D@std@@V?$allocator@D@2@@std@@@2@@2@0PAV12@AAV?$allocator@V?$basic_string@DU?$char_traits@D@std@@V?$allocator@D@2@@std@@@2@@Z 10004a40 f i DataMerge.obj
 0001:00003a70       ??$_Ucopy@V?$_Vector_const_iterator@V?$basic_string@DU?$char_traits@D@std@@V?$allocator@D@2@@std@@V?$allocator@V?$basic_string@DU?$char_traits@D@std@@V?$allocator@D@2@@std@@@2@@std@@@?$vector@V?$basic_string@DU?$char_traits@D@std@@V?$allocator@D@2@@std@@V?$allocator@V?$basic_string@DU?$char_traits@D@std@@V?$allocator@D@2@@std@@@2@@std@@IAEPAV?$basic_string@DU?$char_traits@D@std@@V?$allocator@D@2@@1@V?$_Vector_const_iterator@V?$basic_string@DU?$char_traits@D@std@@V?$allocator@D@2@@std@@V?$allocator@V?$basic_string@DU?$char_traits@D@std@@V?$allocator@D@2@@std@@@2@@1@0PAV21@@Z 10004a70 f i DataMerge.obj
 0001:00003aa0       ??0?$vector@V?$basic_string@DU?$char_traits@D@std@@V?$allocator@D@2@@std@@V?$allocator@V?$basic_string@DU?$char_traits@D@std@@V?$allocator@D@2@@std@@@2@@std@@QAE@ABV01@@Z 10004aa0 f i DataMerge.obj
 0001:00003b70       ?getPlugInNames@BasicPlugInFactory@@UAE?AV?$vector@V?$basic_string@DU?$char_traits@D@std@@V?$allocator@D@2@@std@@V?$allocator@V?$basic_string@DU?$char_traits@D@std@@V?$allocator@D@2@@std@@@2@@std@@XZ 10004b70 f i DataMerge.obj
 0001:00003b90       ??0DataMergePlugInFactory@SpectralDataMerge@@QAE@ABV?$basic_string@DU?$char_traits@D@std@@V?$allocator@D@2@@std@@@Z 10004b90 f i DataMerge.obj
 0001:00003bf0       ?createPlugIn@DataMergePlugInFactory@SpectralDataMerge@@UAEPAVPlugIn@@ABV?$basic_string@DU?$char_traits@D@std@@V?$allocator@D@2@@std@@@Z 10004bf0 f i DataMerge.obj
 0001:00003c60       ??0out_of_range@std@@QAE@ABV?$basic_string@DU?$char_traits@D@std@@V?$allocator@D@2@@1@@Z 10004c60 f i DataMergeGui.obj
 0001:00003c80       ??1out_of_range@std@@UAE@XZ 10004c80 f i DataMergeGui.obj
 0001:00003ca0       ??_Gout_of_range@std@@UAEPAXI@Z 10004ca0 f i DataMergeGui.obj
 0001:00003ca0       ??_Eout_of_range@std@@UAEPAXI@Z 10004ca0 f i DataMergeGui.obj
 0001:00003cd0       ??0?$QFlags@W4WindowType@Qt@@@@QAE@PAPAX@Z 10004cd0 f i DataMergeGui.obj
 0001:00003ce0       ??0?$QFlags@W4AlignmentFlag@Qt@@@@QAE@PAPAX@Z 10004ce0 f i DataMergeGui.obj
 0001:00003cf0       ??A?$vector@V?$basic_string@DU?$char_traits@D@std@@V?$allocator@D@2@@std@@V?$allocator@V?$basic_string@DU?$char_traits@D@std@@V?$allocator@D@2@@std@@@2@@std@@QAEAAV?$basic_string@DU?$char_traits@D@std@@V?$allocator@D@2@@1@I@Z 10004cf0 f i DataMergeGui.obj
 0001:00003d40       ??C?$Service@VDesktopServices@@@@QBEPAVDesktopServices@@XZ 10004d40 f i DataMergeGui.obj
 0001:00003d50       ??0?$EnumWrapper@W4WindowTypeEnum@@@@QAE@ABW4WindowTypeEnum@@@Z 10004d50 f i DataMergeGui.obj
 0001:00003d70       ??0?$EnumWrapper@W4LayerTypeEnum@@@@QAE@ABW4LayerTypeEnum@@@Z 10004d70 f i DataMergeGui.obj
 0001:00003d90       ?_Xran@?$vector@V?$basic_string@DU?$char_traits@D@std@@V?$allocator@D@2@@std@@V?$allocator@V?$basic_string@DU?$char_traits@D@std@@V?$allocator@D@2@@std@@@2@@std@@KAXXZ 10004d90 f i DataMergeGui.obj
 0001:00003e10       ??D?$_Vector_const_iterator@V?$basic_string@DU?$char_traits@D@std@@V?$allocator@D@2@@std@@V?$allocator@V?$basic_string@DU?$char_traits@D@std@@V?$allocator@D@2@@std@@@2@@std@@QBEABV?$basic_string@DU?$char_traits@D@std@@V?$allocator@D@2@@1@XZ 10004e10 f i DataMergeGui.obj
 0001:00003e40       ??8?$_Vector_const_iterator@V?$basic_string@DU?$char_traits@D@std@@V?$allocator@D@2@@std@@V?$allocator@V?$basic_string@DU?$char_traits@D@std@@V?$allocator@D@2@@std@@@2@@std@@QBE_NABV01@@Z 10004e40 f i DataMergeGui.obj
 0001:00003e70       ??$_Copy_opt@PAV?$basic_string@DU?$char_traits@D@std@@V?$allocator@D@2@@std@@PAV12@Uforward_iterator_tag@2@@std@@YAPAV?$basic_string@DU?$char_traits@D@std@@V?$allocator@D@2@@0@PAV10@00Uforward_iterator_tag@0@U_Nonscalar_ptr_iterator_tag@0@U_Range_checked_iterator_tag@0@@Z 10004e70 f i DataMergeGui.obj
 0001:00003eb0       ??0out_of_range@std@@QAE@ABV01@@Z 10004eb0 f i DataMergeGui.obj
 0001:00003ed0       ?applyScale@DataMergeGui@@QAEXXZ 10004ed0 f   DataMergeGui.obj
 0001:00003fb0       ??D?$_Vector_iterator@V?$basic_string@DU?$char_traits@D@std@@V?$allocator@D@2@@std@@V?$allocator@V?$basic_string@DU?$char_traits@D@std@@V?$allocator@D@2@@std@@@2@@std@@QBEAAV?$basic_string@DU?$char_traits@D@std@@V?$allocator@D@2@@1@XZ 10004fb0 f i DataMergeGui.obj
 0001:00003fe0       ??9?$_Vector_const_iterator@V?$basic_string@DU?$char_traits@D@std@@V?$allocator@D@2@@std@@V?$allocator@V?$basic_string@DU?$char_traits@D@std@@V?$allocator@D@2@@std@@@2@@std@@QBE_NABV01@@Z 10004fe0 f i DataMergeGui.obj
 0001:00004010       ??$_Copy_opt@PAV?$basic_string@DU?$char_traits@D@std@@V?$allocator@D@2@@std@@PAV12@@std@@YAPAV?$basic_string@DU?$char_traits@D@std@@V?$allocator@D@2@@0@PAV10@00Urandom_access_iterator_tag@0@U_Nonscalar_ptr_iterator_tag@0@U_Range_checked_iterator_tag@0@@Z 10005010 f i DataMergeGui.obj
 0001:00004070       ??$unchecked_copy@PAV?$basic_string@DU?$char_traits@D@std@@V?$allocator@D@2@@std@@PAV12@@stdext@@YAPAV?$basic_string@DU?$char_traits@D@std@@V?$allocator@D@2@@std@@PAV12@00@Z 10005070 f i DataMergeGui.obj
 0001:000040a0       ??$_Uninit_copy@PAV?$basic_string@DU?$char_traits@D@std@@V?$allocator@D@2@@std@@PAV12@V?$allocator@V?$basic_string@DU?$char_traits@D@std@@V?$allocator@D@2@@std@@@2@@std@@YAPAV?$basic_string@DU?$char_traits@D@std@@V?$allocator@D@2@@0@PAV10@00AAV?$allocator@V?$basic_string@DU?$char_traits@D@std@@V?$allocator@D@2@@std@@@0@U_Nonscalar_ptr_iterator_tag@0@U_Range_checked_iterator_tag@0@@Z 100050a0 f i DataMergeGui.obj
 0001:00004130       ??$unchecked_uninitialized_copy@PAV?$basic_string@DU?$char_traits@D@std@@V?$allocator@D@2@@std@@PAV12@V?$allocator@V?$basic_string@DU?$char_traits@D@std@@V?$allocator@D@2@@std@@@2@@stdext@@YAPAV?$basic_string@DU?$char_traits@D@std@@V?$allocator@D@2@@std@@PAV12@00AAV?$allocator@V?$basic_string@DU?$char_traits@D@std@@V?$allocator@D@2@@std@@@2@@Z 10005130 f i DataMergeGui.obj
 0001:00004160       ?at@?$vector@V?$basic_string@DU?$char_traits@D@std@@V?$allocator@D@2@@std@@V?$allocator@V?$basic_string@DU?$char_traits@D@std@@V?$allocator@D@2@@std@@@2@@std@@QAEAAV?$basic_string@DU?$char_traits@D@std@@V?$allocator@D@2@@2@I@Z 10005160 f i DataMergeGui.obj
 0001:000041e0       ??$_Ucopy@PAV?$basic_string@DU?$char_traits@D@std@@V?$allocator@D@2@@std@@@?$vector@V?$basic_string@DU?$char_traits@D@std@@V?$allocator@D@2@@std@@V?$allocator@V?$basic_string@DU?$char_traits@D@std@@V?$allocator@D@2@@std@@@2@@std@@IAEPAV?$basic_string@DU?$char_traits@D@std@@V?$allocator@D@2@@1@PAV21@00@Z 100051e0 f i DataMergeGui.obj
 0001:00004210       ?generateNewView@DataMergeGui@@QAEXXZ 10005210 f   DataMergeGui.obj
 0001:00004410       ?erase@?$vector@V?$basic_string@DU?$char_traits@D@std@@V?$allocator@D@2@@std@@V?$allocator@V?$basic_string@DU?$char_traits@D@std@@V?$allocator@D@2@@std@@@2@@std@@QAE?AV?$_Vector_iterator@V?$basic_string@DU?$char_traits@D@std@@V?$allocator@D@2@@std@@V?$allocator@V?$basic_string@DU?$char_traits@D@std@@V?$allocator@D@2@@std@@@2@@2@V32@0@Z 10005410 f i DataMergeGui.obj
 0001:00004490       ?clear@?$vector@V?$basic_string@DU?$char_traits@D@std@@V?$allocator@D@2@@std@@V?$allocator@V?$basic_string@DU?$char_traits@D@std@@V?$allocator@D@2@@std@@@2@@std@@QAEXXZ 10005490 f i DataMergeGui.obj
 0001:000044d0       ??1DataMergeGui@@UAE@XZ    100054d0 f   DataMergeGui.obj
 0001:00004720       ??_EDataMergeGui@@W7AEPAXI@Z 10005720 f i DataMergeGui.obj
 0001:00004730       ??4?$vector@V?$basic_string@DU?$char_traits@D@std@@V?$allocator@D@2@@std@@V?$allocator@V?$basic_string@DU?$char_traits@D@std@@V?$allocator@D@2@@std@@@2@@std@@QAEAAV01@ABV01@@Z 10005730 f i DataMergeGui.obj
 0001:000048c0       ??_GDataMergeGui@@UAEPAXI@Z 100058c0 f i DataMergeGui.obj
 0001:000048c0       ??_EDataMergeGui@@UAEPAXI@Z 100058c0 f i DataMergeGui.obj
 0001:000048e0       ?init@DataMergeGui@@AAEXXZ 100058e0 f   DataMergeGui.obj
 0001:00004ad0       ??0DataMergeGui@@QAE@PAVQWidget@@PBD_N@Z 10005ad0 f   DataMergeGui.obj
 0001:000051b0       ??_EQGridLayout@@UAEPAXI@Z 100061b0 f i DataMergeGui.obj
 0001:000051b0       ??_GQGridLayout@@UAEPAXI@Z 100061b0 f i DataMergeGui.obj
 0001:000051d0       ??_EQPushButton@@UAEPAXI@Z 100061d0 f i DataMergeGui.obj
 0001:000051d0       ??_GQPushButton@@UAEPAXI@Z 100061d0 f i DataMergeGui.obj
 0001:000051f0       ??_GQComboBox@@UAEPAXI@Z   100061f0 f i DataMergeGui.obj
 0001:000051f0       ??_EQComboBox@@UAEPAXI@Z   100061f0 f i DataMergeGui.obj
 0001:00005210       ??_EQDoubleSpinBox@@UAEPAXI@Z 10006210 f i DataMergeGui.obj
 0001:00005210       ??_GQDoubleSpinBox@@UAEPAXI@Z 10006210 f i DataMergeGui.obj
 0001:00005230       ??_EQLabel@@UAEPAXI@Z      10006230 f i DataMergeGui.obj
 0001:00005230       ??_GQLabel@@UAEPAXI@Z      10006230 f i DataMergeGui.obj
 0001:00005250       ??_EQLabel@@W7AEPAXI@Z     10006250 f i DataMergeGui.obj
 0001:00005260       ??_EQGridLayout@@W7AEPAXI@Z 10006260 f i DataMergeGui.obj
 0001:00005270       ??_EQDoubleSpinBox@@W7AEPAXI@Z 10006270 f i DataMergeGui.obj
 0001:00005280       ??_EQComboBox@@W7AEPAXI@Z  10006280 f i DataMergeGui.obj
 0001:00005290       ??_EQPushButton@@W7AEPAXI@Z 10006290 f i DataMergeGui.obj
 0001:000052a0       ??1?$pair@V?$basic_string@DU?$char_traits@D@std@@V?$allocator@D@2@@std@@PAVPlugInFactory@@@std@@QAE@XZ 100062a0 f i ModuleManager.obj
 0001:000052b0       ?setService@ModuleManager@@QAEXPAVExternal@@@Z 100062b0 f i ModuleManager.obj
 0001:000052c0       _opticks_get_module_descriptor 100062c0 f   ModuleManager.obj
 0001:000052d0       ?getTotalPlugIns@ModuleManager@@SAIXZ 100062d0 f   ModuleManager.obj
 0001:000052e0       ?getPlugIn@ModuleManager@@QAEPAVPlugIn@@I@Z 100062e0 f   ModuleManager.obj
 0001:000052f0       ?size@?$vector@U?$pair@V?$basic_string@DU?$char_traits@D@std@@V?$allocator@D@2@@std@@PAVPlugInFactory@@@std@@V?$allocator@U?$pair@V?$basic_string@DU?$char_traits@D@std@@V?$allocator@D@2@@std@@PAVPlugInFactory@@@std@@@2@@std@@QBEIXZ 100062f0 f i ModuleManager.obj
 0001:00005310       ??A?$vector@U?$pair@V?$basic_string@DU?$char_traits@D@std@@V?$allocator@D@2@@std@@PAVPlugInFactory@@@std@@V?$allocator@U?$pair@V?$basic_string@DU?$char_traits@D@std@@V?$allocator@D@2@@std@@PAVPlugInFactory@@@std@@@2@@std@@QAEAAU?$pair@V?$basic_string@DU?$char_traits@D@std@@V?$allocator@D@2@@std@@PAVPlugInFactory@@@1@I@Z 10006310 f i ModuleManager.obj
 0001:00005340       ?capacity@?$vector@U?$pair@V?$basic_string@DU?$char_traits@D@std@@V?$allocator@D@2@@std@@PAVPlugInFactory@@@std@@V?$allocator@U?$pair@V?$basic_string@DU?$char_traits@D@std@@V?$allocator@D@2@@std@@PAVPlugInFactory@@@std@@@2@@std@@QBEIXZ 10006340 f i ModuleManager.obj
 0001:00005360       ??0?$allocator@U?$pair@V?$basic_string@DU?$char_traits@D@std@@V?$allocator@D@2@@std@@PAVPlugInFactory@@@std@@@std@@QAE@XZ 10006360 f i ModuleManager.obj
 0001:00005370       ??E?$_Vector_const_iterator@V?$basic_string@DU?$char_traits@D@std@@V?$allocator@D@2@@std@@V?$allocator@V?$basic_string@DU?$char_traits@D@std@@V?$allocator@D@2@@std@@@2@@std@@QAEAAV01@XZ 10006370 f i ModuleManager.obj
 0001:000053a0       ?_Xlen@?$vector@U?$pair@V?$basic_string@DU?$char_traits@D@std@@V?$allocator@D@2@@std@@PAVPlugInFactory@@@std@@V?$allocator@U?$pair@V?$basic_string@DU?$char_traits@D@std@@V?$allocator@D@2@@std@@PAVPlugInFactory@@@std@@@2@@std@@KAXXZ 100063a0 f i ModuleManager.obj
 0001:00005420       ??0?$allocator@U?$pair@V?$basic_string@DU?$char_traits@D@std@@V?$allocator@D@2@@std@@PAVPlugInFactory@@@std@@@std@@QAE@ABV01@@Z 10006420 f i ModuleManager.obj
 0001:00005430       ?deallocate@?$allocator@U?$pair@V?$basic_string@DU?$char_traits@D@std@@V?$allocator@D@2@@std@@PAVPlugInFactory@@@std@@@std@@QAEXPAU?$pair@V?$basic_string@DU?$char_traits@D@std@@V?$allocator@D@2@@std@@PAVPlugInFactory@@@2@I@Z 10006430 f i ModuleManager.obj
 0001:00005440       ??0?$pair@V?$basic_string@DU?$char_traits@D@std@@V?$allocator@D@2@@std@@PAVPlugInFactory@@@std@@QAE@ABU01@@Z 10006440 f i ModuleManager.obj
 0001:00005460       ??0?$_Ranit@U?$pair@V?$basic_string@DU?$char_traits@D@std@@V?$allocator@D@2@@std@@PAVPlugInFactory@@@std@@HPBU12@ABU12@@std@@QAE@XZ 10006460 f i ModuleManager.obj
 0001:00005470       ?max_size@?$allocator@U?$pair@V?$basic_string@DU?$char_traits@D@std@@V?$allocator@D@2@@std@@PAVPlugInFactory@@@std@@@std@@QBEIXZ 10006470 f i ModuleManager.obj
 0001:00005480       ??G?$_Vector_const_iterator@U?$pair@V?$basic_string@DU?$char_traits@D@std@@V?$allocator@D@2@@std@@PAVPlugInFactory@@@std@@V?$allocator@U?$pair@V?$basic_string@DU?$char_traits@D@std@@V?$allocator@D@2@@std@@PAVPlugInFactory@@@std@@@2@@std@@QBEHABV01@@Z 10006480 f i ModuleManager.obj
 0001:000054b0       ??Y?$_Vector_const_iterator@U?$pair@V?$basic_string@DU?$char_traits@D@std@@V?$allocator@D@2@@std@@PAVPlugInFactory@@@std@@V?$allocator@U?$pair@V?$basic_string@DU?$char_traits@D@std@@V?$allocator@D@2@@std@@PAVPlugInFactory@@@std@@@2@@std@@QAEAAV01@H@Z 100064b0 f i ModuleManager.obj
 0001:000054f0       ??$_Allocate@U?$pair@V?$basic_string@DU?$char_traits@D@std@@V?$allocator@D@2@@std@@PAVPlugInFactory@@@std@@@std@@YAPAU?$pair@V?$basic_string@DU?$char_traits@D@std@@V?$allocator@D@2@@std@@PAVPlugInFactory@@@0@IPAU10@@Z 100064f0 f i ModuleManager.obj
 0001:00005550       ??0?$pair@V?$basic_string@DU?$char_traits@D@std@@V?$allocator@D@2@@std@@PAVPlugInFactory@@@std@@QAE@ABV?$basic_string@DU?$char_traits@D@std@@V?$allocator@D@2@@1@ABQAVPlugInFactory@@@Z 10006550 f i ModuleManager.obj
 0001:00005570       ??$_Count@PADD@std@@YAHPAD0ABD@Z 10006570 f i ModuleManager.obj
 0001:000055a0       ??$_Ptr_cat@PAU?$pair@V?$basic_string@DU?$char_traits@D@std@@V?$allocator@D@2@@std@@PAVPlugInFactory@@@std@@PAU12@@std@@YA?AU_Nonscalar_ptr_iterator_tag@0@AAPAU?$pair@V?$basic_string@DU?$char_traits@D@std@@V?$allocator@D@2@@std@@PAVPlugInFactory@@@0@0@Z 100065a0 f i ModuleManager.obj
 0001:000055b0       ??$_Iter_random@PAU?$pair@V?$basic_string@DU?$char_traits@D@std@@V?$allocator@D@2@@std@@PAVPlugInFactory@@@std@@PAU12@@std@@YA?AUrandom_access_iterator_tag@0@ABQAU?$pair@V?$basic_string@DU?$char_traits@D@std@@V?$allocator@D@2@@std@@PAVPlugInFactory@@@0@0@Z 100065b0 f i ModuleManager.obj
 0001:000055c0       ??$_Move_cat@PAU?$pair@V?$basic_string@DU?$char_traits@D@std@@V?$allocator@D@2@@std@@PAVPlugInFactory@@@std@@@std@@YA?AU_Undefined_move_tag@0@ABQAU?$pair@V?$basic_string@DU?$char_traits@D@std@@V?$allocator@D@2@@std@@PAVPlugInFactory@@@0@@Z 100065c0 f i ModuleManager.obj
 0001:000055d0       ??4?$pair@V?$basic_string@DU?$char_traits@D@std@@V?$allocator@D@2@@std@@PAVPlugInFactory@@@std@@QAEAAU01@ABU01@@Z 100065d0 f i ModuleManager.obj
 0001:000055f0       ??$_Checked_base@PAU?$pair@V?$basic_string@DU?$char_traits@D@std@@V?$allocator@D@2@@std@@PAVPlugInFactory@@@std@@@std@@YAPAU?$pair@V?$basic_string@DU?$char_traits@D@std@@V?$allocator@D@2@@std@@PAVPlugInFactory@@@0@AAPAU10@U_Unchanged_checked_iterator_base_type_tag@0@@Z 100065f0 f i ModuleManager.obj
 0001:00005600       ??$_Construct@U?$pair@V?$basic_string@DU?$char_traits@D@std@@V?$allocator@D@2@@std@@PAVPlugInFactory@@@std@@U12@@std@@YAXPAU?$pair@V?$basic_string@DU?$char_traits@D@std@@V?$allocator@D@2@@std@@PAVPlugInFactory@@@0@ABU10@@Z 10006600 f i ModuleManager.obj
 0001:00005660       ??_G?$pair@V?$basic_string@DU?$char_traits@D@std@@V?$allocator@D@2@@std@@PAVPlugInFactory@@@std@@QAEPAXI@Z 10006660 f i ModuleManager.obj
 0001:00005680       ?_Checked_iterator_base@?$_String_iterator@DU?$char_traits@D@std@@V?$allocator@D@2@@std@@QBEPADXZ 10006680 f i ModuleManager.obj
 0001:00005690       ?_Checked_iterator_base@?$_Vector_iterator@U?$pair@V?$basic_string@DU?$char_traits@D@std@@V?$allocator@D@2@@std@@PAVPlugInFactory@@@std@@V?$allocator@U?$pair@V?$basic_string@DU?$char_traits@D@std@@V?$allocator@D@2@@std@@PAVPlugInFactory@@@std@@@2@@std@@QBEPAU?$pair@V?$basic_string@DU?$char_traits@D@std@@V?$allocator@D@2@@std@@PAVPlugInFactory@@@2@XZ 10006690 f i ModuleManager.obj
 0001:000056a0       ??0?$pair@PAU?$pair@V?$basic_string@DU?$char_traits@D@std@@V?$allocator@D@2@@std@@PAVPlugInFactory@@@std@@PAU12@@std@@QAE@ABQAU?$pair@V?$basic_string@DU?$char_traits@D@std@@V?$allocator@D@2@@std@@PAVPlugInFactory@@@1@0@Z 100066a0 f i ModuleManager.obj
 0001:000056c0       ??$_Dist_type@PAU?$pair@V?$basic_string@DU?$char_traits@D@std@@V?$allocator@D@2@@std@@PAVPlugInFactory@@@std@@@std@@YAPAHPAU?$pair@V?$basic_string@DU?$char_traits@D@std@@V?$allocator@D@2@@std@@PAVPlugInFactory@@@0@@Z 100066c0 f i ModuleManager.obj
 0001:000056d0       ??$_Val_type@PAU?$pair@V?$basic_string@DU?$char_traits@D@std@@V?$allocator@D@2@@std@@PAVPlugInFactory@@@std@@@std@@YAPAU?$pair@V?$basic_string@DU?$char_traits@D@std@@V?$allocator@D@2@@std@@PAVPlugInFactory@@@0@PAU10@@Z 100066d0 f i ModuleManager.obj
 0001:000056e0       ??$_Copy_backward_opt@PAU?$pair@V?$basic_string@DU?$char_traits@D@std@@V?$allocator@D@2@@std@@PAVPlugInFactory@@@std@@PAU12@Uforward_iterator_tag@2@@std@@YAPAU?$pair@V?$basic_string@DU?$char_traits@D@std@@V?$allocator@D@2@@std@@PAVPlugInFactory@@@0@PAU10@00Uforward_iterator_tag@0@U_Nonscalar_ptr_iterator_tag@0@U_Range_checked_iterator_tag@0@@Z 100066e0 f i ModuleManager.obj
 0001:00005720       ??$_Iter_cat@PAU?$pair@V?$basic_string@DU?$char_traits@D@std@@V?$allocator@D@2@@std@@PAVPlugInFactory@@@std@@@std@@YA?AUrandom_access_iterator_tag@0@ABQAU?$pair@V?$basic_string@DU?$char_traits@D@std@@V?$allocator@D@2@@std@@PAVPlugInFactory@@@0@@Z 10006720 f i ModuleManager.obj
 0001:00005730       ??$_Rotate@PAU?$pair@V?$basic_string@DU?$char_traits@D@std@@V?$allocator@D@2@@std@@PAVPlugInFactory@@@std@@HU12@@std@@YAXPAU?$pair@V?$basic_string@DU?$char_traits@D@std@@V?$allocator@D@2@@std@@PAVPlugInFactory@@@0@00PAH0@Z 10006730 f i ModuleManager.obj
 0001:00005870       ??$swap@PAVPlugInFactory@@@std@@YAXAAPAVPlugInFactory@@0@Z 10006870 f i ModuleManager.obj
 0001:00005890       ??E?$_Vector_iterator@V?$basic_string@DU?$char_traits@D@std@@V?$allocator@D@2@@std@@V?$allocator@V?$basic_string@DU?$char_traits@D@std@@V?$allocator@D@2@@std@@@2@@std@@QAEAAV01@XZ 10006890 f i ModuleManager.obj
 0001:000058c0       ??0?$_Vector_val@U?$pair@V?$basic_string@DU?$char_traits@D@std@@V?$allocator@D@2@@std@@PAVPlugInFactory@@@std@@V?$allocator@U?$pair@V?$basic_string@DU?$char_traits@D@std@@V?$allocator@D@2@@std@@PAVPlugInFactory@@@std@@@2@@std@@IAE@V?$allocator@U?$pair@V?$basic_string@DU?$char_traits@D@std@@V?$allocator@D@2@@std@@PAVPlugInFactory@@@std@@@1@@Z 100068c0 f i ModuleManager.obj
 0001:000058d0       ?max_size@?$vector@U?$pair@V?$basic_string@DU?$char_traits@D@std@@V?$allocator@D@2@@std@@PAVPlugInFactory@@@std@@V?$allocator@U?$pair@V?$basic_string@DU?$char_traits@D@std@@V?$allocator@D@2@@std@@PAVPlugInFactory@@@std@@@2@@std@@QBEIXZ 100068d0 f i ModuleManager.obj
 0001:000058e0       ?allocate@?$allocator@U?$pair@V?$basic_string@DU?$char_traits@D@std@@V?$allocator@D@2@@std@@PAVPlugInFactory@@@std@@@std@@QAEPAU?$pair@V?$basic_string@DU?$char_traits@D@std@@V?$allocator@D@2@@std@@PAVPlugInFactory@@@2@I@Z 100068e0 f i ModuleManager.obj
 0001:00005900       ??G?$_Vector_iterator@U?$pair@V?$basic_string@DU?$char_traits@D@std@@V?$allocator@D@2@@std@@PAVPlugInFactory@@@std@@V?$allocator@U?$pair@V?$basic_string@DU?$char_traits@D@std@@V?$allocator@D@2@@std@@PAVPlugInFactory@@@std@@@2@@std@@QBEHABV?$_Vector_const_iterator@U?$pair@V?$basic_string@DU?$char_traits@D@std@@V?$allocator@D@2@@std@@PAVPlugInFactory@@@std@@V?$allocator@U?$pair@V?$basic_string@DU?$char_traits@D@std@@V?$allocator@D@2@@std@@PAVPlugInFactory@@@std@@@2@@1@@Z 10006900 f i ModuleManager.obj
 0001:00005930       ??0?$_Vector_const_iterator@U?$pair@V?$basic_string@DU?$char_traits@D@std@@V?$allocator@D@2@@std@@PAVPlugInFactory@@@std@@V?$allocator@U?$pair@V?$basic_string@DU?$char_traits@D@std@@V?$allocator@D@2@@std@@PAVPlugInFactory@@@std@@@2@@std@@QAE@PAU?$pair@V?$basic_string@DU?$char_traits@D@std@@V?$allocator@D@2@@std@@PAVPlugInFactory@@@1@PBU_Container_base@1@@Z 10006930 f i ModuleManager.obj
 0001:00005970       ??Y?$_Vector_iterator@U?$pair@V?$basic_string@DU?$char_traits@D@std@@V?$allocator@D@2@@std@@PAVPlugInFactory@@@std@@V?$allocator@U?$pair@V?$basic_string@DU?$char_traits@D@std@@V?$allocator@D@2@@std@@PAVPlugInFactory@@@std@@@2@@std@@QAEAAV01@H@Z 10006970 f i ModuleManager.obj
 0001:000059b0       ??$make_pair@V?$basic_string@DU?$char_traits@D@std@@V?$allocator@D@2@@std@@PAVPlugInFactory@@@std@@YA?AU?$pair@V?$basic_string@DU?$char_traits@D@std@@V?$allocator@D@2@@std@@PAVPlugInFactory@@@0@V?$basic_string@DU?$char_traits@D@std@@V?$allocator@D@2@@0@PAVPlugInFactory@@@Z 100069b0 f i ModuleManager.obj
 0001:00005a20       ??$_Checked_base@PAU?$pair@V?$basic_string@DU?$char_traits@D@std@@V?$allocator@D@2@@std@@PAVPlugInFactory@@@std@@@std@@YAPAU?$pair@V?$basic_string@DU?$char_traits@D@std@@V?$allocator@D@2@@std@@PAVPlugInFactory@@@0@AAPAU10@@Z 10006a20 f i ModuleManager.obj
 0001:00005a30       ??$_Fill@PAU?$pair@V?$basic_string@DU?$char_traits@D@std@@V?$allocator@D@2@@std@@PAVPlugInFactory@@@std@@U12@@std@@YAXPAU?$pair@V?$basic_string@DU?$char_traits@D@std@@V?$allocator@D@2@@std@@PAVPlugInFactory@@@0@0ABU10@@Z 10006a30 f i ModuleManager.obj
 0001:00005a60       ?construct@?$allocator@U?$pair@V?$basic_string@DU?$char_traits@D@std@@V?$allocator@D@2@@std@@PAVPlugInFactory@@@std@@@std@@QAEXPAU?$pair@V?$basic_string@DU?$char_traits@D@std@@V?$allocator@D@2@@std@@PAVPlugInFactory@@@2@ABU32@@Z 10006a60 f i ModuleManager.obj
 0001:00005a80       ??$_Checked_base@V?$_String_iterator@DU?$char_traits@D@std@@V?$allocator@D@2@@std@@U_Different_checked_iterator_base_type_tag@2@@std@@YAPADAAV?$_String_iterator@DU?$char_traits@D@std@@V?$allocator@D@2@@0@U_Different_checked_iterator_base_type_tag@0@@Z 10006a80 f i ModuleManager.obj
 0001:00005a90       ??$_Checked_base@V?$_Vector_iterator@U?$pair@V?$basic_string@DU?$char_traits@D@std@@V?$allocator@D@2@@std@@PAVPlugInFactory@@@std@@V?$allocator@U?$pair@V?$basic_string@DU?$char_traits@D@std@@V?$allocator@D@2@@std@@PAVPlugInFactory@@@std@@@2@@std@@U_Different_checked_iterator_base_type_tag@2@@std@@YAPAU?$pair@V?$basic_string@DU?$char_traits@D@std@@V?$allocator@D@2@@std@@PAVPlugInFactory@@@0@AAV?$_Vector_iterator@U?$pair@V?$basic_string@DU?$char_traits@D@std@@V?$allocator@D@2@@std@@PAVPlugInFactory@@@std@@V?$allocator@U?$pair@V?$basic_string@DU?$char_traits@D@std@@V?$allocator@D@2@@std@@PAVPlugInFactory@@@std@@@2@@0@U_Different_checked_iterator_base_type_tag@0@@Z 10006a90 f i ModuleManager.obj
 0001:00005aa0       ??$_Copy_backward_opt@PAU?$pair@V?$basic_string@DU?$char_traits@D@std@@V?$allocator@D@2@@std@@PAVPlugInFactory@@@std@@PAU12@@std@@YAPAU?$pair@V?$basic_string@DU?$char_traits@D@std@@V?$allocator@D@2@@std@@PAVPlugInFactory@@@0@PAU10@00Urandom_access_iterator_tag@0@U_Nonscalar_ptr_iterator_tag@0@U_Range_checked_iterator_tag@0@@Z 10006aa0 f i ModuleManager.obj
 0001:00005af0       ??$_Destroy@U?$pair@V?$basic_string@DU?$char_traits@D@std@@V?$allocator@D@2@@std@@PAVPlugInFactory@@@std@@@std@@YAXPAU?$pair@V?$basic_string@DU?$char_traits@D@std@@V?$allocator@D@2@@std@@PAVPlugInFactory@@@0@@Z 10006af0 f i ModuleManager.obj
 0001:00005b00       ??$_Rotate@PAU?$pair@V?$basic_string@DU?$char_traits@D@std@@V?$allocator@D@2@@std@@PAVPlugInFactory@@@std@@@std@@YAXPAU?$pair@V?$basic_string@DU?$char_traits@D@std@@V?$allocator@D@2@@std@@PAVPlugInFactory@@@0@00Urandom_access_iterator_tag@0@@Z 10006b00 f i ModuleManager.obj
 0001:00005b20       ?swap@?$pair@V?$basic_string@DU?$char_traits@D@std@@V?$allocator@D@2@@std@@PAVPlugInFactory@@@std@@QAEXAAU12@@Z 10006b20 f i ModuleManager.obj
 0001:00005b40       ?_Buy@?$vector@U?$pair@V?$basic_string@DU?$char_traits@D@std@@V?$allocator@D@2@@std@@PAVPlugInFactory@@@std@@V?$allocator@U?$pair@V?$basic_string@DU?$char_traits@D@std@@V?$allocator@D@2@@std@@PAVPlugInFactory@@@std@@@2@@std@@IAE_NI@Z 10006b40 f i ModuleManager.obj
 0001:00005b90       ??0?$_Vector_iterator@U?$pair@V?$basic_string@DU?$char_traits@D@std@@V?$allocator@D@2@@std@@PAVPlugInFactory@@@std@@V?$allocator@U?$pair@V?$basic_string@DU?$char_traits@D@std@@V?$allocator@D@2@@std@@PAVPlugInFactory@@@std@@@2@@std@@QAE@PAU?$pair@V?$basic_string@DU?$char_traits@D@std@@V?$allocator@D@2@@std@@PAVPlugInFactory@@@1@PBU_Container_base@1@@Z 10006b90 f i ModuleManager.obj
 0001:00005bd0       ??H?$_Vector_iterator@U?$pair@V?$basic_string@DU?$char_traits@D@std@@V?$allocator@D@2@@std@@PAVPlugInFactory@@@std@@V?$allocator@U?$pair@V?$basic_string@DU?$char_traits@D@std@@V?$allocator@D@2@@std@@PAVPlugInFactory@@@std@@@2@@std@@QBE?AV01@H@Z 10006bd0 f i ModuleManager.obj
 0001:00005c10       ??$fill@PAU?$pair@V?$basic_string@DU?$char_traits@D@std@@V?$allocator@D@2@@std@@PAVPlugInFactory@@@std@@U12@@std@@YAXPAU?$pair@V?$basic_string@DU?$char_traits@D@std@@V?$allocator@D@2@@std@@PAVPlugInFactory@@@0@0ABU10@@Z 10006c10 f i ModuleManager.obj
 0001:00005c40       ??$_Checked_base@V?$_String_iterator@DU?$char_traits@D@std@@V?$allocator@D@2@@std@@@std@@YAPADAAV?$_String_iterator@DU?$char_traits@D@std@@V?$allocator@D@2@@0@@Z 10006c40 f i ModuleManager.obj
 0001:00005c50       ??$_Checked_base@V?$_Vector_iterator@U?$pair@V?$basic_string@DU?$char_traits@D@std@@V?$allocator@D@2@@std@@PAVPlugInFactory@@@std@@V?$allocator@U?$pair@V?$basic_string@DU?$char_traits@D@std@@V?$allocator@D@2@@std@@PAVPlugInFactory@@@std@@@2@@std@@@std@@YAPAU?$pair@V?$basic_string@DU?$char_traits@D@std@@V?$allocator@D@2@@std@@PAVPlugInFactory@@@0@AAV?$_Vector_iterator@U?$pair@V?$basic_string@DU?$char_traits@D@std@@V?$allocator@D@2@@std@@PAVPlugInFactory@@@std@@V?$allocator@U?$pair@V?$basic_string@DU?$char_traits@D@std@@V?$allocator@D@2@@std@@PAVPlugInFactory@@@std@@@2@@0@@Z 10006c50 f i ModuleManager.obj
 0001:00005c60       ??$_Move_backward_opt@PAU?$pair@V?$basic_string@DU?$char_traits@D@std@@V?$allocator@D@2@@std@@PAVPlugInFactory@@@std@@PAU12@Urandom_access_iterator_tag@2@U_Undefined_move_tag@2@@std@@YAPAU?$pair@V?$basic_string@DU?$char_traits@D@std@@V?$allocator@D@2@@std@@PAVPlugInFactory@@@0@PAU10@00Urandom_access_iterator_tag@0@U_Undefined_move_tag@0@U_Range_checked_iterator_tag@0@@Z 10006c60 f i ModuleManager.obj
 0001:00005cb0       ?destroy@?$allocator@U?$pair@V?$basic_string@DU?$char_traits@D@std@@V?$allocator@D@2@@std@@PAVPlugInFactory@@@std@@@std@@QAEXPAU?$pair@V?$basic_string@DU?$char_traits@D@std@@V?$allocator@D@2@@std@@PAVPlugInFactory@@@2@@Z 10006cb0 f i ModuleManager.obj
 0001:00005cc0       ??$rotate@PAU?$pair@V?$basic_string@DU?$char_traits@D@std@@V?$allocator@D@2@@std@@PAVPlugInFactory@@@std@@@std@@YAXPAU?$pair@V?$basic_string@DU?$char_traits@D@std@@V?$allocator@D@2@@std@@PAVPlugInFactory@@@0@00@Z 10006cc0 f i ModuleManager.obj
 0001:00005cf0       ??$swap@V?$basic_string@DU?$char_traits@D@std@@V?$allocator@D@2@@std@@PAVPlugInFactory@@@std@@YAXAAU?$pair@V?$basic_string@DU?$char_traits@D@std@@V?$allocator@D@2@@std@@PAVPlugInFactory@@@0@0@Z 10006cf0 f i ModuleManager.obj
 0001:00005d20       ??$_Uninit_copy@PAU?$pair@V?$basic_string@DU?$char_traits@D@std@@V?$allocator@D@2@@std@@PAVPlugInFactory@@@std@@PAU12@V?$allocator@U?$pair@V?$basic_string@DU?$char_traits@D@std@@V?$allocator@D@2@@std@@PAVPlugInFactory@@@std@@@2@@std@@YAPAU?$pair@V?$basic_string@DU?$char_traits@D@std@@V?$allocator@D@2@@std@@PAVPlugInFactory@@@0@PAU10@00AAV?$allocator@U?$pair@V?$basic_string@DU?$char_traits@D@std@@V?$allocator@D@2@@std@@PAVPlugInFactory@@@std@@@0@U_Nonscalar_ptr_iterator_tag@0@U_Range_checked_iterator_tag@0@@Z 10006d20 f i ModuleManager.obj
 0001:00005dc0       ??0?$vector@U?$pair@V?$basic_string@DU?$char_traits@D@std@@V?$allocator@D@2@@std@@PAVPlugInFactory@@@std@@V?$allocator@U?$pair@V?$basic_string@DU?$char_traits@D@std@@V?$allocator@D@2@@std@@PAVPlugInFactory@@@std@@@2@@std@@QAE@XZ 10006dc0 f i ModuleManager.obj
 0001:00005dd0       ?begin@?$vector@U?$pair@V?$basic_string@DU?$char_traits@D@std@@V?$allocator@D@2@@std@@PAVPlugInFactory@@@std@@V?$allocator@U?$pair@V?$basic_string@DU?$char_traits@D@std@@V?$allocator@D@2@@std@@PAVPlugInFactory@@@std@@@2@@std@@QAE?AV?$_Vector_iterator@U?$pair@V?$basic_string@DU?$char_traits@D@std@@V?$allocator@D@2@@std@@PAVPlugInFactory@@@std@@V?$allocator@U?$pair@V?$basic_string@DU?$char_traits@D@std@@V?$allocator@D@2@@std@@PAVPlugInFactory@@@std@@@2@@2@XZ 10006dd0 f i ModuleManager.obj
 0001:00005e00       ?end@?$vector@U?$pair@V?$basic_string@DU?$char_traits@D@std@@V?$allocator@D@2@@std@@PAVPlugInFactory@@@std@@V?$allocator@U?$pair@V?$basic_string@DU?$char_traits@D@std@@V?$allocator@D@2@@std@@PAVPlugInFactory@@@std@@@2@@std@@QAE?AV?$_Vector_iterator@U?$pair@V?$basic_string@DU?$char_traits@D@std@@V?$allocator@D@2@@std@@PAVPlugInFactory@@@std@@V?$allocator@U?$pair@V?$basic_string@DU?$char_traits@D@std@@V?$allocator@D@2@@std@@PAVPlugInFactory@@@std@@@2@@2@XZ 10006e00 f i ModuleManager.obj
 0001:00005e30       ??$count@V?$_String_iterator@DU?$char_traits@D@std@@V?$allocator@D@2@@std@@D@std@@YAHV?$_String_iterator@DU?$char_traits@D@std@@V?$allocator@D@2@@0@0ABD@Z 10006e30 f i ModuleManager.obj
 0001:00005e60       ??$_Unchecked_move_backward@PAU?$pair@V?$basic_string@DU?$char_traits@D@std@@V?$allocator@D@2@@std@@PAVPlugInFactory@@@std@@PAU12@@stdext@@YAPAU?$pair@V?$basic_string@DU?$char_traits@D@std@@V?$allocator@D@2@@std@@PAVPlugInFactory@@@std@@PAU12@00@Z 10006e60 f i ModuleManager.obj
 0001:00005eb0       ??$_Uninit_fill_n@PAU?$pair@V?$basic_string@DU?$char_traits@D@std@@V?$allocator@D@2@@std@@PAVPlugInFactory@@@std@@IU12@V?$allocator@U?$pair@V?$basic_string@DU?$char_traits@D@std@@V?$allocator@D@2@@std@@PAVPlugInFactory@@@std@@@2@@std@@YAXPAU?$pair@V?$basic_string@DU?$char_traits@D@std@@V?$allocator@D@2@@std@@PAVPlugInFactory@@@0@IABU10@AAV?$allocator@U?$pair@V?$basic_string@DU?$char_traits@D@std@@V?$allocator@D@2@@std@@PAVPlugInFactory@@@std@@@0@U_Nonscalar_ptr_iterator_tag@0@U_Range_checked_iterator_tag@0@@Z 10006eb0 f i ModuleManager.obj
 0001:00005f50       ??$_Destroy_range@U?$pair@V?$basic_string@DU?$char_traits@D@std@@V?$allocator@D@2@@std@@PAVPlugInFactory@@@std@@V?$allocator@U?$pair@V?$basic_string@DU?$char_traits@D@std@@V?$allocator@D@2@@std@@PAVPlugInFactory@@@std@@@2@@std@@YAXPAU?$pair@V?$basic_string@DU?$char_traits@D@std@@V?$allocator@D@2@@std@@PAVPlugInFactory@@@0@0AAV?$allocator@U?$pair@V?$basic_string@DU?$char_traits@D@std@@V?$allocator@D@2@@std@@PAVPlugInFactory@@@std@@@0@U_Nonscalar_ptr_iterator_tag@0@@Z 10006f50 f i ModuleManager.obj
 0001:00005f80       ??$iter_swap@PAU?$pair@V?$basic_string@DU?$char_traits@D@std@@V?$allocator@D@2@@std@@PAVPlugInFactory@@@std@@PAU12@@std@@YAXPAU?$pair@V?$basic_string@DU?$char_traits@D@std@@V?$allocator@D@2@@std@@PAVPlugInFactory@@@0@0@Z 10006f80 f i ModuleManager.obj
 0001:00005fb0       ??$unchecked_uninitialized_copy@PAU?$pair@V?$basic_string@DU?$char_traits@D@std@@V?$allocator@D@2@@std@@PAVPlugInFactory@@@std@@PAU12@V?$allocator@U?$pair@V?$basic_string@DU?$char_traits@D@std@@V?$allocator@D@2@@std@@PAVPlugInFactory@@@std@@@2@@stdext@@YAPAU?$pair@V?$basic_string@DU?$char_traits@D@std@@V?$allocator@D@2@@std@@PAVPlugInFactory@@@std@@PAU12@00AAV?$allocator@U?$pair@V?$basic_string@DU?$char_traits@D@std@@V?$allocator@D@2@@std@@PAVPlugInFactory@@@std@@@2@@Z 10006fb0 f i ModuleManager.obj
 0001:00005fe0       ??RFactoryPtrComparator@@QAE_NU?$pair@V?$basic_string@DU?$char_traits@D@std@@V?$allocator@D@2@@std@@PAVPlugInFactory@@@std@@0@Z 10006fe0 f i ModuleManager.obj
 0001:00006130       ??$unchecked_uninitialized_fill_n@PAU?$pair@V?$basic_string@DU?$char_traits@D@std@@V?$allocator@D@2@@std@@PAVPlugInFactory@@@std@@IU12@V?$allocator@U?$pair@V?$basic_string@DU?$char_traits@D@std@@V?$allocator@D@2@@std@@PAVPlugInFactory@@@std@@@2@@stdext@@YAXPAU?$pair@V?$basic_string@DU?$char_traits@D@std@@V?$allocator@D@2@@std@@PAVPlugInFactory@@@std@@IABU12@AAV?$allocator@U?$pair@V?$basic_string@DU?$char_traits@D@std@@V?$allocator@D@2@@std@@PAVPlugInFactory@@@std@@@2@@Z 10007130 f i ModuleManager.obj
 0001:00006160       ??$_Destroy_range@U?$pair@V?$basic_string@DU?$char_traits@D@std@@V?$allocator@D@2@@std@@PAVPlugInFactory@@@std@@V?$allocator@U?$pair@V?$basic_string@DU?$char_traits@D@std@@V?$allocator@D@2@@std@@PAVPlugInFactory@@@std@@@2@@std@@YAXPAU?$pair@V?$basic_string@DU?$char_traits@D@std@@V?$allocator@D@2@@std@@PAVPlugInFactory@@@0@0AAV?$allocator@U?$pair@V?$basic_string@DU?$char_traits@D@std@@V?$allocator@D@2@@std@@PAVPlugInFactory@@@std@@@0@@Z 10007160 f i ModuleManager.obj
 0001:00006190       ??$_Insertion_sort@PAU?$pair@V?$basic_string@DU?$char_traits@D@std@@V?$allocator@D@2@@std@@PAVPlugInFactory@@@std@@UFactoryPtrComparator@@@std@@YAXPAU?$pair@V?$basic_string@DU?$char_traits@D@std@@V?$allocator@D@2@@std@@PAVPlugInFactory@@@0@0UFactoryPtrComparator@@@Z 10007190 f i ModuleManager.obj
 0001:000062e0       ??$_Uninit_move@PAU?$pair@V?$basic_string@DU?$char_traits@D@std@@V?$allocator@D@2@@std@@PAVPlugInFactory@@@std@@PAU12@V?$allocator@U?$pair@V?$basic_string@DU?$char_traits@D@std@@V?$allocator@D@2@@std@@PAVPlugInFactory@@@std@@@2@U_Undefined_move_tag@2@@std@@YAPAU?$pair@V?$basic_string@DU?$char_traits@D@std@@V?$allocator@D@2@@std@@PAVPlugInFactory@@@0@PAU10@00AAV?$allocator@U?$pair@V?$basic_string@DU?$char_traits@D@std@@V?$allocator@D@2@@std@@PAVPlugInFactory@@@std@@@0@U_Undefined_move_tag@0@U_Range_checked_iterator_tag@0@@Z 100072e0 f i ModuleManager.obj
 0001:00006300       ??$_Med3@PAU?$pair@V?$basic_string@DU?$char_traits@D@std@@V?$allocator@D@2@@std@@PAVPlugInFactory@@@std@@UFactoryPtrComparator@@@std@@YAXPAU?$pair@V?$basic_string@DU?$char_traits@D@std@@V?$allocator@D@2@@std@@PAVPlugInFactory@@@0@00UFactoryPtrComparator@@@Z 10007300 f i ModuleManager.obj
 0001:00006460       ??$_Push_heap@PAU?$pair@V?$basic_string@DU?$char_traits@D@std@@V?$allocator@D@2@@std@@PAVPlugInFactory@@@std@@HU12@UFactoryPtrComparator@@@std@@YAXPAU?$pair@V?$basic_string@DU?$char_traits@D@std@@V?$allocator@D@2@@std@@PAVPlugInFactory@@@0@HHU10@UFactoryPtrComparator@@@Z 10007460 f i ModuleManager.obj
 0001:00006570       ?_Ufill@?$vector@U?$pair@V?$basic_string@DU?$char_traits@D@std@@V?$allocator@D@2@@std@@PAVPlugInFactory@@@std@@V?$allocator@U?$pair@V?$basic_string@DU?$char_traits@D@std@@V?$allocator@D@2@@std@@PAVPlugInFactory@@@std@@@2@@std@@IAEPAU?$pair@V?$basic_string@DU?$char_traits@D@std@@V?$allocator@D@2@@std@@PAVPlugInFactory@@@2@PAU32@IABU32@@Z 10007570 f i ModuleManager.obj
 0001:000065b0       ?_Destroy@?$vector@U?$pair@V?$basic_string@DU?$char_traits@D@std@@V?$allocator@D@2@@std@@PAVPlugInFactory@@@std@@V?$allocator@U?$pair@V?$basic_string@DU?$char_traits@D@std@@V?$allocator@D@2@@std@@PAVPlugInFactory@@@std@@@2@@std@@IAEXPAU?$pair@V?$basic_string@DU?$char_traits@D@std@@V?$allocator@D@2@@std@@PAVPlugInFactory@@@2@0@Z 100075b0 f i ModuleManager.obj
 0001:000065e0       ??$_Unchecked_uninitialized_move@PAU?$pair@V?$basic_string@DU?$char_traits@D@std@@V?$allocator@D@2@@std@@PAVPlugInFactory@@@std@@PAU12@V?$allocator@U?$pair@V?$basic_string@DU?$char_traits@D@std@@V?$allocator@D@2@@std@@PAVPlugInFactory@@@std@@@2@@stdext@@YAPAU?$pair@V?$basic_string@DU?$char_traits@D@std@@V?$allocator@D@2@@std@@PAVPlugInFactory@@@std@@PAU12@00AAV?$allocator@U?$pair@V?$basic_string@DU?$char_traits@D@std@@V?$allocator@D@2@@std@@PAVPlugInFactory@@@std@@@2@@Z 100075e0 f i ModuleManager.obj
 0001:00006610       ??$_Median@PAU?$pair@V?$basic_string@DU?$char_traits@D@std@@V?$allocator@D@2@@std@@PAVPlugInFactory@@@std@@UFactoryPtrComparator@@@std@@YAXPAU?$pair@V?$basic_string@DU?$char_traits@D@std@@V?$allocator@D@2@@std@@PAVPlugInFactory@@@0@00UFactoryPtrComparator@@@Z 10007610 f i ModuleManager.obj
 0001:000066c0       ??$_Adjust_heap@PAU?$pair@V?$basic_string@DU?$char_traits@D@std@@V?$allocator@D@2@@std@@PAVPlugInFactory@@@std@@HU12@UFactoryPtrComparator@@@std@@YAXPAU?$pair@V?$basic_string@DU?$char_traits@D@std@@V?$allocator@D@2@@std@@PAVPlugInFactory@@@0@HHU10@UFactoryPtrComparator@@@Z 100076c0 f i ModuleManager.obj
 0001:00006830       ??$_Pop_heap@PAU?$pair@V?$basic_string@DU?$char_traits@D@std@@V?$allocator@D@2@@std@@PAVPlugInFactory@@@std@@HU12@UFactoryPtrComparator@@@std@@YAXPAU?$pair@V?$basic_string@DU?$char_traits@D@std@@V?$allocator@D@2@@std@@PAVPlugInFactory@@@0@00U10@UFactoryPtrComparator@@PAH@Z 10007830 f i ModuleManager.obj
 0001:000068c0       ?_Tidy@?$vector@U?$pair@V?$basic_string@DU?$char_traits@D@std@@V?$allocator@D@2@@std@@PAVPlugInFactory@@@std@@V?$allocator@U?$pair@V?$basic_string@DU?$char_traits@D@std@@V?$allocator@D@2@@std@@PAVPlugInFactory@@@std@@@2@@std@@IAEXXZ 100078c0 f i ModuleManager.obj
 0001:00006910       ??$_Umove@PAU?$pair@V?$basic_string@DU?$char_traits@D@std@@V?$allocator@D@2@@std@@PAVPlugInFactory@@@std@@@?$vector@U?$pair@V?$basic_string@DU?$char_traits@D@std@@V?$allocator@D@2@@std@@PAVPlugInFactory@@@std@@V?$allocator@U?$pair@V?$basic_string@DU?$char_traits@D@std@@V?$allocator@D@2@@std@@PAVPlugInFactory@@@std@@@2@@std@@IAEPAU?$pair@V?$basic_string@DU?$char_traits@D@std@@V?$allocator@D@2@@std@@PAVPlugInFactory@@@1@PAU21@00@Z 10007910 f i ModuleManager.obj
 0001:00006940       ??$_Unguarded_partition@PAU?$pair@V?$basic_string@DU?$char_traits@D@std@@V?$allocator@D@2@@std@@PAVPlugInFactory@@@std@@UFactoryPtrComparator@@@std@@YA?AU?$pair@PAU?$pair@V?$basic_string@DU?$char_traits@D@std@@V?$allocator@D@2@@std@@PAVPlugInFactory@@@std@@PAU12@@0@PAU?$pair@V?$basic_string@DU?$char_traits@D@std@@V?$allocator@D@2@@std@@PAVPlugInFactory@@@0@0UFactoryPtrComparator@@@Z 10007940 f i ModuleManager.obj
 0001:00006db0       ??$_Make_heap@PAU?$pair@V?$basic_string@DU?$char_traits@D@std@@V?$allocator@D@2@@std@@PAVPlugInFactory@@@std@@HU12@UFactoryPtrComparator@@@std@@YAXPAU?$pair@V?$basic_string@DU?$char_traits@D@std@@V?$allocator@D@2@@std@@PAVPlugInFactory@@@0@0UFactoryPtrComparator@@PAH0@Z 10007db0 f i ModuleManager.obj
 0001:00006e10       ??$_Pop_heap_0@PAU?$pair@V?$basic_string@DU?$char_traits@D@std@@V?$allocator@D@2@@std@@PAVPlugInFactory@@@std@@U12@UFactoryPtrComparator@@@std@@YAXPAU?$pair@V?$basic_string@DU?$char_traits@D@std@@V?$allocator@D@2@@std@@PAVPlugInFactory@@@0@0UFactoryPtrComparator@@0@Z 10007e10 f i ModuleManager.obj
 0001:00006e50       ??1?$vector@U?$pair@V?$basic_string@DU?$char_traits@D@std@@V?$allocator@D@2@@std@@PAVPlugInFactory@@@std@@V?$allocator@U?$pair@V?$basic_string@DU?$char_traits@D@std@@V?$allocator@D@2@@std@@PAVPlugInFactory@@@std@@@2@@std@@QAE@XZ 10007e50 f i ModuleManager.obj
 0001:00006e60       ?_Insert_n@?$vector@U?$pair@V?$basic_string@DU?$char_traits@D@std@@V?$allocator@D@2@@std@@PAVPlugInFactory@@@std@@V?$allocator@U?$pair@V?$basic_string@DU?$char_traits@D@std@@V?$allocator@D@2@@std@@PAVPlugInFactory@@@std@@@2@@std@@IAEXV?$_Vector_iterator@U?$pair@V?$basic_string@DU?$char_traits@D@std@@V?$allocator@D@2@@std@@PAVPlugInFactory@@@std@@V?$allocator@U?$pair@V?$basic_string@DU?$char_traits@D@std@@V?$allocator@D@2@@std@@PAVPlugInFactory@@@std@@@2@@2@IABU?$pair@V?$basic_string@DU?$char_traits@D@std@@V?$allocator@D@2@@std@@PAVPlugInFactory@@@2@@Z 10007e60 f i ModuleManager.obj
 0001:000070f0       ??$make_heap@PAU?$pair@V?$basic_string@DU?$char_traits@D@std@@V?$allocator@D@2@@std@@PAVPlugInFactory@@@std@@UFactoryPtrComparator@@@std@@YAXPAU?$pair@V?$basic_string@DU?$char_traits@D@std@@V?$allocator@D@2@@std@@PAVPlugInFactory@@@0@0UFactoryPtrComparator@@@Z 100080f0 f i ModuleManager.obj
 0001:00007120       ??$pop_heap@PAU?$pair@V?$basic_string@DU?$char_traits@D@std@@V?$allocator@D@2@@std@@PAVPlugInFactory@@@std@@UFactoryPtrComparator@@@std@@YAXPAU?$pair@V?$basic_string@DU?$char_traits@D@std@@V?$allocator@D@2@@std@@PAVPlugInFactory@@@0@0UFactoryPtrComparator@@@Z 10008120 f i ModuleManager.obj
 0001:00007170       ?insert@?$vector@U?$pair@V?$basic_string@DU?$char_traits@D@std@@V?$allocator@D@2@@std@@PAVPlugInFactory@@@std@@V?$allocator@U?$pair@V?$basic_string@DU?$char_traits@D@std@@V?$allocator@D@2@@std@@PAVPlugInFactory@@@std@@@2@@std@@QAE?AV?$_Vector_iterator@U?$pair@V?$basic_string@DU?$char_traits@D@std@@V?$allocator@D@2@@std@@PAVPlugInFactory@@@std@@V?$allocator@U?$pair@V?$basic_string@DU?$char_traits@D@std@@V?$allocator@D@2@@std@@PAVPlugInFactory@@@std@@@2@@2@V32@ABU?$pair@V?$basic_string@DU?$char_traits@D@std@@V?$allocator@D@2@@std@@PAVPlugInFactory@@@2@@Z 10008170 f i ModuleManager.obj
 0001:00007200       ??$_Sort_heap@PAU?$pair@V?$basic_string@DU?$char_traits@D@std@@V?$allocator@D@2@@std@@PAVPlugInFactory@@@std@@UFactoryPtrComparator@@@std@@YAXPAU?$pair@V?$basic_string@DU?$char_traits@D@std@@V?$allocator@D@2@@std@@PAVPlugInFactory@@@0@0UFactoryPtrComparator@@@Z 10008200 f i ModuleManager.obj
 0001:00007270       ?factories@SpectralDataMerge@@YAAAV?$vector@U?$pair@V?$basic_string@DU?$char_traits@D@std@@V?$allocator@D@2@@std@@PAVPlugInFactory@@@std@@V?$allocator@U?$pair@V?$basic_string@DU?$char_traits@D@std@@V?$allocator@D@2@@std@@PAVPlugInFactory@@@std@@@2@@std@@XZ 10008270 f   ModuleManager.obj
 0001:000072d0       ?push_back@?$vector@U?$pair@V?$basic_string@DU?$char_traits@D@std@@V?$allocator@D@2@@std@@PAVPlugInFactory@@@std@@V?$allocator@U?$pair@V?$basic_string@DU?$char_traits@D@std@@V?$allocator@D@2@@std@@PAVPlugInFactory@@@std@@@2@@std@@QAEXABU?$pair@V?$basic_string@DU?$char_traits@D@std@@V?$allocator@D@2@@std@@PAVPlugInFactory@@@2@@Z 100082d0 f i ModuleManager.obj
 0001:00007360       ??$sort_heap@PAU?$pair@V?$basic_string@DU?$char_traits@D@std@@V?$allocator@D@2@@std@@PAVPlugInFactory@@@std@@UFactoryPtrComparator@@@std@@YAXPAU?$pair@V?$basic_string@DU?$char_traits@D@std@@V?$allocator@D@2@@std@@PAVPlugInFactory@@@0@0UFactoryPtrComparator@@@Z 10008360 f i ModuleManager.obj
 0001:00007370       ?addFactory@SpectralDataMerge@@YAXPAVPlugInFactory@@@Z 10008370 f   ModuleManager.obj
 0001:000074d0       ??$_Sort@PAU?$pair@V?$basic_string@DU?$char_traits@D@std@@V?$allocator@D@2@@std@@PAVPlugInFactory@@@std@@HUFactoryPtrComparator@@@std@@YAXPAU?$pair@V?$basic_string@DU?$char_traits@D@std@@V?$allocator@D@2@@std@@PAVPlugInFactory@@@0@0HUFactoryPtrComparator@@@Z 100084d0 f i ModuleManager.obj
 0001:000075c0       ??$sort@V?$_Vector_iterator@U?$pair@V?$basic_string@DU?$char_traits@D@std@@V?$allocator@D@2@@std@@PAVPlugInFactory@@@std@@V?$allocator@U?$pair@V?$basic_string@DU?$char_traits@D@std@@V?$allocator@D@2@@std@@PAVPlugInFactory@@@std@@@2@@std@@UFactoryPtrComparator@@@std@@YAXV?$_Vector_iterator@U?$pair@V?$basic_string@DU?$char_traits@D@std@@V?$allocator@D@2@@std@@PAVPlugInFactory@@@std@@V?$allocator@U?$pair@V?$basic_string@DU?$char_traits@D@std@@V?$allocator@D@2@@std@@PAVPlugInFactory@@@std@@@2@@0@0UFactoryPtrComparator@@@Z 100085c0 f i ModuleManager.obj
 0001:00007600       ?getPlugIn@SpectralDataMerge@@YAPAVPlugIn@@I@Z 10008600 f   ModuleManager.obj
 0001:000076c0       _SpectralDataMergeInstantiatePlugIn 100086c0 f   ModuleManager.obj
 0001:000076f0       ?metaObject@DataMerge@@UBEPBUQMetaObject@@XZ 100086f0 f   moc_DataMerge.obj
 0001:00007700       ?qt_metacast@DataMerge@@UAEPAXPBD@Z 10008700 f   moc_DataMerge.obj
 0001:00007780       ?qt_metacall@DataMerge@@UAEHW4Call@QMetaObject@@HPAPAX@Z 10008780 f   moc_DataMerge.obj
 0001:000077c0       ?metaObject@DataMergeGui@@UBEPBUQMetaObject@@XZ 100087c0 f   moc_DataMergeGui.obj
 0001:000077d0       ?qt_metacast@DataMergeGui@@UAEPAXPBD@Z 100087d0 f   moc_DataMergeGui.obj
 0001:00007830       ?qt_metacall@DataMergeGui@@UAEHW4Call@QMetaObject@@HPAPAX@Z 10008830 f   moc_DataMergeGui.obj
 0001:00007884       ??1QObject@@UAE@XZ         10008884 f   QtCore4:QtCore4.dll
 0001:0000788a       ??0QObject@@QAE@PAV0@@Z    1000888a f   QtCore4:QtCore4.dll
 0001:00007890       ?event@QObject@@UAE_NPAVQEvent@@@Z 10008890 f   QtCore4:QtCore4.dll
 0001:00007896       ?eventFilter@QObject@@UAE_NPAV1@PAVQEvent@@@Z 10008896 f   QtCore4:QtCore4.dll
 0001:0000789c       ?timerEvent@QObject@@MAEXPAVQTimerEvent@@@Z 1000889c f   QtCore4:QtCore4.dll
 0001:000078a2       ?childEvent@QObject@@MAEXPAVQChildEvent@@@Z 100088a2 f   QtCore4:QtCore4.dll
 0001:000078a8       ?customEvent@QObject@@MAEXPAVQEvent@@@Z 100088a8 f   QtCore4:QtCore4.dll
 0001:000078ae       ?connectNotify@QObject@@MAEXPBD@Z 100088ae f   QtCore4:QtCore4.dll
 0001:000078b4       ?disconnectNotify@QObject@@MAEXPBD@Z 100088b4 f   QtCore4:QtCore4.dll
 0001:000078ba       ??1QString@@QAE@XZ         100088ba f   QtCore4:QtCore4.dll
 0001:000078c0       ?free@QString@@CAXPAUData@1@@Z 100088c0 f   QtCore4:QtCore4.dll
 0001:000078c6       ?fromAscii_helper@QString@@CAPAUData@1@PBDH@Z 100088c6 f   QtCore4:QtCore4.dll
 0001:000078cc       ??1QVariant@@QAE@XZ        100088cc f   QtCore4:QtCore4.dll
 0001:000078d2       ?fromStdString@QString@@SA?AV1@ABV?$basic_string@DU?$char_traits@D@std@@V?$allocator@D@2@@std@@@Z 100088d2 f   QtCore4:QtCore4.dll
 0001:000078d8       ??0QVariant@@QAE@XZ        100088d8 f   QtCore4:QtCore4.dll
 0001:000078de       ?connect@QObject@@SA_NPBV1@PBD01W4ConnectionType@Qt@@@Z 100088de f   QtCore4:QtCore4.dll
 0001:000078e4       ?qFlagLocation@@YAPBDPBD@Z 100088e4 f   QtCore4:QtCore4.dll
 0001:000078ea       ?expandedTo@QSize@@QBE?AV1@ABV1@@Z 100088ea f   QtCore4:QtCore4.dll
 0001:000078f0       ?setObjectName@QObject@@QAEXABVQString@@@Z 100088f0 f   QtCore4:QtCore4.dll
 0001:000078f6       ?qt_metacast@QObject@@UAEPAXPBD@Z 100088f6 f   QtCore4:QtCore4.dll
 0001:000078fc       ?qt_metacall@QObject@@UAEHW4Call@QMetaObject@@HPAPAX@Z 100088fc f   QtCore4:QtCore4.dll
 0001:00007902       ?critical@QMessageBox@@SAHPAVQWidget@@ABVQString@@1111HH@Z 10008902 f   QtGui4:QtGui4.dll
 0001:00007908       ?value@QDoubleSpinBox@@QBENXZ 10008908 f   QtGui4:QtGui4.dll
 0001:0000790e       ?setEnabled@QWidget@@QAEX_N@Z 1000890e f   QtGui4:QtGui4.dll
 0001:00007914       ?currentIndex@QComboBox@@QBEHXZ 10008914 f   QtGui4:QtGui4.dll
 0001:0000791a       ??1QDialog@@UAE@XZ         1000891a f   QtGui4:QtGui4.dll
 0001:00007920       ?event@QWidget@@MAE_NPAVQEvent@@@Z 10008920 f   QtGui4:QtGui4.dll
 0001:00007926       ?eventFilter@QDialog@@MAE_NPAVQObject@@PAVQEvent@@@Z 10008926 f   QtGui4:QtGui4.dll
 0001:0000792c       ?setVisible@QDialog@@UAEX_N@Z 1000892c f   QtGui4:QtGui4.dll
 0001:00007932       ?sizeHint@QDialog@@UBE?AVQSize@@XZ 10008932 f   QtGui4:QtGui4.dll
 0001:00007938       ?minimumSizeHint@QDialog@@UBE?AVQSize@@XZ 10008938 f   QtGui4:QtGui4.dll
 0001:0000793e       ?heightForWidth@QWidget@@UBEHH@Z 1000893e f   QtGui4:QtGui4.dll
 0001:00007944       ?mousePressEvent@QWidget@@MAEXPAVQMouseEvent@@@Z 10008944 f   QtGui4:QtGui4.dll
 0001:0000794a       ?mouseReleaseEvent@QWidget@@MAEXPAVQMouseEvent@@@Z 1000894a f   QtGui4:QtGui4.dll
 0001:00007950       ?mouseDoubleClickEvent@QWidget@@MAEXPAVQMouseEvent@@@Z 10008950 f   QtGui4:QtGui4.dll
 0001:00007956       ?mouseMoveEvent@QWidget@@MAEXPAVQMouseEvent@@@Z 10008956 f   QtGui4:QtGui4.dll
 0001:0000795c       ?wheelEvent@QWidget@@MAEXPAVQWheelEvent@@@Z 1000895c f   QtGui4:QtGui4.dll
 0001:00007962       ?keyPressEvent@QDialog@@MAEXPAVQKeyEvent@@@Z 10008962 f   QtGui4:QtGui4.dll
 0001:00007968       ?keyReleaseEvent@QWidget@@MAEXPAVQKeyEvent@@@Z 10008968 f   QtGui4:QtGui4.dll
 0001:0000796e       ?focusInEvent@QWidget@@MAEXPAVQFocusEvent@@@Z 1000896e f   QtGui4:QtGui4.dll
 0001:00007974       ?focusOutEvent@QWidget@@MAEXPAVQFocusEvent@@@Z 10008974 f   QtGui4:QtGui4.dll
 0001:0000797a       ?enterEvent@QWidget@@MAEXPAVQEvent@@@Z 1000897a f   QtGui4:QtGui4.dll
 0001:00007980       ?leaveEvent@QWidget@@MAEXPAVQEvent@@@Z 10008980 f   QtGui4:QtGui4.dll
 0001:00007986       ?paintEvent@QWidget@@MAEXPAVQPaintEvent@@@Z 10008986 f   QtGui4:QtGui4.dll
 0001:0000798c       ?moveEvent@QWidget@@MAEXPAVQMoveEvent@@@Z 1000898c f   QtGui4:QtGui4.dll
 0001:00007992       ?resizeEvent@QDialog@@MAEXPAVQResizeEvent@@@Z 10008992 f   QtGui4:QtGui4.dll
 0001:00007998       ?closeEvent@QDialog@@MAEXPAVQCloseEvent@@@Z 10008998 f   QtGui4:QtGui4.dll
 0001:0000799e       ?contextMenuEvent@QDialog@@MAEXPAVQContextMenuEvent@@@Z 1000899e f   QtGui4:QtGui4.dll
 0001:000079a4       ?tabletEvent@QWidget@@MAEXPAVQTabletEvent@@@Z 100089a4 f   QtGui4:QtGui4.dll
 0001:000079aa       ?actionEvent@QWidget@@MAEXPAVQActionEvent@@@Z 100089aa f   QtGui4:QtGui4.dll
 0001:000079b0       ?dragEnterEvent@QWidget@@MAEXPAVQDragEnterEvent@@@Z 100089b0 f   QtGui4:QtGui4.dll
 0001:000079b6       ?dragMoveEvent@QWidget@@MAEXPAVQDragMoveEvent@@@Z 100089b6 f   QtGui4:QtGui4.dll
 0001:000079bc       ?dragLeaveEvent@QWidget@@MAEXPAVQDragLeaveEvent@@@Z 100089bc f   QtGui4:QtGui4.dll
 0001:000079c2       ?dropEvent@QWidget@@MAEXPAVQDropEvent@@@Z 100089c2 f   QtGui4:QtGui4.dll
 0001:000079c8       ?showEvent@QDialog@@MAEXPAVQShowEvent@@@Z 100089c8 f   QtGui4:QtGui4.dll
 0001:000079ce       ?hideEvent@QWidget@@MAEXPAVQHideEvent@@@Z 100089ce f   QtGui4:QtGui4.dll
 0001:000079d4       ?winEvent@QWidget@@MAE_NPAUtagMSG@@PAJ@Z 100089d4 f   QtGui4:QtGui4.dll
 0001:000079da       ?changeEvent@QWidget@@MAEXPAVQEvent@@@Z 100089da f   QtGui4:QtGui4.dll
 0001:000079e0       ?inputMethodEvent@QWidget@@MAEXPAVQInputMethodEvent@@@Z 100089e0 f   QtGui4:QtGui4.dll
 0001:000079e6       ?inputMethodQuery@QWidget@@UBE?AVQVariant@@W4InputMethodQuery@Qt@@@Z 100089e6 f   QtGui4:QtGui4.dll
 0001:000079ec       ?focusNextPrevChild@QWidget@@MAE_N_N@Z 100089ec f   QtGui4:QtGui4.dll
 0001:000079f2       ?styleChange@QWidget@@MAEXAAVQStyle@@@Z 100089f2 f   QtGui4:QtGui4.dll
 0001:000079f8       ?enabledChange@QWidget@@MAEX_N@Z 100089f8 f   QtGui4:QtGui4.dll
 0001:000079fe       ?paletteChange@QWidget@@MAEXABVQPalette@@@Z 100089fe f   QtGui4:QtGui4.dll
 0001:00007a04       ?fontChange@QWidget@@MAEXABVQFont@@@Z 10008a04 f   QtGui4:QtGui4.dll
 0001:00007a0a       ?windowActivationChange@QWidget@@MAEX_N@Z 10008a0a f   QtGui4:QtGui4.dll
 0001:00007a10       ?languageChange@QWidget@@MAEXXZ 10008a10 f   QtGui4:QtGui4.dll
 0001:00007a16       ?done@QDialog@@UAEXH@Z     10008a16 f   QtGui4:QtGui4.dll
 0001:00007a1c       ?accept@QDialog@@UAEXXZ    10008a1c f   QtGui4:QtGui4.dll
 0001:00007a22       ?reject@QDialog@@UAEXXZ    10008a22 f   QtGui4:QtGui4.dll
 0001:00007a28       ?devType@QWidget@@UBEHXZ   10008a28 f   QtGui4:QtGui4.dll
 0001:00007a2e       ?paintEngine@QWidget@@UBEPAVQPaintEngine@@XZ 10008a2e f   QtGui4:QtGui4.dll
 0001:00007a34       ?getDC@QWidget@@UBEPAUHDC__@@XZ 10008a34 f   QtGui4:QtGui4.dll
 0001:00007a3a       ?releaseDC@QWidget@@UBEXPAUHDC__@@@Z 10008a3a f   QtGui4:QtGui4.dll
 0001:00007a40       ?metric@QWidget@@MBEHW4PaintDeviceMetric@QPaintDevice@@@Z 10008a40 f   QtGui4:QtGui4.dll
 0001:00007a46       ?setMinimum@QDoubleSpinBox@@QAEXN@Z 10008a46 f   QtGui4:QtGui4.dll
 0001:00007a4c       ??1QIcon@@QAE@XZ           10008a4c f   QtGui4:QtGui4.dll
 0001:00007a52       ?insertItem@QComboBox@@QAEXHABVQIcon@@ABVQString@@ABVQVariant@@@Z 10008a52 f   QtGui4:QtGui4.dll
 0001:00007a58       ??0QIcon@@QAE@XZ           10008a58 f   QtGui4:QtGui4.dll
 0001:00007a5e       ?resize@QWidget@@QAEXABVQSize@@@Z 10008a5e f   QtGui4:QtGui4.dll
 0001:00007a64       ?setText@QAbstractButton@@QAEXABVQString@@@Z 10008a64 f   QtGui4:QtGui4.dll
 0001:00007a6a       ?addWidget@QGridLayout@@QAEXPAVQWidget@@HHHHV?$QFlags@W4AlignmentFlag@Qt@@@@@Z 10008a6a f   QtGui4:QtGui4.dll
 0001:00007a70       ?addWidget@QGridLayout@@QAEXPAVQWidget@@HHV?$QFlags@W4AlignmentFlag@Qt@@@@@Z 10008a70 f   QtGui4:QtGui4.dll
 0001:00007a76       ??0QLabel@@QAE@ABVQString@@PAVQWidget@@V?$QFlags@W4WindowType@Qt@@@@@Z 10008a76 f   QtGui4:QtGui4.dll
 0001:00007a7c       ??0QDoubleSpinBox@@QAE@PAVQWidget@@@Z 10008a7c f   QtGui4:QtGui4.dll
 0001:00007a82       ??0QComboBox@@QAE@PAVQWidget@@@Z 10008a82 f   QtGui4:QtGui4.dll
 0001:00007a88       ??0QPushButton@@QAE@ABVQString@@PAVQWidget@@@Z 10008a88 f   QtGui4:QtGui4.dll
 0001:00007a8e       ??0QGridLayout@@QAE@PAVQWidget@@@Z 10008a8e f   QtGui4:QtGui4.dll
 0001:00007a94       ?setModal@QDialog@@QAEX_N@Z 10008a94 f   QtGui4:QtGui4.dll
 0001:00007a9a       ??0QDialog@@QAE@PAVQWidget@@V?$QFlags@W4WindowType@Qt@@@@@Z 10008a9a f   QtGui4:QtGui4.dll
 0001:00007aa0       ?metaObject@QGridLayout@@UBEPBUQMetaObject@@XZ 10008aa0 f   QtGui4:QtGui4.dll
 0001:00007aa6       ?qt_metacast@QGridLayout@@UAEPAXPBD@Z 10008aa6 f   QtGui4:QtGui4.dll
 0001:00007aac       ?qt_metacall@QGridLayout@@UAEHW4Call@QMetaObject@@HPAPAX@Z 10008aac f   QtGui4:QtGui4.dll
 0001:00007ab2       ?childEvent@QLayout@@MAEXPAVQChildEvent@@@Z 10008ab2 f   QtGui4:QtGui4.dll
 0001:00007ab8       ?addItem@QGridLayout@@MAEXPAVQLayoutItem@@@Z 10008ab8 f   QtGui4:QtGui4.dll
 0001:00007abe       ?itemAt@QGridLayout@@UBEPAVQLayoutItem@@H@Z 10008abe f   QtGui4:QtGui4.dll
 0001:00007ac4       ?takeAt@QGridLayout@@UAEPAVQLayoutItem@@H@Z 10008ac4 f   QtGui4:QtGui4.dll
 0001:00007aca       ?indexOf@QLayout@@UBEHPAVQWidget@@@Z 10008aca f   QtGui4:QtGui4.dll
 0001:00007ad0       ?count@QGridLayout@@UBEHXZ 10008ad0 f   QtGui4:QtGui4.dll
 0001:00007ad6       ?sizeHint@QGridLayout@@UBE?AVQSize@@XZ 10008ad6 f   QtGui4:QtGui4.dll
 0001:00007adc       ?minimumSize@QGridLayout@@UBE?AVQSize@@XZ 10008adc f   QtGui4:QtGui4.dll
 0001:00007ae2       ?maximumSize@QGridLayout@@UBE?AVQSize@@XZ 10008ae2 f   QtGui4:QtGui4.dll
 0001:00007ae8       ?expandingDirections@QGridLayout@@UBE?AV?$QFlags@W4Orientation@Qt@@@@XZ 10008ae8 f   QtGui4:QtGui4.dll
 0001:00007aee       ?setGeometry@QGridLayout@@UAEXABVQRect@@@Z 10008aee f   QtGui4:QtGui4.dll
 0001:00007af4       ?geometry@QLayout@@UBE?AVQRect@@XZ 10008af4 f   QtGui4:QtGui4.dll
 0001:00007afa       ?isEmpty@QLayout@@UBE_NXZ  10008afa f   QtGui4:QtGui4.dll
 0001:00007b00       ?hasHeightForWidth@QGridLayout@@UBE_NXZ 10008b00 f   QtGui4:QtGui4.dll
 0001:00007b06       ?heightForWidth@QGridLayout@@UBEHH@Z 10008b06 f   QtGui4:QtGui4.dll
 0001:00007b0c       ?minimumHeightForWidth@QGridLayout@@UBEHH@Z 10008b0c f   QtGui4:QtGui4.dll
 0001:00007b12       ?invalidate@QGridLayout@@UAEXXZ 10008b12 f   QtGui4:QtGui4.dll
 0001:00007b18       ?widget@QLayoutItem@@UAEPAVQWidget@@XZ 10008b18 f   QtGui4:QtGui4.dll
 0001:00007b1e       ?layout@QLayout@@UAEPAV1@XZ 10008b1e f   QtGui4:QtGui4.dll
 0001:00007b24       ?spacerItem@QLayoutItem@@UAEPAVQSpacerItem@@XZ 10008b24 f   QtGui4:QtGui4.dll
 0001:00007b2a       ?metaObject@QPushButton@@UBEPBUQMetaObject@@XZ 10008b2a f   QtGui4:QtGui4.dll
 0001:00007b30       ?qt_metacast@QPushButton@@UAEPAXPBD@Z 10008b30 f   QtGui4:QtGui4.dll
 0001:00007b36       ?qt_metacall@QPushButton@@UAEHW4Call@QMetaObject@@HPAPAX@Z 10008b36 f   QtGui4:QtGui4.dll
 0001:00007b3c       ?event@QPushButton@@MAE_NPAVQEvent@@@Z 10008b3c f   QtGui4:QtGui4.dll
 0001:00007b42       ?timerEvent@QAbstractButton@@MAEXPAVQTimerEvent@@@Z 10008b42 f   QtGui4:QtGui4.dll
 0001:00007b48       ?setVisible@QWidget@@UAEX_N@Z 10008b48 f   QtGui4:QtGui4.dll
 0001:00007b4e       ?sizeHint@QPushButton@@UBE?AVQSize@@XZ 10008b4e f   QtGui4:QtGui4.dll
 0001:00007b54       ?minimumSizeHint@QPushButton@@UBE?AVQSize@@XZ 10008b54 f   QtGui4:QtGui4.dll
 0001:00007b5a       ?mousePressEvent@QAbstractButton@@MAEXPAVQMouseEvent@@@Z 10008b5a f   QtGui4:QtGui4.dll
 0001:00007b60       ?mouseReleaseEvent@QAbstractButton@@MAEXPAVQMouseEvent@@@Z 10008b60 f   QtGui4:QtGui4.dll
 0001:00007b66       ?mouseMoveEvent@QAbstractButton@@MAEXPAVQMouseEvent@@@Z 10008b66 f   QtGui4:QtGui4.dll
 0001:00007b6c       ?keyPressEvent@QPushButton@@MAEXPAVQKeyEvent@@@Z 10008b6c f   QtGui4:QtGui4.dll
 0001:00007b72       ?keyReleaseEvent@QAbstractButton@@MAEXPAVQKeyEvent@@@Z 10008b72 f   QtGui4:QtGui4.dll
 0001:00007b78       ?focusInEvent@QPushButton@@MAEXPAVQFocusEvent@@@Z 10008b78 f   QtGui4:QtGui4.dll
 0001:00007b7e       ?focusOutEvent@QPushButton@@MAEXPAVQFocusEvent@@@Z 10008b7e f   QtGui4:QtGui4.dll
 0001:00007b84       ?paintEvent@QPushButton@@MAEXPAVQPaintEvent@@@Z 10008b84 f   QtGui4:QtGui4.dll
 0001:00007b8a       ?resizeEvent@QWidget@@MAEXPAVQResizeEvent@@@Z 10008b8a f   QtGui4:QtGui4.dll
 0001:00007b90       ?closeEvent@QWidget@@MAEXPAVQCloseEvent@@@Z 10008b90 f   QtGui4:QtGui4.dll
 0001:00007b96       ?contextMenuEvent@QWidget@@MAEXPAVQContextMenuEvent@@@Z 10008b96 f   QtGui4:QtGui4.dll
 0001:00007b9c       ?showEvent@QWidget@@MAEXPAVQShowEvent@@@Z 10008b9c f   QtGui4:QtGui4.dll
 0001:00007ba2       ?changeEvent@QAbstractButton@@MAEXPAVQEvent@@@Z 10008ba2 f   QtGui4:QtGui4.dll
 0001:00007ba8       ?hitButton@QAbstractButton@@MBE_NABVQPoint@@@Z 10008ba8 f   QtGui4:QtGui4.dll
 0001:00007bae       ?checkStateSet@QAbstractButton@@MAEXXZ 10008bae f   QtGui4:QtGui4.dll
 0001:00007bb4       ?nextCheckState@QAbstractButton@@MAEXXZ 10008bb4 f   QtGui4:QtGui4.dll
 0001:00007bba       ?metaObject@QComboBox@@UBEPBUQMetaObject@@XZ 10008bba f   QtGui4:QtGui4.dll
 0001:00007bc0       ?qt_metacast@QComboBox@@UAEPAXPBD@Z 10008bc0 f   QtGui4:QtGui4.dll
 0001:00007bc6       ?qt_metacall@QComboBox@@UAEHW4Call@QMetaObject@@HPAPAX@Z 10008bc6 f   QtGui4:QtGui4.dll
 0001:00007bcc       ?event@QComboBox@@UAE_NPAVQEvent@@@Z 10008bcc f   QtGui4:QtGui4.dll
 0001:00007bd2       ?sizeHint@QComboBox@@UBE?AVQSize@@XZ 10008bd2 f   QtGui4:QtGui4.dll
 0001:00007bd8       ?minimumSizeHint@QComboBox@@UBE?AVQSize@@XZ 10008bd8 f   QtGui4:QtGui4.dll
 0001:00007bde       ?mousePressEvent@QComboBox@@MAEXPAVQMouseEvent@@@Z 10008bde f   QtGui4:QtGui4.dll
 0001:00007be4       ?mouseReleaseEvent@QComboBox@@MAEXPAVQMouseEvent@@@Z 10008be4 f   QtGui4:QtGui4.dll
 0001:00007bea       ?wheelEvent@QComboBox@@MAEXPAVQWheelEvent@@@Z 10008bea f   QtGui4:QtGui4.dll
 0001:00007bf0       ?keyPressEvent@QComboBox@@MAEXPAVQKeyEvent@@@Z 10008bf0 f   QtGui4:QtGui4.dll
 0001:00007bf6       ?keyReleaseEvent@QComboBox@@MAEXPAVQKeyEvent@@@Z 10008bf6 f   QtGui4:QtGui4.dll
 0001:00007bfc       ?focusInEvent@QComboBox@@MAEXPAVQFocusEvent@@@Z 10008bfc f   QtGui4:QtGui4.dll
 0001:00007c02       ?focusOutEvent@QComboBox@@MAEXPAVQFocusEvent@@@Z 10008c02 f   QtGui4:QtGui4.dll
 0001:00007c08       ?paintEvent@QComboBox@@MAEXPAVQPaintEvent@@@Z 10008c08 f   QtGui4:QtGui4.dll
 0001:00007c0e       ?resizeEvent@QComboBox@@MAEXPAVQResizeEvent@@@Z 10008c0e f   QtGui4:QtGui4.dll
 0001:00007c14       ?contextMenuEvent@QComboBox@@MAEXPAVQContextMenuEvent@@@Z 10008c14 f   QtGui4:QtGui4.dll
 0001:00007c1a       ?showEvent@QComboBox@@MAEXPAVQShowEvent@@@Z 10008c1a f   QtGui4:QtGui4.dll
 0001:00007c20       ?hideEvent@QComboBox@@MAEXPAVQHideEvent@@@Z 10008c20 f   QtGui4:QtGui4.dll
 0001:00007c26       ?changeEvent@QComboBox@@MAEXPAVQEvent@@@Z 10008c26 f   QtGui4:QtGui4.dll
 0001:00007c2c       ?inputMethodEvent@QComboBox@@MAEXPAVQInputMethodEvent@@@Z 10008c2c f   QtGui4:QtGui4.dll
 0001:00007c32       ?inputMethodQuery@QComboBox@@MBE?AVQVariant@@W4InputMethodQuery@Qt@@@Z 10008c32 f   QtGui4:QtGui4.dll
 0001:00007c38       ?showPopup@QComboBox@@UAEXXZ 10008c38 f   QtGui4:QtGui4.dll
 0001:00007c3e       ?hidePopup@QComboBox@@UAEXXZ 10008c3e f   QtGui4:QtGui4.dll
 0001:00007c44       ?metaObject@QDoubleSpinBox@@UBEPBUQMetaObject@@XZ 10008c44 f   QtGui4:QtGui4.dll
 0001:00007c4a       ?qt_metacast@QDoubleSpinBox@@UAEPAXPBD@Z 10008c4a f   QtGui4:QtGui4.dll
 0001:00007c50       ?qt_metacall@QDoubleSpinBox@@UAEHW4Call@QMetaObject@@HPAPAX@Z 10008c50 f   QtGui4:QtGui4.dll
 0001:00007c56       ?event@QAbstractSpinBox@@UAE_NPAVQEvent@@@Z 10008c56 f   QtGui4:QtGui4.dll
 0001:00007c5c       ?timerEvent@QAbstractSpinBox@@MAEXPAVQTimerEvent@@@Z 10008c5c f   QtGui4:QtGui4.dll
 0001:00007c62       ?sizeHint@QAbstractSpinBox@@UBE?AVQSize@@XZ 10008c62 f   QtGui4:QtGui4.dll
 0001:00007c68       ?minimumSizeHint@QAbstractSpinBox@@UBE?AVQSize@@XZ 10008c68 f   QtGui4:QtGui4.dll
 0001:00007c6e       ?mousePressEvent@QAbstractSpinBox@@MAEXPAVQMouseEvent@@@Z 10008c6e f   QtGui4:QtGui4.dll
 0001:00007c74       ?mouseReleaseEvent@QAbstractSpinBox@@MAEXPAVQMouseEvent@@@Z 10008c74 f   QtGui4:QtGui4.dll
 0001:00007c7a       ?mouseMoveEvent@QAbstractSpinBox@@MAEXPAVQMouseEvent@@@Z 10008c7a f   QtGui4:QtGui4.dll
 0001:00007c80       ?wheelEvent@QAbstractSpinBox@@MAEXPAVQWheelEvent@@@Z 10008c80 f   QtGui4:QtGui4.dll
 0001:00007c86       ?keyPressEvent@QAbstractSpinBox@@MAEXPAVQKeyEvent@@@Z 10008c86 f   QtGui4:QtGui4.dll
 0001:00007c8c       ?keyReleaseEvent@QAbstractSpinBox@@MAEXPAVQKeyEvent@@@Z 10008c8c f   QtGui4:QtGui4.dll
 0001:00007c92       ?focusInEvent@QAbstractSpinBox@@MAEXPAVQFocusEvent@@@Z 10008c92 f   QtGui4:QtGui4.dll
 0001:00007c98       ?focusOutEvent@QAbstractSpinBox@@MAEXPAVQFocusEvent@@@Z 10008c98 f   QtGui4:QtGui4.dll
 0001:00007c9e       ?paintEvent@QAbstractSpinBox@@MAEXPAVQPaintEvent@@@Z 10008c9e f   QtGui4:QtGui4.dll
 0001:00007ca4       ?resizeEvent@QAbstractSpinBox@@MAEXPAVQResizeEvent@@@Z 10008ca4 f   QtGui4:QtGui4.dll
 0001:00007caa       ?closeEvent@QAbstractSpinBox@@MAEXPAVQCloseEvent@@@Z 10008caa f   QtGui4:QtGui4.dll
 0001:00007cb0       ?contextMenuEvent@QAbstractSpinBox@@MAEXPAVQContextMenuEvent@@@Z 10008cb0 f   QtGui4:QtGui4.dll
 0001:00007cb6       ?showEvent@QAbstractSpinBox@@MAEXPAVQShowEvent@@@Z 10008cb6 f   QtGui4:QtGui4.dll
 0001:00007cbc       ?hideEvent@QAbstractSpinBox@@MAEXPAVQHideEvent@@@Z 10008cbc f   QtGui4:QtGui4.dll
 0001:00007cc2       ?changeEvent@QAbstractSpinBox@@MAEXPAVQEvent@@@Z 10008cc2 f   QtGui4:QtGui4.dll
 0001:00007cc8       ?validate@QDoubleSpinBox@@UBE?AW4State@QValidator@@AAVQString@@AAH@Z 10008cc8 f   QtGui4:QtGui4.dll
 0001:00007cce       ?fixup@QDoubleSpinBox@@UBEXAAVQString@@@Z 10008cce f   QtGui4:QtGui4.dll
 0001:00007cd4       ?stepBy@QAbstractSpinBox@@UAEXH@Z 10008cd4 f   QtGui4:QtGui4.dll
 0001:00007cda       ?clear@QAbstractSpinBox@@UAEXXZ 10008cda f   QtGui4:QtGui4.dll
 0001:00007ce0       ?stepEnabled@QAbstractSpinBox@@MBE?AV?$QFlags@W4StepEnabledFlag@QAbstractSpinBox@@@@XZ 10008ce0 f   QtGui4:QtGui4.dll
 0001:00007ce6       ?valueFromText@QDoubleSpinBox@@UBENABVQString@@@Z 10008ce6 f   QtGui4:QtGui4.dll
 0001:00007cec       ?textFromValue@QDoubleSpinBox@@UBE?AVQString@@N@Z 10008cec f   QtGui4:QtGui4.dll
 0001:00007cf2       ?metaObject@QLabel@@UBEPBUQMetaObject@@XZ 10008cf2 f   QtGui4:QtGui4.dll
 0001:00007cf8       ?qt_metacast@QLabel@@UAEPAXPBD@Z 10008cf8 f   QtGui4:QtGui4.dll
 0001:00007cfe       ?qt_metacall@QLabel@@UAEHW4Call@QMetaObject@@HPAPAX@Z 10008cfe f   QtGui4:QtGui4.dll
 0001:00007d04       ?event@QLabel@@MAE_NPAVQEvent@@@Z 10008d04 f   QtGui4:QtGui4.dll
 0001:00007d0a       ?sizeHint@QLabel@@UBE?AVQSize@@XZ 10008d0a f   QtGui4:QtGui4.dll
 0001:00007d10       ?minimumSizeHint@QLabel@@UBE?AVQSize@@XZ 10008d10 f   QtGui4:QtGui4.dll
 0001:00007d16       ?heightForWidth@QLabel@@UBEHH@Z 10008d16 f   QtGui4:QtGui4.dll
 0001:00007d1c       ?mousePressEvent@QLabel@@MAEXPAVQMouseEvent@@@Z 10008d1c f   QtGui4:QtGui4.dll
 0001:00007d22       ?mouseReleaseEvent@QLabel@@MAEXPAVQMouseEvent@@@Z 10008d22 f   QtGui4:QtGui4.dll
 0001:00007d28       ?mouseMoveEvent@QLabel@@MAEXPAVQMouseEvent@@@Z 10008d28 f   QtGui4:QtGui4.dll
 0001:00007d2e       ?keyPressEvent@QLabel@@MAEXPAVQKeyEvent@@@Z 10008d2e f   QtGui4:QtGui4.dll
 0001:00007d34       ?focusInEvent@QLabel@@MAEXPAVQFocusEvent@@@Z 10008d34 f   QtGui4:QtGui4.dll
 0001:00007d3a       ?focusOutEvent@QLabel@@MAEXPAVQFocusEvent@@@Z 10008d3a f   QtGui4:QtGui4.dll
 0001:00007d40       ?paintEvent@QLabel@@MAEXPAVQPaintEvent@@@Z 10008d40 f   QtGui4:QtGui4.dll
 0001:00007d46       ?contextMenuEvent@QLabel@@MAEXPAVQContextMenuEvent@@@Z 10008d46 f   QtGui4:QtGui4.dll
 0001:00007d4c       ?changeEvent@QLabel@@MAEXPAVQEvent@@@Z 10008d4c f   QtGui4:QtGui4.dll
 0001:00007d52       ?focusNextPrevChild@QLabel@@MAE_N_N@Z 10008d52 f   QtGui4:QtGui4.dll
 0001:00007d58       ??1QGridLayout@@UAE@XZ     10008d58 f   QtGui4:QtGui4.dll
 0001:00007d5e       ??1QPushButton@@UAE@XZ     10008d5e f   QtGui4:QtGui4.dll
 0001:00007d64       ??1QComboBox@@UAE@XZ       10008d64 f   QtGui4:QtGui4.dll
 0001:00007d6a       ??1QAbstractSpinBox@@UAE@XZ 10008d6a f   QtGui4:QtGui4.dll
 0001:00007d70       ??1QLabel@@UAE@XZ          10008d70 f   QtGui4:QtGui4.dll
 0001:00007d76       ?qt_metacast@QDialog@@UAEPAXPBD@Z 10008d76 f   QtGui4:QtGui4.dll
 0001:00007d7c       ?qt_metacall@QDialog@@UAEHW4Call@QMetaObject@@HPAPAX@Z 10008d7c f   QtGui4:QtGui4.dll
 0001:00007d90       ?isValid@Slot@@QBE_NXZ     10008d90 f i PlugInLib:ViewerShell.obj
 0001:00007da0       ??1Slot@@QAE@XZ            10008da0 f i PlugInLib:ViewerShell.obj
 0001:00007dc0       ??0SlotWrapper@Slot@@QAE@XZ 10008dc0 f i PlugInLib:ViewerShell.obj
 0001:00007dd0       ??1PlugInCallback@@UAE@XZ  10008dd0 f i PlugInLib:ViewerShell.obj
 0001:00007de0       ??_EPlugInCallback@@UAEPAXI@Z 10008de0 f i PlugInLib:ViewerShell.obj
 0001:00007de0       ??_GPlugInCallback@@UAEPAXI@Z 10008de0 f i PlugInLib:ViewerShell.obj
 0001:00007e00       ?ViewerType@PlugInManagerServices@@SA?AV?$basic_string@DU?$char_traits@D@std@@V?$allocator@D@2@@std@@XZ 10008e00 f i PlugInLib:ViewerShell.obj
 0001:00007e20       ?getInputSpecification@ViewerShell@@UAE_NAAPAVPlugInArgList@@@Z 10008e20 f   PlugInLib:ViewerShell.obj
 0001:00007e30       ?getOutputSpecification@ViewerShell@@UAE_NAAPAVPlugInArgList@@@Z 10008e30 f   PlugInLib:ViewerShell.obj
 0001:00007e40       ??0PlugInCallback@@QAE@XZ  10008e40 f i PlugInLib:ViewerShell.obj
 0001:00007e50       ?cleanupWidget@ViewerShell@@QAEXAAVSubject@@ABV?$basic_string@DU?$char_traits@D@std@@V?$allocator@D@2@@std@@ABVany@boost@@@Z 10008e50 f   PlugInLib:ViewerShell.obj
 0001:00007e80       ??0?$EnumWrapper@W4PlugInCallbackTypeEnum@@@@QAE@ABW4PlugInCallbackTypeEnum@@@Z 10008e80 f i PlugInLib:ViewerShell.obj
 0001:00007ea0       ??1?$pair@V?$basic_string@DU?$char_traits@D@std@@V?$allocator@D@2@@std@@VSlot@@@std@@QAE@XZ 10008ea0 f i PlugInLib:ViewerShell.obj
 0001:00007ed0       ?get@?$SafePtr@VApplicationServices@@@@QAEPAVApplicationServices@@XZ 10008ed0 f i PlugInLib:ViewerShell.obj
 0001:00007ee0       ?attach@?$SafePtr@VApplicationServices@@@@IAEXABV?$basic_string@DU?$char_traits@D@std@@V?$allocator@D@2@@std@@ABVSlot@@@Z 10008ee0 f i PlugInLib:ViewerShell.obj
 0001:00007f00       ?detach@?$SafePtr@VApplicationServices@@@@IAEXABV?$basic_string@DU?$char_traits@D@std@@V?$allocator@D@2@@std@@ABVSlot@@@Z 10008f00 f i PlugInLib:ViewerShell.obj
 0001:00007f20       ??E?$_Vector_const_iterator@U?$pair@V?$basic_string@DU?$char_traits@D@std@@V?$allocator@D@2@@std@@VSlot@@@std@@V?$allocator@U?$pair@V?$basic_string@DU?$char_traits@D@std@@V?$allocator@D@2@@std@@VSlot@@@std@@@2@@std@@QAEAAV01@XZ 10008f20 f i PlugInLib:ViewerShell.obj
 0001:00007f50       ?capacity@?$vector@U?$pair@V?$basic_string@DU?$char_traits@D@std@@V?$allocator@D@2@@std@@VSlot@@@std@@V?$allocator@U?$pair@V?$basic_string@DU?$char_traits@D@std@@V?$allocator@D@2@@std@@VSlot@@@std@@@2@@std@@QBEIXZ 10008f50 f i PlugInLib:ViewerShell.obj
 0001:00007f70       ?size@?$vector@U?$pair@V?$basic_string@DU?$char_traits@D@std@@V?$allocator@D@2@@std@@VSlot@@@std@@V?$allocator@U?$pair@V?$basic_string@DU?$char_traits@D@std@@V?$allocator@D@2@@std@@VSlot@@@std@@@2@@std@@QBEIXZ 10008f70 f i PlugInLib:ViewerShell.obj
 0001:00007f90       ??0?$allocator@U?$pair@V?$basic_string@DU?$char_traits@D@std@@V?$allocator@D@2@@std@@VSlot@@@std@@@std@@QAE@XZ 10008f90 f i PlugInLib:ViewerShell.obj
 0001:00007fa0       ?subjectDeleted@?$SafePtr@VApplicationServices@@@@AAEXAAVSubject@@ABV?$basic_string@DU?$char_traits@D@std@@V?$allocator@D@2@@std@@ABVany@boost@@@Z 10008fa0 f i PlugInLib:ViewerShell.obj
 0001:00007fc0       ??D?$_Vector_const_iterator@U?$pair@V?$basic_string@DU?$char_traits@D@std@@V?$allocator@D@2@@std@@VSlot@@@std@@V?$allocator@U?$pair@V?$basic_string@DU?$char_traits@D@std@@V?$allocator@D@2@@std@@VSlot@@@std@@@2@@std@@QBEABU?$pair@V?$basic_string@DU?$char_traits@D@std@@V?$allocator@D@2@@std@@VSlot@@@1@XZ 10008fc0 f i PlugInLib:ViewerShell.obj
 0001:00007ff0       ??8?$_Vector_const_iterator@U?$pair@V?$basic_string@DU?$char_traits@D@std@@V?$allocator@D@2@@std@@VSlot@@@std@@V?$allocator@U?$pair@V?$basic_string@DU?$char_traits@D@std@@V?$allocator@D@2@@std@@VSlot@@@std@@@2@@std@@QBE_NABV01@@Z 10008ff0 f i PlugInLib:ViewerShell.obj
 0001:00008020       ?_Xlen@?$vector@U?$pair@V?$basic_string@DU?$char_traits@D@std@@V?$allocator@D@2@@std@@VSlot@@@std@@V?$allocator@U?$pair@V?$basic_string@DU?$char_traits@D@std@@V?$allocator@D@2@@std@@VSlot@@@std@@@2@@std@@KAXXZ 10009020 f i PlugInLib:ViewerShell.obj
 0001:000080a0       ??0?$allocator@U?$pair@V?$basic_string@DU?$char_traits@D@std@@V?$allocator@D@2@@std@@VSlot@@@std@@@std@@QAE@ABV01@@Z 100090a0 f i PlugInLib:ViewerShell.obj
 0001:000080b0       ?deallocate@?$allocator@U?$pair@V?$basic_string@DU?$char_traits@D@std@@V?$allocator@D@2@@std@@VSlot@@@std@@@std@@QAEXPAU?$pair@V?$basic_string@DU?$char_traits@D@std@@V?$allocator@D@2@@std@@VSlot@@@2@I@Z 100090b0 f i PlugInLib:ViewerShell.obj
 0001:000080c0       ??0?$_Ranit@U?$pair@V?$basic_string@DU?$char_traits@D@std@@V?$allocator@D@2@@std@@VSlot@@@std@@HPBU12@ABU12@@std@@QAE@XZ 100090c0 f i PlugInLib:ViewerShell.obj
 0001:000080d0       ?max_size@?$allocator@U?$pair@V?$basic_string@DU?$char_traits@D@std@@V?$allocator@D@2@@std@@VSlot@@@std@@@std@@QBEIXZ 100090d0 f i PlugInLib:ViewerShell.obj
 0001:000080e0       ??G?$_Vector_const_iterator@U?$pair@V?$basic_string@DU?$char_traits@D@std@@V?$allocator@D@2@@std@@VSlot@@@std@@V?$allocator@U?$pair@V?$basic_string@DU?$char_traits@D@std@@V?$allocator@D@2@@std@@VSlot@@@std@@@2@@std@@QBEHABV01@@Z 100090e0 f i PlugInLib:ViewerShell.obj
 0001:00008110       ??Y?$_Vector_const_iterator@U?$pair@V?$basic_string@DU?$char_traits@D@std@@V?$allocator@D@2@@std@@VSlot@@@std@@V?$allocator@U?$pair@V?$basic_string@DU?$char_traits@D@std@@V?$allocator@D@2@@std@@VSlot@@@std@@@2@@std@@QAEAAV01@H@Z 10009110 f i PlugInLib:ViewerShell.obj
 0001:00008150       ??$_Allocate@U?$pair@V?$basic_string@DU?$char_traits@D@std@@V?$allocator@D@2@@std@@VSlot@@@std@@@std@@YAPAU?$pair@V?$basic_string@DU?$char_traits@D@std@@V?$allocator@D@2@@std@@VSlot@@@0@IPAU10@@Z 10009150 f i PlugInLib:ViewerShell.obj
 0001:000081b0       ??0?$SlotValue@VViewerShell@@@Slot@@QAE@PAVViewerShell@@P82@AEXAAVSubject@@ABV?$basic_string@DU?$char_traits@D@std@@V?$allocator@D@2@@std@@ABVany@boost@@@Z@Z 100091b0 f i PlugInLib:ViewerShell.obj
 0001:000081d0       ?update@?$SlotValue@VViewerShell@@@Slot@@UBEXAAVSubject@@ABV?$basic_string@DU?$char_traits@D@std@@V?$allocator@D@2@@std@@ABVany@boost@@@Z 100091d0 f i PlugInLib:ViewerShell.obj
 0001:00008250       ?callAttachMethod@?$SlotValue@VViewerShell@@@Slot@@UAEXAAVSubject@@ABV?$basic_string@DU?$char_traits@D@std@@V?$allocator@D@2@@std@@ABV2@@Z 10009250 f i PlugInLib:ViewerShell.obj
 0001:00008280       ?callDetachMethod@?$SlotValue@VViewerShell@@@Slot@@UAEXAAVSubject@@ABV?$basic_string@DU?$char_traits@D@std@@V?$allocator@D@2@@std@@ABV2@@Z 10009280 f i PlugInLib:ViewerShell.obj
 0001:000082b0       ?clone@?$SlotValue@VViewerShell@@@Slot@@UBEPAVSlotWrapper@2@XZ 100092b0 f i PlugInLib:ViewerShell.obj
 0001:000082e0       ?getType@?$SlotValue@VViewerShell@@@Slot@@UBEABVtype_info@@XZ 100092e0 f i PlugInLib:ViewerShell.obj
 0001:000082f0       ?matches@?$SlotValue@VViewerShell@@@Slot@@UBE_NABVSlotWrapper@2@@Z 100092f0 f i PlugInLib:ViewerShell.obj
 0001:00008350       ??0?$SlotValue@V?$SafePtr@VApplicationServices@@@@@Slot@@QAE@PAV?$SafePtr@VApplicationServices@@@@P82@AEXAAVSubject@@ABV?$basic_string@DU?$char_traits@D@std@@V?$allocator@D@2@@std@@ABVany@boost@@@Z@Z 10009350 f i PlugInLib:ViewerShell.obj
 0001:00008370       ?update@?$SlotValue@V?$SafePtr@VApplicationServices@@@@@Slot@@UBEXAAVSubject@@ABV?$basic_string@DU?$char_traits@D@std@@V?$allocator@D@2@@std@@ABVany@boost@@@Z 10009370 f i PlugInLib:ViewerShell.obj
 0001:000083f0       ?callAttachMethod@?$SlotValue@V?$SafePtr@VApplicationServices@@@@@Slot@@UAEXAAVSubject@@ABV?$basic_string@DU?$char_traits@D@std@@V?$allocator@D@2@@std@@ABV2@@Z 100093f0 f i PlugInLib:ViewerShell.obj
 0001:00008420       ?callDetachMethod@?$SlotValue@V?$SafePtr@VApplicationServices@@@@@Slot@@UAEXAAVSubject@@ABV?$basic_string@DU?$char_traits@D@std@@V?$allocator@D@2@@std@@ABV2@@Z 10009420 f i PlugInLib:ViewerShell.obj
 0001:00008450       ?clone@?$SlotValue@V?$SafePtr@VApplicationServices@@@@@Slot@@UBEPAVSlotWrapper@2@XZ 10009450 f i PlugInLib:ViewerShell.obj
 0001:00008480       ?getType@?$SlotValue@V?$SafePtr@VApplicationServices@@@@@Slot@@UBEABVtype_info@@XZ 10009480 f i PlugInLib:ViewerShell.obj
 0001:00008490       ?matches@?$SlotValue@V?$SafePtr@VApplicationServices@@@@@Slot@@UBE_NABVSlotWrapper@2@@Z 10009490 f i PlugInLib:ViewerShell.obj
 0001:000084e0       ??$_Ptr_cat@PAU?$pair@V?$basic_string@DU?$char_traits@D@std@@V?$allocator@D@2@@std@@VSlot@@@std@@PAU12@@std@@YA?AU_Nonscalar_ptr_iterator_tag@0@AAPAU?$pair@V?$basic_string@DU?$char_traits@D@std@@V?$allocator@D@2@@std@@VSlot@@@0@0@Z 100094e0 f i PlugInLib:ViewerShell.obj
 0001:000084f0       ??$_Iter_random@PAU?$pair@V?$basic_string@DU?$char_traits@D@std@@V?$allocator@D@2@@std@@VSlot@@@std@@PAU12@@std@@YA?AUrandom_access_iterator_tag@0@ABQAU?$pair@V?$basic_string@DU?$char_traits@D@std@@V?$allocator@D@2@@std@@VSlot@@@0@0@Z 100094f0 f i PlugInLib:ViewerShell.obj
 0001:00008500       ??$_Move_cat@PAU?$pair@V?$basic_string@DU?$char_traits@D@std@@V?$allocator@D@2@@std@@VSlot@@@std@@@std@@YA?AU_Undefined_move_tag@0@ABQAU?$pair@V?$basic_string@DU?$char_traits@D@std@@V?$allocator@D@2@@std@@VSlot@@@0@@Z 10009500 f i PlugInLib:ViewerShell.obj
 0001:00008510       ??$_Checked_base@PAU?$pair@V?$basic_string@DU?$char_traits@D@std@@V?$allocator@D@2@@std@@VSlot@@@std@@@std@@YAPAU?$pair@V?$basic_string@DU?$char_traits@D@std@@V?$allocator@D@2@@std@@VSlot@@@0@AAPAU10@U_Unchanged_checked_iterator_base_type_tag@0@@Z 10009510 f i PlugInLib:ViewerShell.obj
 0001:00008520       ??_G?$pair@V?$basic_string@DU?$char_traits@D@std@@V?$allocator@D@2@@std@@VSlot@@@std@@QAEPAXI@Z 10009520 f i PlugInLib:ViewerShell.obj
 0001:00008560       ??0Slot@@QAE@ABV0@@Z       10009560 f i PlugInLib:ViewerShell.obj
 0001:00008590       ??4Slot@@QAEAAV0@ABV0@@Z   10009590 f i PlugInLib:ViewerShell.obj
 0001:000085d0       ?signalDeleted@Subject@@SAABV?$basic_string@DU?$char_traits@D@std@@V?$allocator@D@2@@std@@XZ 100095d0 f i PlugInLib:ViewerShell.obj
 0001:00008630       ?signalSessionClosed@ApplicationServices@@SAABV?$basic_string@DU?$char_traits@D@std@@V?$allocator@D@2@@std@@XZ 10009630 f i PlugInLib:ViewerShell.obj
 0001:00008690       ??0ViewerCallback@@QAE@PAVPlugIn@@PAVQWidget@@@Z 10009690 f i PlugInLib:ViewerShell.obj
 0001:000086b0       ??1ViewerCallback@@UAE@XZ  100096b0 f i PlugInLib:ViewerShell.obj
 0001:000086c0       ??RViewerCallback@@UAEXXZ  100096c0 f i PlugInLib:ViewerShell.obj
 0001:000086f0       ?finish@ViewerCallback@@UAE_NXZ 100096f0 f i PlugInLib:ViewerShell.obj
 0001:00008700       ?getPlugIn@ViewerCallback@@UBEPAVPlugIn@@XZ 10009700 f i PlugInLib:ViewerShell.obj
 0001:00008710       ?progress@ViewerCallback@@UBEPAVProgress@@XZ 10009710 f i PlugInLib:ViewerShell.obj
 0001:00008720       ??_EViewerCallback@@UAEPAXI@Z 10009720 f i PlugInLib:ViewerShell.obj
 0001:00008720       ??_GViewerCallback@@UAEPAXI@Z 10009720 f i PlugInLib:ViewerShell.obj
 0001:00008740       ?abort@ViewerShell@@UAE_NXZ 10009740 f   PlugInLib:ViewerShell.obj
 0001:00008800       ??C?$_Vector_const_iterator@U?$pair@V?$basic_string@DU?$char_traits@D@std@@V?$allocator@D@2@@std@@VSlot@@@std@@V?$allocator@U?$pair@V?$basic_string@DU?$char_traits@D@std@@V?$allocator@D@2@@std@@VSlot@@@std@@@2@@std@@QBEPBU?$pair@V?$basic_string@DU?$char_traits@D@std@@V?$allocator@D@2@@std@@VSlot@@@1@XZ 10009800 f i PlugInLib:ViewerShell.obj
 0001:00008830       ??9?$_Vector_const_iterator@U?$pair@V?$basic_string@DU?$char_traits@D@std@@V?$allocator@D@2@@std@@VSlot@@@std@@V?$allocator@U?$pair@V?$basic_string@DU?$char_traits@D@std@@V?$allocator@D@2@@std@@VSlot@@@std@@@2@@std@@QBE_NABV01@@Z 10009830 f i PlugInLib:ViewerShell.obj
 0001:00008860       ??0?$_Vector_val@U?$pair@V?$basic_string@DU?$char_traits@D@std@@V?$allocator@D@2@@std@@VSlot@@@std@@V?$allocator@U?$pair@V?$basic_string@DU?$char_traits@D@std@@V?$allocator@D@2@@std@@VSlot@@@std@@@2@@std@@IAE@V?$allocator@U?$pair@V?$basic_string@DU?$char_traits@D@std@@V?$allocator@D@2@@std@@VSlot@@@std@@@1@@Z 10009860 f i PlugInLib:ViewerShell.obj
 0001:00008870       ?max_size@?$vector@U?$pair@V?$basic_string@DU?$char_traits@D@std@@V?$allocator@D@2@@std@@VSlot@@@std@@V?$allocator@U?$pair@V?$basic_string@DU?$char_traits@D@std@@V?$allocator@D@2@@std@@VSlot@@@std@@@2@@std@@QBEIXZ 10009870 f i PlugInLib:ViewerShell.obj
 0001:00008880       ?allocate@?$allocator@U?$pair@V?$basic_string@DU?$char_traits@D@std@@V?$allocator@D@2@@std@@VSlot@@@std@@@std@@QAEPAU?$pair@V?$basic_string@DU?$char_traits@D@std@@V?$allocator@D@2@@std@@VSlot@@@2@I@Z 10009880 f i PlugInLib:ViewerShell.obj
 0001:000088a0       ??0?$_Vector_const_iterator@U?$pair@V?$basic_string@DU?$char_traits@D@std@@V?$allocator@D@2@@std@@VSlot@@@std@@V?$allocator@U?$pair@V?$basic_string@DU?$char_traits@D@std@@V?$allocator@D@2@@std@@VSlot@@@std@@@2@@std@@QAE@PAU?$pair@V?$basic_string@DU?$char_traits@D@std@@V?$allocator@D@2@@std@@VSlot@@@1@PBU_Container_base@1@@Z 100098a0 f i PlugInLib:ViewerShell.obj
 0001:000088e0       ??G?$_Vector_iterator@U?$pair@V?$basic_string@DU?$char_traits@D@std@@V?$allocator@D@2@@std@@VSlot@@@std@@V?$allocator@U?$pair@V?$basic_string@DU?$char_traits@D@std@@V?$allocator@D@2@@std@@VSlot@@@std@@@2@@std@@QBEHABV?$_Vector_const_iterator@U?$pair@V?$basic_string@DU?$char_traits@D@std@@V?$allocator@D@2@@std@@VSlot@@@std@@V?$allocator@U?$pair@V?$basic_string@DU?$char_traits@D@std@@V?$allocator@D@2@@std@@VSlot@@@std@@@2@@1@@Z 100098e0 f i PlugInLib:ViewerShell.obj
 0001:00008910       ??0?$pair@V?$basic_string@DU?$char_traits@D@std@@V?$allocator@D@2@@std@@VSlot@@@std@@QAE@ABU01@@Z 10009910 f i PlugInLib:ViewerShell.obj
 0001:00008970       ??Y?$_Vector_iterator@U?$pair@V?$basic_string@DU?$char_traits@D@std@@V?$allocator@D@2@@std@@VSlot@@@std@@V?$allocator@U?$pair@V?$basic_string@DU?$char_traits@D@std@@V?$allocator@D@2@@std@@VSlot@@@std@@@2@@std@@QAEAAV01@H@Z 10009970 f i PlugInLib:ViewerShell.obj
 0001:000089b0       ??$?0VViewerShell@@P80@AEXAAVSubject@@ABV?$basic_string@DU?$char_traits@D@std@@V?$allocator@D@2@@std@@ABVany@boost@@@Z@Slot@@QAE@PAVViewerShell@@P81@AEXAAVSubject@@ABV?$basic_string@DU?$char_traits@D@std@@V?$allocator@D@2@@std@@ABVany@boost@@@Z@Z 100099b0 f i PlugInLib:ViewerShell.obj
 0001:00008a20       ??$?0V?$SafePtr@VApplicationServices@@@@P80@AEXAAVSubject@@ABV?$basic_string@DU?$char_traits@D@std@@V?$allocator@D@2@@std@@ABVany@boost@@@Z@Slot@@QAE@PAV?$SafePtr@VApplicationServices@@@@P81@AEXAAVSubject@@ABV?$basic_string@DU?$char_traits@D@std@@V?$allocator@D@2@@std@@ABVany@boost@@@Z@Z 10009a20 f i PlugInLib:ViewerShell.obj
 0001:00008a90       ??0?$pair@V?$basic_string@DU?$char_traits@D@std@@V?$allocator@D@2@@std@@VSlot@@@std@@QAE@ABV?$basic_string@DU?$char_traits@D@std@@V?$allocator@D@2@@1@ABVSlot@@@Z 10009a90 f i PlugInLib:ViewerShell.obj
 0001:00008af0       ??$_Checked_base@PAU?$pair@V?$basic_string@DU?$char_traits@D@std@@V?$allocator@D@2@@std@@VSlot@@@std@@@std@@YAPAU?$pair@V?$basic_string@DU?$char_traits@D@std@@V?$allocator@D@2@@std@@VSlot@@@0@AAPAU10@@Z 10009af0 f i PlugInLib:ViewerShell.obj
 0001:00008b00       ??4?$pair@V?$basic_string@DU?$char_traits@D@std@@V?$allocator@D@2@@std@@VSlot@@@std@@QAEAAU01@ABU01@@Z 10009b00 f i PlugInLib:ViewerShell.obj
 0001:00008b40       ??$_Construct@U?$pair@V?$basic_string@DU?$char_traits@D@std@@V?$allocator@D@2@@std@@VSlot@@@std@@U12@@std@@YAXPAU?$pair@V?$basic_string@DU?$char_traits@D@std@@V?$allocator@D@2@@std@@VSlot@@@0@ABU10@@Z 10009b40 f i PlugInLib:ViewerShell.obj
 0001:00008b90       ??$_Destroy@U?$pair@V?$basic_string@DU?$char_traits@D@std@@V?$allocator@D@2@@std@@VSlot@@@std@@@std@@YAXPAU?$pair@V?$basic_string@DU?$char_traits@D@std@@V?$allocator@D@2@@std@@VSlot@@@0@@Z 10009b90 f i PlugInLib:ViewerShell.obj
 0001:00008bc0       ??$_Copy_backward_opt@PAU?$pair@V?$basic_string@DU?$char_traits@D@std@@V?$allocator@D@2@@std@@VSlot@@@std@@PAU12@Uforward_iterator_tag@2@@std@@YAPAU?$pair@V?$basic_string@DU?$char_traits@D@std@@V?$allocator@D@2@@std@@VSlot@@@0@PAU10@00Uforward_iterator_tag@0@U_Nonscalar_ptr_iterator_tag@0@U_Range_checked_iterator_tag@0@@Z 10009bc0 f i PlugInLib:ViewerShell.obj
 0001:00008c20       ?detachFromDeleted@?$SafePtr@VApplicationServices@@@@AAEXXZ 10009c20 f i PlugInLib:ViewerShell.obj
 0001:00008c90       ?_Buy@?$vector@U?$pair@V?$basic_string@DU?$char_traits@D@std@@V?$allocator@D@2@@std@@VSlot@@@std@@V?$allocator@U?$pair@V?$basic_string@DU?$char_traits@D@std@@V?$allocator@D@2@@std@@VSlot@@@std@@@2@@std@@IAE_NI@Z 10009c90 f i PlugInLib:ViewerShell.obj
 0001:00008ce0       ?attachToDeleted@?$SafePtr@VApplicationServices@@@@AAEXXZ 10009ce0 f i PlugInLib:ViewerShell.obj
 0001:00008d50       ??0?$_Vector_iterator@U?$pair@V?$basic_string@DU?$char_traits@D@std@@V?$allocator@D@2@@std@@VSlot@@@std@@V?$allocator@U?$pair@V?$basic_string@DU?$char_traits@D@std@@V?$allocator@D@2@@std@@VSlot@@@std@@@2@@std@@QAE@PAU?$pair@V?$basic_string@DU?$char_traits@D@std@@V?$allocator@D@2@@std@@VSlot@@@1@PBU_Container_base@1@@Z 10009d50 f i PlugInLib:ViewerShell.obj
 0001:00008d90       ??H?$_Vector_iterator@U?$pair@V?$basic_string@DU?$char_traits@D@std@@V?$allocator@D@2@@std@@VSlot@@@std@@V?$allocator@U?$pair@V?$basic_string@DU?$char_traits@D@std@@V?$allocator@D@2@@std@@VSlot@@@std@@@2@@std@@QBE?AV01@H@Z 10009d90 f i PlugInLib:ViewerShell.obj
 0001:00008dd0       ??$make_pair@V?$basic_string@DU?$char_traits@D@std@@V?$allocator@D@2@@std@@VSlot@@@std@@YA?AU?$pair@V?$basic_string@DU?$char_traits@D@std@@V?$allocator@D@2@@std@@VSlot@@@0@V?$basic_string@DU?$char_traits@D@std@@V?$allocator@D@2@@0@VSlot@@@Z 10009dd0 f i PlugInLib:ViewerShell.obj
 0001:00008e50       ??$_Fill@PAU?$pair@V?$basic_string@DU?$char_traits@D@std@@V?$allocator@D@2@@std@@VSlot@@@std@@U12@@std@@YAXPAU?$pair@V?$basic_string@DU?$char_traits@D@std@@V?$allocator@D@2@@std@@VSlot@@@0@0ABU10@@Z 10009e50 f i PlugInLib:ViewerShell.obj
 0001:00008ea0       ?construct@?$allocator@U?$pair@V?$basic_string@DU?$char_traits@D@std@@V?$allocator@D@2@@std@@VSlot@@@std@@@std@@QAEXPAU?$pair@V?$basic_string@DU?$char_traits@D@std@@V?$allocator@D@2@@std@@VSlot@@@2@ABU32@@Z 10009ea0 f i PlugInLib:ViewerShell.obj
 0001:00008ef0       ?destroy@?$allocator@U?$pair@V?$basic_string@DU?$char_traits@D@std@@V?$allocator@D@2@@std@@VSlot@@@std@@@std@@QAEXPAU?$pair@V?$basic_string@DU?$char_traits@D@std@@V?$allocator@D@2@@std@@VSlot@@@2@@Z 10009ef0 f i PlugInLib:ViewerShell.obj
 0001:00008f20       ??$_Copy_backward_opt@PAU?$pair@V?$basic_string@DU?$char_traits@D@std@@V?$allocator@D@2@@std@@VSlot@@@std@@PAU12@@std@@YAPAU?$pair@V?$basic_string@DU?$char_traits@D@std@@V?$allocator@D@2@@std@@VSlot@@@0@PAU10@00Urandom_access_iterator_tag@0@U_Nonscalar_ptr_iterator_tag@0@U_Range_checked_iterator_tag@0@@Z 10009f20 f i PlugInLib:ViewerShell.obj
 0001:00008f70       ??$_Uninit_copy@PAU?$pair@V?$basic_string@DU?$char_traits@D@std@@V?$allocator@D@2@@std@@VSlot@@@std@@PAU12@V?$allocator@U?$pair@V?$basic_string@DU?$char_traits@D@std@@V?$allocator@D@2@@std@@VSlot@@@std@@@2@@std@@YAPAU?$pair@V?$basic_string@DU?$char_traits@D@std@@V?$allocator@D@2@@std@@VSlot@@@0@PAU10@00AAV?$allocator@U?$pair@V?$basic_string@DU?$char_traits@D@std@@V?$allocator@D@2@@std@@VSlot@@@std@@@0@U_Nonscalar_ptr_iterator_tag@0@U_Range_checked_iterator_tag@0@@Z 10009f70 f i PlugInLib:ViewerShell.obj
 0001:00009020       ??1?$SafePtr@VApplicationServices@@@@UAE@XZ 1000a020 f i PlugInLib:ViewerShell.obj
 0001:00009040       ??_E?$SafePtr@VApplicationServices@@@@UAEPAXI@Z 1000a040 f i PlugInLib:ViewerShell.obj
 0001:00009040       ??_G?$SafePtr@VApplicationServices@@@@UAEPAXI@Z 1000a040 f i PlugInLib:ViewerShell.obj
 0001:00009070       ??0?$vector@U?$pair@V?$basic_string@DU?$char_traits@D@std@@V?$allocator@D@2@@std@@VSlot@@@std@@V?$allocator@U?$pair@V?$basic_string@DU?$char_traits@D@std@@V?$allocator@D@2@@std@@VSlot@@@std@@@2@@std@@QAE@XZ 1000a070 f i PlugInLib:ViewerShell.obj
 0001:00009080       ?begin@?$vector@U?$pair@V?$basic_string@DU?$char_traits@D@std@@V?$allocator@D@2@@std@@VSlot@@@std@@V?$allocator@U?$pair@V?$basic_string@DU?$char_traits@D@std@@V?$allocator@D@2@@std@@VSlot@@@std@@@2@@std@@QAE?AV?$_Vector_iterator@U?$pair@V?$basic_string@DU?$char_traits@D@std@@V?$allocator@D@2@@std@@VSlot@@@std@@V?$allocator@U?$pair@V?$basic_string@DU?$char_traits@D@std@@V?$allocator@D@2@@std@@VSlot@@@std@@@2@@2@XZ 1000a080 f i PlugInLib:ViewerShell.obj
 0001:000090b0       ?end@?$vector@U?$pair@V?$basic_string@DU?$char_traits@D@std@@V?$allocator@D@2@@std@@VSlot@@@std@@V?$allocator@U?$pair@V?$basic_string@DU?$char_traits@D@std@@V?$allocator@D@2@@std@@VSlot@@@std@@@2@@std@@QAE?AV?$_Vector_iterator@U?$pair@V?$basic_string@DU?$char_traits@D@std@@V?$allocator@D@2@@std@@VSlot@@@std@@V?$allocator@U?$pair@V?$basic_string@DU?$char_traits@D@std@@V?$allocator@D@2@@std@@VSlot@@@std@@@2@@2@XZ 1000a0b0 f i PlugInLib:ViewerShell.obj
 0001:000090e0       ??0?$SafePtr@VApplicationServices@@@@QAE@PAVApplicationServices@@@Z 1000a0e0 f i PlugInLib:ViewerShell.obj
 0001:00009100       ?reset@?$SafePtr@VApplicationServices@@@@QAEXPAVApplicationServices@@@Z 1000a100 f i PlugInLib:ViewerShell.obj
 0001:00009130       ??$fill@PAU?$pair@V?$basic_string@DU?$char_traits@D@std@@V?$allocator@D@2@@std@@VSlot@@@std@@U12@@std@@YAXPAU?$pair@V?$basic_string@DU?$char_traits@D@std@@V?$allocator@D@2@@std@@VSlot@@@0@0ABU10@@Z 1000a130 f i PlugInLib:ViewerShell.obj
 0001:00009140       ??$_Uninit_fill_n@PAU?$pair@V?$basic_string@DU?$char_traits@D@std@@V?$allocator@D@2@@std@@VSlot@@@std@@IU12@V?$allocator@U?$pair@V?$basic_string@DU?$char_traits@D@std@@V?$allocator@D@2@@std@@VSlot@@@std@@@2@@std@@YAXPAU?$pair@V?$basic_string@DU?$char_traits@D@std@@V?$allocator@D@2@@std@@VSlot@@@0@IABU10@AAV?$allocator@U?$pair@V?$basic_string@DU?$char_traits@D@std@@V?$allocator@D@2@@std@@VSlot@@@std@@@0@U_Nonscalar_ptr_iterator_tag@0@U_Range_checked_iterator_tag@0@@Z 1000a140 f i PlugInLib:ViewerShell.obj
 0001:000091f0       ??$_Destroy_range@U?$pair@V?$basic_string@DU?$char_traits@D@std@@V?$allocator@D@2@@std@@VSlot@@@std@@V?$allocator@U?$pair@V?$basic_string@DU?$char_traits@D@std@@V?$allocator@D@2@@std@@VSlot@@@std@@@2@@std@@YAXPAU?$pair@V?$basic_string@DU?$char_traits@D@std@@V?$allocator@D@2@@std@@VSlot@@@0@0AAV?$allocator@U?$pair@V?$basic_string@DU?$char_traits@D@std@@V?$allocator@D@2@@std@@VSlot@@@std@@@0@U_Nonscalar_ptr_iterator_tag@0@@Z 1000a1f0 f i PlugInLib:ViewerShell.obj
 0001:00009230       ??$_Move_backward_opt@PAU?$pair@V?$basic_string@DU?$char_traits@D@std@@V?$allocator@D@2@@std@@VSlot@@@std@@PAU12@Urandom_access_iterator_tag@2@U_Undefined_move_tag@2@@std@@YAPAU?$pair@V?$basic_string@DU?$char_traits@D@std@@V?$allocator@D@2@@std@@VSlot@@@0@PAU10@00Urandom_access_iterator_tag@0@U_Undefined_move_tag@0@U_Range_checked_iterator_tag@0@@Z 1000a230 f i PlugInLib:ViewerShell.obj
 0001:00009280       ??$unchecked_uninitialized_copy@PAU?$pair@V?$basic_string@DU?$char_traits@D@std@@V?$allocator@D@2@@std@@VSlot@@@std@@PAU12@V?$allocator@U?$pair@V?$basic_string@DU?$char_traits@D@std@@V?$allocator@D@2@@std@@VSlot@@@std@@@2@@stdext@@YAPAU?$pair@V?$basic_string@DU?$char_traits@D@std@@V?$allocator@D@2@@std@@VSlot@@@std@@PAU12@00AAV?$allocator@U?$pair@V?$basic_string@DU?$char_traits@D@std@@V?$allocator@D@2@@std@@VSlot@@@std@@@2@@Z 1000a280 f i PlugInLib:ViewerShell.obj
 0001:000092b0       ?reset@?$AttachmentPtr@VApplicationServices@@@@QAEXPAVApplicationServices@@@Z 1000a2b0 f i PlugInLib:ViewerShell.obj
 0001:000093d0       ??$unchecked_uninitialized_fill_n@PAU?$pair@V?$basic_string@DU?$char_traits@D@std@@V?$allocator@D@2@@std@@VSlot@@@std@@IU12@V?$allocator@U?$pair@V?$basic_string@DU?$char_traits@D@std@@V?$allocator@D@2@@std@@VSlot@@@std@@@2@@stdext@@YAXPAU?$pair@V?$basic_string@DU?$char_traits@D@std@@V?$allocator@D@2@@std@@VSlot@@@std@@IABU12@AAV?$allocator@U?$pair@V?$basic_string@DU?$char_traits@D@std@@V?$allocator@D@2@@std@@VSlot@@@std@@@2@@Z 1000a3d0 f i PlugInLib:ViewerShell.obj
 0001:00009400       ??$_Destroy_range@U?$pair@V?$basic_string@DU?$char_traits@D@std@@V?$allocator@D@2@@std@@VSlot@@@std@@V?$allocator@U?$pair@V?$basic_string@DU?$char_traits@D@std@@V?$allocator@D@2@@std@@VSlot@@@std@@@2@@std@@YAXPAU?$pair@V?$basic_string@DU?$char_traits@D@std@@V?$allocator@D@2@@std@@VSlot@@@0@0AAV?$allocator@U?$pair@V?$basic_string@DU?$char_traits@D@std@@V?$allocator@D@2@@std@@VSlot@@@std@@@0@@Z 1000a400 f i PlugInLib:ViewerShell.obj
 0001:00009420       ??$_Unchecked_move_backward@PAU?$pair@V?$basic_string@DU?$char_traits@D@std@@V?$allocator@D@2@@std@@VSlot@@@std@@PAU12@@stdext@@YAPAU?$pair@V?$basic_string@DU?$char_traits@D@std@@V?$allocator@D@2@@std@@VSlot@@@std@@PAU12@00@Z 1000a420 f i PlugInLib:ViewerShell.obj
 0001:00009470       ??$_Uninit_move@PAU?$pair@V?$basic_string@DU?$char_traits@D@std@@V?$allocator@D@2@@std@@VSlot@@@std@@PAU12@V?$allocator@U?$pair@V?$basic_string@DU?$char_traits@D@std@@V?$allocator@D@2@@std@@VSlot@@@std@@@2@U_Undefined_move_tag@2@@std@@YAPAU?$pair@V?$basic_string@DU?$char_traits@D@std@@V?$allocator@D@2@@std@@VSlot@@@0@PAU10@00AAV?$allocator@U?$pair@V?$basic_string@DU?$char_traits@D@std@@V?$allocator@D@2@@std@@VSlot@@@std@@@0@U_Undefined_move_tag@0@U_Range_checked_iterator_tag@0@@Z 1000a470 f i PlugInLib:ViewerShell.obj
 0001:00009490       ?_Ufill@?$vector@U?$pair@V?$basic_string@DU?$char_traits@D@std@@V?$allocator@D@2@@std@@VSlot@@@std@@V?$allocator@U?$pair@V?$basic_string@DU?$char_traits@D@std@@V?$allocator@D@2@@std@@VSlot@@@std@@@2@@std@@IAEPAU?$pair@V?$basic_string@DU?$char_traits@D@std@@V?$allocator@D@2@@std@@VSlot@@@2@PAU32@IABU32@@Z 1000a490 f i PlugInLib:ViewerShell.obj
 0001:000094d0       ?_Destroy@?$vector@U?$pair@V?$basic_string@DU?$char_traits@D@std@@V?$allocator@D@2@@std@@VSlot@@@std@@V?$allocator@U?$pair@V?$basic_string@DU?$char_traits@D@std@@V?$allocator@D@2@@std@@VSlot@@@std@@@2@@std@@IAEXPAU?$pair@V?$basic_string@DU?$char_traits@D@std@@V?$allocator@D@2@@std@@VSlot@@@2@0@Z 1000a4d0 f i PlugInLib:ViewerShell.obj
 0001:000094f0       ??$_Unchecked_uninitialized_move@PAU?$pair@V?$basic_string@DU?$char_traits@D@std@@V?$allocator@D@2@@std@@VSlot@@@std@@PAU12@V?$allocator@U?$pair@V?$basic_string@DU?$char_traits@D@std@@V?$allocator@D@2@@std@@VSlot@@@std@@@2@@stdext@@YAPAU?$pair@V?$basic_string@DU?$char_traits@D@std@@V?$allocator@D@2@@std@@VSlot@@@std@@PAU12@00AAV?$allocator@U?$pair@V?$basic_string@DU?$char_traits@D@std@@V?$allocator@D@2@@std@@VSlot@@@std@@@2@@Z 1000a4f0 f i PlugInLib:ViewerShell.obj
 0001:00009520       ?_Tidy@?$vector@U?$pair@V?$basic_string@DU?$char_traits@D@std@@V?$allocator@D@2@@std@@VSlot@@@std@@V?$allocator@U?$pair@V?$basic_string@DU?$char_traits@D@std@@V?$allocator@D@2@@std@@VSlot@@@std@@@2@@std@@IAEXXZ 1000a520 f i PlugInLib:ViewerShell.obj
 0001:00009560       ??$_Umove@PAU?$pair@V?$basic_string@DU?$char_traits@D@std@@V?$allocator@D@2@@std@@VSlot@@@std@@@?$vector@U?$pair@V?$basic_string@DU?$char_traits@D@std@@V?$allocator@D@2@@std@@VSlot@@@std@@V?$allocator@U?$pair@V?$basic_string@DU?$char_traits@D@std@@V?$allocator@D@2@@std@@VSlot@@@std@@@2@@std@@IAEPAU?$pair@V?$basic_string@DU?$char_traits@D@std@@V?$allocator@D@2@@std@@VSlot@@@1@PAU21@00@Z 1000a560 f i PlugInLib:ViewerShell.obj
 0001:00009590       ??1?$vector@U?$pair@V?$basic_string@DU?$char_traits@D@std@@V?$allocator@D@2@@std@@VSlot@@@std@@V?$allocator@U?$pair@V?$basic_string@DU?$char_traits@D@std@@V?$allocator@D@2@@std@@VSlot@@@std@@@2@@std@@QAE@XZ 1000a590 f i PlugInLib:ViewerShell.obj
 0001:000095d0       ?_Insert_n@?$vector@U?$pair@V?$basic_string@DU?$char_traits@D@std@@V?$allocator@D@2@@std@@VSlot@@@std@@V?$allocator@U?$pair@V?$basic_string@DU?$char_traits@D@std@@V?$allocator@D@2@@std@@VSlot@@@std@@@2@@std@@IAEXV?$_Vector_iterator@U?$pair@V?$basic_string@DU?$char_traits@D@std@@V?$allocator@D@2@@std@@VSlot@@@std@@V?$allocator@U?$pair@V?$basic_string@DU?$char_traits@D@std@@V?$allocator@D@2@@std@@VSlot@@@std@@@2@@2@IABU?$pair@V?$basic_string@DU?$char_traits@D@std@@V?$allocator@D@2@@std@@VSlot@@@2@@Z 1000a5d0 f i PlugInLib:ViewerShell.obj
 0001:00009870       ??0?$AttachmentPtr@VApplicationServices@@@@QAE@XZ 1000a870 f i PlugInLib:ViewerShell.obj
 0001:000098c0       ??1?$AttachmentPtr@VApplicationServices@@@@UAE@XZ 1000a8c0 f i PlugInLib:ViewerShell.obj
 0001:00009960       ??_E?$AttachmentPtr@VApplicationServices@@@@UAEPAXI@Z 1000a960 f i PlugInLib:ViewerShell.obj
 0001:00009960       ??_G?$AttachmentPtr@VApplicationServices@@@@UAEPAXI@Z 1000a960 f i PlugInLib:ViewerShell.obj
 0001:00009980       ?insert@?$vector@U?$pair@V?$basic_string@DU?$char_traits@D@std@@V?$allocator@D@2@@std@@VSlot@@@std@@V?$allocator@U?$pair@V?$basic_string@DU?$char_traits@D@std@@V?$allocator@D@2@@std@@VSlot@@@std@@@2@@std@@QAE?AV?$_Vector_iterator@U?$pair@V?$basic_string@DU?$char_traits@D@std@@V?$allocator@D@2@@std@@VSlot@@@std@@V?$allocator@U?$pair@V?$basic_string@DU?$char_traits@D@std@@V?$allocator@D@2@@std@@VSlot@@@std@@@2@@2@V32@ABU?$pair@V?$basic_string@DU?$char_traits@D@std@@V?$allocator@D@2@@std@@VSlot@@@2@@Z 1000a980 f i PlugInLib:ViewerShell.obj
 0001:00009a10       ??1ViewerShell@@UAE@XZ     1000aa10 f   PlugInLib:ViewerShell.obj
 0001:00009a80       ??_EViewerShell@@W3AEPAXI@Z 1000aa80 f i PlugInLib:ViewerShell.obj
 0001:00009a90       ??_EViewerShell@@W7AEPAXI@Z 1000aa90 f i PlugInLib:ViewerShell.obj
 0001:00009aa0       ?push_back@?$vector@U?$pair@V?$basic_string@DU?$char_traits@D@std@@V?$allocator@D@2@@std@@VSlot@@@std@@V?$allocator@U?$pair@V?$basic_string@DU?$char_traits@D@std@@V?$allocator@D@2@@std@@VSlot@@@std@@@2@@std@@QAEXABU?$pair@V?$basic_string@DU?$char_traits@D@std@@V?$allocator@D@2@@std@@VSlot@@@2@@Z 1000aaa0 f i PlugInLib:ViewerShell.obj
 0001:00009b30       ??_EViewerShell@@UAEPAXI@Z 1000ab30 f i PlugInLib:ViewerShell.obj
 0001:00009b30       ??_GViewerShell@@UAEPAXI@Z 1000ab30 f i PlugInLib:ViewerShell.obj
 0001:00009b50       ?addSignal@?$AttachmentPtr@VApplicationServices@@@@QAEXABV?$basic_string@DU?$char_traits@D@std@@V?$allocator@D@2@@std@@ABVSlot@@@Z 1000ab50 f i PlugInLib:ViewerShell.obj
 0001:00009c30       ??0ViewerShell@@QAE@XZ     1000ac30 f   PlugInLib:ViewerShell.obj
 0001:00009d40       ??1Executable@@MAE@XZ      1000ad40 f i PlugInLib:ExecutableShell.obj
 0001:00009d50       ??_GExecutable@@MAEPAXI@Z  1000ad50 f i PlugInLib:ExecutableShell.obj
 0001:00009d50       ??_EExecutable@@MAEPAXI@Z  1000ad50 f i PlugInLib:ExecutableShell.obj
 0001:00009d70       ??0Executable@@QAE@XZ      1000ad70 f i PlugInLib:ExecutableShell.obj
 0001:00009d80       ?isExecutedOnStartup@ExecutableShell@@UBE_NXZ 1000ad80 f   PlugInLib:ExecutableShell.obj
 0001:00009d90       ?isDestroyedAfterExecute@ExecutableShell@@UBE_NXZ 1000ad90 f   PlugInLib:ExecutableShell.obj
 0001:00009da0       ?getMenuLocations@ExecutableShell@@UBEABV?$vector@V?$basic_string@DU?$char_traits@D@std@@V?$allocator@D@2@@std@@V?$allocator@V?$basic_string@DU?$char_traits@D@std@@V?$allocator@D@2@@std@@@2@@std@@XZ 1000ada0 f   PlugInLib:ExecutableShell.obj
 0001:00009db0       ?setBatch@ExecutableShell@@UAE_NXZ 1000adb0 f   PlugInLib:ExecutableShell.obj
 0001:00009dc0       ?setInteractive@ExecutableShell@@UAE_NXZ 1000adc0 f   PlugInLib:ExecutableShell.obj
 0001:00009dd0       ?initialize@ExecutableShell@@UAE_NXZ 1000add0 f   PlugInLib:ExecutableShell.obj
 0001:00009de0       ?abort@ExecutableShell@@UAE_NXZ 1000ade0 f   PlugInLib:ExecutableShell.obj
 0001:00009e00       ?hasAbort@ExecutableShell@@UAE_NXZ 1000ae00 f   PlugInLib:ExecutableShell.obj
 0001:00009e10       ?isBackground@ExecutableShell@@UBE_NXZ 1000ae10 f   PlugInLib:ExecutableShell.obj
 0001:00009e20       ?isBatch@ExecutableShell@@QBE_NXZ 1000ae20 f   PlugInLib:ExecutableShell.obj
 0001:00009e30       ?isAborted@ExecutableShell@@QBE_NXZ 1000ae30 f   PlugInLib:ExecutableShell.obj
 0001:00009e40       ?hasWizardSupport@ExecutableShell@@UBE_NXZ 1000ae40 f   PlugInLib:ExecutableShell.obj
 0001:00009e50       ?executeOnStartup@ExecutableShell@@IAEX_N@Z 1000ae50 f   PlugInLib:ExecutableShell.obj
 0001:00009e60       ?destroyAfterExecute@ExecutableShell@@IAEX_N@Z 1000ae60 f   PlugInLib:ExecutableShell.obj
 0001:00009e70       ?setAbortSupported@ExecutableShell@@IAEX_N@Z 1000ae70 f   PlugInLib:ExecutableShell.obj
 0001:00009e80       ?setBackground@ExecutableShell@@IAEX_N@Z 1000ae80 f   PlugInLib:ExecutableShell.obj
 0001:00009e90       ?setWizardSupported@ExecutableShell@@IAEX_N@Z 1000ae90 f   PlugInLib:ExecutableShell.obj
 0001:00009ea0       ??0ExecutableShell@@QAE@XZ 1000aea0 f   PlugInLib:ExecutableShell.obj
 0001:00009f40       ??_EExecutableShell@@W7AEPAXI@Z 1000af40 f i PlugInLib:ExecutableShell.obj
 0001:00009f50       ??_EExecutableShell@@W3AEPAXI@Z 1000af50 f i PlugInLib:ExecutableShell.obj
 0001:00009f60       ??1ExecutableShell@@UAE@XZ 1000af60 f   PlugInLib:ExecutableShell.obj
 0001:00009fd0       ?addMenuLocation@ExecutableShell@@IAEXABV?$basic_string@DU?$char_traits@D@std@@V?$allocator@D@2@@std@@@Z 1000afd0 f   PlugInLib:ExecutableShell.obj
 0001:00009fe0       ??_EExecutableShell@@UAEPAXI@Z 1000afe0 f i PlugInLib:ExecutableShell.obj
 0001:00009fe0       ??_GExecutableShell@@UAEPAXI@Z 1000afe0 f i PlugInLib:ExecutableShell.obj
 0001:0000a000       ?setMenuLocation@ExecutableShell@@IAEXABV?$basic_string@DU?$char_traits@D@std@@V?$allocator@D@2@@std@@@Z 1000b000 f   PlugInLib:ExecutableShell.obj
 0001:0000a050       ??1SessionItem@@MAE@XZ     1000b050 f i PlugInLib:PlugInShell.obj
 0001:0000a060       ??_GSessionItem@@MAEPAXI@Z 1000b060 f i PlugInLib:PlugInShell.obj
 0001:0000a060       ??_ESessionItem@@MAEPAXI@Z 1000b060 f i PlugInLib:PlugInShell.obj
 0001:0000a080       ??1SessionItemExt1@@MAE@XZ 1000b080 f i PlugInLib:PlugInShell.obj
 0001:0000a090       ??_ESessionItemExt1@@MAEPAXI@Z 1000b090 f i PlugInLib:PlugInShell.obj
 0001:0000a090       ??_GSessionItemExt1@@MAEPAXI@Z 1000b090 f i PlugInLib:PlugInShell.obj
 0001:0000a0b0       ??1PlugIn@@MAE@XZ          1000b0b0 f i PlugInLib:PlugInShell.obj
 0001:0000a0c0       ??0SessionItemExt1@@QAE@XZ 1000b0c0 f i PlugInLib:PlugInShell.obj
 0001:0000a0d0       ??0SessionItem@@QAE@XZ     1000b0d0 f i PlugInLib:PlugInShell.obj
 0001:0000a0e0       ?serialize@PlugInShell@@UBE_NAAVSessionItemSerializer@@@Z 1000b0e0 f   PlugInLib:PlugInShell.obj
 0001:0000a0f0       ?deserialize@PlugInShell@@UAE_NAAVSessionItemDeserializer@@@Z 1000b0f0 f   PlugInLib:PlugInShell.obj
 0001:0000a100       ?getVersion@PlugInShell@@UBE?AV?$basic_string@DU?$char_traits@D@std@@V?$allocator@D@2@@std@@XZ 1000b100 f   PlugInLib:PlugInShell.obj
 0001:0000a130       ?isProduction@PlugInShell@@UBE_NXZ 1000b130 f   PlugInLib:PlugInShell.obj
 0001:0000a140       ?getCreator@PlugInShell@@UBE?AV?$basic_string@DU?$char_traits@D@std@@V?$allocator@D@2@@std@@XZ 1000b140 f   PlugInLib:PlugInShell.obj
 0001:0000a170       ?getCopyright@PlugInShell@@UBE?AV?$basic_string@DU?$char_traits@D@std@@V?$allocator@D@2@@std@@XZ 1000b170 f   PlugInLib:PlugInShell.obj
 0001:0000a1a0       ?getDescription@PlugInShell@@UBE?AV?$basic_string@DU?$char_traits@D@std@@V?$allocator@D@2@@std@@XZ 1000b1a0 f   PlugInLib:PlugInShell.obj
 0001:0000a1d0       ?getShortDescription@PlugInShell@@UBE?AV?$basic_string@DU?$char_traits@D@std@@V?$allocator@D@2@@std@@XZ 1000b1d0 f   PlugInLib:PlugInShell.obj
 0001:0000a200       ?getDescriptorId@PlugInShell@@UBE?AV?$basic_string@DU?$char_traits@D@std@@V?$allocator@D@2@@std@@XZ 1000b200 f   PlugInLib:PlugInShell.obj
 0001:0000a230       ?getType@PlugInShell@@UBE?AV?$basic_string@DU?$char_traits@D@std@@V?$allocator@D@2@@std@@XZ 1000b230 f   PlugInLib:PlugInShell.obj
 0001:0000a260       ?getSubtype@PlugInShell@@UBE?AV?$basic_string@DU?$char_traits@D@std@@V?$allocator@D@2@@std@@XZ 1000b260 f   PlugInLib:PlugInShell.obj
 0001:0000a290       ?areMultipleInstancesAllowed@PlugInShell@@UBE_NXZ 1000b290 f   PlugInLib:PlugInShell.obj
 0001:0000a2a0       ?setVersion@PlugInShell@@IAEXABV?$basic_string@DU?$char_traits@D@std@@V?$allocator@D@2@@std@@@Z 1000b2a0 f   PlugInLib:PlugInShell.obj
 0001:0000a2b0       ?setProductionStatus@PlugInShell@@IAEX_N@Z 1000b2b0 f   PlugInLib:PlugInShell.obj
 0001:0000a2c0       ?setCreator@PlugInShell@@IAEXABV?$basic_string@DU?$char_traits@D@std@@V?$allocator@D@2@@std@@@Z 1000b2c0 f   PlugInLib:PlugInShell.obj
 0001:0000a2d0       ?setCopyright@PlugInShell@@IAEXABV?$basic_string@DU?$char_traits@D@std@@V?$allocator@D@2@@std@@@Z 1000b2d0 f   PlugInLib:PlugInShell.obj
 0001:0000a2e0       ?setDescription@PlugInShell@@IAEXABV?$basic_string@DU?$char_traits@D@std@@V?$allocator@D@2@@std@@@Z 1000b2e0 f   PlugInLib:PlugInShell.obj
 0001:0000a2f0       ?setShortDescription@PlugInShell@@IAEXABV?$basic_string@DU?$char_traits@D@std@@V?$allocator@D@2@@std@@@Z 1000b2f0 f   PlugInLib:PlugInShell.obj
 0001:0000a300       ?setDescriptorId@PlugInShell@@IAEXABV?$basic_string@DU?$char_traits@D@std@@V?$allocator@D@2@@std@@@Z 1000b300 f   PlugInLib:PlugInShell.obj
 0001:0000a310       ?setType@PlugInShell@@IAEXABV?$basic_string@DU?$char_traits@D@std@@V?$allocator@D@2@@std@@@Z 1000b310 f   PlugInLib:PlugInShell.obj
 0001:0000a320       ?setSubtype@PlugInShell@@IAEXABV?$basic_string@DU?$char_traits@D@std@@V?$allocator@D@2@@std@@@Z 1000b320 f   PlugInLib:PlugInShell.obj
 0001:0000a330       ?allowMultipleInstances@PlugInShell@@IAEX_N@Z 1000b330 f   PlugInLib:PlugInShell.obj
 0001:0000a340       ?get@?$Resource@VSettableSessionItem@@VFactoryObject@@@@QBEPBVSettableSessionItem@@XZ 1000b340 f i PlugInLib:PlugInShell.obj
 0001:0000a350       ?get@?$Resource@VSettableSessionItem@@VFactoryObject@@@@QAEPAVSettableSessionItem@@XZ 1000b350 f i PlugInLib:PlugInShell.obj
 0001:0000a360       ??C?$Resource@VSettableSessionItem@@VFactoryObject@@@@QBEPBVSettableSessionItem@@XZ 1000b360 f i PlugInLib:PlugInShell.obj
 0001:0000a370       ??C?$Resource@VSettableSessionItem@@VFactoryObject@@@@QAEPAVSettableSessionItem@@XZ 1000b370 f i PlugInLib:PlugInShell.obj
 0001:0000a380       ??1?$pair@$$CBV?$basic_string@DU?$char_traits@D@std@@V?$allocator@D@2@@std@@V12@@std@@QAE@XZ 1000b380 f i PlugInLib:PlugInShell.obj
 0001:0000a3d0       ?_Color@?$_Tree@V?$_Tmap_traits@V?$basic_string@DU?$char_traits@D@std@@V?$allocator@D@2@@std@@V12@U?$less@V?$basic_string@DU?$char_traits@D@std@@V?$allocator@D@2@@std@@@2@V?$allocator@U?$pair@$$CBV?$basic_string@DU?$char_traits@D@std@@V?$allocator@D@2@@std@@V12@@std@@@2@$0A@@std@@@std@@KAAADPAU_Node@?$_Tree_nod@V?$_Tmap_traits@V?$basic_string@DU?$char_traits@D@std@@V?$allocator@D@2@@std@@V12@U?$less@V?$basic_string@DU?$char_traits@D@std@@V?$allocator@D@2@@std@@@2@V?$allocator@U?$pair@$$CBV?$basic_string@DU?$char_traits@D@std@@V?$allocator@D@2@@std@@V12@@std@@@2@$0A@@std@@@2@@Z 1000b3d0 f i PlugInLib:PlugInShell.obj
 0001:0000a3e0       ?_Isnil@?$_Tree@V?$_Tmap_traits@V?$basic_string@DU?$char_traits@D@std@@V?$allocator@D@2@@std@@V12@U?$less@V?$basic_string@DU?$char_traits@D@std@@V?$allocator@D@2@@std@@@2@V?$allocator@U?$pair@$$CBV?$basic_string@DU?$char_traits@D@std@@V?$allocator@D@2@@std@@V12@@std@@@2@$0A@@std@@@std@@KAAADPAU_Node@?$_Tree_nod@V?$_Tmap_traits@V?$basic_string@DU?$char_traits@D@std@@V?$allocator@D@2@@std@@V12@U?$less@V?$basic_string@DU?$char_traits@D@std@@V?$allocator@D@2@@std@@@2@V?$allocator@U?$pair@$$CBV?$basic_string@DU?$char_traits@D@std@@V?$allocator@D@2@@std@@V12@@std@@@2@$0A@@std@@@2@@Z 1000b3e0 f i PlugInLib:PlugInShell.obj
 0001:0000a3f0       ?_Left@?$_Tree@V?$_Tmap_traits@V?$basic_string@DU?$char_traits@D@std@@V?$allocator@D@2@@std@@V12@U?$less@V?$basic_string@DU?$char_traits@D@std@@V?$allocator@D@2@@std@@@2@V?$allocator@U?$pair@$$CBV?$basic_string@DU?$char_traits@D@std@@V?$allocator@D@2@@std@@V12@@std@@@2@$0A@@std@@@std@@KAAAPAU_Node@?$_Tree_nod@V?$_Tmap_traits@V?$basic_string@DU?$char_traits@D@std@@V?$allocator@D@2@@std@@V12@U?$less@V?$basic_string@DU?$char_traits@D@std@@V?$allocator@D@2@@std@@@2@V?$allocator@U?$pair@$$CBV?$basic_string@DU?$char_traits@D@std@@V?$allocator@D@2@@std@@V12@@std@@@2@$0A@@std@@@2@PAU342@@Z 1000b3f0 f i PlugInLib:PlugInShell.obj
 0001:0000a400       ?_Parent@?$_Tree@V?$_Tmap_traits@V?$basic_string@DU?$char_traits@D@std@@V?$allocator@D@2@@std@@V12@U?$less@V?$basic_string@DU?$char_traits@D@std@@V?$allocator@D@2@@std@@@2@V?$allocator@U?$pair@$$CBV?$basic_string@DU?$char_traits@D@std@@V?$allocator@D@2@@std@@V12@@std@@@2@$0A@@std@@@std@@KAAAPAU_Node@?$_Tree_nod@V?$_Tmap_traits@V?$basic_string@DU?$char_traits@D@std@@V?$allocator@D@2@@std@@V12@U?$less@V?$basic_string@DU?$char_traits@D@std@@V?$allocator@D@2@@std@@@2@V?$allocator@U?$pair@$$CBV?$basic_string@DU?$char_traits@D@std@@V?$allocator@D@2@@std@@V12@@std@@@2@$0A@@std@@@2@PAU342@@Z 1000b400 f i PlugInLib:PlugInShell.obj
 0001:0000a410       ?_Right@?$_Tree@V?$_Tmap_traits@V?$basic_string@DU?$char_traits@D@std@@V?$allocator@D@2@@std@@V12@U?$less@V?$basic_string@DU?$char_traits@D@std@@V?$allocator@D@2@@std@@@2@V?$allocator@U?$pair@$$CBV?$basic_string@DU?$char_traits@D@std@@V?$allocator@D@2@@std@@V12@@std@@@2@$0A@@std@@@std@@KAAAPAU_Node@?$_Tree_nod@V?$_Tmap_traits@V?$basic_string@DU?$char_traits@D@std@@V?$allocator@D@2@@std@@V12@U?$less@V?$basic_string@DU?$char_traits@D@std@@V?$allocator@D@2@@std@@@2@V?$allocator@U?$pair@$$CBV?$basic_string@DU?$char_traits@D@std@@V?$allocator@D@2@@std@@V12@@std@@@2@$0A@@std@@@2@PAU342@@Z 1000b410 f i PlugInLib:PlugInShell.obj
 0001:0000a420       ?key_comp@?$_Tree@V?$_Tmap_traits@V?$basic_string@DU?$char_traits@D@std@@V?$allocator@D@2@@std@@V12@U?$less@V?$basic_string@DU?$char_traits@D@std@@V?$allocator@D@2@@std@@@2@V?$allocator@U?$pair@$$CBV?$basic_string@DU?$char_traits@D@std@@V?$allocator@D@2@@std@@V12@@std@@@2@$0A@@std@@@std@@QBE?AU?$less@V?$basic_string@DU?$char_traits@D@std@@V?$allocator@D@2@@std@@@2@XZ 1000b420 f i PlugInLib:PlugInShell.obj
 0001:0000a430       ?_Lmost@?$_Tree@V?$_Tmap_traits@V?$basic_string@DU?$char_traits@D@std@@V?$allocator@D@2@@std@@V12@U?$less@V?$basic_string@DU?$char_traits@D@std@@V?$allocator@D@2@@std@@@2@V?$allocator@U?$pair@$$CBV?$basic_string@DU?$char_traits@D@std@@V?$allocator@D@2@@std@@V12@@std@@@2@$0A@@std@@@std@@IBEAAPAU_Node@?$_Tree_nod@V?$_Tmap_traits@V?$basic_string@DU?$char_traits@D@std@@V?$allocator@D@2@@std@@V12@U?$less@V?$basic_string@DU?$char_traits@D@std@@V?$allocator@D@2@@std@@@2@V?$allocator@U?$pair@$$CBV?$basic_string@DU?$char_traits@D@std@@V?$allocator@D@2@@std@@V12@@std@@@2@$0A@@std@@@2@XZ 1000b430 f i PlugInLib:PlugInShell.obj
 0001:0000a440       ?_Max@?$_Tree@V?$_Tmap_traits@V?$basic_string@DU?$char_traits@D@std@@V?$allocator@D@2@@std@@V12@U?$less@V?$basic_string@DU?$char_traits@D@std@@V?$allocator@D@2@@std@@@2@V?$allocator@U?$pair@$$CBV?$basic_string@DU?$char_traits@D@std@@V?$allocator@D@2@@std@@V12@@std@@@2@$0A@@std@@@std@@KAPAU_Node@?$_Tree_nod@V?$_Tmap_traits@V?$basic_string@DU?$char_traits@D@std@@V?$allocator@D@2@@std@@V12@U?$less@V?$basic_string@DU?$char_traits@D@std@@V?$allocator@D@2@@std@@@2@V?$allocator@U?$pair@$$CBV?$basic_string@DU?$char_traits@D@std@@V?$allocator@D@2@@std@@V12@@std@@@2@$0A@@std@@@2@PAU342@@Z 1000b440 f i PlugInLib:PlugInShell.obj
 0001:0000a460       ?_Min@?$_Tree@V?$_Tmap_traits@V?$basic_string@DU?$char_traits@D@std@@V?$allocator@D@2@@std@@V12@U?$less@V?$basic_string@DU?$char_traits@D@std@@V?$allocator@D@2@@std@@@2@V?$allocator@U?$pair@$$CBV?$basic_string@DU?$char_traits@D@std@@V?$allocator@D@2@@std@@V12@@std@@@2@$0A@@std@@@std@@KAPAU_Node@?$_Tree_nod@V?$_Tmap_traits@V?$basic_string@DU?$char_traits@D@std@@V?$allocator@D@2@@std@@V12@U?$less@V?$basic_string@DU?$char_traits@D@std@@V?$allocator@D@2@@std@@@2@V?$allocator@U?$pair@$$CBV?$basic_string@DU?$char_traits@D@std@@V?$allocator@D@2@@std@@V12@@std@@@2@$0A@@std@@@2@PAU342@@Z 1000b460 f i PlugInLib:PlugInShell.obj
 0001:0000a480       ?_Rmost@?$_Tree@V?$_Tmap_traits@V?$basic_string@DU?$char_traits@D@std@@V?$allocator@D@2@@std@@V12@U?$less@V?$basic_string@DU?$char_traits@D@std@@V?$allocator@D@2@@std@@@2@V?$allocator@U?$pair@$$CBV?$basic_string@DU?$char_traits@D@std@@V?$allocator@D@2@@std@@V12@@std@@@2@$0A@@std@@@std@@IBEAAPAU_Node@?$_Tree_nod@V?$_Tmap_traits@V?$basic_string@DU?$char_traits@D@std@@V?$allocator@D@2@@std@@V12@U?$less@V?$basic_string@DU?$char_traits@D@std@@V?$allocator@D@2@@std@@@2@V?$allocator@U?$pair@$$CBV?$basic_string@DU?$char_traits@D@std@@V?$allocator@D@2@@std@@V12@@std@@@2@$0A@@std@@@2@XZ 1000b480 f i PlugInLib:PlugInShell.obj
 0001:0000a490       ?_Root@?$_Tree@V?$_Tmap_traits@V?$basic_string@DU?$char_traits@D@std@@V?$allocator@D@2@@std@@V12@U?$less@V?$basic_string@DU?$char_traits@D@std@@V?$allocator@D@2@@std@@@2@V?$allocator@U?$pair@$$CBV?$basic_string@DU?$char_traits@D@std@@V?$allocator@D@2@@std@@V12@@std@@@2@$0A@@std@@@std@@IBEAAPAU_Node@?$_Tree_nod@V?$_Tmap_traits@V?$basic_string@DU?$char_traits@D@std@@V?$allocator@D@2@@std@@V12@U?$less@V?$basic_string@DU?$char_traits@D@std@@V?$allocator@D@2@@std@@@2@V?$allocator@U?$pair@$$CBV?$basic_string@DU?$char_traits@D@std@@V?$allocator@D@2@@std@@V12@@std@@@2@$0A@@std@@@2@XZ 1000b490 f i PlugInLib:PlugInShell.obj
 0001:0000a4a0       ?_Rrotate@?$_Tree@V?$_Tmap_traits@V?$basic_string@DU?$char_traits@D@std@@V?$allocator@D@2@@std@@V12@U?$less@V?$basic_string@DU?$char_traits@D@std@@V?$allocator@D@2@@std@@@2@V?$allocator@U?$pair@$$CBV?$basic_string@DU?$char_traits@D@std@@V?$allocator@D@2@@std@@V12@@std@@@2@$0A@@std@@@std@@IAEXPAU_Node@?$_Tree_nod@V?$_Tmap_traits@V?$basic_string@DU?$char_traits@D@std@@V?$allocator@D@2@@std@@V12@U?$less@V?$basic_string@DU?$char_traits@D@std@@V?$allocator@D@2@@std@@@2@V?$allocator@U?$pair@$$CBV?$basic_string@DU?$char_traits@D@std@@V?$allocator@D@2@@std@@V12@@std@@@2@$0A@@std@@@2@@Z 1000b4a0 f i PlugInLib:PlugInShell.obj
 0001:0000a500       ??0?$allocator@U?$pair@$$CBV?$basic_string@DU?$char_traits@D@std@@V?$allocator@D@2@@std@@V12@@std@@@std@@QAE@XZ 1000b500 f i PlugInLib:PlugInShell.obj
 0001:0000a510       ??R?$less@V?$basic_string@DU?$char_traits@D@std@@V?$allocator@D@2@@std@@@std@@QBE_NABV?$basic_string@DU?$char_traits@D@std@@V?$allocator@D@2@@1@0@Z 1000b510 f i PlugInLib:PlugInShell.obj
 0001:0000a530       ?deallocate@?$allocator@U_Node@?$_Tree_nod@V?$_Tmap_traits@V?$basic_string@DU?$char_traits@D@std@@V?$allocator@D@2@@std@@V12@U?$less@V?$basic_string@DU?$char_traits@D@std@@V?$allocator@D@2@@std@@@2@V?$allocator@U?$pair@$$CBV?$basic_string@DU?$char_traits@D@std@@V?$allocator@D@2@@std@@V12@@std@@@2@$0A@@std@@@std@@@std@@QAEXPAU_Node@?$_Tree_nod@V?$_Tmap_traits@V?$basic_string@DU?$char_traits@D@std@@V?$allocator@D@2@@std@@V12@U?$less@V?$basic_string@DU?$char_traits@D@std@@V?$allocator@D@2@@std@@@2@V?$allocator@U?$pair@$$CBV?$basic_string@DU?$char_traits@D@std@@V?$allocator@D@2@@std@@V12@@std@@@2@$0A@@std@@@2@I@Z 1000b530 f i PlugInLib:PlugInShell.obj
 0001:0000a540       ??8const_iterator@?$_Tree@V?$_Tmap_traits@V?$basic_string@DU?$char_traits@D@std@@V?$allocator@D@2@@std@@V12@U?$less@V?$basic_string@DU?$char_traits@D@std@@V?$allocator@D@2@@std@@@2@V?$allocator@U?$pair@$$CBV?$basic_string@DU?$char_traits@D@std@@V?$allocator@D@2@@std@@V12@@std@@@2@$0A@@std@@@std@@QBE_NABV012@@Z 1000b540 f i PlugInLib:PlugInShell.obj
 0001:0000a570       ?_Mynode@const_iterator@?$_Tree@V?$_Tmap_traits@V?$basic_string@DU?$char_traits@D@std@@V?$allocator@D@2@@std@@V12@U?$less@V?$basic_string@DU?$char_traits@D@std@@V?$allocator@D@2@@std@@@2@V?$allocator@U?$pair@$$CBV?$basic_string@DU?$char_traits@D@std@@V?$allocator@D@2@@std@@V12@@std@@@2@$0A@@std@@@std@@QBEPAU_Node@?$_Tree_nod@V?$_Tmap_traits@V?$basic_string@DU?$char_traits@D@std@@V?$allocator@D@2@@std@@V12@U?$less@V?$basic_string@DU?$char_traits@D@std@@V?$allocator@D@2@@std@@@2@V?$allocator@U?$pair@$$CBV?$basic_string@DU?$char_traits@D@std@@V?$allocator@D@2@@std@@V12@@std@@@2@$0A@@std@@@3@XZ 1000b570 f i PlugInLib:PlugInShell.obj
 0001:0000a580       ??0?$pair@$$CBV?$basic_string@DU?$char_traits@D@std@@V?$allocator@D@2@@std@@V12@@std@@QAE@ABV?$basic_string@DU?$char_traits@D@std@@V?$allocator@D@2@@1@0@Z 1000b580 f i PlugInLib:PlugInShell.obj
 0001:0000a5e0       ?_Myval@?$_Tree@V?$_Tmap_traits@V?$basic_string@DU?$char_traits@D@std@@V?$allocator@D@2@@std@@V12@U?$less@V?$basic_string@DU?$char_traits@D@std@@V?$allocator@D@2@@std@@@2@V?$allocator@U?$pair@$$CBV?$basic_string@DU?$char_traits@D@std@@V?$allocator@D@2@@std@@V12@@std@@@2@$0A@@std@@@std@@KAAAU?$pair@$$CBV?$basic_string@DU?$char_traits@D@std@@V?$allocator@D@2@@std@@V12@@2@PAU_Node@?$_Tree_nod@V?$_Tmap_traits@V?$basic_string@DU?$char_traits@D@std@@V?$allocator@D@2@@std@@V12@U?$less@V?$basic_string@DU?$char_traits@D@std@@V?$allocator@D@2@@std@@@2@V?$allocator@U?$pair@$$CBV?$basic_string@DU?$char_traits@D@std@@V?$allocator@D@2@@std@@V12@@std@@@2@$0A@@std@@@2@@Z 1000b5e0 f i PlugInLib:PlugInShell.obj
 0001:0000a5f0       ?size@?$_Tree@V?$_Tmap_traits@V?$basic_string@DU?$char_traits@D@std@@V?$allocator@D@2@@std@@V12@U?$less@V?$basic_string@DU?$char_traits@D@std@@V?$allocator@D@2@@std@@@2@V?$allocator@U?$pair@$$CBV?$basic_string@DU?$char_traits@D@std@@V?$allocator@D@2@@std@@V12@@std@@@2@$0A@@std@@@std@@QBEIXZ 1000b5f0 f i PlugInLib:PlugInShell.obj
 0001:0000a600       ?_Kfn@?$_Tmap_traits@V?$basic_string@DU?$char_traits@D@std@@V?$allocator@D@2@@std@@V12@U?$less@V?$basic_string@DU?$char_traits@D@std@@V?$allocator@D@2@@std@@@2@V?$allocator@U?$pair@$$CBV?$basic_string@DU?$char_traits@D@std@@V?$allocator@D@2@@std@@V12@@std@@@2@$0A@@std@@SAABV?$basic_string@DU?$char_traits@D@std@@V?$allocator@D@2@@2@ABU?$pair@$$CBV?$basic_string@DU?$char_traits@D@std@@V?$allocator@D@2@@std@@V12@@2@@Z 1000b600 f i PlugInLib:PlugInShell.obj
 0001:0000a610       ??0?$allocator@U?$pair@$$CBV?$basic_string@DU?$char_traits@D@std@@V?$allocator@D@2@@std@@V12@@std@@@std@@QAE@ABV01@@Z 1000b610 f i PlugInLib:PlugInShell.obj
 0001:0000a620       ?_Nextnode@?$list@UContextMenuAction@@V?$allocator@UContextMenuAction@@@std@@@std@@KAAAPAU_Node@?$_List_nod@UContextMenuAction@@V?$allocator@UContextMenuAction@@@std@@@2@PAU342@@Z 1000b620 f i PlugInLib:PlugInShell.obj
 0001:0000a630       ?_Prevnode@?$list@UContextMenuAction@@V?$allocator@UContextMenuAction@@@std@@@std@@KAAAPAU_Node@?$_List_nod@UContextMenuAction@@V?$allocator@UContextMenuAction@@@std@@@2@PAU342@@Z 1000b630 f i PlugInLib:PlugInShell.obj
 0001:0000a640       ?deallocate@?$allocator@U_Node@?$_List_nod@UContextMenuAction@@V?$allocator@UContextMenuAction@@@std@@@std@@@std@@QAEXPAU_Node@?$_List_nod@UContextMenuAction@@V?$allocator@UContextMenuAction@@@std@@@2@I@Z 1000b640 f i PlugInLib:PlugInShell.obj
 0001:0000a650       ??Dconst_iterator@?$_Tree@V?$_Tmap_traits@V?$basic_string@DU?$char_traits@D@std@@V?$allocator@D@2@@std@@V12@U?$less@V?$basic_string@DU?$char_traits@D@std@@V?$allocator@D@2@@std@@@2@V?$allocator@U?$pair@$$CBV?$basic_string@DU?$char_traits@D@std@@V?$allocator@D@2@@std@@V12@@std@@@2@$0A@@std@@@std@@QBEABU?$pair@$$CBV?$basic_string@DU?$char_traits@D@std@@V?$allocator@D@2@@std@@V12@@2@XZ 1000b650 f i PlugInLib:PlugInShell.obj
 0001:0000a680       ??0?$_Bidit@U?$pair@$$CBV?$basic_string@DU?$char_traits@D@std@@V?$allocator@D@2@@std@@V12@@std@@HPBU12@ABU12@@std@@QAE@XZ 1000b680 f i PlugInLib:PlugInShell.obj
 0001:0000a690       ??0const_iterator@?$_Tree@V?$_Tmap_traits@V?$basic_string@DU?$char_traits@D@std@@V?$allocator@D@2@@std@@V12@U?$less@V?$basic_string@DU?$char_traits@D@std@@V?$allocator@D@2@@std@@@2@V?$allocator@U?$pair@$$CBV?$basic_string@DU?$char_traits@D@std@@V?$allocator@D@2@@std@@V12@@std@@@2@$0A@@std@@@std@@QAE@XZ 1000b690 f i PlugInLib:PlugInShell.obj
 0001:0000a6a0       ?_Inc@const_iterator@?$_Tree@V?$_Tmap_traits@V?$basic_string@DU?$char_traits@D@std@@V?$allocator@D@2@@std@@V12@U?$less@V?$basic_string@DU?$char_traits@D@std@@V?$allocator@D@2@@std@@@2@V?$allocator@U?$pair@$$CBV?$basic_string@DU?$char_traits@D@std@@V?$allocator@D@2@@std@@V12@@std@@@2@$0A@@std@@@std@@QAEXXZ 1000b6a0 f i PlugInLib:PlugInShell.obj
 0001:0000a710       ??0?$pair@Viterator@?$_Tree@V?$_Tmap_traits@V?$basic_string@DU?$char_traits@D@std@@V?$allocator@D@2@@std@@V12@U?$less@V?$basic_string@DU?$char_traits@D@std@@V?$allocator@D@2@@std@@@2@V?$allocator@U?$pair@$$CBV?$basic_string@DU?$char_traits@D@std@@V?$allocator@D@2@@std@@V12@@std@@@2@$0A@@std@@@std@@_N@std@@QAE@ABViterator@?$_Tree@V?$_Tmap_traits@V?$basic_string@DU?$char_traits@D@std@@V?$allocator@D@2@@std@@V12@U?$less@V?$basic_string@DU?$char_traits@D@std@@V?$allocator@D@2@@std@@@2@V?$allocator@U?$pair@$$CBV?$basic_string@DU?$char_traits@D@std@@V?$allocator@D@2@@std@@V12@@std@@@2@$0A@@std@@@1@AB_N@Z 1000b710 f i PlugInLib:PlugInShell.obj
 0001:0000a730       ??0?$_Tmap_traits@V?$basic_string@DU?$char_traits@D@std@@V?$allocator@D@2@@std@@V12@U?$less@V?$basic_string@DU?$char_traits@D@std@@V?$allocator@D@2@@std@@@2@V?$allocator@U?$pair@$$CBV?$basic_string@DU?$char_traits@D@std@@V?$allocator@D@2@@std@@V12@@std@@@2@$0A@@std@@QAE@U?$less@V?$basic_string@DU?$char_traits@D@std@@V?$allocator@D@2@@std@@@1@@Z 1000b730 f i PlugInLib:PlugInShell.obj
 0001:0000a740       ?max_size@?$allocator@U?$pair@$$CBV?$basic_string@DU?$char_traits@D@std@@V?$allocator@D@2@@std@@V12@@std@@@std@@QBEIXZ 1000b740 f i PlugInLib:PlugInShell.obj
 0001:0000a750       ?_Dec@const_iterator@?$_Tree@V?$_Tmap_traits@V?$basic_string@DU?$char_traits@D@std@@V?$allocator@D@2@@std@@V12@U?$less@V?$basic_string@DU?$char_traits@D@std@@V?$allocator@D@2@@std@@@2@V?$allocator@U?$pair@$$CBV?$basic_string@DU?$char_traits@D@std@@V?$allocator@D@2@@std@@V12@@std@@@2@$0A@@std@@@std@@QAEXXZ 1000b750 f i PlugInLib:PlugInShell.obj
 0001:0000a7e0       ??0?$pair@$$CBV?$basic_string@DU?$char_traits@D@std@@V?$allocator@D@2@@std@@V12@@std@@QAE@ABU01@@Z 1000b7e0 f i PlugInLib:PlugInShell.obj
 0001:0000a840       ??$swap@D@std@@YAXAAD0@Z   1000b840 f i PlugInLib:PlugInShell.obj
 0001:0000a860       ??$?0U?$pair@$$CBV?$basic_string@DU?$char_traits@D@std@@V?$allocator@D@2@@std@@V12@@std@@@?$allocator@PAU_Node@?$_Tree_nod@V?$_Tmap_traits@V?$basic_string@DU?$char_traits@D@std@@V?$allocator@D@2@@std@@V12@U?$less@V?$basic_string@DU?$char_traits@D@std@@V?$allocator@D@2@@std@@@2@V?$allocator@U?$pair@$$CBV?$basic_string@DU?$char_traits@D@std@@V?$allocator@D@2@@std@@V12@@std@@@2@$0A@@std@@@std@@@std@@QAE@ABV?$allocator@U?$pair@$$CBV?$basic_string@DU?$char_traits@D@std@@V?$allocator@D@2@@std@@V12@@std@@@1@@Z 1000b860 f i PlugInLib:PlugInShell.obj
 0001:0000a870       ??$_Destroy@PAU_Node@?$_Tree_nod@V?$_Tmap_traits@V?$basic_string@DU?$char_traits@D@std@@V?$allocator@D@2@@std@@V12@U?$less@V?$basic_string@DU?$char_traits@D@std@@V?$allocator@D@2@@std@@@2@V?$allocator@U?$pair@$$CBV?$basic_string@DU?$char_traits@D@std@@V?$allocator@D@2@@std@@V12@@std@@@2@$0A@@std@@@std@@@std@@YAXPAPAU_Node@?$_Tree_nod@V?$_Tmap_traits@V?$basic_string@DU?$char_traits@D@std@@V?$allocator@D@2@@std@@V12@U?$less@V?$basic_string@DU?$char_traits@D@std@@V?$allocator@D@2@@std@@@2@V?$allocator@U?$pair@$$CBV?$basic_string@DU?$char_traits@D@std@@V?$allocator@D@2@@std@@V12@@std@@@2@$0A@@std@@@0@@Z 1000b870 f i PlugInLib:PlugInShell.obj
 0001:0000a880       ??$_Destroy@PAU_Node@?$_List_nod@UContextMenuAction@@V?$allocator@UContextMenuAction@@@std@@@std@@@std@@YAXPAPAU_Node@?$_List_nod@UContextMenuAction@@V?$allocator@UContextMenuAction@@@std@@@0@@Z 1000b880 f i PlugInLib:PlugInShell.obj
 0001:0000a890       ??$?0U?$pair@$$CBV?$basic_string@DU?$char_traits@D@std@@V?$allocator@D@2@@std@@V12@@std@@@?$allocator@U_Node@?$_Tree_nod@V?$_Tmap_traits@V?$basic_string@DU?$char_traits@D@std@@V?$allocator@D@2@@std@@V12@U?$less@V?$basic_string@DU?$char_traits@D@std@@V?$allocator@D@2@@std@@@2@V?$allocator@U?$pair@$$CBV?$basic_string@DU?$char_traits@D@std@@V?$allocator@D@2@@std@@V12@@std@@@2@$0A@@std@@@std@@@std@@QAE@ABV?$allocator@U?$pair@$$CBV?$basic_string@DU?$char_traits@D@std@@V?$allocator@D@2@@std@@V12@@std@@@1@@Z 1000b890 f i PlugInLib:PlugInShell.obj
 0001:0000a8a0       ??$_Allocate@U_Node@?$_Tree_nod@V?$_Tmap_traits@V?$basic_string@DU?$char_traits@D@std@@V?$allocator@D@2@@std@@V12@U?$less@V?$basic_string@DU?$char_traits@D@std@@V?$allocator@D@2@@std@@@2@V?$allocator@U?$pair@$$CBV?$basic_string@DU?$char_traits@D@std@@V?$allocator@D@2@@std@@V12@@std@@@2@$0A@@std@@@std@@@std@@YAPAU_Node@?$_Tree_nod@V?$_Tmap_traits@V?$basic_string@DU?$char_traits@D@std@@V?$allocator@D@2@@std@@V12@U?$less@V?$basic_string@DU?$char_traits@D@std@@V?$allocator@D@2@@std@@@2@V?$allocator@U?$pair@$$CBV?$basic_string@DU?$char_traits@D@std@@V?$allocator@D@2@@std@@V12@@std@@@2@$0A@@std@@@0@IPAU120@@Z 1000b8a0 f i PlugInLib:PlugInShell.obj
 0001:0000a900       ??$_Construct@PAU_Node@?$_Tree_nod@V?$_Tmap_traits@V?$basic_string@DU?$char_traits@D@std@@V?$allocator@D@2@@std@@V12@U?$less@V?$basic_string@DU?$char_traits@D@std@@V?$allocator@D@2@@std@@@2@V?$allocator@U?$pair@$$CBV?$basic_string@DU?$char_traits@D@std@@V?$allocator@D@2@@std@@V12@@std@@@2@$0A@@std@@@std@@PAU123@@std@@YAXPAPAU_Node@?$_Tree_nod@V?$_Tmap_traits@V?$basic_string@DU?$char_traits@D@std@@V?$allocator@D@2@@std@@V12@U?$less@V?$basic_string@DU?$char_traits@D@std@@V?$allocator@D@2@@std@@@2@V?$allocator@U?$pair@$$CBV?$basic_string@DU?$char_traits@D@std@@V?$allocator@D@2@@std@@V12@@std@@@2@$0A@@std@@@0@ABQAU120@@Z 1000b900 f i PlugInLib:PlugInShell.obj
 0001:0000a920       ??1_Node@?$_Tree_nod@V?$_Tmap_traits@V?$basic_string@DU?$char_traits@D@std@@V?$allocator@D@2@@std@@V12@U?$less@V?$basic_string@DU?$char_traits@D@std@@V?$allocator@D@2@@std@@@2@V?$allocator@U?$pair@$$CBV?$basic_string@DU?$char_traits@D@std@@V?$allocator@D@2@@std@@V12@@std@@@2@$0A@@std@@@std@@QAE@XZ 1000b920 f i PlugInLib:PlugInShell.obj
 0001:0000a930       ??1ContextMenuAction@@QAE@XZ 1000b930 f i PlugInLib:PlugInShell.obj
 0001:0000a980       ??0PlugIn@@QAE@XZ          1000b980 f i PlugInLib:PlugInShell.obj
 0001:0000a990       ??_GPlugIn@@MAEPAXI@Z      1000b990 f i PlugInLib:PlugInShell.obj
 0001:0000a990       ??_EPlugIn@@MAEPAXI@Z      1000b990 f i PlugInLib:PlugInShell.obj
 0001:0000a9b0       ?getId@PlugInShell@@UBEABV?$basic_string@DU?$char_traits@D@std@@V?$allocator@D@2@@std@@XZ 1000b9b0 f   PlugInLib:PlugInShell.obj
 0001:0000a9c0       ?getIcon@PlugInShell@@UBEABVQIcon@@XZ 1000b9c0 f   PlugInLib:PlugInShell.obj
 0001:0000a9d0       ?getName@PlugInShell@@UBEABV?$basic_string@DU?$char_traits@D@std@@V?$allocator@D@2@@std@@XZ 1000b9d0 f   PlugInLib:PlugInShell.obj
 0001:0000a9e0       ?getDisplayName@PlugInShell@@UBEABV?$basic_string@DU?$char_traits@D@std@@V?$allocator@D@2@@std@@XZ 1000b9e0 f   PlugInLib:PlugInShell.obj
 0001:0000a9f0       ?getDisplayText@PlugInShell@@UBEABV?$basic_string@DU?$char_traits@D@std@@V?$allocator@D@2@@std@@XZ 1000b9f0 f   PlugInLib:PlugInShell.obj
 0001:0000aa00       ?hasFilenameDisplay@PlugInShell@@UBE_NXZ 1000ba00 f   PlugInLib:PlugInShell.obj
 0001:0000aa10       ?setId@PlugInShell@@UAE_NABVSessionItemId@@@Z 1000ba10 f   PlugInLib:PlugInShell.obj
 0001:0000aa20       ?setName@PlugInShell@@IAEXABV?$basic_string@DU?$char_traits@D@std@@V?$allocator@D@2@@std@@@Z 1000ba20 f   PlugInLib:PlugInShell.obj
 0001:0000aa30       ?setDisplayName@PlugInShell@@IAEXABV?$basic_string@DU?$char_traits@D@std@@V?$allocator@D@2@@std@@@Z 1000ba30 f   PlugInLib:PlugInShell.obj
 0001:0000aa40       ?setDisplayText@PlugInShell@@IAEXABV?$basic_string@DU?$char_traits@D@std@@V?$allocator@D@2@@std@@@Z 1000ba40 f   PlugInLib:PlugInShell.obj
 0001:0000aa50       ?addContextMenuAction@PlugInShell@@IAEXABUContextMenuAction@@@Z 1000ba50 f   PlugInLib:PlugInShell.obj
 0001:0000aa60       ?setContextMenuActions@PlugInShell@@IAEXABV?$list@UContextMenuAction@@V?$allocator@UContextMenuAction@@@std@@@std@@@Z 1000ba60 f   PlugInLib:PlugInShell.obj
 0001:0000aa70       ?setFilenameDisplay@PlugInShell@@IAEX_N@Z 1000ba70 f   PlugInLib:PlugInShell.obj
 0001:0000aa80       ?addPropertiesPage@PlugInShell@@IAEXABV?$basic_string@DU?$char_traits@D@std@@V?$allocator@D@2@@std@@@Z 1000ba80 f   PlugInLib:PlugInShell.obj
 0001:0000aa90       ?removePropertiesPage@PlugInShell@@IAEXABV?$basic_string@DU?$char_traits@D@std@@V?$allocator@D@2@@std@@@Z 1000ba90 f   PlugInLib:PlugInShell.obj
 0001:0000aaa0       ?setPropertiesPages@PlugInShell@@IAEXABV?$vector@V?$basic_string@DU?$char_traits@D@std@@V?$allocator@D@2@@std@@V?$allocator@V?$basic_string@DU?$char_traits@D@std@@V?$allocator@D@2@@std@@@2@@std@@@Z 1000baa0 f   PlugInLib:PlugInShell.obj
 0001:0000aab0       ?isValidSessionSaveItem@PlugInShell@@UBE_NXZ 1000bab0 f   PlugInLib:PlugInShell.obj
 0001:0000ab00       ?setValidSessionSaveItem@PlugInShell@@IAEX_N@Z 1000bb00 f   PlugInLib:PlugInShell.obj
 0001:0000ab50       ??9const_iterator@?$_Tree@V?$_Tmap_traits@V?$basic_string@DU?$char_traits@D@std@@V?$allocator@D@2@@std@@V12@U?$less@V?$basic_string@DU?$char_traits@D@std@@V?$allocator@D@2@@std@@@2@V?$allocator@U?$pair@$$CBV?$basic_string@DU?$char_traits@D@std@@V?$allocator@D@2@@std@@V12@@std@@@2@$0A@@std@@@std@@QBE_NABV012@@Z 1000bb50 f i PlugInLib:PlugInShell.obj
 0001:0000ab80       ??0?$Resource@VSettableSessionItem@@VFactoryObject@@@@QAE@ABVArgs@FactoryAllocator@@@Z 1000bb80 f i PlugInLib:PlugInShell.obj
 0001:0000abe0       ?destroyIfOwned@?$Resource@VSettableSessionItem@@VFactoryObject@@@@IAEXXZ 1000bbe0 f i PlugInLib:PlugInShell.obj
 0001:0000ac10       ?_Key@?$_Tree@V?$_Tmap_traits@V?$basic_string@DU?$char_traits@D@std@@V?$allocator@D@2@@std@@V12@U?$less@V?$basic_string@DU?$char_traits@D@std@@V?$allocator@D@2@@std@@@2@V?$allocator@U?$pair@$$CBV?$basic_string@DU?$char_traits@D@std@@V?$allocator@D@2@@std@@V12@@std@@@2@$0A@@std@@@std@@KAABV?$basic_string@DU?$char_traits@D@std@@V?$allocator@D@2@@2@PAU_Node@?$_Tree_nod@V?$_Tmap_traits@V?$basic_string@DU?$char_traits@D@std@@V?$allocator@D@2@@std@@V12@U?$less@V?$basic_string@DU?$char_traits@D@std@@V?$allocator@D@2@@std@@@2@V?$allocator@U?$pair@$$CBV?$basic_string@DU?$char_traits@D@std@@V?$allocator@D@2@@std@@V12@@std@@@2@$0A@@std@@@2@@Z 1000bc10 f i PlugInLib:PlugInShell.obj
 0001:0000ac20       ?get_allocator@?$_Tree@V?$_Tmap_traits@V?$basic_string@DU?$char_traits@D@std@@V?$allocator@D@2@@std@@V12@U?$less@V?$basic_string@DU?$char_traits@D@std@@V?$allocator@D@2@@std@@@2@V?$allocator@U?$pair@$$CBV?$basic_string@DU?$char_traits@D@std@@V?$allocator@D@2@@std@@V12@@std@@@2@$0A@@std@@@std@@QBE?AV?$allocator@U?$pair@$$CBV?$basic_string@DU?$char_traits@D@std@@V?$allocator@D@2@@std@@V12@@std@@@2@XZ 1000bc20 f i PlugInLib:PlugInShell.obj
 0001:0000ac30       ?_Lrotate@?$_Tree@V?$_Tmap_traits@V?$basic_string@DU?$char_traits@D@std@@V?$allocator@D@2@@std@@V12@U?$less@V?$basic_string@DU?$char_traits@D@std@@V?$allocator@D@2@@std@@@2@V?$allocator@U?$pair@$$CBV?$basic_string@DU?$char_traits@D@std@@V?$allocator@D@2@@std@@V12@@std@@@2@$0A@@std@@@std@@IAEXPAU_Node@?$_Tree_nod@V?$_Tmap_traits@V?$basic_string@DU?$char_traits@D@std@@V?$allocator@D@2@@std@@V12@U?$less@V?$basic_string@DU?$char_traits@D@std@@V?$allocator@D@2@@std@@@2@V?$allocator@U?$pair@$$CBV?$basic_string@DU?$char_traits@D@std@@V?$allocator@D@2@@std@@V12@@std@@@2@$0A@@std@@@2@@Z 1000bc30 f i PlugInLib:PlugInShell.obj
 0001:0000ac80       ??Diterator@?$_Tree@V?$_Tmap_traits@V?$basic_string@DU?$char_traits@D@std@@V?$allocator@D@2@@std@@V12@U?$less@V?$basic_string@DU?$char_traits@D@std@@V?$allocator@D@2@@std@@@2@V?$allocator@U?$pair@$$CBV?$basic_string@DU?$char_traits@D@std@@V?$allocator@D@2@@std@@V12@@std@@@2@$0A@@std@@@std@@QBEAAU?$pair@$$CBV?$basic_string@DU?$char_traits@D@std@@V?$allocator@D@2@@std@@V12@@2@XZ 1000bc80 f i PlugInLib:PlugInShell.obj
 0001:0000acb0       ?_Lbound@?$_Tree@V?$_Tmap_traits@V?$basic_string@DU?$char_traits@D@std@@V?$allocator@D@2@@std@@V12@U?$less@V?$basic_string@DU?$char_traits@D@std@@V?$allocator@D@2@@std@@@2@V?$allocator@U?$pair@$$CBV?$basic_string@DU?$char_traits@D@std@@V?$allocator@D@2@@std@@V12@@std@@@2@$0A@@std@@@std@@IBEPAU_Node@?$_Tree_nod@V?$_Tmap_traits@V?$basic_string@DU?$char_traits@D@std@@V?$allocator@D@2@@std@@V12@U?$less@V?$basic_string@DU?$char_traits@D@std@@V?$allocator@D@2@@std@@@2@V?$allocator@U?$pair@$$CBV?$basic_string@DU?$char_traits@D@std@@V?$allocator@D@2@@std@@V12@@std@@@2@$0A@@std@@@2@ABV?$basic_string@DU?$char_traits@D@std@@V?$allocator@D@2@@2@@Z 1000bcb0 f i PlugInLib:PlugInShell.obj
 0001:0000ad00       ?destroy@?$allocator@PAU_Node@?$_Tree_nod@V?$_Tmap_traits@V?$basic_string@DU?$char_traits@D@std@@V?$allocator@D@2@@std@@V12@U?$less@V?$basic_string@DU?$char_traits@D@std@@V?$allocator@D@2@@std@@@2@V?$allocator@U?$pair@$$CBV?$basic_string@DU?$char_traits@D@std@@V?$allocator@D@2@@std@@V12@@std@@@2@$0A@@std@@@std@@@std@@QAEXPAPAU_Node@?$_Tree_nod@V?$_Tmap_traits@V?$basic_string@DU?$char_traits@D@std@@V?$allocator@D@2@@std@@V12@U?$less@V?$basic_string@DU?$char_traits@D@std@@V?$allocator@D@2@@std@@@2@V?$allocator@U?$pair@$$CBV?$basic_string@DU?$char_traits@D@std@@V?$allocator@D@2@@std@@V12@@std@@@2@$0A@@std@@@2@@Z 1000bd00 f i PlugInLib:PlugInShell.obj
 0001:0000ad10       ?destroy@?$allocator@PAU_Node@?$_List_nod@UContextMenuAction@@V?$allocator@UContextMenuAction@@@std@@@std@@@std@@QAEXPAPAU_Node@?$_List_nod@UContextMenuAction@@V?$allocator@UContextMenuAction@@@std@@@2@@Z 1000bd10 f i PlugInLib:PlugInShell.obj
 0001:0000ad20       ??0iterator@?$_Tree@V?$_Tmap_traits@V?$basic_string@DU?$char_traits@D@std@@V?$allocator@D@2@@std@@V12@U?$less@V?$basic_string@DU?$char_traits@D@std@@V?$allocator@D@2@@std@@@2@V?$allocator@U?$pair@$$CBV?$basic_string@DU?$char_traits@D@std@@V?$allocator@D@2@@std@@V12@@std@@@2@$0A@@std@@@std@@QAE@XZ 1000bd20 f i PlugInLib:PlugInShell.obj
 0001:0000ad30       ??0const_iterator@?$_Tree@V?$_Tmap_traits@V?$basic_string@DU?$char_traits@D@std@@V?$allocator@D@2@@std@@V12@U?$less@V?$basic_string@DU?$char_traits@D@std@@V?$allocator@D@2@@std@@@2@V?$allocator@U?$pair@$$CBV?$basic_string@DU?$char_traits@D@std@@V?$allocator@D@2@@std@@V12@@std@@@2@$0A@@std@@@std@@QAE@PAU_Node@?$_Tree_nod@V?$_Tmap_traits@V?$basic_string@DU?$char_traits@D@std@@V?$allocator@D@2@@std@@V12@U?$less@V?$basic_string@DU?$char_traits@D@std@@V?$allocator@D@2@@std@@@2@V?$allocator@U?$pair@$$CBV?$basic_string@DU?$char_traits@D@std@@V?$allocator@D@2@@std@@V12@@std@@@2@$0A@@std@@@2@PBV12@@Z 1000bd30 f i PlugInLib:PlugInShell.obj
 0001:0000ad60       ??Econst_iterator@?$_Tree@V?$_Tmap_traits@V?$basic_string@DU?$char_traits@D@std@@V?$allocator@D@2@@std@@V12@U?$less@V?$basic_string@DU?$char_traits@D@std@@V?$allocator@D@2@@std@@@2@V?$allocator@U?$pair@$$CBV?$basic_string@DU?$char_traits@D@std@@V?$allocator@D@2@@std@@V12@@std@@@2@$0A@@std@@@std@@QAEAAV012@XZ 1000bd60 f i PlugInLib:PlugInShell.obj
 0001:0000ad70       ?max_size@?$_Tree@V?$_Tmap_traits@V?$basic_string@DU?$char_traits@D@std@@V?$allocator@D@2@@std@@V12@U?$less@V?$basic_string@DU?$char_traits@D@std@@V?$allocator@D@2@@std@@@2@V?$allocator@U?$pair@$$CBV?$basic_string@DU?$char_traits@D@std@@V?$allocator@D@2@@std@@V12@@std@@@2@$0A@@std@@@std@@QBEIXZ 1000bd70 f i PlugInLib:PlugInShell.obj
 0001:0000ad80       ??0?$_Tree_nod@V?$_Tmap_traits@V?$basic_string@DU?$char_traits@D@std@@V?$allocator@D@2@@std@@V12@U?$less@V?$basic_string@DU?$char_traits@D@std@@V?$allocator@D@2@@std@@@2@V?$allocator@U?$pair@$$CBV?$basic_string@DU?$char_traits@D@std@@V?$allocator@D@2@@std@@V12@@std@@@2@$0A@@std@@@std@@IAE@ABU?$less@V?$basic_string@DU?$char_traits@D@std@@V?$allocator@D@2@@std@@@1@V?$allocator@U?$pair@$$CBV?$basic_string@DU?$char_traits@D@std@@V?$allocator@D@2@@std@@V12@@std@@@1@@Z 1000bd80 f i PlugInLib:PlugInShell.obj
 0001:0000ad90       ?allocate@?$allocator@U_Node@?$_Tree_nod@V?$_Tmap_traits@V?$basic_string@DU?$char_traits@D@std@@V?$allocator@D@2@@std@@V12@U?$less@V?$basic_string@DU?$char_traits@D@std@@V?$allocator@D@2@@std@@@2@V?$allocator@U?$pair@$$CBV?$basic_string@DU?$char_traits@D@std@@V?$allocator@D@2@@std@@V12@@std@@@2@$0A@@std@@@std@@@std@@QAEPAU_Node@?$_Tree_nod@V?$_Tmap_traits@V?$basic_string@DU?$char_traits@D@std@@V?$allocator@D@2@@std@@V12@U?$less@V?$basic_string@DU?$char_traits@D@std@@V?$allocator@D@2@@std@@@2@V?$allocator@U?$pair@$$CBV?$basic_string@DU?$char_traits@D@std@@V?$allocator@D@2@@std@@V12@@std@@@2@$0A@@std@@@2@I@Z 1000bd90 f i PlugInLib:PlugInShell.obj
 0001:0000adb0       ?construct@?$allocator@PAU_Node@?$_Tree_nod@V?$_Tmap_traits@V?$basic_string@DU?$char_traits@D@std@@V?$allocator@D@2@@std@@V12@U?$less@V?$basic_string@DU?$char_traits@D@std@@V?$allocator@D@2@@std@@@2@V?$allocator@U?$pair@$$CBV?$basic_string@DU?$char_traits@D@std@@V?$allocator@D@2@@std@@V12@@std@@@2@$0A@@std@@@std@@@std@@QAEXPAPAU_Node@?$_Tree_nod@V?$_Tmap_traits@V?$basic_string@DU?$char_traits@D@std@@V?$allocator@D@2@@std@@V12@U?$less@V?$basic_string@DU?$char_traits@D@std@@V?$allocator@D@2@@std@@@2@V?$allocator@U?$pair@$$CBV?$basic_string@DU?$char_traits@D@std@@V?$allocator@D@2@@std@@V12@@std@@@2@$0A@@std@@@2@ABQAU342@@Z 1000bdb0 f i PlugInLib:PlugInShell.obj
 0001:0000add0       ??Fconst_iterator@?$_Tree@V?$_Tmap_traits@V?$basic_string@DU?$char_traits@D@std@@V?$allocator@D@2@@std@@V12@U?$less@V?$basic_string@DU?$char_traits@D@std@@V?$allocator@D@2@@std@@@2@V?$allocator@U?$pair@$$CBV?$basic_string@DU?$char_traits@D@std@@V?$allocator@D@2@@std@@V12@@std@@@2@$0A@@std@@@std@@QAEAAV012@XZ 1000bdd0 f i PlugInLib:PlugInShell.obj
 0001:0000ade0       ??0_Node@?$_Tree_nod@V?$_Tmap_traits@V?$basic_string@DU?$char_traits@D@std@@V?$allocator@D@2@@std@@V12@U?$less@V?$basic_string@DU?$char_traits@D@std@@V?$allocator@D@2@@std@@@2@V?$allocator@U?$pair@$$CBV?$basic_string@DU?$char_traits@D@std@@V?$allocator@D@2@@std@@V12@@std@@@2@$0A@@std@@@std@@QAE@PAU012@00ABU?$pair@$$CBV?$basic_string@DU?$char_traits@D@std@@V?$allocator@D@2@@std@@V12@@2@D@Z 1000bde0 f i PlugInLib:PlugInShell.obj
 0001:0000ae20       ??_G_Node@?$_Tree_nod@V?$_Tmap_traits@V?$basic_string@DU?$char_traits@D@std@@V?$allocator@D@2@@std@@V12@U?$less@V?$basic_string@DU?$char_traits@D@std@@V?$allocator@D@2@@std@@@2@V?$allocator@U?$pair@$$CBV?$basic_string@DU?$char_traits@D@std@@V?$allocator@D@2@@std@@V12@@std@@@2@$0A@@std@@@std@@QAEPAXI@Z 1000be20 f i PlugInLib:PlugInShell.obj
 0001:0000ae50       ??1_Node@?$_List_nod@UContextMenuAction@@V?$allocator@UContextMenuAction@@@std@@@std@@QAE@XZ 1000be50 f i PlugInLib:PlugInShell.obj
 0001:0000ae60       ??1?$Resource@VSettableSessionItem@@VFactoryObject@@@@UAE@XZ 1000be60 f i PlugInLib:PlugInShell.obj
 0001:0000aee0       ??_E?$Resource@VSettableSessionItem@@VFactoryObject@@@@UAEPAXI@Z 1000bee0 f i PlugInLib:PlugInShell.obj
 0001:0000aee0       ??_G?$Resource@VSettableSessionItem@@VFactoryObject@@@@UAEPAXI@Z 1000bee0 f i PlugInLib:PlugInShell.obj
 0001:0000af00       ??0iterator@?$_Tree@V?$_Tmap_traits@V?$basic_string@DU?$char_traits@D@std@@V?$allocator@D@2@@std@@V12@U?$less@V?$basic_string@DU?$char_traits@D@std@@V?$allocator@D@2@@std@@@2@V?$allocator@U?$pair@$$CBV?$basic_string@DU?$char_traits@D@std@@V?$allocator@D@2@@std@@V12@@std@@@2@$0A@@std@@@std@@QAE@PAU_Node@?$_Tree_nod@V?$_Tmap_traits@V?$basic_string@DU?$char_traits@D@std@@V?$allocator@D@2@@std@@V12@U?$less@V?$basic_string@DU?$char_traits@D@std@@V?$allocator@D@2@@std@@@2@V?$allocator@U?$pair@$$CBV?$basic_string@DU?$char_traits@D@std@@V?$allocator@D@2@@std@@V12@@std@@@2@$0A@@std@@@2@PBV12@@Z 1000bf00 f i PlugInLib:PlugInShell.obj
 0001:0000af30       ??Eiterator@?$_Tree@V?$_Tmap_traits@V?$basic_string@DU?$char_traits@D@std@@V?$allocator@D@2@@std@@V12@U?$less@V?$basic_string@DU?$char_traits@D@std@@V?$allocator@D@2@@std@@@2@V?$allocator@U?$pair@$$CBV?$basic_string@DU?$char_traits@D@std@@V?$allocator@D@2@@std@@V12@@std@@@2@$0A@@std@@@std@@QAEAAV012@XZ 1000bf30 f i PlugInLib:PlugInShell.obj
 0001:0000af40       ?begin@?$_Tree@V?$_Tmap_traits@V?$basic_string@DU?$char_traits@D@std@@V?$allocator@D@2@@std@@V12@U?$less@V?$basic_string@DU?$char_traits@D@std@@V?$allocator@D@2@@std@@@2@V?$allocator@U?$pair@$$CBV?$basic_string@DU?$char_traits@D@std@@V?$allocator@D@2@@std@@V12@@std@@@2@$0A@@std@@@std@@QAE?AViterator@12@XZ 1000bf40 f i PlugInLib:PlugInShell.obj
 0001:0000af60       ?_Buynode@?$_Tree@V?$_Tmap_traits@V?$basic_string@DU?$char_traits@D@std@@V?$allocator@D@2@@std@@V12@U?$less@V?$basic_string@DU?$char_traits@D@std@@V?$allocator@D@2@@std@@@2@V?$allocator@U?$pair@$$CBV?$basic_string@DU?$char_traits@D@std@@V?$allocator@D@2@@std@@V12@@std@@@2@$0A@@std@@@std@@IAEPAU_Node@?$_Tree_nod@V?$_Tmap_traits@V?$basic_string@DU?$char_traits@D@std@@V?$allocator@D@2@@std@@V12@U?$less@V?$basic_string@DU?$char_traits@D@std@@V?$allocator@D@2@@std@@@2@V?$allocator@U?$pair@$$CBV?$basic_string@DU?$char_traits@D@std@@V?$allocator@D@2@@std@@V12@@std@@@2@$0A@@std@@@2@XZ 1000bf60 f i PlugInLib:PlugInShell.obj
 0001:0000afa0       ??0?$_Tree_ptr@V?$_Tmap_traits@V?$basic_string@DU?$char_traits@D@std@@V?$allocator@D@2@@std@@V12@U?$less@V?$basic_string@DU?$char_traits@D@std@@V?$allocator@D@2@@std@@@2@V?$allocator@U?$pair@$$CBV?$basic_string@DU?$char_traits@D@std@@V?$allocator@D@2@@std@@V12@@std@@@2@$0A@@std@@@std@@IAE@ABU?$less@V?$basic_string@DU?$char_traits@D@std@@V?$allocator@D@2@@std@@@1@V?$allocator@U?$pair@$$CBV?$basic_string@DU?$char_traits@D@std@@V?$allocator@D@2@@std@@V12@@std@@@1@@Z 1000bfa0 f i PlugInLib:PlugInShell.obj
 0001:0000afb0       ??Fiterator@?$_Tree@V?$_Tmap_traits@V?$basic_string@DU?$char_traits@D@std@@V?$allocator@D@2@@std@@V12@U?$less@V?$basic_string@DU?$char_traits@D@std@@V?$allocator@D@2@@std@@@2@V?$allocator@U?$pair@$$CBV?$basic_string@DU?$char_traits@D@std@@V?$allocator@D@2@@std@@V12@@std@@@2@$0A@@std@@@std@@QAEAAV012@XZ 1000bfb0 f i PlugInLib:PlugInShell.obj
 0001:0000afc0       ?_Buynode@?$_Tree@V?$_Tmap_traits@V?$basic_string@DU?$char_traits@D@std@@V?$allocator@D@2@@std@@V12@U?$less@V?$basic_string@DU?$char_traits@D@std@@V?$allocator@D@2@@std@@@2@V?$allocator@U?$pair@$$CBV?$basic_string@DU?$char_traits@D@std@@V?$allocator@D@2@@std@@V12@@std@@@2@$0A@@std@@@std@@IAEPAU_Node@?$_Tree_nod@V?$_Tmap_traits@V?$basic_string@DU?$char_traits@D@std@@V?$allocator@D@2@@std@@V12@U?$less@V?$basic_string@DU?$char_traits@D@std@@V?$allocator@D@2@@std@@@2@V?$allocator@U?$pair@$$CBV?$basic_string@DU?$char_traits@D@std@@V?$allocator@D@2@@std@@V12@@std@@@2@$0A@@std@@@2@PAU342@00ABU?$pair@$$CBV?$basic_string@DU?$char_traits@D@std@@V?$allocator@D@2@@std@@V12@@2@D@Z 1000bfc0 f i PlugInLib:PlugInShell.obj
 0001:0000b060       ??Eiterator@?$_Tree@V?$_Tmap_traits@V?$basic_string@DU?$char_traits@D@std@@V?$allocator@D@2@@std@@V12@U?$less@V?$basic_string@DU?$char_traits@D@std@@V?$allocator@D@2@@std@@@2@V?$allocator@U?$pair@$$CBV?$basic_string@DU?$char_traits@D@std@@V?$allocator@D@2@@std@@V12@@std@@@2@$0A@@std@@@std@@QAE?AV012@H@Z 1000c060 f i PlugInLib:PlugInShell.obj
 0001:0000b080       ??$_Destroy@U_Node@?$_Tree_nod@V?$_Tmap_traits@V?$basic_string@DU?$char_traits@D@std@@V?$allocator@D@2@@std@@V12@U?$less@V?$basic_string@DU?$char_traits@D@std@@V?$allocator@D@2@@std@@@2@V?$allocator@U?$pair@$$CBV?$basic_string@DU?$char_traits@D@std@@V?$allocator@D@2@@std@@V12@@std@@@2@$0A@@std@@@std@@@std@@YAXPAU_Node@?$_Tree_nod@V?$_Tmap_traits@V?$basic_string@DU?$char_traits@D@std@@V?$allocator@D@2@@std@@V12@U?$less@V?$basic_string@DU?$char_traits@D@std@@V?$allocator@D@2@@std@@@2@V?$allocator@U?$pair@$$CBV?$basic_string@DU?$char_traits@D@std@@V?$allocator@D@2@@std@@V12@@std@@@2@$0A@@std@@@0@@Z 1000c080 f i PlugInLib:PlugInShell.obj
 0001:0000b090       ??_G_Node@?$_List_nod@UContextMenuAction@@V?$allocator@UContextMenuAction@@@std@@@std@@QAEPAXI@Z 1000c090 f i PlugInLib:PlugInShell.obj
 0001:0000b0c0       ??1?$FactoryResource@VSettableSessionItem@@@@UAE@XZ 1000c0c0 f i PlugInLib:PlugInShell.obj
 0001:0000b0d0       ??0?$FactoryResource@VSettableSessionItem@@@@QAE@XZ 1000c0d0 f i PlugInLib:PlugInShell.obj
 0001:0000b140       ?end@?$_Tree@V?$_Tmap_traits@V?$basic_string@DU?$char_traits@D@std@@V?$allocator@D@2@@std@@V12@U?$less@V?$basic_string@DU?$char_traits@D@std@@V?$allocator@D@2@@std@@@2@V?$allocator@U?$pair@$$CBV?$basic_string@DU?$char_traits@D@std@@V?$allocator@D@2@@std@@V12@@std@@@2@$0A@@std@@@std@@QAE?AViterator@12@XZ 1000c140 f i PlugInLib:PlugInShell.obj
 0001:0000b150       ??_G?$FactoryResource@VSettableSessionItem@@@@UAEPAXI@Z 1000c150 f i PlugInLib:PlugInShell.obj
 0001:0000b150       ??_E?$FactoryResource@VSettableSessionItem@@@@UAEPAXI@Z 1000c150 f i PlugInLib:PlugInShell.obj
 0001:0000b170       ?lower_bound@?$_Tree@V?$_Tmap_traits@V?$basic_string@DU?$char_traits@D@std@@V?$allocator@D@2@@std@@V12@U?$less@V?$basic_string@DU?$char_traits@D@std@@V?$allocator@D@2@@std@@@2@V?$allocator@U?$pair@$$CBV?$basic_string@DU?$char_traits@D@std@@V?$allocator@D@2@@std@@V12@@std@@@2@$0A@@std@@@std@@QAE?AViterator@12@ABV?$basic_string@DU?$char_traits@D@std@@V?$allocator@D@2@@2@@Z 1000c170 f i PlugInLib:PlugInShell.obj
 0001:0000b1a0       ?_Init@?$_Tree@V?$_Tmap_traits@V?$basic_string@DU?$char_traits@D@std@@V?$allocator@D@2@@std@@V12@U?$less@V?$basic_string@DU?$char_traits@D@std@@V?$allocator@D@2@@std@@@2@V?$allocator@U?$pair@$$CBV?$basic_string@DU?$char_traits@D@std@@V?$allocator@D@2@@std@@V12@@std@@@2@$0A@@std@@@std@@IAEXXZ 1000c1a0 f i PlugInLib:PlugInShell.obj
 0001:0000b1d0       ??0?$_Tree_val@V?$_Tmap_traits@V?$basic_string@DU?$char_traits@D@std@@V?$allocator@D@2@@std@@V12@U?$less@V?$basic_string@DU?$char_traits@D@std@@V?$allocator@D@2@@std@@@2@V?$allocator@U?$pair@$$CBV?$basic_string@DU?$char_traits@D@std@@V?$allocator@D@2@@std@@V12@@std@@@2@$0A@@std@@@std@@IAE@ABU?$less@V?$basic_string@DU?$char_traits@D@std@@V?$allocator@D@2@@std@@@1@V?$allocator@U?$pair@$$CBV?$basic_string@DU?$char_traits@D@std@@V?$allocator@D@2@@std@@V12@@std@@@1@@Z 1000c1d0 f i PlugInLib:PlugInShell.obj
 0001:0000b1e0       ?destroy@?$allocator@U_Node@?$_Tree_nod@V?$_Tmap_traits@V?$basic_string@DU?$char_traits@D@std@@V?$allocator@D@2@@std@@V12@U?$less@V?$basic_string@DU?$char_traits@D@std@@V?$allocator@D@2@@std@@@2@V?$allocator@U?$pair@$$CBV?$basic_string@DU?$char_traits@D@std@@V?$allocator@D@2@@std@@V12@@std@@@2@$0A@@std@@@std@@@std@@QAEXPAU_Node@?$_Tree_nod@V?$_Tmap_traits@V?$basic_string@DU?$char_traits@D@std@@V?$allocator@D@2@@std@@V12@U?$less@V?$basic_string@DU?$char_traits@D@std@@V?$allocator@D@2@@std@@@2@V?$allocator@U?$pair@$$CBV?$basic_string@DU?$char_traits@D@std@@V?$allocator@D@2@@std@@V12@@std@@@2@$0A@@std@@@2@@Z 1000c1e0 f i PlugInLib:PlugInShell.obj
 0001:0000b1f0       ?_Insert@?$_Tree@V?$_Tmap_traits@V?$basic_string@DU?$char_traits@D@std@@V?$allocator@D@2@@std@@V12@U?$less@V?$basic_string@DU?$char_traits@D@std@@V?$allocator@D@2@@std@@@2@V?$allocator@U?$pair@$$CBV?$basic_string@DU?$char_traits@D@std@@V?$allocator@D@2@@std@@V12@@std@@@2@$0A@@std@@@std@@IAE?AViterator@12@_NPAU_Node@?$_Tree_nod@V?$_Tmap_traits@V?$basic_string@DU?$char_traits@D@std@@V?$allocator@D@2@@std@@V12@U?$less@V?$basic_string@DU?$char_traits@D@std@@V?$allocator@D@2@@std@@@2@V?$allocator@U?$pair@$$CBV?$basic_string@DU?$char_traits@D@std@@V?$allocator@D@2@@std@@V12@@std@@@2@$0A@@std@@@2@ABU?$pair@$$CBV?$basic_string@DU?$char_traits@D@std@@V?$allocator@D@2@@std@@V12@@2@@Z 1000c1f0 f i PlugInLib:PlugInShell.obj
 0001:0000b3f0       ?_Erase@?$_Tree@V?$_Tmap_traits@V?$basic_string@DU?$char_traits@D@std@@V?$allocator@D@2@@std@@V12@U?$less@V?$basic_string@DU?$char_traits@D@std@@V?$allocator@D@2@@std@@@2@V?$allocator@U?$pair@$$CBV?$basic_string@DU?$char_traits@D@std@@V?$allocator@D@2@@std@@V12@@std@@@2@$0A@@std@@@std@@IAEXPAU_Node@?$_Tree_nod@V?$_Tmap_traits@V?$basic_string@DU?$char_traits@D@std@@V?$allocator@D@2@@std@@V12@U?$less@V?$basic_string@DU?$char_traits@D@std@@V?$allocator@D@2@@std@@@2@V?$allocator@U?$pair@$$CBV?$basic_string@DU?$char_traits@D@std@@V?$allocator@D@2@@std@@V12@@std@@@2@$0A@@std@@@2@@Z 1000c3f0 f i PlugInLib:PlugInShell.obj
 0001:0000b480       ??$_Destroy@U_Node@?$_List_nod@UContextMenuAction@@V?$allocator@UContextMenuAction@@@std@@@std@@@std@@YAXPAU_Node@?$_List_nod@UContextMenuAction@@V?$allocator@UContextMenuAction@@@std@@@0@@Z 1000c480 f i PlugInLib:PlugInShell.obj
 0001:0000b490       ?erase@?$_Tree@V?$_Tmap_traits@V?$basic_string@DU?$char_traits@D@std@@V?$allocator@D@2@@std@@V12@U?$less@V?$basic_string@DU?$char_traits@D@std@@V?$allocator@D@2@@std@@@2@V?$allocator@U?$pair@$$CBV?$basic_string@DU?$char_traits@D@std@@V?$allocator@D@2@@std@@V12@@std@@@2@$0A@@std@@@std@@QAE?AViterator@12@V312@@Z 1000c490 f i PlugInLib:PlugInShell.obj
 0001:0000b780       ?find@?$_Tree@V?$_Tmap_traits@V?$basic_string@DU?$char_traits@D@std@@V?$allocator@D@2@@std@@V12@U?$less@V?$basic_string@DU?$char_traits@D@std@@V?$allocator@D@2@@std@@@2@V?$allocator@U?$pair@$$CBV?$basic_string@DU?$char_traits@D@std@@V?$allocator@D@2@@std@@V12@@std@@@2@$0A@@std@@@std@@QAE?AViterator@12@ABV?$basic_string@DU?$char_traits@D@std@@V?$allocator@D@2@@2@@Z 1000c780 f i PlugInLib:PlugInShell.obj
 0001:0000b7f0       ??0?$_Tree@V?$_Tmap_traits@V?$basic_string@DU?$char_traits@D@std@@V?$allocator@D@2@@std@@V12@U?$less@V?$basic_string@DU?$char_traits@D@std@@V?$allocator@D@2@@std@@@2@V?$allocator@U?$pair@$$CBV?$basic_string@DU?$char_traits@D@std@@V?$allocator@D@2@@std@@V12@@std@@@2@$0A@@std@@@std@@QAE@ABU?$less@V?$basic_string@DU?$char_traits@D@std@@V?$allocator@D@2@@std@@@1@ABV?$allocator@U?$pair@$$CBV?$basic_string@DU?$char_traits@D@std@@V?$allocator@D@2@@std@@V12@@std@@@1@@Z 1000c7f0 f i PlugInLib:PlugInShell.obj
 0001:0000b820       ?insert@?$_Tree@V?$_Tmap_traits@V?$basic_string@DU?$char_traits@D@std@@V?$allocator@D@2@@std@@V12@U?$less@V?$basic_string@DU?$char_traits@D@std@@V?$allocator@D@2@@std@@@2@V?$allocator@U?$pair@$$CBV?$basic_string@DU?$char_traits@D@std@@V?$allocator@D@2@@std@@V12@@std@@@2@$0A@@std@@@std@@QAE?AU?$pair@Viterator@?$_Tree@V?$_Tmap_traits@V?$basic_string@DU?$char_traits@D@std@@V?$allocator@D@2@@std@@V12@U?$less@V?$basic_string@DU?$char_traits@D@std@@V?$allocator@D@2@@std@@@2@V?$allocator@U?$pair@$$CBV?$basic_string@DU?$char_traits@D@std@@V?$allocator@D@2@@std@@V12@@std@@@2@$0A@@std@@@std@@_N@2@ABU?$pair@$$CBV?$basic_string@DU?$char_traits@D@std@@V?$allocator@D@2@@std@@V12@@2@@Z 1000c820 f i PlugInLib:PlugInShell.obj
 0001:0000b920       ?_Copy@?$_Tree@V?$_Tmap_traits@V?$basic_string@DU?$char_traits@D@std@@V?$allocator@D@2@@std@@V12@U?$less@V?$basic_string@DU?$char_traits@D@std@@V?$allocator@D@2@@std@@@2@V?$allocator@U?$pair@$$CBV?$basic_string@DU?$char_traits@D@std@@V?$allocator@D@2@@std@@V12@@std@@@2@$0A@@std@@@std@@IAEPAU_Node@?$_Tree_nod@V?$_Tmap_traits@V?$basic_string@DU?$char_traits@D@std@@V?$allocator@D@2@@std@@V12@U?$less@V?$basic_string@DU?$char_traits@D@std@@V?$allocator@D@2@@std@@@2@V?$allocator@U?$pair@$$CBV?$basic_string@DU?$char_traits@D@std@@V?$allocator@D@2@@std@@V12@@std@@@2@$0A@@std@@@2@PAU342@0@Z 1000c920 f i PlugInLib:PlugInShell.obj
 0001:0000b9d0       ?clear@?$_Tree@V?$_Tmap_traits@V?$basic_string@DU?$char_traits@D@std@@V?$allocator@D@2@@std@@V12@U?$less@V?$basic_string@DU?$char_traits@D@std@@V?$allocator@D@2@@std@@@2@V?$allocator@U?$pair@$$CBV?$basic_string@DU?$char_traits@D@std@@V?$allocator@D@2@@std@@V12@@std@@@2@$0A@@std@@@std@@QAEXXZ 1000c9d0 f i PlugInLib:PlugInShell.obj
 0001:0000ba00       ?destroy@?$allocator@U_Node@?$_List_nod@UContextMenuAction@@V?$allocator@UContextMenuAction@@@std@@@std@@@std@@QAEXPAU_Node@?$_List_nod@UContextMenuAction@@V?$allocator@UContextMenuAction@@@std@@@2@@Z 1000ca00 f i PlugInLib:PlugInShell.obj
 0001:0000ba10       ?insert@?$_Tree@V?$_Tmap_traits@V?$basic_string@DU?$char_traits@D@std@@V?$allocator@D@2@@std@@V12@U?$less@V?$basic_string@DU?$char_traits@D@std@@V?$allocator@D@2@@std@@@2@V?$allocator@U?$pair@$$CBV?$basic_string@DU?$char_traits@D@std@@V?$allocator@D@2@@std@@V12@@std@@@2@$0A@@std@@@std@@QAE?AViterator@12@V312@ABU?$pair@$$CBV?$basic_string@DU?$char_traits@D@std@@V?$allocator@D@2@@std@@V12@@2@@Z 1000ca10 f i PlugInLib:PlugInShell.obj
 0001:0000bc20       ?_Copy@?$_Tree@V?$_Tmap_traits@V?$basic_string@DU?$char_traits@D@std@@V?$allocator@D@2@@std@@V12@U?$less@V?$basic_string@DU?$char_traits@D@std@@V?$allocator@D@2@@std@@@2@V?$allocator@U?$pair@$$CBV?$basic_string@DU?$char_traits@D@std@@V?$allocator@D@2@@std@@V12@@std@@@2@$0A@@std@@@std@@IAEXABV12@@Z 1000cc20 f i PlugInLib:PlugInShell.obj
 0001:0000bca0       ?erase@?$_Tree@V?$_Tmap_traits@V?$basic_string@DU?$char_traits@D@std@@V?$allocator@D@2@@std@@V12@U?$less@V?$basic_string@DU?$char_traits@D@std@@V?$allocator@D@2@@std@@@2@V?$allocator@U?$pair@$$CBV?$basic_string@DU?$char_traits@D@std@@V?$allocator@D@2@@std@@V12@@std@@@2@$0A@@std@@@std@@QAE?AViterator@12@V312@0@Z 1000cca0 f i PlugInLib:PlugInShell.obj
 0001:0000bd70       ?clear@?$list@UContextMenuAction@@V?$allocator@UContextMenuAction@@@std@@@std@@QAEXXZ 1000cd70 f i PlugInLib:PlugInShell.obj
 0001:0000be00       ??A?$map@V?$basic_string@DU?$char_traits@D@std@@V?$allocator@D@2@@std@@V12@U?$less@V?$basic_string@DU?$char_traits@D@std@@V?$allocator@D@2@@std@@@2@V?$allocator@U?$pair@$$CBV?$basic_string@DU?$char_traits@D@std@@V?$allocator@D@2@@std@@V12@@std@@@2@@std@@QAEAAV?$basic_string@DU?$char_traits@D@std@@V?$allocator@D@2@@1@ABV21@@Z 1000ce00 f i PlugInLib:PlugInShell.obj
 0001:0000bed0       ?_Tidy@?$_Tree@V?$_Tmap_traits@V?$basic_string@DU?$char_traits@D@std@@V?$allocator@D@2@@std@@V12@U?$less@V?$basic_string@DU?$char_traits@D@std@@V?$allocator@D@2@@std@@@2@V?$allocator@U?$pair@$$CBV?$basic_string@DU?$char_traits@D@std@@V?$allocator@D@2@@std@@V12@@std@@@2@$0A@@std@@@std@@IAEXXZ 1000ced0 f i PlugInLib:PlugInShell.obj
 0001:0000bf10       ?_Tidy@?$list@UContextMenuAction@@V?$allocator@UContextMenuAction@@@std@@@std@@IAEXXZ 1000cf10 f i PlugInLib:PlugInShell.obj
 0001:0000bf30       ?addDependencyCopyright@PlugInShell@@IAEXABV?$basic_string@DU?$char_traits@D@std@@V?$allocator@D@2@@std@@0@Z 1000cf30 f   PlugInLib:PlugInShell.obj
 0001:0000bfb0       ??0?$_Tree@V?$_Tmap_traits@V?$basic_string@DU?$char_traits@D@std@@V?$allocator@D@2@@std@@V12@U?$less@V?$basic_string@DU?$char_traits@D@std@@V?$allocator@D@2@@std@@@2@V?$allocator@U?$pair@$$CBV?$basic_string@DU?$char_traits@D@std@@V?$allocator@D@2@@std@@V12@@std@@@2@$0A@@std@@@std@@QAE@ABV01@@Z 1000cfb0 f i PlugInLib:PlugInShell.obj
 0001:0000c040       ??1?$_Tree@V?$_Tmap_traits@V?$basic_string@DU?$char_traits@D@std@@V?$allocator@D@2@@std@@V12@U?$less@V?$basic_string@DU?$char_traits@D@std@@V?$allocator@D@2@@std@@@2@V?$allocator@U?$pair@$$CBV?$basic_string@DU?$char_traits@D@std@@V?$allocator@D@2@@std@@V12@@std@@@2@$0A@@std@@@std@@QAE@XZ 1000d040 f i PlugInLib:PlugInShell.obj
 0001:0000c080       ??1?$list@UContextMenuAction@@V?$allocator@UContextMenuAction@@@std@@@std@@QAE@XZ 1000d080 f i PlugInLib:PlugInShell.obj
 0001:0000c0a0       ??1?$map@V?$basic_string@DU?$char_traits@D@std@@V?$allocator@D@2@@std@@V12@U?$less@V?$basic_string@DU?$char_traits@D@std@@V?$allocator@D@2@@std@@@2@V?$allocator@U?$pair@$$CBV?$basic_string@DU?$char_traits@D@std@@V?$allocator@D@2@@std@@V12@@std@@@2@@std@@QAE@XZ 1000d0a0 f i PlugInLib:PlugInShell.obj
 0001:0000c0e0       ??1PlugInShell@@UAE@XZ     1000d0e0 f   PlugInLib:PlugInShell.obj
 0001:0000c200       ??_EPlugInShell@@W3AEPAXI@Z 1000d200 f i PlugInLib:PlugInShell.obj
 0001:0000c210       ?getContextMenuActions@PlugInShell@@UBE?AV?$list@UContextMenuAction@@V?$allocator@UContextMenuAction@@@std@@@std@@XZ 1000d210 f   PlugInLib:PlugInShell.obj
 0001:0000c230       ?getPropertiesPages@PlugInShell@@UBE?AV?$vector@V?$basic_string@DU?$char_traits@D@std@@V?$allocator@D@2@@std@@V?$allocator@V?$basic_string@DU?$char_traits@D@std@@V?$allocator@D@2@@std@@@2@@std@@XZ 1000d230 f   PlugInLib:PlugInShell.obj
 0001:0000c250       ??0?$map@V?$basic_string@DU?$char_traits@D@std@@V?$allocator@D@2@@std@@V12@U?$less@V?$basic_string@DU?$char_traits@D@std@@V?$allocator@D@2@@std@@@2@V?$allocator@U?$pair@$$CBV?$basic_string@DU?$char_traits@D@std@@V?$allocator@D@2@@std@@V12@@std@@@2@@std@@QAE@ABV01@@Z 1000d250 f i PlugInLib:PlugInShell.obj
 0001:0000c270       ??0?$map@V?$basic_string@DU?$char_traits@D@std@@V?$allocator@D@2@@std@@V12@U?$less@V?$basic_string@DU?$char_traits@D@std@@V?$allocator@D@2@@std@@@2@V?$allocator@U?$pair@$$CBV?$basic_string@DU?$char_traits@D@std@@V?$allocator@D@2@@std@@V12@@std@@@2@@std@@QAE@XZ 1000d270 f i PlugInLib:PlugInShell.obj
 0001:0000c2a0       ??0PlugInShell@@QAE@XZ     1000d2a0 f   PlugInLib:PlugInShell.obj
 0001:0000c3c0       ??_GPlugInShell@@UAEPAXI@Z 1000d3c0 f i PlugInLib:PlugInShell.obj
 0001:0000c3c0       ??_EPlugInShell@@UAEPAXI@Z 1000d3c0 f i PlugInLib:PlugInShell.obj
 0001:0000c3e0       ?getDependencyCopyright@PlugInShell@@UBE?AV?$map@V?$basic_string@DU?$char_traits@D@std@@V?$allocator@D@2@@std@@V12@U?$less@V?$basic_string@DU?$char_traits@D@std@@V?$allocator@D@2@@std@@@2@V?$allocator@U?$pair@$$CBV?$basic_string@DU?$char_traits@D@std@@V?$allocator@D@2@@std@@V12@@std@@@2@@std@@XZ 1000d3e0 f   PlugInLib:PlugInShell.obj
 0001:0000c410       ?isValid@DataAccessorImpl@@QBE_NXZ 1000d410 f i PlugInLib:DataAccessor.obj
 0001:0000c420       ?incrementRefCount@DataAccessorImpl@@QAEHXZ 1000d420 f i PlugInLib:DataAccessor.obj
 0001:0000c430       ?decrementRefCount@DataAccessorImpl@@QAEHXZ 1000d430 f i PlugInLib:DataAccessor.obj
 0001:0000c440       ?isValid@DataAccessor@@QBE_NXZ 1000d440 f   PlugInLib:DataAccessor.obj
 0001:0000c460       ?incrementRefCount@DataAccessor@@AAEXXZ 1000d460 f   PlugInLib:DataAccessor.obj
 0001:0000c470       ?decrementRefCount@DataAccessor@@AAEXXZ 1000d470 f   PlugInLib:DataAccessor.obj
 0001:0000c4b0       ??0DataAccessor@@QAE@PAVDataAccessorDeleter@@PAVDataAccessorImpl@@@Z 1000d4b0 f   PlugInLib:DataAccessor.obj
 0001:0000c4d0       ??0DataAccessor@@QAE@ABV0@@Z 1000d4d0 f   PlugInLib:DataAccessor.obj
 0001:0000c4f0       ??1DataAccessor@@QAE@XZ    1000d4f0 f   PlugInLib:DataAccessor.obj
 0001:0000c530       ??4DataAccessor@@QAEAAV0@ABV0@@Z 1000d530 f   PlugInLib:DataAccessor.obj
 0001:0000c590       ??0ModuleManager@@IAE@XZ   1000d590 f   PlugInLib:ModuleManagerCommon.obj
 0001:0000c5a0       ??1ModuleManager@@IAE@XZ   1000d5a0 f   PlugInLib:ModuleManagerCommon.obj
 0001:0000c5b0       ?instance@ModuleManager@@SAPAV1@XZ 1000d5b0 f   PlugInLib:ModuleManagerCommon.obj
 0001:0000c5e0       ?getService@ModuleManager@@QAEPAVExternal@@XZ 1000d5e0 f i PlugInUtilities:Service.obj
 0001:0000c5f0       ?get@?$Service@VApplicationServices@@@@QBEPAVApplicationServices@@XZ 1000d5f0 f   PlugInUtilities:Service.obj
 0001:0000c620       ?get@?$Service@VUtilityServices@@@@QBEPAVUtilityServices@@XZ 1000d620 f   PlugInUtilities:Service.obj
 0001:0000c650       ?get@?$Service@VModelServices@@@@QBEPAVModelServices@@XZ 1000d650 f   PlugInUtilities:Service.obj
 0001:0000c680       ?get@?$Service@VAnimationServices@@@@QBEPAVAnimationServices@@XZ 1000d680 f   PlugInUtilities:Service.obj
 0001:0000c6b0       ?get@?$Service@VDesktopServices@@@@QBEPAVDesktopServices@@XZ 1000d6b0 f   PlugInUtilities:Service.obj
 0001:0000c6e0       ?get@?$Service@VPlugInManagerServices@@@@QBEPAVPlugInManagerServices@@XZ 1000d6e0 f   PlugInUtilities:Service.obj
 0001:0000c710       ??C?$Service@VUtilityServices@@@@QBEPAVUtilityServices@@XZ 1000d710 f i PlugInUtilities:Service.obj
 0001:0000c740       ?get@?$Service@VSessionManager@@@@QBEPAVSessionManager@@XZ 1000d740 f   PlugInUtilities:Service.obj
 0001:0000c770       ?get@?$Service@VConfigurationSettings@@@@QBEPAVConfigurationSettings@@XZ 1000d770 f   PlugInUtilities:Service.obj
 0001:0000c7a0       ?get@?$Service@VObjectFactory@@@@QBEPAVObjectFactory@@XZ 1000d7a0 f   PlugInUtilities:Service.obj
 0001:0000c7d0       ?get@?$Service@VDataVariantFactory@@@@QBEPAVDataVariantFactory@@XZ 1000d7d0 f   PlugInUtilities:Service.obj
 0001:0000c800       ?get@?$Service@VMessageLogMgr@@@@QBEPAVMessageLogMgr@@XZ 1000d800 f   PlugInUtilities:Service.obj
 0001:0000c830       ?get@?$Service@VSessionExplorer@@@@QBEPAVSessionExplorer@@XZ 1000d830 f   PlugInUtilities:Service.obj
 0001:0000c920       ??$toString@_N@TypeConverter@@YAPBDXZ 1000d920 f   PlugInUtilities:TypeConverter.obj
 0001:0000c930       ??$toString@V?$vector@PA_NV?$allocator@PA_N@std@@@std@@@TypeConverter@@YAPBDXZ 1000d930 f   PlugInUtilities:TypeConverter.obj
 0001:0000c940       ??$toString@V?$vector@_NV?$allocator@_N@std@@@std@@@TypeConverter@@YAPBDXZ 1000d940 f   PlugInUtilities:TypeConverter.obj
 0001:0000c950       ??$toString@D@TypeConverter@@YAPBDXZ 1000d950 f   PlugInUtilities:TypeConverter.obj
 0001:0000c960       ??$toString@V?$vector@PADV?$allocator@PAD@std@@@std@@@TypeConverter@@YAPBDXZ 1000d960 f   PlugInUtilities:TypeConverter.obj
 0001:0000c970       ??$toString@V?$vector@DV?$allocator@D@std@@@std@@@TypeConverter@@YAPBDXZ 1000d970 f   PlugInUtilities:TypeConverter.obj
 0001:0000c980       ??$toString@E@TypeConverter@@YAPBDXZ 1000d980 f   PlugInUtilities:TypeConverter.obj
 0001:0000c990       ??$toString@V?$vector@PAEV?$allocator@PAE@std@@@std@@@TypeConverter@@YAPBDXZ 1000d990 f   PlugInUtilities:TypeConverter.obj
 0001:0000c9a0       ??$toString@V?$vector@EV?$allocator@E@std@@@std@@@TypeConverter@@YAPBDXZ 1000d9a0 f   PlugInUtilities:TypeConverter.obj
 0001:0000c9b0       ??$toString@C@TypeConverter@@YAPBDXZ 1000d9b0 f   PlugInUtilities:TypeConverter.obj
 0001:0000c9c0       ??$toString@V?$vector@PACV?$allocator@PAC@std@@@std@@@TypeConverter@@YAPBDXZ 1000d9c0 f   PlugInUtilities:TypeConverter.obj
 0001:0000c9d0       ??$toString@V?$vector@CV?$allocator@C@std@@@std@@@TypeConverter@@YAPBDXZ 1000d9d0 f   PlugInUtilities:TypeConverter.obj
 0001:0000c9e0       ??$toString@F@TypeConverter@@YAPBDXZ 1000d9e0 f   PlugInUtilities:TypeConverter.obj
 0001:0000c9f0       ??$toString@V?$vector@PAFV?$allocator@PAF@std@@@std@@@TypeConverter@@YAPBDXZ 1000d9f0 f   PlugInUtilities:TypeConverter.obj
 0001:0000ca00       ??$toString@V?$vector@FV?$allocator@F@std@@@std@@@TypeConverter@@YAPBDXZ 1000da00 f   PlugInUtilities:TypeConverter.obj
 0001:0000ca10       ??$toString@G@TypeConverter@@YAPBDXZ 1000da10 f   PlugInUtilities:TypeConverter.obj
 0001:0000ca20       ??$toString@V?$vector@PAGV?$allocator@PAG@std@@@std@@@TypeConverter@@YAPBDXZ 1000da20 f   PlugInUtilities:TypeConverter.obj
 0001:0000ca30       ??$toString@V?$vector@GV?$allocator@G@std@@@std@@@TypeConverter@@YAPBDXZ 1000da30 f   PlugInUtilities:TypeConverter.obj
 0001:0000ca40       ??$toString@H@TypeConverter@@YAPBDXZ 1000da40 f   PlugInUtilities:TypeConverter.obj
 0001:0000ca50       ??$toString@V?$vector@PAHV?$allocator@PAH@std@@@std@@@TypeConverter@@YAPBDXZ 1000da50 f   PlugInUtilities:TypeConverter.obj
 0001:0000ca60       ??$toString@V?$vector@HV?$allocator@H@std@@@std@@@TypeConverter@@YAPBDXZ 1000da60 f   PlugInUtilities:TypeConverter.obj
 0001:0000ca70       ??$toString@I@TypeConverter@@YAPBDXZ 1000da70 f   PlugInUtilities:TypeConverter.obj
 0001:0000ca80       ??$toString@V?$vector@PAIV?$allocator@PAI@std@@@std@@@TypeConverter@@YAPBDXZ 1000da80 f   PlugInUtilities:TypeConverter.obj
 0001:0000ca90       ??$toString@V?$vector@IV?$allocator@I@std@@@std@@@TypeConverter@@YAPBDXZ 1000da90 f   PlugInUtilities:TypeConverter.obj
 0001:0000caa0       ??$toString@J@TypeConverter@@YAPBDXZ 1000daa0 f   PlugInUtilities:TypeConverter.obj
 0001:0000cab0       ??$toString@V?$vector@PAJV?$allocator@PAJ@std@@@std@@@TypeConverter@@YAPBDXZ 1000dab0 f   PlugInUtilities:TypeConverter.obj
 0001:0000cac0       ??$toString@V?$vector@JV?$allocator@J@std@@@std@@@TypeConverter@@YAPBDXZ 1000dac0 f   PlugInUtilities:TypeConverter.obj
 0001:0000cad0       ??$toString@K@TypeConverter@@YAPBDXZ 1000dad0 f   PlugInUtilities:TypeConverter.obj
 0001:0000cae0       ??$toString@V?$vector@PAKV?$allocator@PAK@std@@@std@@@TypeConverter@@YAPBDXZ 1000dae0 f   PlugInUtilities:TypeConverter.obj
 0001:0000caf0       ??$toString@V?$vector@KV?$allocator@K@std@@@std@@@TypeConverter@@YAPBDXZ 1000daf0 f   PlugInUtilities:TypeConverter.obj
 0001:0000cb00       ??$toString@_J@TypeConverter@@YAPBDXZ 1000db00 f   PlugInUtilities:TypeConverter.obj
 0001:0000cb10       ??$toString@V?$vector@PA_JV?$allocator@PA_J@std@@@std@@@TypeConverter@@YAPBDXZ 1000db10 f   PlugInUtilities:TypeConverter.obj
 0001:0000cb20       ??$toString@V?$vector@_JV?$allocator@_J@std@@@std@@@TypeConverter@@YAPBDXZ 1000db20 f   PlugInUtilities:TypeConverter.obj
 0001:0000cb30       ??$toString@_K@TypeConverter@@YAPBDXZ 1000db30 f   PlugInUtilities:TypeConverter.obj
 0001:0000cb40       ??$toString@V?$vector@PA_KV?$allocator@PA_K@std@@@std@@@TypeConverter@@YAPBDXZ 1000db40 f   PlugInUtilities:TypeConverter.obj
 0001:0000cb50       ??$toString@V?$vector@_KV?$allocator@_K@std@@@std@@@TypeConverter@@YAPBDXZ 1000db50 f   PlugInUtilities:TypeConverter.obj
 0001:0000cb60       ??$toString@M@TypeConverter@@YAPBDXZ 1000db60 f   PlugInUtilities:TypeConverter.obj
 0001:0000cb70       ??$toString@V?$vector@PAMV?$allocator@PAM@std@@@std@@@TypeConverter@@YAPBDXZ 1000db70 f   PlugInUtilities:TypeConverter.obj
 0001:0000cb80       ??$toString@V?$vector@MV?$allocator@M@std@@@std@@@TypeConverter@@YAPBDXZ 1000db80 f   PlugInUtilities:TypeConverter.obj
 0001:0000cb90       ??$toString@N@TypeConverter@@YAPBDXZ 1000db90 f   PlugInUtilities:TypeConverter.obj
 0001:0000cba0       ??$toString@V?$vector@PANV?$allocator@PAN@std@@@std@@@TypeConverter@@YAPBDXZ 1000dba0 f   PlugInUtilities:TypeConverter.obj
 0001:0000cbb0       ??$toString@V?$vector@NV?$allocator@N@std@@@std@@@TypeConverter@@YAPBDXZ 1000dbb0 f   PlugInUtilities:TypeConverter.obj
 0001:0000cbc0       ??$toString@X@TypeConverter@@YAPBDXZ 1000dbc0 f   PlugInUtilities:TypeConverter.obj
 0001:0000cbd0       ??$toString@V?$vector@PAXV?$allocator@PAX@std@@@std@@@TypeConverter@@YAPBDXZ 1000dbd0 f   PlugInUtilities:TypeConverter.obj
 0001:0000cbe0       ??$toString@V?$vector@XV?$allocator@X@std@@@std@@@TypeConverter@@YAPBDXZ 1000dbe0 f   PlugInUtilities:TypeConverter.obj
 0001:0000cbf0       ??$toString@V?$basic_string@DU?$char_traits@D@std@@V?$allocator@D@2@@std@@@TypeConverter@@YAPBDXZ 1000dbf0 f   PlugInUtilities:TypeConverter.obj
 0001:0000cc00       ??$toString@V?$vector@PAV?$basic_string@DU?$char_traits@D@std@@V?$allocator@D@2@@std@@V?$allocator@PAV?$basic_string@DU?$char_traits@D@std@@V?$allocator@D@2@@std@@@2@@std@@@TypeConverter@@YAPBDXZ 1000dc00 f   PlugInUtilities:TypeConverter.obj
 0001:0000cc10       ??$toString@V?$vector@V?$basic_string@DU?$char_traits@D@std@@V?$allocator@D@2@@std@@V?$allocator@V?$basic_string@DU?$char_traits@D@std@@V?$allocator@D@2@@std@@@2@@std@@@TypeConverter@@YAPBDXZ 1000dc10 f   PlugInUtilities:TypeConverter.obj
 0001:0000cc20       ??$toString@V?$EnumWrapper@W4AnimationCycleEnum@@@@@TypeConverter@@YAPBDXZ 1000dc20 f   PlugInUtilities:TypeConverter.obj
 0001:0000cc30       ??$toString@V?$vector@PAV?$EnumWrapper@W4AnimationCycleEnum@@@@V?$allocator@PAV?$EnumWrapper@W4AnimationCycleEnum@@@@@std@@@std@@@TypeConverter@@YAPBDXZ 1000dc30 f   PlugInUtilities:TypeConverter.obj
 0001:0000cc40       ??$toString@V?$vector@V?$EnumWrapper@W4AnimationCycleEnum@@@@V?$allocator@V?$EnumWrapper@W4AnimationCycleEnum@@@@@std@@@std@@@TypeConverter@@YAPBDXZ 1000dc40 f   PlugInUtilities:TypeConverter.obj
 0001:0000cc50       ??$toString@V?$EnumWrapper@W4AnimationStateEnum@@@@@TypeConverter@@YAPBDXZ 1000dc50 f   PlugInUtilities:TypeConverter.obj
 0001:0000cc60       ??$toString@V?$vector@PAV?$EnumWrapper@W4AnimationStateEnum@@@@V?$allocator@PAV?$EnumWrapper@W4AnimationStateEnum@@@@@std@@@std@@@TypeConverter@@YAPBDXZ 1000dc60 f   PlugInUtilities:TypeConverter.obj
 0001:0000cc70       ??$toString@V?$vector@V?$EnumWrapper@W4AnimationStateEnum@@@@V?$allocator@V?$EnumWrapper@W4AnimationStateEnum@@@@@std@@@std@@@TypeConverter@@YAPBDXZ 1000dc70 f   PlugInUtilities:TypeConverter.obj
 0001:0000cc80       ??$toString@V?$EnumWrapper@W4ArcRegionEnum@@@@@TypeConverter@@YAPBDXZ 1000dc80 f   PlugInUtilities:TypeConverter.obj
 0001:0000cc90       ??$toString@V?$vector@PAV?$EnumWrapper@W4ArcRegionEnum@@@@V?$allocator@PAV?$EnumWrapper@W4ArcRegionEnum@@@@@std@@@std@@@TypeConverter@@YAPBDXZ 1000dc90 f   PlugInUtilities:TypeConverter.obj
 0001:0000cca0       ??$toString@V?$vector@V?$EnumWrapper@W4ArcRegionEnum@@@@V?$allocator@V?$EnumWrapper@W4ArcRegionEnum@@@@@std@@@std@@@TypeConverter@@YAPBDXZ 1000dca0 f   PlugInUtilities:TypeConverter.obj
 0001:0000ccb0       ??$toString@V?$EnumWrapper@W4ComplexComponentEnum@@@@@TypeConverter@@YAPBDXZ 1000dcb0 f   PlugInUtilities:TypeConverter.obj
 0001:0000ccc0       ??$toString@V?$vector@PAV?$EnumWrapper@W4ComplexComponentEnum@@@@V?$allocator@PAV?$EnumWrapper@W4ComplexComponentEnum@@@@@std@@@std@@@TypeConverter@@YAPBDXZ 1000dcc0 f   PlugInUtilities:TypeConverter.obj
 0001:0000ccd0       ??$toString@V?$vector@V?$EnumWrapper@W4ComplexComponentEnum@@@@V?$allocator@V?$EnumWrapper@W4ComplexComponentEnum@@@@@std@@@std@@@TypeConverter@@YAPBDXZ 1000dcd0 f   PlugInUtilities:TypeConverter.obj
 0001:0000cce0       ??$toString@V?$EnumWrapper@W4DataOriginEnum@@@@@TypeConverter@@YAPBDXZ 1000dce0 f   PlugInUtilities:TypeConverter.obj
 0001:0000ccf0       ??$toString@V?$vector@PAV?$EnumWrapper@W4DataOriginEnum@@@@V?$allocator@PAV?$EnumWrapper@W4DataOriginEnum@@@@@std@@@std@@@TypeConverter@@YAPBDXZ 1000dcf0 f   PlugInUtilities:TypeConverter.obj
 0001:0000cd00       ??$toString@V?$vector@V?$EnumWrapper@W4DataOriginEnum@@@@V?$allocator@V?$EnumWrapper@W4DataOriginEnum@@@@@std@@@std@@@TypeConverter@@YAPBDXZ 1000dd00 f   PlugInUtilities:TypeConverter.obj
 0001:0000cd10       ??$toString@V?$EnumWrapper@W4DisplayModeEnum@@@@@TypeConverter@@YAPBDXZ 1000dd10 f   PlugInUtilities:TypeConverter.obj
 0001:0000cd20       ??$toString@V?$vector@PAV?$EnumWrapper@W4DisplayModeEnum@@@@V?$allocator@PAV?$EnumWrapper@W4DisplayModeEnum@@@@@std@@@std@@@TypeConverter@@YAPBDXZ 1000dd20 f   PlugInUtilities:TypeConverter.obj
 0001:0000cd30       ??$toString@V?$vector@V?$EnumWrapper@W4DisplayModeEnum@@@@V?$allocator@V?$EnumWrapper@W4DisplayModeEnum@@@@@std@@@std@@@TypeConverter@@YAPBDXZ 1000dd30 f   PlugInUtilities:TypeConverter.obj
 0001:0000cd40       ??$toString@V?$EnumWrapper@W4DistanceUnitsEnum@@@@@TypeConverter@@YAPBDXZ 1000dd40 f   PlugInUtilities:TypeConverter.obj
 0001:0000cd50       ??$toString@V?$vector@PAV?$EnumWrapper@W4DistanceUnitsEnum@@@@V?$allocator@PAV?$EnumWrapper@W4DistanceUnitsEnum@@@@@std@@@std@@@TypeConverter@@YAPBDXZ 1000dd50 f   PlugInUtilities:TypeConverter.obj
 0001:0000cd60       ??$toString@V?$vector@V?$EnumWrapper@W4DistanceUnitsEnum@@@@V?$allocator@V?$EnumWrapper@W4DistanceUnitsEnum@@@@@std@@@std@@@TypeConverter@@YAPBDXZ 1000dd60 f   PlugInUtilities:TypeConverter.obj
 0001:0000cd70       ??$toString@V?$EnumWrapper@W4DmsFormatTypeEnum@@@@@TypeConverter@@YAPBDXZ 1000dd70 f   PlugInUtilities:TypeConverter.obj
 0001:0000cd80       ??$toString@V?$vector@PAV?$EnumWrapper@W4DmsFormatTypeEnum@@@@V?$allocator@PAV?$EnumWrapper@W4DmsFormatTypeEnum@@@@@std@@@std@@@TypeConverter@@YAPBDXZ 1000dd80 f   PlugInUtilities:TypeConverter.obj
 0001:0000cd90       ??$toString@V?$vector@V?$EnumWrapper@W4DmsFormatTypeEnum@@@@V?$allocator@V?$EnumWrapper@W4DmsFormatTypeEnum@@@@@std@@@std@@@TypeConverter@@YAPBDXZ 1000dd90 f   PlugInUtilities:TypeConverter.obj
 0001:0000cda0       ??$toString@V?$EnumWrapper@W4EncodingTypeEnum@@@@@TypeConverter@@YAPBDXZ 1000dda0 f   PlugInUtilities:TypeConverter.obj
 0001:0000cdb0       ??$toString@V?$vector@PAV?$EnumWrapper@W4EncodingTypeEnum@@@@V?$allocator@PAV?$EnumWrapper@W4EncodingTypeEnum@@@@@std@@@std@@@TypeConverter@@YAPBDXZ 1000ddb0 f   PlugInUtilities:TypeConverter.obj
 0001:0000cdc0       ??$toString@V?$vector@V?$EnumWrapper@W4EncodingTypeEnum@@@@V?$allocator@V?$EnumWrapper@W4EncodingTypeEnum@@@@@std@@@std@@@TypeConverter@@YAPBDXZ 1000ddc0 f   PlugInUtilities:TypeConverter.obj
 0001:0000cdd0       ??$toString@V?$EnumWrapper@W4EndianTypeEnum@@@@@TypeConverter@@YAPBDXZ 1000ddd0 f   PlugInUtilities:TypeConverter.obj
 0001:0000cde0       ??$toString@V?$vector@PAV?$EnumWrapper@W4EndianTypeEnum@@@@V?$allocator@PAV?$EnumWrapper@W4EndianTypeEnum@@@@@std@@@std@@@TypeConverter@@YAPBDXZ 1000dde0 f   PlugInUtilities:TypeConverter.obj
 0001:0000cdf0       ??$toString@V?$vector@V?$EnumWrapper@W4EndianTypeEnum@@@@V?$allocator@V?$EnumWrapper@W4EndianTypeEnum@@@@@std@@@std@@@TypeConverter@@YAPBDXZ 1000ddf0 f   PlugInUtilities:TypeConverter.obj
 0001:0000ce00       ??$toString@V?$EnumWrapper@W4FillStyleEnum@@@@@TypeConverter@@YAPBDXZ 1000de00 f   PlugInUtilities:TypeConverter.obj
 0001:0000ce10       ??$toString@V?$vector@PAV?$EnumWrapper@W4FillStyleEnum@@@@V?$allocator@PAV?$EnumWrapper@W4FillStyleEnum@@@@@std@@@std@@@TypeConverter@@YAPBDXZ 1000de10 f   PlugInUtilities:TypeConverter.obj
 0001:0000ce20       ??$toString@V?$vector@V?$EnumWrapper@W4FillStyleEnum@@@@V?$allocator@V?$EnumWrapper@W4FillStyleEnum@@@@@std@@@std@@@TypeConverter@@YAPBDXZ 1000de20 f   PlugInUtilities:TypeConverter.obj
 0001:0000ce30       ??$toString@V?$EnumWrapper@W4InsetZoomModeEnum@@@@@TypeConverter@@YAPBDXZ 1000de30 f   PlugInUtilities:TypeConverter.obj
 0001:0000ce40       ??$toString@V?$vector@PAV?$EnumWrapper@W4InsetZoomModeEnum@@@@V?$allocator@PAV?$EnumWrapper@W4InsetZoomModeEnum@@@@@std@@@std@@@TypeConverter@@YAPBDXZ 1000de40 f   PlugInUtilities:TypeConverter.obj
 0001:0000ce50       ??$toString@V?$vector@V?$EnumWrapper@W4InsetZoomModeEnum@@@@V?$allocator@V?$EnumWrapper@W4InsetZoomModeEnum@@@@@std@@@std@@@TypeConverter@@YAPBDXZ 1000de50 f   PlugInUtilities:TypeConverter.obj
 0001:0000ce60       ??$toString@V?$EnumWrapper@W4InterleaveFormatTypeEnum@@@@@TypeConverter@@YAPBDXZ 1000de60 f   PlugInUtilities:TypeConverter.obj
 0001:0000ce70       ??$toString@V?$vector@PAV?$EnumWrapper@W4InterleaveFormatTypeEnum@@@@V?$allocator@PAV?$EnumWrapper@W4InterleaveFormatTypeEnum@@@@@std@@@std@@@TypeConverter@@YAPBDXZ 1000de70 f   PlugInUtilities:TypeConverter.obj
 0001:0000ce80       ??$toString@V?$vector@V?$EnumWrapper@W4InterleaveFormatTypeEnum@@@@V?$allocator@V?$EnumWrapper@W4InterleaveFormatTypeEnum@@@@@std@@@std@@@TypeConverter@@YAPBDXZ 1000de80 f   PlugInUtilities:TypeConverter.obj
 0001:0000ce90       ??$toString@V?$EnumWrapper@W4GcpSymbolEnum@@@@@TypeConverter@@YAPBDXZ 1000de90 f   PlugInUtilities:TypeConverter.obj
 0001:0000cea0       ??$toString@V?$vector@PAV?$EnumWrapper@W4GcpSymbolEnum@@@@V?$allocator@PAV?$EnumWrapper@W4GcpSymbolEnum@@@@@std@@@std@@@TypeConverter@@YAPBDXZ 1000dea0 f   PlugInUtilities:TypeConverter.obj
 0001:0000ceb0       ??$toString@V?$vector@V?$EnumWrapper@W4GcpSymbolEnum@@@@V?$allocator@V?$EnumWrapper@W4GcpSymbolEnum@@@@@std@@@std@@@TypeConverter@@YAPBDXZ 1000deb0 f   PlugInUtilities:TypeConverter.obj
 0001:0000cec0       ??$toString@V?$EnumWrapper@W4GeocoordTypeEnum@@@@@TypeConverter@@YAPBDXZ 1000dec0 f   PlugInUtilities:TypeConverter.obj
 0001:0000ced0       ??$toString@V?$vector@PAV?$EnumWrapper@W4GeocoordTypeEnum@@@@V?$allocator@PAV?$EnumWrapper@W4GeocoordTypeEnum@@@@@std@@@std@@@TypeConverter@@YAPBDXZ 1000ded0 f   PlugInUtilities:TypeConverter.obj
 0001:0000cee0       ??$toString@V?$vector@V?$EnumWrapper@W4GeocoordTypeEnum@@@@V?$allocator@V?$EnumWrapper@W4GeocoordTypeEnum@@@@@std@@@std@@@TypeConverter@@YAPBDXZ 1000dee0 f   PlugInUtilities:TypeConverter.obj
 0001:0000cef0       ??$toString@V?$EnumWrapper@W4GraphicObjectTypeEnum@@@@@TypeConverter@@YAPBDXZ 1000def0 f   PlugInUtilities:TypeConverter.obj
 0001:0000cf00       ??$toString@V?$vector@PAV?$EnumWrapper@W4GraphicObjectTypeEnum@@@@V?$allocator@PAV?$EnumWrapper@W4GraphicObjectTypeEnum@@@@@std@@@std@@@TypeConverter@@YAPBDXZ 1000df00 f   PlugInUtilities:TypeConverter.obj
 0001:0000cf10       ??$toString@V?$vector@V?$EnumWrapper@W4GraphicObjectTypeEnum@@@@V?$allocator@V?$EnumWrapper@W4GraphicObjectTypeEnum@@@@@std@@@std@@@TypeConverter@@YAPBDXZ 1000df10 f   PlugInUtilities:TypeConverter.obj
 0001:0000cf20       ??$toString@V?$EnumWrapper@W4LatLonStyleEnum@@@@@TypeConverter@@YAPBDXZ 1000df20 f   PlugInUtilities:TypeConverter.obj
 0001:0000cf30       ??$toString@V?$vector@PAV?$EnumWrapper@W4LatLonStyleEnum@@@@V?$allocator@PAV?$EnumWrapper@W4LatLonStyleEnum@@@@@std@@@std@@@TypeConverter@@YAPBDXZ 1000df30 f   PlugInUtilities:TypeConverter.obj
 0001:0000cf40       ??$toString@V?$vector@V?$EnumWrapper@W4LatLonStyleEnum@@@@V?$allocator@V?$EnumWrapper@W4LatLonStyleEnum@@@@@std@@@std@@@TypeConverter@@YAPBDXZ 1000df40 f   PlugInUtilities:TypeConverter.obj
 0001:0000cf50       ??$toString@V?$EnumWrapper@W4LayerTypeEnum@@@@@TypeConverter@@YAPBDXZ 1000df50 f   PlugInUtilities:TypeConverter.obj
 0001:0000cf60       ??$toString@V?$vector@PAV?$EnumWrapper@W4LayerTypeEnum@@@@V?$allocator@PAV?$EnumWrapper@W4LayerTypeEnum@@@@@std@@@std@@@TypeConverter@@YAPBDXZ 1000df60 f   PlugInUtilities:TypeConverter.obj
 0001:0000cf70       ??$toString@V?$vector@V?$EnumWrapper@W4LayerTypeEnum@@@@V?$allocator@V?$EnumWrapper@W4LayerTypeEnum@@@@@std@@@std@@@TypeConverter@@YAPBDXZ 1000df70 f   PlugInUtilities:TypeConverter.obj
 0001:0000cf80       ??$toString@V?$EnumWrapper@W4LineStyleEnum@@@@@TypeConverter@@YAPBDXZ 1000df80 f   PlugInUtilities:TypeConverter.obj
 0001:0000cf90       ??$toString@V?$vector@PAV?$EnumWrapper@W4LineStyleEnum@@@@V?$allocator@PAV?$EnumWrapper@W4LineStyleEnum@@@@@std@@@std@@@TypeConverter@@YAPBDXZ 1000df90 f   PlugInUtilities:TypeConverter.obj
 0001:0000cfa0       ??$toString@V?$vector@V?$EnumWrapper@W4LineStyleEnum@@@@V?$allocator@V?$EnumWrapper@W4LineStyleEnum@@@@@std@@@std@@@TypeConverter@@YAPBDXZ 1000dfa0 f   PlugInUtilities:TypeConverter.obj
 0001:0000cfb0       ??$toString@V?$EnumWrapper@W4PanLimitTypeEnum@@@@@TypeConverter@@YAPBDXZ 1000dfb0 f   PlugInUtilities:TypeConverter.obj
 0001:0000cfc0       ??$toString@V?$vector@PAV?$EnumWrapper@W4PanLimitTypeEnum@@@@V?$allocator@PAV?$EnumWrapper@W4PanLimitTypeEnum@@@@@std@@@std@@@TypeConverter@@YAPBDXZ 1000dfc0 f   PlugInUtilities:TypeConverter.obj
 0001:0000cfd0       ??$toString@V?$vector@V?$EnumWrapper@W4PanLimitTypeEnum@@@@V?$allocator@V?$EnumWrapper@W4PanLimitTypeEnum@@@@@std@@@std@@@TypeConverter@@YAPBDXZ 1000dfd0 f   PlugInUtilities:TypeConverter.obj
 0001:0000cfe0       ??$toString@V?$EnumWrapper@W4PassAreaEnum@@@@@TypeConverter@@YAPBDXZ 1000dfe0 f   PlugInUtilities:TypeConverter.obj
 0001:0000cff0       ??$toString@V?$vector@PAV?$EnumWrapper@W4PassAreaEnum@@@@V?$allocator@PAV?$EnumWrapper@W4PassAreaEnum@@@@@std@@@std@@@TypeConverter@@YAPBDXZ 1000dff0 f   PlugInUtilities:TypeConverter.obj
 0001:0000d000       ??$toString@V?$vector@V?$EnumWrapper@W4PassAreaEnum@@@@V?$allocator@V?$EnumWrapper@W4PassAreaEnum@@@@@std@@@std@@@TypeConverter@@YAPBDXZ 1000e000 f   PlugInUtilities:TypeConverter.obj
 0001:0000d010       ??$toString@V?$EnumWrapper@W4PlotObjectTypeEnum@@@@@TypeConverter@@YAPBDXZ 1000e010 f   PlugInUtilities:TypeConverter.obj
 0001:0000d020       ??$toString@V?$vector@PAV?$EnumWrapper@W4PlotObjectTypeEnum@@@@V?$allocator@PAV?$EnumWrapper@W4PlotObjectTypeEnum@@@@@std@@@std@@@TypeConverter@@YAPBDXZ 1000e020 f   PlugInUtilities:TypeConverter.obj
 0001:0000d030       ??$toString@V?$vector@V?$EnumWrapper@W4PlotObjectTypeEnum@@@@V?$allocator@V?$EnumWrapper@W4PlotObjectTypeEnum@@@@@std@@@std@@@TypeConverter@@YAPBDXZ 1000e030 f   PlugInUtilities:TypeConverter.obj
 0001:0000d040       ??$toString@V?$EnumWrapper@W4PointSymbolTypeEnum@Point@@@@@TypeConverter@@YAPBDXZ 1000e040 f   PlugInUtilities:TypeConverter.obj
 0001:0000d050       ??$toString@V?$vector@PAV?$EnumWrapper@W4PointSymbolTypeEnum@Point@@@@V?$allocator@PAV?$EnumWrapper@W4PointSymbolTypeEnum@Point@@@@@std@@@std@@@TypeConverter@@YAPBDXZ 1000e050 f   PlugInUtilities:TypeConverter.obj
 0001:0000d060       ??$toString@V?$vector@V?$EnumWrapper@W4PointSymbolTypeEnum@Point@@@@V?$allocator@V?$EnumWrapper@W4PointSymbolTypeEnum@Point@@@@@std@@@std@@@TypeConverter@@YAPBDXZ 1000e060 f   PlugInUtilities:TypeConverter.obj
 0001:0000d070       ??$toString@V?$EnumWrapper@W4PositionTypeEnum@@@@@TypeConverter@@YAPBDXZ 1000e070 f   PlugInUtilities:TypeConverter.obj
 0001:0000d080       ??$toString@V?$vector@PAV?$EnumWrapper@W4PositionTypeEnum@@@@V?$allocator@PAV?$EnumWrapper@W4PositionTypeEnum@@@@@std@@@std@@@TypeConverter@@YAPBDXZ 1000e080 f   PlugInUtilities:TypeConverter.obj
 0001:0000d090       ??$toString@V?$vector@V?$EnumWrapper@W4PositionTypeEnum@@@@V?$allocator@V?$EnumWrapper@W4PositionTypeEnum@@@@@std@@@std@@@TypeConverter@@YAPBDXZ 1000e090 f   PlugInUtilities:TypeConverter.obj
 0001:0000d0a0       ??$toString@V?$EnumWrapper@W4ProcessingLocationEnum@@@@@TypeConverter@@YAPBDXZ 1000e0a0 f   PlugInUtilities:TypeConverter.obj
 0001:0000d0b0       ??$toString@V?$vector@PAV?$EnumWrapper@W4ProcessingLocationEnum@@@@V?$allocator@PAV?$EnumWrapper@W4ProcessingLocationEnum@@@@@std@@@std@@@TypeConverter@@YAPBDXZ 1000e0b0 f   PlugInUtilities:TypeConverter.obj
 0001:0000d0c0       ??$toString@V?$vector@V?$EnumWrapper@W4ProcessingLocationEnum@@@@V?$allocator@V?$EnumWrapper@W4ProcessingLocationEnum@@@@@std@@@std@@@TypeConverter@@YAPBDXZ 1000e0c0 f   PlugInUtilities:TypeConverter.obj
 0001:0000d0d0       ??$toString@V?$EnumWrapper@W4SessionSaveTypeEnum@@@@@TypeConverter@@YAPBDXZ 1000e0d0 f   PlugInUtilities:TypeConverter.obj
 0001:0000d0e0       ??$toString@V?$vector@PAV?$EnumWrapper@W4SessionSaveTypeEnum@@@@V?$allocator@PAV?$EnumWrapper@W4SessionSaveTypeEnum@@@@@std@@@std@@@TypeConverter@@YAPBDXZ 1000e0e0 f   PlugInUtilities:TypeConverter.obj
 0001:0000d0f0       ??$toString@V?$vector@V?$EnumWrapper@W4SessionSaveTypeEnum@@@@V?$allocator@V?$EnumWrapper@W4SessionSaveTypeEnum@@@@@std@@@std@@@TypeConverter@@YAPBDXZ 1000e0f0 f   PlugInUtilities:TypeConverter.obj
 0001:0000d100       ??$toString@V?$EnumWrapper@W4RasterChannelTypeEnum@@@@@TypeConverter@@YAPBDXZ 1000e100 f   PlugInUtilities:TypeConverter.obj
 0001:0000d110       ??$toString@V?$vector@PAV?$EnumWrapper@W4RasterChannelTypeEnum@@@@V?$allocator@PAV?$EnumWrapper@W4RasterChannelTypeEnum@@@@@std@@@std@@@TypeConverter@@YAPBDXZ 1000e110 f   PlugInUtilities:TypeConverter.obj
 0001:0000d120       ??$toString@V?$vector@V?$EnumWrapper@W4RasterChannelTypeEnum@@@@V?$allocator@V?$EnumWrapper@W4RasterChannelTypeEnum@@@@@std@@@std@@@TypeConverter@@YAPBDXZ 1000e120 f   PlugInUtilities:TypeConverter.obj
 0001:0000d130       ??$toString@V?$EnumWrapper@W4ReleaseTypeEnum@@@@@TypeConverter@@YAPBDXZ 1000e130 f   PlugInUtilities:TypeConverter.obj
 0001:0000d140       ??$toString@V?$vector@PAV?$EnumWrapper@W4ReleaseTypeEnum@@@@V?$allocator@PAV?$EnumWrapper@W4ReleaseTypeEnum@@@@@std@@@std@@@TypeConverter@@YAPBDXZ 1000e140 f   PlugInUtilities:TypeConverter.obj
 0001:0000d150       ??$toString@V?$vector@V?$EnumWrapper@W4ReleaseTypeEnum@@@@V?$allocator@V?$EnumWrapper@W4ReleaseTypeEnum@@@@@std@@@std@@@TypeConverter@@YAPBDXZ 1000e150 f   PlugInUtilities:TypeConverter.obj
 0001:0000d160       ??$toString@V?$EnumWrapper@W4StretchTypeEnum@@@@@TypeConverter@@YAPBDXZ 1000e160 f   PlugInUtilities:TypeConverter.obj
 0001:0000d170       ??$toString@V?$vector@PAV?$EnumWrapper@W4StretchTypeEnum@@@@V?$allocator@PAV?$EnumWrapper@W4StretchTypeEnum@@@@@std@@@std@@@TypeConverter@@YAPBDXZ 1000e170 f   PlugInUtilities:TypeConverter.obj
 0001:0000d180       ??$toString@V?$vector@V?$EnumWrapper@W4StretchTypeEnum@@@@V?$allocator@V?$EnumWrapper@W4StretchTypeEnum@@@@@std@@@std@@@TypeConverter@@YAPBDXZ 1000e180 f   PlugInUtilities:TypeConverter.obj
 0001:0000d190       ??$toString@V?$EnumWrapper@W4SymbolTypeEnum@@@@@TypeConverter@@YAPBDXZ 1000e190 f   PlugInUtilities:TypeConverter.obj
 0001:0000d1a0       ??$toString@V?$vector@PAV?$EnumWrapper@W4SymbolTypeEnum@@@@V?$allocator@PAV?$EnumWrapper@W4SymbolTypeEnum@@@@@std@@@std@@@TypeConverter@@YAPBDXZ 1000e1a0 f   PlugInUtilities:TypeConverter.obj
 0001:0000d1b0       ??$toString@V?$vector@V?$EnumWrapper@W4SymbolTypeEnum@@@@V?$allocator@V?$EnumWrapper@W4SymbolTypeEnum@@@@@std@@@std@@@TypeConverter@@YAPBDXZ 1000e1b0 f   PlugInUtilities:TypeConverter.obj
 0001:0000d1c0       ??$toString@V?$EnumWrapper@W4RegionUnitsEnum@@@@@TypeConverter@@YAPBDXZ 1000e1c0 f   PlugInUtilities:TypeConverter.obj
 0001:0000d1d0       ??$toString@V?$vector@PAV?$EnumWrapper@W4RegionUnitsEnum@@@@V?$allocator@PAV?$EnumWrapper@W4RegionUnitsEnum@@@@@std@@@std@@@TypeConverter@@YAPBDXZ 1000e1d0 f   PlugInUtilities:TypeConverter.obj
 0001:0000d1e0       ??$toString@V?$vector@V?$EnumWrapper@W4RegionUnitsEnum@@@@V?$allocator@V?$EnumWrapper@W4RegionUnitsEnum@@@@@std@@@std@@@TypeConverter@@YAPBDXZ 1000e1e0 f   PlugInUtilities:TypeConverter.obj
 0001:0000d1f0       ??$toString@V?$EnumWrapper@W4UnitSystemEnum@@@@@TypeConverter@@YAPBDXZ 1000e1f0 f   PlugInUtilities:TypeConverter.obj
 0001:0000d200       ??$toString@V?$vector@PAV?$EnumWrapper@W4UnitSystemEnum@@@@V?$allocator@PAV?$EnumWrapper@W4UnitSystemEnum@@@@@std@@@std@@@TypeConverter@@YAPBDXZ 1000e200 f   PlugInUtilities:TypeConverter.obj
 0001:0000d210       ??$toString@V?$vector@V?$EnumWrapper@W4UnitSystemEnum@@@@V?$allocator@V?$EnumWrapper@W4UnitSystemEnum@@@@@std@@@std@@@TypeConverter@@YAPBDXZ 1000e210 f   PlugInUtilities:TypeConverter.obj
 0001:0000d220       ??$toString@V?$EnumWrapper@W4UnitTypeEnum@@@@@TypeConverter@@YAPBDXZ 1000e220 f   PlugInUtilities:TypeConverter.obj
 0001:0000d230       ??$toString@V?$vector@PAV?$EnumWrapper@W4UnitTypeEnum@@@@V?$allocator@PAV?$EnumWrapper@W4UnitTypeEnum@@@@@std@@@std@@@TypeConverter@@YAPBDXZ 1000e230 f   PlugInUtilities:TypeConverter.obj
 0001:0000d240       ??$toString@V?$vector@V?$EnumWrapper@W4UnitTypeEnum@@@@V?$allocator@V?$EnumWrapper@W4UnitTypeEnum@@@@@std@@@std@@@TypeConverter@@YAPBDXZ 1000e240 f   PlugInUtilities:TypeConverter.obj
 0001:0000d250       ??$toString@V?$EnumWrapper@W4WindowSizeTypeEnum@@@@@TypeConverter@@YAPBDXZ 1000e250 f   PlugInUtilities:TypeConverter.obj
 0001:0000d260       ??$toString@V?$vector@PAV?$EnumWrapper@W4WindowSizeTypeEnum@@@@V?$allocator@PAV?$EnumWrapper@W4WindowSizeTypeEnum@@@@@std@@@std@@@TypeConverter@@YAPBDXZ 1000e260 f   PlugInUtilities:TypeConverter.obj
 0001:0000d270       ??$toString@V?$vector@V?$EnumWrapper@W4WindowSizeTypeEnum@@@@V?$allocator@V?$EnumWrapper@W4WindowSizeTypeEnum@@@@@std@@@std@@@TypeConverter@@YAPBDXZ 1000e270 f   PlugInUtilities:TypeConverter.obj
 0001:0000d280       ??$toString@V?$EnumWrapper@W4WindowTypeEnum@@@@@TypeConverter@@YAPBDXZ 1000e280 f   PlugInUtilities:TypeConverter.obj
 0001:0000d290       ??$toString@V?$vector@PAV?$EnumWrapper@W4WindowTypeEnum@@@@V?$allocator@PAV?$EnumWrapper@W4WindowTypeEnum@@@@@std@@@std@@@TypeConverter@@YAPBDXZ 1000e290 f   PlugInUtilities:TypeConverter.obj
 0001:0000d2a0       ??$toString@V?$vector@V?$EnumWrapper@W4WindowTypeEnum@@@@V?$allocator@V?$EnumWrapper@W4WindowTypeEnum@@@@@std@@@std@@@TypeConverter@@YAPBDXZ 1000e2a0 f   PlugInUtilities:TypeConverter.obj
 0001:0000d2b0       ??$toString@VAebInstallTransaction@@@TypeConverter@@YAPBDXZ 1000e2b0 f   PlugInUtilities:TypeConverter.obj
 0001:0000d2c0       ??$toString@V?$vector@PAVAebInstallTransaction@@V?$allocator@PAVAebInstallTransaction@@@std@@@std@@@TypeConverter@@YAPBDXZ 1000e2c0 f   PlugInUtilities:TypeConverter.obj
 0001:0000d2d0       ??$toString@V?$vector@VAebInstallTransaction@@V?$allocator@VAebInstallTransaction@@@std@@@std@@@TypeConverter@@YAPBDXZ 1000e2d0 f   PlugInUtilities:TypeConverter.obj
 0001:0000d2e0       ??$toString@PAVAebInstallTransaction@@@TypeConverter@@YAPBDXZ 1000e2e0 f   PlugInUtilities:TypeConverter.obj
 0001:0000d2f0       ??$toString@VApplicationWindow@@@TypeConverter@@YAPBDXZ 1000e2f0 f   PlugInUtilities:TypeConverter.obj
 0001:0000d300       ??$toString@V?$vector@PAVApplicationWindow@@V?$allocator@PAVApplicationWindow@@@std@@@std@@@TypeConverter@@YAPBDXZ 1000e300 f   PlugInUtilities:TypeConverter.obj
 0001:0000d310       ??$toString@V?$vector@VApplicationWindow@@V?$allocator@VApplicationWindow@@@std@@@std@@@TypeConverter@@YAPBDXZ 1000e310 f   PlugInUtilities:TypeConverter.obj
 0001:0000d320       ??$toString@PAVApplicationWindow@@@TypeConverter@@YAPBDXZ 1000e320 f   PlugInUtilities:TypeConverter.obj
 0001:0000d330       ??$toString@VAnimation@@@TypeConverter@@YAPBDXZ 1000e330 f   PlugInUtilities:TypeConverter.obj
 0001:0000d340       ??$toString@V?$vector@PAVAnimation@@V?$allocator@PAVAnimation@@@std@@@std@@@TypeConverter@@YAPBDXZ 1000e340 f   PlugInUtilities:TypeConverter.obj
 0001:0000d350       ??$toString@V?$vector@VAnimation@@V?$allocator@VAnimation@@@std@@@std@@@TypeConverter@@YAPBDXZ 1000e350 f   PlugInUtilities:TypeConverter.obj
 0001:0000d360       ??$toString@PAVAnimation@@@TypeConverter@@YAPBDXZ 1000e360 f   PlugInUtilities:TypeConverter.obj
 0001:0000d370       ??$toString@VAnimationController@@@TypeConverter@@YAPBDXZ 1000e370 f   PlugInUtilities:TypeConverter.obj
 0001:0000d380       ??$toString@V?$vector@PAVAnimationController@@V?$allocator@PAVAnimationController@@@std@@@std@@@TypeConverter@@YAPBDXZ 1000e380 f   PlugInUtilities:TypeConverter.obj
 0001:0000d390       ??$toString@V?$vector@VAnimationController@@V?$allocator@VAnimationController@@@std@@@std@@@TypeConverter@@YAPBDXZ 1000e390 f   PlugInUtilities:TypeConverter.obj
 0001:0000d3a0       ??$toString@PAVAnimationController@@@TypeConverter@@YAPBDXZ 1000e3a0 f   PlugInUtilities:TypeConverter.obj
 0001:0000d3b0       ??$toString@VAnnotationElement@@@TypeConverter@@YAPBDXZ 1000e3b0 f   PlugInUtilities:TypeConverter.obj
 0001:0000d3c0       ??$toString@V?$vector@PAVAnnotationElement@@V?$allocator@PAVAnnotationElement@@@std@@@std@@@TypeConverter@@YAPBDXZ 1000e3c0 f   PlugInUtilities:TypeConverter.obj
 0001:0000d3d0       ??$toString@V?$vector@VAnnotationElement@@V?$allocator@VAnnotationElement@@@std@@@std@@@TypeConverter@@YAPBDXZ 1000e3d0 f   PlugInUtilities:TypeConverter.obj
 0001:0000d3e0       ??$toString@PAVAnnotationElement@@@TypeConverter@@YAPBDXZ 1000e3e0 f   PlugInUtilities:TypeConverter.obj
 0001:0000d3f0       ??$toString@VAnnotationLayer@@@TypeConverter@@YAPBDXZ 1000e3f0 f   PlugInUtilities:TypeConverter.obj
 0001:0000d400       ??$toString@V?$vector@PAVAnnotationLayer@@V?$allocator@PAVAnnotationLayer@@@std@@@std@@@TypeConverter@@YAPBDXZ 1000e400 f   PlugInUtilities:TypeConverter.obj
 0001:0000d410       ??$toString@V?$vector@VAnnotationLayer@@V?$allocator@VAnnotationLayer@@@std@@@std@@@TypeConverter@@YAPBDXZ 1000e410 f   PlugInUtilities:TypeConverter.obj
 0001:0000d420       ??$toString@PAVAnnotationLayer@@@TypeConverter@@YAPBDXZ 1000e420 f   PlugInUtilities:TypeConverter.obj
 0001:0000d430       ??$toString@VAny@@@TypeConverter@@YAPBDXZ 1000e430 f   PlugInUtilities:TypeConverter.obj
 0001:0000d440       ??$toString@V?$vector@PAVAny@@V?$allocator@PAVAny@@@std@@@std@@@TypeConverter@@YAPBDXZ 1000e440 f   PlugInUtilities:TypeConverter.obj
 0001:0000d450       ??$toString@V?$vector@VAny@@V?$allocator@VAny@@@std@@@std@@@TypeConverter@@YAPBDXZ 1000e450 f   PlugInUtilities:TypeConverter.obj
 0001:0000d460       ??$toString@PAVAny@@@TypeConverter@@YAPBDXZ 1000e460 f   PlugInUtilities:TypeConverter.obj
 0001:0000d470       ??$toString@VAoiElement@@@TypeConverter@@YAPBDXZ 1000e470 f   PlugInUtilities:TypeConverter.obj
 0001:0000d480       ??$toString@V?$vector@PAVAoiElement@@V?$allocator@PAVAoiElement@@@std@@@std@@@TypeConverter@@YAPBDXZ 1000e480 f   PlugInUtilities:TypeConverter.obj
 0001:0000d490       ??$toString@V?$vector@VAoiElement@@V?$allocator@VAoiElement@@@std@@@std@@@TypeConverter@@YAPBDXZ 1000e490 f   PlugInUtilities:TypeConverter.obj
 0001:0000d4a0       ??$toString@PAVAoiElement@@@TypeConverter@@YAPBDXZ 1000e4a0 f   PlugInUtilities:TypeConverter.obj
 0001:0000d4b0       ??$toString@VAoiLayer@@@TypeConverter@@YAPBDXZ 1000e4b0 f   PlugInUtilities:TypeConverter.obj
 0001:0000d4c0       ??$toString@V?$vector@PAVAoiLayer@@V?$allocator@PAVAoiLayer@@@std@@@std@@@TypeConverter@@YAPBDXZ 1000e4c0 f   PlugInUtilities:TypeConverter.obj
 0001:0000d4d0       ??$toString@V?$vector@VAoiLayer@@V?$allocator@VAoiLayer@@@std@@@std@@@TypeConverter@@YAPBDXZ 1000e4d0 f   PlugInUtilities:TypeConverter.obj
 0001:0000d4e0       ??$toString@PAVAoiLayer@@@TypeConverter@@YAPBDXZ 1000e4e0 f   PlugInUtilities:TypeConverter.obj
 0001:0000d4f0       ??$toString@VBitMask@@@TypeConverter@@YAPBDXZ 1000e4f0 f   PlugInUtilities:TypeConverter.obj
 0001:0000d500       ??$toString@V?$vector@PAVBitMask@@V?$allocator@PAVBitMask@@@std@@@std@@@TypeConverter@@YAPBDXZ 1000e500 f   PlugInUtilities:TypeConverter.obj
 0001:0000d510       ??$toString@V?$vector@VBitMask@@V?$allocator@VBitMask@@@std@@@std@@@TypeConverter@@YAPBDXZ 1000e510 f   PlugInUtilities:TypeConverter.obj
 0001:0000d520       ??$toString@PAVBitMask@@@TypeConverter@@YAPBDXZ 1000e520 f   PlugInUtilities:TypeConverter.obj
 0001:0000d530       ??$toString@VCartesianPlot@@@TypeConverter@@YAPBDXZ 1000e530 f   PlugInUtilities:TypeConverter.obj
 0001:0000d540       ??$toString@V?$vector@PAVCartesianPlot@@V?$allocator@PAVCartesianPlot@@@std@@@std@@@TypeConverter@@YAPBDXZ 1000e540 f   PlugInUtilities:TypeConverter.obj
 0001:0000d550       ??$toString@V?$vector@VCartesianPlot@@V?$allocator@VCartesianPlot@@@std@@@std@@@TypeConverter@@YAPBDXZ 1000e550 f   PlugInUtilities:TypeConverter.obj
 0001:0000d560       ??$toString@PAVCartesianPlot@@@TypeConverter@@YAPBDXZ 1000e560 f   PlugInUtilities:TypeConverter.obj
 0001:0000d570       ??$toString@VClassification@@@TypeConverter@@YAPBDXZ 1000e570 f   PlugInUtilities:TypeConverter.obj
 0001:0000d580       ??$toString@V?$vector@PAVClassification@@V?$allocator@PAVClassification@@@std@@@std@@@TypeConverter@@YAPBDXZ 1000e580 f   PlugInUtilities:TypeConverter.obj
 0001:0000d590       ??$toString@V?$vector@VClassification@@V?$allocator@VClassification@@@std@@@std@@@TypeConverter@@YAPBDXZ 1000e590 f   PlugInUtilities:TypeConverter.obj
 0001:0000d5a0       ??$toString@PAVClassification@@@TypeConverter@@YAPBDXZ 1000e5a0 f   PlugInUtilities:TypeConverter.obj
 0001:0000d5b0       ??$toString@VClassificationLayer@@@TypeConverter@@YAPBDXZ 1000e5b0 f   PlugInUtilities:TypeConverter.obj
 0001:0000d5c0       ??$toString@V?$vector@PAVClassificationLayer@@V?$allocator@PAVClassificationLayer@@@std@@@std@@@TypeConverter@@YAPBDXZ 1000e5c0 f   PlugInUtilities:TypeConverter.obj
 0001:0000d5d0       ??$toString@V?$vector@VClassificationLayer@@V?$allocator@VClassificationLayer@@@std@@@std@@@TypeConverter@@YAPBDXZ 1000e5d0 f   PlugInUtilities:TypeConverter.obj
 0001:0000d5e0       ??$toString@PAVClassificationLayer@@@TypeConverter@@YAPBDXZ 1000e5e0 f   PlugInUtilities:TypeConverter.obj
 0001:0000d5f0       ??$toString@VColorType@@@TypeConverter@@YAPBDXZ 1000e5f0 f   PlugInUtilities:TypeConverter.obj
 0001:0000d600       ??$toString@V?$vector@PAVColorType@@V?$allocator@PAVColorType@@@std@@@std@@@TypeConverter@@YAPBDXZ 1000e600 f   PlugInUtilities:TypeConverter.obj
 0001:0000d610       ??$toString@V?$vector@VColorType@@V?$allocator@VColorType@@@std@@@std@@@TypeConverter@@YAPBDXZ 1000e610 f   PlugInUtilities:TypeConverter.obj
 0001:0000d620       ??$toString@PAVColorType@@@TypeConverter@@YAPBDXZ 1000e620 f   PlugInUtilities:TypeConverter.obj
 0001:0000d630       ??$toString@VDataDescriptor@@@TypeConverter@@YAPBDXZ 1000e630 f   PlugInUtilities:TypeConverter.obj
 0001:0000d640       ??$toString@V?$vector@PAVDataDescriptor@@V?$allocator@PAVDataDescriptor@@@std@@@std@@@TypeConverter@@YAPBDXZ 1000e640 f   PlugInUtilities:TypeConverter.obj
 0001:0000d650       ??$toString@V?$vector@VDataDescriptor@@V?$allocator@VDataDescriptor@@@std@@@std@@@TypeConverter@@YAPBDXZ 1000e650 f   PlugInUtilities:TypeConverter.obj
 0001:0000d660       ??$toString@PAVDataDescriptor@@@TypeConverter@@YAPBDXZ 1000e660 f   PlugInUtilities:TypeConverter.obj
 0001:0000d670       ??$toString@VDataElement@@@TypeConverter@@YAPBDXZ 1000e670 f   PlugInUtilities:TypeConverter.obj
 0001:0000d680       ??$toString@V?$vector@PAVDataElement@@V?$allocator@PAVDataElement@@@std@@@std@@@TypeConverter@@YAPBDXZ 1000e680 f   PlugInUtilities:TypeConverter.obj
 0001:0000d690       ??$toString@V?$vector@VDataElement@@V?$allocator@VDataElement@@@std@@@std@@@TypeConverter@@YAPBDXZ 1000e690 f   PlugInUtilities:TypeConverter.obj
 0001:0000d6a0       ??$toString@PAVDataElement@@@TypeConverter@@YAPBDXZ 1000e6a0 f   PlugInUtilities:TypeConverter.obj
 0001:0000d6b0       ??$toString@VDataElementGroup@@@TypeConverter@@YAPBDXZ 1000e6b0 f   PlugInUtilities:TypeConverter.obj
 0001:0000d6c0       ??$toString@V?$vector@PAVDataElementGroup@@V?$allocator@PAVDataElementGroup@@@std@@@std@@@TypeConverter@@YAPBDXZ 1000e6c0 f   PlugInUtilities:TypeConverter.obj
 0001:0000d6d0       ??$toString@V?$vector@VDataElementGroup@@V?$allocator@VDataElementGroup@@@std@@@std@@@TypeConverter@@YAPBDXZ 1000e6d0 f   PlugInUtilities:TypeConverter.obj
 0001:0000d6e0       ??$toString@PAVDataElementGroup@@@TypeConverter@@YAPBDXZ 1000e6e0 f   PlugInUtilities:TypeConverter.obj
 0001:0000d6f0       ??$toString@VDataRequest@@@TypeConverter@@YAPBDXZ 1000e6f0 f   PlugInUtilities:TypeConverter.obj
 0001:0000d700       ??$toString@V?$vector@PAVDataRequest@@V?$allocator@PAVDataRequest@@@std@@@std@@@TypeConverter@@YAPBDXZ 1000e700 f   PlugInUtilities:TypeConverter.obj
 0001:0000d710       ??$toString@V?$vector@VDataRequest@@V?$allocator@VDataRequest@@@std@@@std@@@TypeConverter@@YAPBDXZ 1000e710 f   PlugInUtilities:TypeConverter.obj
 0001:0000d720       ??$toString@PAVDataRequest@@@TypeConverter@@YAPBDXZ 1000e720 f   PlugInUtilities:TypeConverter.obj
 0001:0000d730       ??$toString@VDataVariantAnyData@@@TypeConverter@@YAPBDXZ 1000e730 f   PlugInUtilities:TypeConverter.obj
 0001:0000d740       ??$toString@V?$vector@PAVDataVariantAnyData@@V?$allocator@PAVDataVariantAnyData@@@std@@@std@@@TypeConverter@@YAPBDXZ 1000e740 f   PlugInUtilities:TypeConverter.obj
 0001:0000d750       ??$toString@V?$vector@VDataVariantAnyData@@V?$allocator@VDataVariantAnyData@@@std@@@std@@@TypeConverter@@YAPBDXZ 1000e750 f   PlugInUtilities:TypeConverter.obj
 0001:0000d760       ??$toString@PAVDataVariantAnyData@@@TypeConverter@@YAPBDXZ 1000e760 f   PlugInUtilities:TypeConverter.obj
 0001:0000d770       ??$toString@VDateTime@@@TypeConverter@@YAPBDXZ 1000e770 f   PlugInUtilities:TypeConverter.obj
 0001:0000d780       ??$toString@V?$vector@PAVDateTime@@V?$allocator@PAVDateTime@@@std@@@std@@@TypeConverter@@YAPBDXZ 1000e780 f   PlugInUtilities:TypeConverter.obj
 0001:0000d790       ??$toString@V?$vector@VDateTime@@V?$allocator@VDateTime@@@std@@@std@@@TypeConverter@@YAPBDXZ 1000e790 f   PlugInUtilities:TypeConverter.obj
 0001:0000d7a0       ??$toString@PAVDateTime@@@TypeConverter@@YAPBDXZ 1000e7a0 f   PlugInUtilities:TypeConverter.obj
 0001:0000d7b0       ??$toString@VDimensionDescriptor@@@TypeConverter@@YAPBDXZ 1000e7b0 f   PlugInUtilities:TypeConverter.obj
 0001:0000d7c0       ??$toString@V?$vector@PAVDimensionDescriptor@@V?$allocator@PAVDimensionDescriptor@@@std@@@std@@@TypeConverter@@YAPBDXZ 1000e7c0 f   PlugInUtilities:TypeConverter.obj
 0001:0000d7d0       ??$toString@V?$vector@VDimensionDescriptor@@V?$allocator@VDimensionDescriptor@@@std@@@std@@@TypeConverter@@YAPBDXZ 1000e7d0 f   PlugInUtilities:TypeConverter.obj
 0001:0000d7e0       ??$toString@PAVDimensionDescriptor@@@TypeConverter@@YAPBDXZ 1000e7e0 f   PlugInUtilities:TypeConverter.obj
 0001:0000d7f0       ??$toString@VDynamicObject@@@TypeConverter@@YAPBDXZ 1000e7f0 f   PlugInUtilities:TypeConverter.obj
 0001:0000d800       ??$toString@V?$vector@PAVDynamicObject@@V?$allocator@PAVDynamicObject@@@std@@@std@@@TypeConverter@@YAPBDXZ 1000e800 f   PlugInUtilities:TypeConverter.obj
 0001:0000d810       ??$toString@V?$vector@VDynamicObject@@V?$allocator@VDynamicObject@@@std@@@std@@@TypeConverter@@YAPBDXZ 1000e810 f   PlugInUtilities:TypeConverter.obj
 0001:0000d820       ??$toString@PAVDynamicObject@@@TypeConverter@@YAPBDXZ 1000e820 f   PlugInUtilities:TypeConverter.obj
 0001:0000d830       ??$toString@VExecutableAgent@@@TypeConverter@@YAPBDXZ 1000e830 f   PlugInUtilities:TypeConverter.obj
 0001:0000d840       ??$toString@V?$vector@PAVExecutableAgent@@V?$allocator@PAVExecutableAgent@@@std@@@std@@@TypeConverter@@YAPBDXZ 1000e840 f   PlugInUtilities:TypeConverter.obj
 0001:0000d850       ??$toString@V?$vector@VExecutableAgent@@V?$allocator@VExecutableAgent@@@std@@@std@@@TypeConverter@@YAPBDXZ 1000e850 f   PlugInUtilities:TypeConverter.obj
 0001:0000d860       ??$toString@PAVExecutableAgent@@@TypeConverter@@YAPBDXZ 1000e860 f   PlugInUtilities:TypeConverter.obj
 0001:0000d870       ??$toString@VExportAgent@@@TypeConverter@@YAPBDXZ 1000e870 f   PlugInUtilities:TypeConverter.obj
 0001:0000d880       ??$toString@V?$vector@PAVExportAgent@@V?$allocator@PAVExportAgent@@@std@@@std@@@TypeConverter@@YAPBDXZ 1000e880 f   PlugInUtilities:TypeConverter.obj
 0001:0000d890       ??$toString@V?$vector@VExportAgent@@V?$allocator@VExportAgent@@@std@@@std@@@TypeConverter@@YAPBDXZ 1000e890 f   PlugInUtilities:TypeConverter.obj
 0001:0000d8a0       ??$toString@PAVExportAgent@@@TypeConverter@@YAPBDXZ 1000e8a0 f   PlugInUtilities:TypeConverter.obj
 0001:0000d8b0       ??$toString@VFileDescriptor@@@TypeConverter@@YAPBDXZ 1000e8b0 f   PlugInUtilities:TypeConverter.obj
 0001:0000d8c0       ??$toString@V?$vector@PAVFileDescriptor@@V?$allocator@PAVFileDescriptor@@@std@@@std@@@TypeConverter@@YAPBDXZ 1000e8c0 f   PlugInUtilities:TypeConverter.obj
 0001:0000d8d0       ??$toString@V?$vector@VFileDescriptor@@V?$allocator@VFileDescriptor@@@std@@@std@@@TypeConverter@@YAPBDXZ 1000e8d0 f   PlugInUtilities:TypeConverter.obj
 0001:0000d8e0       ??$toString@PAVFileDescriptor@@@TypeConverter@@YAPBDXZ 1000e8e0 f   PlugInUtilities:TypeConverter.obj
 0001:0000d8f0       ??$toString@VFileFinder@@@TypeConverter@@YAPBDXZ 1000e8f0 f   PlugInUtilities:TypeConverter.obj
 0001:0000d900       ??$toString@V?$vector@PAVFileFinder@@V?$allocator@PAVFileFinder@@@std@@@std@@@TypeConverter@@YAPBDXZ 1000e900 f   PlugInUtilities:TypeConverter.obj
 0001:0000d910       ??$toString@V?$vector@VFileFinder@@V?$allocator@VFileFinder@@@std@@@std@@@TypeConverter@@YAPBDXZ 1000e910 f   PlugInUtilities:TypeConverter.obj
 0001:0000d920       ??$toString@PAVFileFinder@@@TypeConverter@@YAPBDXZ 1000e920 f   PlugInUtilities:TypeConverter.obj
 0001:0000d930       ??$toString@VFilename@@@TypeConverter@@YAPBDXZ 1000e930 f   PlugInUtilities:TypeConverter.obj
 0001:0000d940       ??$toString@V?$vector@PAVFilename@@V?$allocator@PAVFilename@@@std@@@std@@@TypeConverter@@YAPBDXZ 1000e940 f   PlugInUtilities:TypeConverter.obj
 0001:0000d950       ??$toString@V?$vector@VFilename@@V?$allocator@VFilename@@@std@@@std@@@TypeConverter@@YAPBDXZ 1000e950 f   PlugInUtilities:TypeConverter.obj
 0001:0000d960       ??$toString@PAVFilename@@@TypeConverter@@YAPBDXZ 1000e960 f   PlugInUtilities:TypeConverter.obj
 0001:0000d970       ??$toString@VFloatComplex@@@TypeConverter@@YAPBDXZ 1000e970 f   PlugInUtilities:TypeConverter.obj
 0001:0000d980       ??$toString@V?$vector@PAVFloatComplex@@V?$allocator@PAVFloatComplex@@@std@@@std@@@TypeConverter@@YAPBDXZ 1000e980 f   PlugInUtilities:TypeConverter.obj
 0001:0000d990       ??$toString@V?$vector@VFloatComplex@@V?$allocator@VFloatComplex@@@std@@@std@@@TypeConverter@@YAPBDXZ 1000e990 f   PlugInUtilities:TypeConverter.obj
 0001:0000d9a0       ??$toString@PAVFloatComplex@@@TypeConverter@@YAPBDXZ 1000e9a0 f   PlugInUtilities:TypeConverter.obj
 0001:0000d9b0       ??$toString@VFont@@@TypeConverter@@YAPBDXZ 1000e9b0 f   PlugInUtilities:TypeConverter.obj
 0001:0000d9c0       ??$toString@V?$vector@PAVFont@@V?$allocator@PAVFont@@@std@@@std@@@TypeConverter@@YAPBDXZ 1000e9c0 f   PlugInUtilities:TypeConverter.obj
 0001:0000d9d0       ??$toString@V?$vector@VFont@@V?$allocator@VFont@@@std@@@std@@@TypeConverter@@YAPBDXZ 1000e9d0 f   PlugInUtilities:TypeConverter.obj
 0001:0000d9e0       ??$toString@PAVFont@@@TypeConverter@@YAPBDXZ 1000e9e0 f   PlugInUtilities:TypeConverter.obj
 0001:0000d9f0       ??$toString@VGcpLayer@@@TypeConverter@@YAPBDXZ 1000e9f0 f   PlugInUtilities:TypeConverter.obj
 0001:0000da00       ??$toString@V?$vector@PAVGcpLayer@@V?$allocator@PAVGcpLayer@@@std@@@std@@@TypeConverter@@YAPBDXZ 1000ea00 f   PlugInUtilities:TypeConverter.obj
 0001:0000da10       ??$toString@V?$vector@VGcpLayer@@V?$allocator@VGcpLayer@@@std@@@std@@@TypeConverter@@YAPBDXZ 1000ea10 f   PlugInUtilities:TypeConverter.obj
 0001:0000da20       ??$toString@PAVGcpLayer@@@TypeConverter@@YAPBDXZ 1000ea20 f   PlugInUtilities:TypeConverter.obj
 0001:0000da30       ??$toString@VGcpList@@@TypeConverter@@YAPBDXZ 1000ea30 f   PlugInUtilities:TypeConverter.obj
 0001:0000da40       ??$toString@V?$vector@PAVGcpList@@V?$allocator@PAVGcpList@@@std@@@std@@@TypeConverter@@YAPBDXZ 1000ea40 f   PlugInUtilities:TypeConverter.obj
 0001:0000da50       ??$toString@V?$vector@VGcpList@@V?$allocator@VGcpList@@@std@@@std@@@TypeConverter@@YAPBDXZ 1000ea50 f   PlugInUtilities:TypeConverter.obj
 0001:0000da60       ??$toString@PAVGcpList@@@TypeConverter@@YAPBDXZ 1000ea60 f   PlugInUtilities:TypeConverter.obj
 0001:0000da70       ??$toString@VGraphicElement@@@TypeConverter@@YAPBDXZ 1000ea70 f   PlugInUtilities:TypeConverter.obj
 0001:0000da80       ??$toString@V?$vector@PAVGraphicElement@@V?$allocator@PAVGraphicElement@@@std@@@std@@@TypeConverter@@YAPBDXZ 1000ea80 f   PlugInUtilities:TypeConverter.obj
 0001:0000da90       ??$toString@V?$vector@VGraphicElement@@V?$allocator@VGraphicElement@@@std@@@std@@@TypeConverter@@YAPBDXZ 1000ea90 f   PlugInUtilities:TypeConverter.obj
 0001:0000daa0       ??$toString@PAVGraphicElement@@@TypeConverter@@YAPBDXZ 1000eaa0 f   PlugInUtilities:TypeConverter.obj
 0001:0000dab0       ??$toString@VGraphicLayer@@@TypeConverter@@YAPBDXZ 1000eab0 f   PlugInUtilities:TypeConverter.obj
 0001:0000dac0       ??$toString@V?$vector@PAVGraphicLayer@@V?$allocator@PAVGraphicLayer@@@std@@@std@@@TypeConverter@@YAPBDXZ 1000eac0 f   PlugInUtilities:TypeConverter.obj
 0001:0000dad0       ??$toString@V?$vector@VGraphicLayer@@V?$allocator@VGraphicLayer@@@std@@@std@@@TypeConverter@@YAPBDXZ 1000ead0 f   PlugInUtilities:TypeConverter.obj
 0001:0000dae0       ??$toString@PAVGraphicLayer@@@TypeConverter@@YAPBDXZ 1000eae0 f   PlugInUtilities:TypeConverter.obj
 0001:0000daf0       ??$toString@VHistogramPlot@@@TypeConverter@@YAPBDXZ 1000eaf0 f   PlugInUtilities:TypeConverter.obj
 0001:0000db00       ??$toString@V?$vector@PAVHistogramPlot@@V?$allocator@PAVHistogramPlot@@@std@@@std@@@TypeConverter@@YAPBDXZ 1000eb00 f   PlugInUtilities:TypeConverter.obj
 0001:0000db10       ??$toString@V?$vector@VHistogramPlot@@V?$allocator@VHistogramPlot@@@std@@@std@@@TypeConverter@@YAPBDXZ 1000eb10 f   PlugInUtilities:TypeConverter.obj
 0001:0000db20       ??$toString@PAVHistogramPlot@@@TypeConverter@@YAPBDXZ 1000eb20 f   PlugInUtilities:TypeConverter.obj
 0001:0000db30       ??$toString@VImportAgent@@@TypeConverter@@YAPBDXZ 1000eb30 f   PlugInUtilities:TypeConverter.obj
 0001:0000db40       ??$toString@V?$vector@PAVImportAgent@@V?$allocator@PAVImportAgent@@@std@@@std@@@TypeConverter@@YAPBDXZ 1000eb40 f   PlugInUtilities:TypeConverter.obj
 0001:0000db50       ??$toString@V?$vector@VImportAgent@@V?$allocator@VImportAgent@@@std@@@std@@@TypeConverter@@YAPBDXZ 1000eb50 f   PlugInUtilities:TypeConverter.obj
 0001:0000db60       ??$toString@PAVImportAgent@@@TypeConverter@@YAPBDXZ 1000eb60 f   PlugInUtilities:TypeConverter.obj
 0001:0000db70       ??$toString@VIntegerComplex@@@TypeConverter@@YAPBDXZ 1000eb70 f   PlugInUtilities:TypeConverter.obj
 0001:0000db80       ??$toString@V?$vector@PAVIntegerComplex@@V?$allocator@PAVIntegerComplex@@@std@@@std@@@TypeConverter@@YAPBDXZ 1000eb80 f   PlugInUtilities:TypeConverter.obj
 0001:0000db90       ??$toString@V?$vector@VIntegerComplex@@V?$allocator@VIntegerComplex@@@std@@@std@@@TypeConverter@@YAPBDXZ 1000eb90 f   PlugInUtilities:TypeConverter.obj
 0001:0000dba0       ??$toString@PAVIntegerComplex@@@TypeConverter@@YAPBDXZ 1000eba0 f   PlugInUtilities:TypeConverter.obj
 0001:0000dbb0       ??$toString@VInt64@@@TypeConverter@@YAPBDXZ 1000ebb0 f   PlugInUtilities:TypeConverter.obj
 0001:0000dbc0       ??$toString@V?$vector@PAVInt64@@V?$allocator@PAVInt64@@@std@@@std@@@TypeConverter@@YAPBDXZ 1000ebc0 f   PlugInUtilities:TypeConverter.obj
 0001:0000dbd0       ??$toString@V?$vector@VInt64@@V?$allocator@VInt64@@@std@@@std@@@TypeConverter@@YAPBDXZ 1000ebd0 f   PlugInUtilities:TypeConverter.obj
 0001:0000dbe0       ??$toString@VLatLonLayer@@@TypeConverter@@YAPBDXZ 1000ebe0 f   PlugInUtilities:TypeConverter.obj
 0001:0000dbf0       ??$toString@V?$vector@PAVLatLonLayer@@V?$allocator@PAVLatLonLayer@@@std@@@std@@@TypeConverter@@YAPBDXZ 1000ebf0 f   PlugInUtilities:TypeConverter.obj
 0001:0000dc00       ??$toString@V?$vector@VLatLonLayer@@V?$allocator@VLatLonLayer@@@std@@@std@@@TypeConverter@@YAPBDXZ 1000ec00 f   PlugInUtilities:TypeConverter.obj
 0001:0000dc10       ??$toString@PAVLatLonLayer@@@TypeConverter@@YAPBDXZ 1000ec10 f   PlugInUtilities:TypeConverter.obj
 0001:0000dc20       ??$toString@VLayer@@@TypeConverter@@YAPBDXZ 1000ec20 f   PlugInUtilities:TypeConverter.obj
 0001:0000dc30       ??$toString@V?$vector@PAVLayer@@V?$allocator@PAVLayer@@@std@@@std@@@TypeConverter@@YAPBDXZ 1000ec30 f   PlugInUtilities:TypeConverter.obj
 0001:0000dc40       ??$toString@V?$vector@VLayer@@V?$allocator@VLayer@@@std@@@std@@@TypeConverter@@YAPBDXZ 1000ec40 f   PlugInUtilities:TypeConverter.obj
 0001:0000dc50       ??$toString@PAVLayer@@@TypeConverter@@YAPBDXZ 1000ec50 f   PlugInUtilities:TypeConverter.obj
 0001:0000dc60       ??$toString@V?$Location@N$01@Opticks@@@TypeConverter@@YAPBDXZ 1000ec60 f   PlugInUtilities:TypeConverter.obj
 0001:0000dc70       ??$toString@V?$vector@PAV?$Location@N$01@Opticks@@V?$allocator@PAV?$Location@N$01@Opticks@@@std@@@std@@@TypeConverter@@YAPBDXZ 1000ec70 f   PlugInUtilities:TypeConverter.obj
 0001:0000dc80       ??$toString@V?$vector@V?$Location@N$01@Opticks@@V?$allocator@V?$Location@N$01@Opticks@@@std@@@std@@@TypeConverter@@YAPBDXZ 1000ec80 f   PlugInUtilities:TypeConverter.obj
 0001:0000dc90       ??$toString@VMeasurementLayer@@@TypeConverter@@YAPBDXZ 1000ec90 f   PlugInUtilities:TypeConverter.obj
 0001:0000dca0       ??$toString@V?$vector@PAVMeasurementLayer@@V?$allocator@PAVMeasurementLayer@@@std@@@std@@@TypeConverter@@YAPBDXZ 1000eca0 f   PlugInUtilities:TypeConverter.obj
 0001:0000dcb0       ??$toString@V?$vector@VMeasurementLayer@@V?$allocator@VMeasurementLayer@@@std@@@std@@@TypeConverter@@YAPBDXZ 1000ecb0 f   PlugInUtilities:TypeConverter.obj
 0001:0000dcc0       ??$toString@PAVMeasurementLayer@@@TypeConverter@@YAPBDXZ 1000ecc0 f   PlugInUtilities:TypeConverter.obj
 0001:0000dcd0       ??$toString@VOrthographicView@@@TypeConverter@@YAPBDXZ 1000ecd0 f   PlugInUtilities:TypeConverter.obj
 0001:0000dce0       ??$toString@V?$vector@PAVOrthographicView@@V?$allocator@PAVOrthographicView@@@std@@@std@@@TypeConverter@@YAPBDXZ 1000ece0 f   PlugInUtilities:TypeConverter.obj
 0001:0000dcf0       ??$toString@V?$vector@VOrthographicView@@V?$allocator@VOrthographicView@@@std@@@std@@@TypeConverter@@YAPBDXZ 1000ecf0 f   PlugInUtilities:TypeConverter.obj
 0001:0000dd00       ??$toString@PAVOrthographicView@@@TypeConverter@@YAPBDXZ 1000ed00 f   PlugInUtilities:TypeConverter.obj
 0001:0000dd10       ??$toString@VPerspectiveView@@@TypeConverter@@YAPBDXZ 1000ed10 f   PlugInUtilities:TypeConverter.obj
 0001:0000dd20       ??$toString@V?$vector@PAVPerspectiveView@@V?$allocator@PAVPerspectiveView@@@std@@@std@@@TypeConverter@@YAPBDXZ 1000ed20 f   PlugInUtilities:TypeConverter.obj
 0001:0000dd30       ??$toString@V?$vector@VPerspectiveView@@V?$allocator@VPerspectiveView@@@std@@@std@@@TypeConverter@@YAPBDXZ 1000ed30 f   PlugInUtilities:TypeConverter.obj
 0001:0000dd40       ??$toString@PAVPerspectiveView@@@TypeConverter@@YAPBDXZ 1000ed40 f   PlugInUtilities:TypeConverter.obj
 0001:0000dd50       ??$toString@V?$Location@H$01@Opticks@@@TypeConverter@@YAPBDXZ 1000ed50 f   PlugInUtilities:TypeConverter.obj
 0001:0000dd60       ??$toString@V?$vector@PAV?$Location@H$01@Opticks@@V?$allocator@PAV?$Location@H$01@Opticks@@@std@@@std@@@TypeConverter@@YAPBDXZ 1000ed60 f   PlugInUtilities:TypeConverter.obj
 0001:0000dd70       ??$toString@V?$vector@V?$Location@H$01@Opticks@@V?$allocator@V?$Location@H$01@Opticks@@@std@@@std@@@TypeConverter@@YAPBDXZ 1000ed70 f   PlugInUtilities:TypeConverter.obj
 0001:0000dd80       ??$toString@VPlotView@@@TypeConverter@@YAPBDXZ 1000ed80 f   PlugInUtilities:TypeConverter.obj
 0001:0000dd90       ??$toString@V?$vector@PAVPlotView@@V?$allocator@PAVPlotView@@@std@@@std@@@TypeConverter@@YAPBDXZ 1000ed90 f   PlugInUtilities:TypeConverter.obj
 0001:0000dda0       ??$toString@V?$vector@VPlotView@@V?$allocator@VPlotView@@@std@@@std@@@TypeConverter@@YAPBDXZ 1000eda0 f   PlugInUtilities:TypeConverter.obj
 0001:0000ddb0       ??$toString@PAVPlotView@@@TypeConverter@@YAPBDXZ 1000edb0 f   PlugInUtilities:TypeConverter.obj
 0001:0000ddc0       ??$toString@VPlotWidget@@@TypeConverter@@YAPBDXZ 1000edc0 f   PlugInUtilities:TypeConverter.obj
 0001:0000ddd0       ??$toString@V?$vector@PAVPlotWidget@@V?$allocator@PAVPlotWidget@@@std@@@std@@@TypeConverter@@YAPBDXZ 1000edd0 f   PlugInUtilities:TypeConverter.obj
 0001:0000dde0       ??$toString@V?$vector@VPlotWidget@@V?$allocator@VPlotWidget@@@std@@@std@@@TypeConverter@@YAPBDXZ 1000ede0 f   PlugInUtilities:TypeConverter.obj
 0001:0000ddf0       ??$toString@PAVPlotWidget@@@TypeConverter@@YAPBDXZ 1000edf0 f   PlugInUtilities:TypeConverter.obj
 0001:0000de00       ??$toString@VPlotWindow@@@TypeConverter@@YAPBDXZ 1000ee00 f   PlugInUtilities:TypeConverter.obj
 0001:0000de10       ??$toString@V?$vector@PAVPlotWindow@@V?$allocator@PAVPlotWindow@@@std@@@std@@@TypeConverter@@YAPBDXZ 1000ee10 f   PlugInUtilities:TypeConverter.obj
 0001:0000de20       ??$toString@V?$vector@VPlotWindow@@V?$allocator@VPlotWindow@@@std@@@std@@@TypeConverter@@YAPBDXZ 1000ee20 f   PlugInUtilities:TypeConverter.obj
 0001:0000de30       ??$toString@PAVPlotWindow@@@TypeConverter@@YAPBDXZ 1000ee30 f   PlugInUtilities:TypeConverter.obj
 0001:0000de40       ??$toString@VPolarPlot@@@TypeConverter@@YAPBDXZ 1000ee40 f   PlugInUtilities:TypeConverter.obj
 0001:0000de50       ??$toString@V?$vector@PAVPolarPlot@@V?$allocator@PAVPolarPlot@@@std@@@std@@@TypeConverter@@YAPBDXZ 1000ee50 f   PlugInUtilities:TypeConverter.obj
 0001:0000de60       ??$toString@V?$vector@VPolarPlot@@V?$allocator@VPolarPlot@@@std@@@std@@@TypeConverter@@YAPBDXZ 1000ee60 f   PlugInUtilities:TypeConverter.obj
 0001:0000de70       ??$toString@PAVPolarPlot@@@TypeConverter@@YAPBDXZ 1000ee70 f   PlugInUtilities:TypeConverter.obj
 0001:0000de80       ??$toString@VProductView@@@TypeConverter@@YAPBDXZ 1000ee80 f   PlugInUtilities:TypeConverter.obj
 0001:0000de90       ??$toString@V?$vector@PAVProductView@@V?$allocator@PAVProductView@@@std@@@std@@@TypeConverter@@YAPBDXZ 1000ee90 f   PlugInUtilities:TypeConverter.obj
 0001:0000dea0       ??$toString@V?$vector@VProductView@@V?$allocator@VProductView@@@std@@@std@@@TypeConverter@@YAPBDXZ 1000eea0 f   PlugInUtilities:TypeConverter.obj
 0001:0000deb0       ??$toString@PAVProductView@@@TypeConverter@@YAPBDXZ 1000eeb0 f   PlugInUtilities:TypeConverter.obj
 0001:0000dec0       ??$toString@VProductWindow@@@TypeConverter@@YAPBDXZ 1000eec0 f   PlugInUtilities:TypeConverter.obj
 0001:0000ded0       ??$toString@V?$vector@PAVProductWindow@@V?$allocator@PAVProductWindow@@@std@@@std@@@TypeConverter@@YAPBDXZ 1000eed0 f   PlugInUtilities:TypeConverter.obj
 0001:0000dee0       ??$toString@V?$vector@VProductWindow@@V?$allocator@VProductWindow@@@std@@@std@@@TypeConverter@@YAPBDXZ 1000eee0 f   PlugInUtilities:TypeConverter.obj
 0001:0000def0       ??$toString@PAVProductWindow@@@TypeConverter@@YAPBDXZ 1000eef0 f   PlugInUtilities:TypeConverter.obj
 0001:0000df00       ??$toString@VProgress@@@TypeConverter@@YAPBDXZ 1000ef00 f   PlugInUtilities:TypeConverter.obj
 0001:0000df10       ??$toString@V?$vector@PAVProgress@@V?$allocator@PAVProgress@@@std@@@std@@@TypeConverter@@YAPBDXZ 1000ef10 f   PlugInUtilities:TypeConverter.obj
 0001:0000df20       ??$toString@V?$vector@VProgress@@V?$allocator@VProgress@@@std@@@std@@@TypeConverter@@YAPBDXZ 1000ef20 f   PlugInUtilities:TypeConverter.obj
 0001:0000df30       ??$toString@PAVProgress@@@TypeConverter@@YAPBDXZ 1000ef30 f   PlugInUtilities:TypeConverter.obj
 0001:0000df40       ??$toString@VPseudocolorLayer@@@TypeConverter@@YAPBDXZ 1000ef40 f   PlugInUtilities:TypeConverter.obj
 0001:0000df50       ??$toString@V?$vector@PAVPseudocolorLayer@@V?$allocator@PAVPseudocolorLayer@@@std@@@std@@@TypeConverter@@YAPBDXZ 1000ef50 f   PlugInUtilities:TypeConverter.obj
 0001:0000df60       ??$toString@V?$vector@VPseudocolorLayer@@V?$allocator@VPseudocolorLayer@@@std@@@std@@@TypeConverter@@YAPBDXZ 1000ef60 f   PlugInUtilities:TypeConverter.obj
 0001:0000df70       ??$toString@PAVPseudocolorLayer@@@TypeConverter@@YAPBDXZ 1000ef70 f   PlugInUtilities:TypeConverter.obj
 0001:0000df80       ??$toString@VRasterDataDescriptor@@@TypeConverter@@YAPBDXZ 1000ef80 f   PlugInUtilities:TypeConverter.obj
 0001:0000df90       ??$toString@V?$vector@PAVRasterDataDescriptor@@V?$allocator@PAVRasterDataDescriptor@@@std@@@std@@@TypeConverter@@YAPBDXZ 1000ef90 f   PlugInUtilities:TypeConverter.obj
 0001:0000dfa0       ??$toString@V?$vector@VRasterDataDescriptor@@V?$allocator@VRasterDataDescriptor@@@std@@@std@@@TypeConverter@@YAPBDXZ 1000efa0 f   PlugInUtilities:TypeConverter.obj
 0001:0000dfb0       ??$toString@PAVRasterDataDescriptor@@@TypeConverter@@YAPBDXZ 1000efb0 f   PlugInUtilities:TypeConverter.obj
 0001:0000dfc0       ??$toString@VRasterElement@@@TypeConverter@@YAPBDXZ 1000efc0 f   PlugInUtilities:TypeConverter.obj
 0001:0000dfd0       ??$toString@V?$vector@PAVRasterElement@@V?$allocator@PAVRasterElement@@@std@@@std@@@TypeConverter@@YAPBDXZ 1000efd0 f   PlugInUtilities:TypeConverter.obj
 0001:0000dfe0       ??$toString@V?$vector@VRasterElement@@V?$allocator@VRasterElement@@@std@@@std@@@TypeConverter@@YAPBDXZ 1000efe0 f   PlugInUtilities:TypeConverter.obj
 0001:0000dff0       ??$toString@PAVRasterElement@@@TypeConverter@@YAPBDXZ 1000eff0 f   PlugInUtilities:TypeConverter.obj
 0001:0000e000       ??$toString@VRasterFileDescriptor@@@TypeConverter@@YAPBDXZ 1000f000 f   PlugInUtilities:TypeConverter.obj
 0001:0000e010       ??$toString@V?$vector@PAVRasterFileDescriptor@@V?$allocator@PAVRasterFileDescriptor@@@std@@@std@@@TypeConverter@@YAPBDXZ 1000f010 f   PlugInUtilities:TypeConverter.obj
 0001:0000e020       ??$toString@V?$vector@VRasterFileDescriptor@@V?$allocator@VRasterFileDescriptor@@@std@@@std@@@TypeConverter@@YAPBDXZ 1000f020 f   PlugInUtilities:TypeConverter.obj
 0001:0000e030       ??$toString@PAVRasterFileDescriptor@@@TypeConverter@@YAPBDXZ 1000f030 f   PlugInUtilities:TypeConverter.obj
 0001:0000e040       ??$toString@VRasterLayer@@@TypeConverter@@YAPBDXZ 1000f040 f   PlugInUtilities:TypeConverter.obj
 0001:0000e050       ??$toString@V?$vector@PAVRasterLayer@@V?$allocator@PAVRasterLayer@@@std@@@std@@@TypeConverter@@YAPBDXZ 1000f050 f   PlugInUtilities:TypeConverter.obj
 0001:0000e060       ??$toString@V?$vector@VRasterLayer@@V?$allocator@VRasterLayer@@@std@@@std@@@TypeConverter@@YAPBDXZ 1000f060 f   PlugInUtilities:TypeConverter.obj
 0001:0000e070       ??$toString@PAVRasterLayer@@@TypeConverter@@YAPBDXZ 1000f070 f   PlugInUtilities:TypeConverter.obj
 0001:0000e080       ??$toString@VSessionItem@@@TypeConverter@@YAPBDXZ 1000f080 f   PlugInUtilities:TypeConverter.obj
 0001:0000e090       ??$toString@V?$vector@PAVSessionItem@@V?$allocator@PAVSessionItem@@@std@@@std@@@TypeConverter@@YAPBDXZ 1000f090 f   PlugInUtilities:TypeConverter.obj
 0001:0000e0a0       ??$toString@V?$vector@VSessionItem@@V?$allocator@VSessionItem@@@std@@@std@@@TypeConverter@@YAPBDXZ 1000f0a0 f   PlugInUtilities:TypeConverter.obj
 0001:0000e0b0       ??$toString@PAVSessionItem@@@TypeConverter@@YAPBDXZ 1000f0b0 f   PlugInUtilities:TypeConverter.obj
 0001:0000e0c0       ??$toString@VSettableSessionItem@@@TypeConverter@@YAPBDXZ 1000f0c0 f   PlugInUtilities:TypeConverter.obj
 0001:0000e0d0       ??$toString@V?$vector@PAVSettableSessionItem@@V?$allocator@PAVSettableSessionItem@@@std@@@std@@@TypeConverter@@YAPBDXZ 1000f0d0 f   PlugInUtilities:TypeConverter.obj
 0001:0000e0e0       ??$toString@V?$vector@VSettableSessionItem@@V?$allocator@VSettableSessionItem@@@std@@@std@@@TypeConverter@@YAPBDXZ 1000f0e0 f   PlugInUtilities:TypeConverter.obj
 0001:0000e0f0       ??$toString@PAVSettableSessionItem@@@TypeConverter@@YAPBDXZ 1000f0f0 f   PlugInUtilities:TypeConverter.obj
 0001:0000e100       ??$toString@VSignature@@@TypeConverter@@YAPBDXZ 1000f100 f   PlugInUtilities:TypeConverter.obj
 0001:0000e110       ??$toString@V?$vector@PAVSignature@@V?$allocator@PAVSignature@@@std@@@std@@@TypeConverter@@YAPBDXZ 1000f110 f   PlugInUtilities:TypeConverter.obj
 0001:0000e120       ??$toString@V?$vector@VSignature@@V?$allocator@VSignature@@@std@@@std@@@TypeConverter@@YAPBDXZ 1000f120 f   PlugInUtilities:TypeConverter.obj
 0001:0000e130       ??$toString@PAVSignature@@@TypeConverter@@YAPBDXZ 1000f130 f   PlugInUtilities:TypeConverter.obj
 0001:0000e140       ??$toString@VSignatureLibrary@@@TypeConverter@@YAPBDXZ 1000f140 f   PlugInUtilities:TypeConverter.obj
 0001:0000e150       ??$toString@V?$vector@PAVSignatureLibrary@@V?$allocator@PAVSignatureLibrary@@@std@@@std@@@TypeConverter@@YAPBDXZ 1000f150 f   PlugInUtilities:TypeConverter.obj
 0001:0000e160       ??$toString@V?$vector@VSignatureLibrary@@V?$allocator@VSignatureLibrary@@@std@@@std@@@TypeConverter@@YAPBDXZ 1000f160 f   PlugInUtilities:TypeConverter.obj
 0001:0000e170       ??$toString@PAVSignatureLibrary@@@TypeConverter@@YAPBDXZ 1000f170 f   PlugInUtilities:TypeConverter.obj
 0001:0000e180       ??$toString@VSignaturePlot@@@TypeConverter@@YAPBDXZ 1000f180 f   PlugInUtilities:TypeConverter.obj
 0001:0000e190       ??$toString@V?$vector@PAVSignaturePlot@@V?$allocator@PAVSignaturePlot@@@std@@@std@@@TypeConverter@@YAPBDXZ 1000f190 f   PlugInUtilities:TypeConverter.obj
 0001:0000e1a0       ??$toString@V?$vector@VSignaturePlot@@V?$allocator@VSignaturePlot@@@std@@@std@@@TypeConverter@@YAPBDXZ 1000f1a0 f   PlugInUtilities:TypeConverter.obj
 0001:0000e1b0       ??$toString@PAVSignaturePlot@@@TypeConverter@@YAPBDXZ 1000f1b0 f   PlugInUtilities:TypeConverter.obj
 0001:0000e1c0       ??$toString@VSignatureSet@@@TypeConverter@@YAPBDXZ 1000f1c0 f   PlugInUtilities:TypeConverter.obj
 0001:0000e1d0       ??$toString@V?$vector@PAVSignatureSet@@V?$allocator@PAVSignatureSet@@@std@@@std@@@TypeConverter@@YAPBDXZ 1000f1d0 f   PlugInUtilities:TypeConverter.obj
 0001:0000e1e0       ??$toString@V?$vector@VSignatureSet@@V?$allocator@VSignatureSet@@@std@@@std@@@TypeConverter@@YAPBDXZ 1000f1e0 f   PlugInUtilities:TypeConverter.obj
 0001:0000e1f0       ??$toString@PAVSignatureSet@@@TypeConverter@@YAPBDXZ 1000f1f0 f   PlugInUtilities:TypeConverter.obj
 0001:0000e200       ??$toString@VSpatialDataView@@@TypeConverter@@YAPBDXZ 1000f200 f   PlugInUtilities:TypeConverter.obj
 0001:0000e210       ??$toString@V?$vector@PAVSpatialDataView@@V?$allocator@PAVSpatialDataView@@@std@@@std@@@TypeConverter@@YAPBDXZ 1000f210 f   PlugInUtilities:TypeConverter.obj
 0001:0000e220       ??$toString@V?$vector@VSpatialDataView@@V?$allocator@VSpatialDataView@@@std@@@std@@@TypeConverter@@YAPBDXZ 1000f220 f   PlugInUtilities:TypeConverter.obj
 0001:0000e230       ??$toString@PAVSpatialDataView@@@TypeConverter@@YAPBDXZ 1000f230 f   PlugInUtilities:TypeConverter.obj
 0001:0000e240       ??$toString@VSpatialDataWindow@@@TypeConverter@@YAPBDXZ 1000f240 f   PlugInUtilities:TypeConverter.obj
 0001:0000e250       ??$toString@V?$vector@PAVSpatialDataWindow@@V?$allocator@PAVSpatialDataWindow@@@std@@@std@@@TypeConverter@@YAPBDXZ 1000f250 f   PlugInUtilities:TypeConverter.obj
 0001:0000e260       ??$toString@V?$vector@VSpatialDataWindow@@V?$allocator@VSpatialDataWindow@@@std@@@std@@@TypeConverter@@YAPBDXZ 1000f260 f   PlugInUtilities:TypeConverter.obj
 0001:0000e270       ??$toString@PAVSpatialDataWindow@@@TypeConverter@@YAPBDXZ 1000f270 f   PlugInUtilities:TypeConverter.obj
 0001:0000e280       ??$toString@VThresholdLayer@@@TypeConverter@@YAPBDXZ 1000f280 f   PlugInUtilities:TypeConverter.obj
 0001:0000e290       ??$toString@V?$vector@PAVThresholdLayer@@V?$allocator@PAVThresholdLayer@@@std@@@std@@@TypeConverter@@YAPBDXZ 1000f290 f   PlugInUtilities:TypeConverter.obj
 0001:0000e2a0       ??$toString@V?$vector@VThresholdLayer@@V?$allocator@VThresholdLayer@@@std@@@std@@@TypeConverter@@YAPBDXZ 1000f2a0 f   PlugInUtilities:TypeConverter.obj
 0001:0000e2b0       ??$toString@PAVThresholdLayer@@@TypeConverter@@YAPBDXZ 1000f2b0 f   PlugInUtilities:TypeConverter.obj
 0001:0000e2c0       ??$toString@VTiePointLayer@@@TypeConverter@@YAPBDXZ 1000f2c0 f   PlugInUtilities:TypeConverter.obj
 0001:0000e2d0       ??$toString@V?$vector@PAVTiePointLayer@@V?$allocator@PAVTiePointLayer@@@std@@@std@@@TypeConverter@@YAPBDXZ 1000f2d0 f   PlugInUtilities:TypeConverter.obj
 0001:0000e2e0       ??$toString@V?$vector@VTiePointLayer@@V?$allocator@VTiePointLayer@@@std@@@std@@@TypeConverter@@YAPBDXZ 1000f2e0 f   PlugInUtilities:TypeConverter.obj
 0001:0000e2f0       ??$toString@PAVTiePointLayer@@@TypeConverter@@YAPBDXZ 1000f2f0 f   PlugInUtilities:TypeConverter.obj
 0001:0000e300       ??$toString@VTiePointList@@@TypeConverter@@YAPBDXZ 1000f300 f   PlugInUtilities:TypeConverter.obj
 0001:0000e310       ??$toString@V?$vector@PAVTiePointList@@V?$allocator@PAVTiePointList@@@std@@@std@@@TypeConverter@@YAPBDXZ 1000f310 f   PlugInUtilities:TypeConverter.obj
 0001:0000e320       ??$toString@V?$vector@VTiePointList@@V?$allocator@VTiePointList@@@std@@@std@@@TypeConverter@@YAPBDXZ 1000f320 f   PlugInUtilities:TypeConverter.obj
 0001:0000e330       ??$toString@PAVTiePointList@@@TypeConverter@@YAPBDXZ 1000f330 f   PlugInUtilities:TypeConverter.obj
 0001:0000e340       ??$toString@VUInt64@@@TypeConverter@@YAPBDXZ 1000f340 f   PlugInUtilities:TypeConverter.obj
 0001:0000e350       ??$toString@V?$vector@PAVUInt64@@V?$allocator@PAVUInt64@@@std@@@std@@@TypeConverter@@YAPBDXZ 1000f350 f   PlugInUtilities:TypeConverter.obj
 0001:0000e360       ??$toString@V?$vector@VUInt64@@V?$allocator@VUInt64@@@std@@@std@@@TypeConverter@@YAPBDXZ 1000f360 f   PlugInUtilities:TypeConverter.obj
 0001:0000e370       ??$toString@VUnits@@@TypeConverter@@YAPBDXZ 1000f370 f   PlugInUtilities:TypeConverter.obj
 0001:0000e380       ??$toString@V?$vector@PAVUnits@@V?$allocator@PAVUnits@@@std@@@std@@@TypeConverter@@YAPBDXZ 1000f380 f   PlugInUtilities:TypeConverter.obj
 0001:0000e390       ??$toString@V?$vector@VUnits@@V?$allocator@VUnits@@@std@@@std@@@TypeConverter@@YAPBDXZ 1000f390 f   PlugInUtilities:TypeConverter.obj
 0001:0000e3a0       ??$toString@PAVUnits@@@TypeConverter@@YAPBDXZ 1000f3a0 f   PlugInUtilities:TypeConverter.obj
 0001:0000e3b0       ??$toString@VView@@@TypeConverter@@YAPBDXZ 1000f3b0 f   PlugInUtilities:TypeConverter.obj
 0001:0000e3c0       ??$toString@V?$vector@PAVView@@V?$allocator@PAVView@@@std@@@std@@@TypeConverter@@YAPBDXZ 1000f3c0 f   PlugInUtilities:TypeConverter.obj
 0001:0000e3d0       ??$toString@V?$vector@VView@@V?$allocator@VView@@@std@@@std@@@TypeConverter@@YAPBDXZ 1000f3d0 f   PlugInUtilities:TypeConverter.obj
 0001:0000e3e0       ??$toString@PAVView@@@TypeConverter@@YAPBDXZ 1000f3e0 f   PlugInUtilities:TypeConverter.obj
 0001:0000e3f0       ??$toString@VWindow@@@TypeConverter@@YAPBDXZ 1000f3f0 f   PlugInUtilities:TypeConverter.obj
 0001:0000e400       ??$toString@V?$vector@PAVWindow@@V?$allocator@PAVWindow@@@std@@@std@@@TypeConverter@@YAPBDXZ 1000f400 f   PlugInUtilities:TypeConverter.obj
 0001:0000e410       ??$toString@V?$vector@VWindow@@V?$allocator@VWindow@@@std@@@std@@@TypeConverter@@YAPBDXZ 1000f410 f   PlugInUtilities:TypeConverter.obj
 0001:0000e420       ??$toString@PAVWindow@@@TypeConverter@@YAPBDXZ 1000f420 f   PlugInUtilities:TypeConverter.obj
 0001:0000e430       ??$toString@VWizardObject@@@TypeConverter@@YAPBDXZ 1000f430 f   PlugInUtilities:TypeConverter.obj
 0001:0000e440       ??$toString@V?$vector@PAVWizardObject@@V?$allocator@PAVWizardObject@@@std@@@std@@@TypeConverter@@YAPBDXZ 1000f440 f   PlugInUtilities:TypeConverter.obj
 0001:0000e450       ??$toString@V?$vector@VWizardObject@@V?$allocator@VWizardObject@@@std@@@std@@@TypeConverter@@YAPBDXZ 1000f450 f   PlugInUtilities:TypeConverter.obj
 0001:0000e460       ??$toString@PAVWizardObject@@@TypeConverter@@YAPBDXZ 1000f460 f   PlugInUtilities:TypeConverter.obj
 0001:0000e470       ??$toString@VWorkspaceWindow@@@TypeConverter@@YAPBDXZ 1000f470 f   PlugInUtilities:TypeConverter.obj
 0001:0000e480       ??$toString@V?$vector@PAVWorkspaceWindow@@V?$allocator@PAVWorkspaceWindow@@@std@@@std@@@TypeConverter@@YAPBDXZ 1000f480 f   PlugInUtilities:TypeConverter.obj
 0001:0000e490       ??$toString@V?$vector@VWorkspaceWindow@@V?$allocator@VWorkspaceWindow@@@std@@@std@@@TypeConverter@@YAPBDXZ 1000f490 f   PlugInUtilities:TypeConverter.obj
 0001:0000e4a0       ??$toString@PAVWorkspaceWindow@@@TypeConverter@@YAPBDXZ 1000f4a0 f   PlugInUtilities:TypeConverter.obj
 0001:0000e4b0       ?LogVerificationErrorProc@@YAXPBD0I0@Z 1000f4b0 f   PlugInUtilities:AppVerify.obj
 0001:0000e926       ??0?$basic_string@DU?$char_traits@D@std@@V?$allocator@D@2@@std@@QAE@ABV01@@Z 1000f926 f   msvcprt:MSVCP80.dll
 0001:0000e92c       ??1?$basic_string@DU?$char_traits@D@std@@V?$allocator@D@2@@std@@QAE@XZ 1000f92c f   msvcprt:MSVCP80.dll
 0001:0000e932       ??0?$basic_string@DU?$char_traits@D@std@@V?$allocator@D@2@@std@@QAE@PBD@Z 1000f932 f   msvcprt:MSVCP80.dll
 0001:0000e938       ?_Lock@_Mutex@std@@QAEXXZ  1000f938 f   msvcprt:MSVCP80.dll
 0001:0000e93e       ?_Unlock@_Mutex@std@@QAEXXZ 1000f93e f   msvcprt:MSVCP80.dll
 0001:0000e944       ??4?$basic_string@DU?$char_traits@D@std@@V?$allocator@D@2@@std@@QAEAAV01@ABV01@@Z 1000f944 f   msvcprt:MSVCP80.dll
 0001:0000e94a       ?swap@?$basic_string@DU?$char_traits@D@std@@V?$allocator@D@2@@std@@QAEXAAV12@@Z 1000f94a f   msvcprt:MSVCP80.dll
 0001:0000e950       ??0?$basic_string@DU?$char_traits@D@std@@V?$allocator@D@2@@std@@QAE@XZ 1000f950 f   msvcprt:MSVCP80.dll
 0001:0000e956       ?flush@?$basic_ostream@DU?$char_traits@D@std@@@std@@QAEAAV12@XZ 1000f956 f   msvcprt:MSVCP80.dll
 0001:0000e95c       ?_Osfx@?$basic_ostream@DU?$char_traits@D@std@@@std@@QAEXXZ 1000f95c f   msvcprt:MSVCP80.dll
 0001:0000e962       ?uncaught_exception@std@@YA_NXZ 1000f962 f   msvcprt:MSVCP80.dll
 0001:0000e968       ?setstate@?$basic_ios@DU?$char_traits@D@std@@@std@@QAEXH_N@Z 1000f968 f   msvcprt:MSVCP80.dll
 0001:0000e96e       ?sputn@?$basic_streambuf@DU?$char_traits@D@std@@@std@@QAEHPBDH@Z 1000f96e f   msvcprt:MSVCP80.dll
 0001:0000e974       ?sputc@?$basic_streambuf@DU?$char_traits@D@std@@@std@@QAEHD@Z 1000f974 f   msvcprt:MSVCP80.dll
 0001:0000e97a       ??_D?$basic_ofstream@DU?$char_traits@D@std@@@std@@QAEXXZ 1000f97a f   msvcprt:MSVCP80.dll
 0001:0000e980       ?close@?$basic_ofstream@DU?$char_traits@D@std@@@std@@QAEXXZ 1000f980 f   msvcprt:MSVCP80.dll
 0001:0000e986       ??6?$basic_ostream@DU?$char_traits@D@std@@@std@@QAEAAV01@G@Z 1000f986 f   msvcprt:MSVCP80.dll
 0001:0000e98c       ??0?$basic_ofstream@DU?$char_traits@D@std@@@std@@QAE@PBDHH@Z 1000f98c f   msvcprt:MSVCP80.dll
 0001:0000e992       ??6?$basic_ostream@DU?$char_traits@D@std@@@std@@QAEAAV01@F@Z 1000f992 f   msvcprt:MSVCP80.dll
 0001:0000e998       ??6?$basic_ostream@DU?$char_traits@D@std@@@std@@QAEAAV01@I@Z 1000f998 f   msvcprt:MSVCP80.dll
 0001:0000e99e       ??6?$basic_ostream@DU?$char_traits@D@std@@@std@@QAEAAV01@H@Z 1000f99e f   msvcprt:MSVCP80.dll
 0001:0000e9a4       ??6?$basic_ostream@DU?$char_traits@D@std@@@std@@QAEAAV01@M@Z 1000f9a4 f   msvcprt:MSVCP80.dll
 0001:0000e9aa       ??6?$basic_ostream@DU?$char_traits@D@std@@@std@@QAEAAV01@N@Z 1000f9aa f   msvcprt:MSVCP80.dll
 0001:0000e9b0       ??$?MDU?$char_traits@D@std@@V?$allocator@D@1@@std@@YA_NABV?$basic_string@DU?$char_traits@D@std@@V?$allocator@D@2@@0@0@Z 1000f9b0 f   msvcprt:MSVCP80.dll
 0001:0000e9b6       ?begin@?$basic_string@DU?$char_traits@D@std@@V?$allocator@D@2@@std@@QAE?AV?$_String_iterator@DU?$char_traits@D@std@@V?$allocator@D@2@@2@XZ 1000f9b6 f   msvcprt:MSVCP80.dll
 0001:0000e9bc       ?end@?$basic_string@DU?$char_traits@D@std@@V?$allocator@D@2@@std@@QAE?AV?$_String_iterator@DU?$char_traits@D@std@@V?$allocator@D@2@@2@XZ 1000f9bc f   msvcprt:MSVCP80.dll
 0001:0000e9c2       ??_D?$basic_stringstream@DU?$char_traits@D@std@@V?$allocator@D@2@@std@@QAEXXZ 1000f9c2 f   msvcprt:MSVCP80.dll
 0001:0000e9c8       ?str@?$basic_stringstream@DU?$char_traits@D@std@@V?$allocator@D@2@@std@@QBE?AV?$basic_string@DU?$char_traits@D@std@@V?$allocator@D@2@@2@XZ 1000f9c8 f   msvcprt:MSVCP80.dll
 0001:0000e9ce       ??0?$basic_stringstream@DU?$char_traits@D@std@@V?$allocator@D@2@@std@@QAE@H@Z 1000f9ce f   msvcprt:MSVCP80.dll
 0001:0000e9d4       ??$?HDU?$char_traits@D@std@@V?$allocator@D@1@@std@@YA?AV?$basic_string@DU?$char_traits@D@std@@V?$allocator@D@2@@0@ABV10@0@Z 1000f9d4 f   msvcprt:MSVCP80.dll
 0001:0000e9da       ??$?HDU?$char_traits@D@std@@V?$allocator@D@1@@std@@YA?AV?$basic_string@DU?$char_traits@D@std@@V?$allocator@D@2@@0@ABV10@PBD@Z 1000f9da f   msvcprt:MSVCP80.dll
 0001:0000e9e0       ??0exception@std@@QAE@ABQBD@Z 1000f9e0 f   MSVCRT:MSVCR80.dll
 0001:0000e9e6       ??0type_info@@AAE@ABV0@@Z  1000f9e6 f   MSVCRT:ti_inst.obj
 0001:0000e9f1       ??_Etype_info@@UAEPAXI@Z   1000f9f1 f i MSVCRT:ti_inst.obj
 0001:0000ea3a       ??4type_info@@AAEAAV0@ABV0@@Z 1000fa3a f   MSVCRT:ti_inst.obj
 0001:0000ea40       ?what@exception@std@@UBEPBDXZ 1000fa40 f   MSVCRT:MSVCR80.dll
 0001:0000ea46       ??1exception@std@@UAE@XZ   1000fa46 f   MSVCRT:MSVCR80.dll
 0001:0000ea4c       ??3@YAXPAX@Z               1000fa4c f   MSVCRT:MSVCR80.dll
 0001:0000ea52       ??0exception@std@@QAE@XZ   1000fa52 f   MSVCRT:MSVCR80.dll
 0001:0000ea58       ___CxxFrameHandler3        1000fa58 f   MSVCRT:MSVCR80.dll
 0001:0000ea5e       __CxxThrowException@8      1000fa5e f   MSVCRT:MSVCR80.dll
 0001:0000ea64       ??0exception@std@@QAE@ABV01@@Z 1000fa64 f   MSVCRT:MSVCR80.dll
 0001:0000ea6a       __purecall                 1000fa6a f   MSVCRT:MSVCR80.dll
 0001:0000ea70       __invalid_parameter_noinfo 1000fa70 f   MSVCRT:MSVCR80.dll
 0001:0000ea76       ___RTDynamicCast           1000fa76 f   MSVCRT:MSVCR80.dll
 0001:0000ea7c       ??2@YAPAXI@Z               1000fa7c f   MSVCRT:MSVCR80.dll
 0001:0000ea82       _sprintf                   1000fa82 f   MSVCRT:MSVCR80.dll
 0001:0000ea90       __onexit                   1000fa90 f   MSVCRT:atonexit.obj
 0001:0000eb35       _atexit                    1000fb35 f   MSVCRT:atonexit.obj
 0001:0000eb47       _NtCurrentTeb              1000fb47 f i MSVCRT:crtdll.obj
 0001:0000eb9b       __CRT_INIT@12              1000fb9b f   MSVCRT:crtdll.obj
 0001:0000ee74       __DllMainCRTStartup@12     1000fe74 f   MSVCRT:crtdll.obj
 0001:0000ee96       ??8type_info@@QBE_NABV0@@Z 1000fe96 f   MSVCRT:MSVCR80.dll
 0001:0000ee9c       _getenv                    1000fe9c f   MSVCRT:MSVCR80.dll
 0001:0000eeb4       ?__ArrayUnwind@@YGXPAXIHP6EX0@Z@Z 1000feb4 f   MSVCRT:ehvecdtr.obj
 0001:0000ef12       ??_M@YGXPAXIHP6EX0@Z@Z     1000ff12 f   MSVCRT:ehvecdtr.obj
 0001:0000ef76       __unlock                   1000ff76 f   MSVCRT:MSVCR80.dll
 0001:0000ef7c       ___dllonexit               1000ff7c f   MSVCRT:MSVCR80.dll
 0001:0000ef82       __encode_pointer           1000ff82 f   MSVCRT:MSVCR80.dll
 0001:0000ef88       __lock                     1000ff88 f   MSVCRT:MSVCR80.dll
 0001:0000ef8e       __decode_pointer           1000ff8e f   MSVCRT:MSVCR80.dll
 0001:0000ef94       __SEH_prolog4              1000ff94 f   MSVCRT:sehprolg4.obj
 0001:0000efd9       __SEH_epilog4              1000ffd9 f   MSVCRT:sehprolg4.obj
 0001:0000efed       __except_handler4          1000ffed f   MSVCRT:chandler4gs.obj
 0001:0000f010       ___clean_type_info_names   10010010 f   MSVCRT:tncleanup.obj
 0001:0000f01c       __RTC_Initialize           1001001c f   MSVCRT:initsect.obj
 0001:0000f040       __RTC_Terminate            10010040 f   MSVCRT:initsect.obj
 0001:0000f064       __malloc_crt               10010064 f   MSVCRT:MSVCR80.dll
 0001:0000f06a       _free                      1001006a f   MSVCRT:MSVCR80.dll
 0001:0000f070       __encoded_null             10010070 f   MSVCRT:MSVCR80.dll
 0001:0000f080       __ValidateImageBase        10010080 f   MSVCRT:pesect.obj
 0001:0000f0b0       __FindPESection            100100b0 f   MSVCRT:pesect.obj
 0001:0000f100       __IsNonwritableInCurrentImage 10010100 f   MSVCRT:pesect.obj
 0001:0000f1bc       __initterm                 100101bc f   MSVCRT:MSVCR80.dll
 0001:0000f1c2       __initterm_e               100101c2 f   MSVCRT:MSVCR80.dll
 0001:0000f1c8       __amsg_exit                100101c8 f   MSVCRT:MSVCR80.dll
 0001:0000f1ce       ___CppXcptFilter           100101ce f   MSVCRT:MSVCR80.dll
 0001:0000f1d4       _DllMain@12                100101d4 f   MSVCRT:dllmain.obj
 0001:0000f1f4       ___security_init_cookie    100101f4 f   MSVCRT:gs_support.obj
 0001:0000f288       ?terminate@@YAXXZ          10010288 f   MSVCRT:MSVCR80.dll
 0001:0000f28e       ?_type_info_dtor_internal_method@type_info@@QAEXXZ 1001028e f   MSVCRT:MSVCR80.dll
 0001:0000f28e       ??1type_info@@UAE@XZ       1001028e f   MSVCRT:MSVCR80.dll
 0001:0000f294       @__security_check_cookie@4 10010294 f   MSVCRT:secchk.obj
 0001:0000f2a4       __except_handler4_common   100102a4 f   MSVCRT:MSVCR80.dll
 0001:0000f2aa       ___clean_type_info_names_internal 100102aa f   MSVCRT:MSVCR80.dll
 0001:0000f2b0       ___report_gsfailure        100102b0 f   MSVCRT:gs_report.obj
 0001:0000f3b4       __crt_debugger_hook        100103b4 f   MSVCRT:MSVCR80.dll
 0001:0000f3ba       ?hide@QWidget@@QAEXXZ      100103ba f   QtGui4:QtGui4.dll
 0001:0000f3c0       _InterlockedExchange@8     100103c0 f   kernel32:KERNEL32.dll
 0001:0000f3c6       _Sleep@4                   100103c6 f   kernel32:KERNEL32.dll
 0001:0000f3cc       _InterlockedCompareExchange@12 100103cc f   kernel32:KERNEL32.dll
 0001:0000f3d2       _DisableThreadLibraryCalls@4 100103d2 f   kernel32:KERNEL32.dll
 0001:0000f3d8       _QueryPerformanceCounter@4 100103d8 f   kernel32:KERNEL32.dll
 0001:0000f3de       _GetTickCount@0            100103de f   kernel32:KERNEL32.dll
 0001:0000f3e4       _GetCurrentThreadId@0      100103e4 f   kernel32:KERNEL32.dll
 0001:0000f3ea       _GetCurrentProcessId@0     100103ea f   kernel32:KERNEL32.dll
 0001:0000f3f0       _GetSystemTimeAsFileTime@4 100103f0 f   kernel32:KERNEL32.dll
 0001:0000f3f6       _TerminateProcess@8        100103f6 f   kernel32:KERNEL32.dll
 0001:0000f3fc       _GetCurrentProcess@0       100103fc f   kernel32:KERNEL32.dll
 0001:0000f402       _UnhandledExceptionFilter@4 10010402 f   kernel32:KERNEL32.dll
 0001:0000f408       _SetUnhandledExceptionFilter@4 10010408 f   kernel32:KERNEL32.dll
 0001:0000f40e       _IsDebuggerPresent@0       1001040e f   kernel32:KERNEL32.dll
 0001:00010890       ??__FsignalName@?1??signalDeleted@Subject@@SAABV?$basic_string@DU?$char_traits@D@std@@V?$allocator@D@2@@std@@XZ@YAXXZ 10011890 f i PlugInLib:ViewerShell.obj
 0001:000108a0       ??__FsignalName@?1??signalSessionClosed@ApplicationServices@@SAABV?$basic_string@DU?$char_traits@D@std@@V?$allocator@D@2@@std@@XZ@YAXXZ 100118a0 f i PlugInLib:ViewerShell.obj
 0002:00000000       __imp__Sleep@4             10012000     kernel32:KERNEL32.dll
 0002:00000004       __imp__InterlockedCompareExchange@12 10012004     kernel32:KERNEL32.dll
 0002:00000008       __imp__DisableThreadLibraryCalls@4 10012008     kernel32:KERNEL32.dll
 0002:0000000c       __imp__QueryPerformanceCounter@4 1001200c     kernel32:KERNEL32.dll
 0002:00000010       __imp__GetTickCount@0      10012010     kernel32:KERNEL32.dll
 0002:00000014       __imp__GetCurrentThreadId@0 10012014     kernel32:KERNEL32.dll
 0002:00000018       __imp__GetCurrentProcessId@0 10012018     kernel32:KERNEL32.dll
 0002:0000001c       __imp__GetSystemTimeAsFileTime@4 1001201c     kernel32:KERNEL32.dll
 0002:00000020       __imp__TerminateProcess@8  10012020     kernel32:KERNEL32.dll
 0002:00000024       __imp__GetCurrentProcess@0 10012024     kernel32:KERNEL32.dll
 0002:00000028       __imp__UnhandledExceptionFilter@4 10012028     kernel32:KERNEL32.dll
 0002:0000002c       __imp__SetUnhandledExceptionFilter@4 1001202c     kernel32:KERNEL32.dll
 0002:00000030       __imp__IsDebuggerPresent@0 10012030     kernel32:KERNEL32.dll
 0002:00000034       __imp__InterlockedExchange@8 10012034     kernel32:KERNEL32.dll
 0002:00000038       \177KERNEL32_NULL_THUNK_DATA 10012038     kernel32:KERNEL32.dll
 0002:0000003c       __imp_?close@?$basic_ofstream@DU?$char_traits@D@std@@@std@@QAEXXZ 1001203c     msvcprt:MSVCP80.dll
 0002:00000040       __imp_??6?$basic_ostream@DU?$char_traits@D@std@@@std@@QAEAAV01@G@Z 10012040     msvcprt:MSVCP80.dll
 0002:00000044       __imp_??0?$basic_ofstream@DU?$char_traits@D@std@@@std@@QAE@PBDHH@Z 10012044     msvcprt:MSVCP80.dll
 0002:00000048       __imp_??6?$basic_ostream@DU?$char_traits@D@std@@@std@@QAEAAV01@F@Z 10012048     msvcprt:MSVCP80.dll
 0002:0000004c       __imp_??_D?$basic_ofstream@DU?$char_traits@D@std@@@std@@QAEXXZ 1001204c     msvcprt:MSVCP80.dll
 0002:00000050       __imp_??6?$basic_ostream@DU?$char_traits@D@std@@@std@@QAEAAV01@H@Z 10012050     msvcprt:MSVCP80.dll
 0002:00000054       __imp_??6?$basic_ostream@DU?$char_traits@D@std@@@std@@QAEAAV01@M@Z 10012054     msvcprt:MSVCP80.dll
 0002:00000058       __imp_??6?$basic_ostream@DU?$char_traits@D@std@@@std@@QAEAAV01@N@Z 10012058     msvcprt:MSVCP80.dll
 0002:0000005c       __imp_??$?MDU?$char_traits@D@std@@V?$allocator@D@1@@std@@YA_NABV?$basic_string@DU?$char_traits@D@std@@V?$allocator@D@2@@0@0@Z 1001205c     msvcprt:MSVCP80.dll
 0002:00000060       __imp_?sputc@?$basic_streambuf@DU?$char_traits@D@std@@@std@@QAEHD@Z 10012060     msvcprt:MSVCP80.dll
 0002:00000064       __imp_?sputn@?$basic_streambuf@DU?$char_traits@D@std@@@std@@QAEHPBDH@Z 10012064     msvcprt:MSVCP80.dll
 0002:00000068       __imp_?setstate@?$basic_ios@DU?$char_traits@D@std@@@std@@QAEXH_N@Z 10012068     msvcprt:MSVCP80.dll
 0002:0000006c       __imp_?uncaught_exception@std@@YA_NXZ 1001206c     msvcprt:MSVCP80.dll
 0002:00000070       __imp_?_Osfx@?$basic_ostream@DU?$char_traits@D@std@@@std@@QAEXXZ 10012070     msvcprt:MSVCP80.dll
 0002:00000074       __imp_?flush@?$basic_ostream@DU?$char_traits@D@std@@@std@@QAEAAV12@XZ 10012074     msvcprt:MSVCP80.dll
 0002:00000078       __imp_??0?$basic_string@DU?$char_traits@D@std@@V?$allocator@D@2@@std@@QAE@XZ 10012078     msvcprt:MSVCP80.dll
 0002:0000007c       __imp_?swap@?$basic_string@DU?$char_traits@D@std@@V?$allocator@D@2@@std@@QAEXAAV12@@Z 1001207c     msvcprt:MSVCP80.dll
 0002:00000080       __imp_??4?$basic_string@DU?$char_traits@D@std@@V?$allocator@D@2@@std@@QAEAAV01@ABV01@@Z 10012080     msvcprt:MSVCP80.dll
 0002:00000084       __imp_?_Unlock@_Mutex@std@@QAEXXZ 10012084     msvcprt:MSVCP80.dll
 0002:00000088       __imp_?_Lock@_Mutex@std@@QAEXXZ 10012088     msvcprt:MSVCP80.dll
 0002:0000008c       __imp_??0?$basic_string@DU?$char_traits@D@std@@V?$allocator@D@2@@std@@QAE@PBD@Z 1001208c     msvcprt:MSVCP80.dll
 0002:00000090       __imp_??1?$basic_string@DU?$char_traits@D@std@@V?$allocator@D@2@@std@@QAE@XZ 10012090     msvcprt:MSVCP80.dll
 0002:00000094       __imp_??6?$basic_ostream@DU?$char_traits@D@std@@@std@@QAEAAV01@I@Z 10012094     msvcprt:MSVCP80.dll
 0002:00000098       __imp_?begin@?$basic_string@DU?$char_traits@D@std@@V?$allocator@D@2@@std@@QAE?AV?$_String_iterator@DU?$char_traits@D@std@@V?$allocator@D@2@@2@XZ 10012098     msvcprt:MSVCP80.dll
 0002:0000009c       __imp_?end@?$basic_string@DU?$char_traits@D@std@@V?$allocator@D@2@@std@@QAE?AV?$_String_iterator@DU?$char_traits@D@std@@V?$allocator@D@2@@2@XZ 1001209c     msvcprt:MSVCP80.dll
 0002:000000a0       __imp_??_D?$basic_stringstream@DU?$char_traits@D@std@@V?$allocator@D@2@@std@@QAEXXZ 100120a0     msvcprt:MSVCP80.dll
 0002:000000a4       __imp_?str@?$basic_stringstream@DU?$char_traits@D@std@@V?$allocator@D@2@@std@@QBE?AV?$basic_string@DU?$char_traits@D@std@@V?$allocator@D@2@@2@XZ 100120a4     msvcprt:MSVCP80.dll
 0002:000000a8       __imp_??0?$basic_stringstream@DU?$char_traits@D@std@@V?$allocator@D@2@@std@@QAE@H@Z 100120a8     msvcprt:MSVCP80.dll
 0002:000000ac       __imp_??$?HDU?$char_traits@D@std@@V?$allocator@D@1@@std@@YA?AV?$basic_string@DU?$char_traits@D@std@@V?$allocator@D@2@@0@ABV10@0@Z 100120ac     msvcprt:MSVCP80.dll
 0002:000000b0       __imp_??$?HDU?$char_traits@D@std@@V?$allocator@D@1@@std@@YA?AV?$basic_string@DU?$char_traits@D@std@@V?$allocator@D@2@@0@ABV10@PBD@Z 100120b0     msvcprt:MSVCP80.dll
 0002:000000b4       __imp_??0?$basic_string@DU?$char_traits@D@std@@V?$allocator@D@2@@std@@QAE@ABV01@@Z 100120b4     msvcprt:MSVCP80.dll
 0002:000000b8       \177MSVCP80_NULL_THUNK_DATA 100120b8     msvcprt:MSVCP80.dll
 0002:000000bc       __imp___initterm_e         100120bc     MSVCRT:MSVCR80.dll
 0002:000000c0       __imp___initterm           100120c0     MSVCRT:MSVCR80.dll
 0002:000000c4       __imp___encoded_null       100120c4     MSVCRT:MSVCR80.dll
 0002:000000c8       __imp__free                100120c8     MSVCRT:MSVCR80.dll
 0002:000000cc       __imp___malloc_crt         100120cc     MSVCRT:MSVCR80.dll
 0002:000000d0       __imp___amsg_exit          100120d0     MSVCRT:MSVCR80.dll
 0002:000000d4       __imp___onexit             100120d4     MSVCRT:MSVCR80.dll
 0002:000000d8       __imp___lock               100120d8     MSVCRT:MSVCR80.dll
 0002:000000dc       __imp___encode_pointer     100120dc     MSVCRT:MSVCR80.dll
 0002:000000e0       __imp____dllonexit         100120e0     MSVCRT:MSVCR80.dll
 0002:000000e4       __imp___unlock             100120e4     MSVCRT:MSVCR80.dll
 0002:000000e8       __imp__getenv              100120e8     MSVCRT:MSVCR80.dll
 0002:000000ec       __imp_??8type_info@@QBE_NABV0@@Z 100120ec     MSVCRT:MSVCR80.dll
 0002:000000f0       __imp__sprintf             100120f0     MSVCRT:MSVCR80.dll
 0002:000000f4       __imp_??2@YAPAXI@Z         100120f4     MSVCRT:MSVCR80.dll
 0002:000000f8       __imp____RTDynamicCast     100120f8     MSVCRT:MSVCR80.dll
 0002:000000fc       __imp___invalid_parameter_noinfo 100120fc     MSVCRT:MSVCR80.dll
 0002:00000100       __imp___purecall           10012100     MSVCRT:MSVCR80.dll
 0002:00000104       __imp_??0exception@std@@QAE@ABV01@@Z 10012104     MSVCRT:MSVCR80.dll
 0002:00000108       __imp___CxxThrowException@8 10012108     MSVCRT:MSVCR80.dll
 0002:0000010c       __imp____CxxFrameHandler3  1001210c     MSVCRT:MSVCR80.dll
 0002:00000110       __imp_??0exception@std@@QAE@XZ 10012110     MSVCRT:MSVCR80.dll
 0002:00000114       __imp_??3@YAXPAX@Z         10012114     MSVCRT:MSVCR80.dll
 0002:00000118       __imp_??1exception@std@@UAE@XZ 10012118     MSVCRT:MSVCR80.dll
 0002:0000011c       __imp_?what@exception@std@@UBEPBDXZ 1001211c     MSVCRT:MSVCR80.dll
 0002:00000120       __imp_??0exception@std@@QAE@ABQBD@Z 10012120     MSVCRT:MSVCR80.dll
 0002:00000124       __imp___adjust_fdiv        10012124     MSVCRT:MSVCR80.dll
 0002:00000128       __imp____CppXcptFilter     10012128     MSVCRT:MSVCR80.dll
 0002:0000012c       __imp_?terminate@@YAXXZ    1001212c     MSVCRT:MSVCR80.dll
 0002:00000130       __imp_?_type_info_dtor_internal_method@type_info@@QAEXXZ 10012130     MSVCRT:MSVCR80.dll
 0002:00000134       __imp___except_handler4_common 10012134     MSVCRT:MSVCR80.dll
 0002:00000138       __imp____clean_type_info_names_internal 10012138     MSVCRT:MSVCR80.dll
 0002:0000013c       __imp___crt_debugger_hook  1001213c     MSVCRT:MSVCR80.dll
 0002:00000140       __imp___decode_pointer     10012140     MSVCRT:MSVCR80.dll
 0002:00000144       \177MSVCR80_NULL_THUNK_DATA 10012144     MSVCRT:MSVCR80.dll
 0002:00000148       __imp_?staticMetaObject@QObject@@2UQMetaObject@@B 10012148     QtCore4:QtCore4.dll
 0002:0000014c       __imp_?qt_metacall@QObject@@UAEHW4Call@QMetaObject@@HPAPAX@Z 1001214c     QtCore4:QtCore4.dll
 0002:00000150       __imp_?qt_metacast@QObject@@UAEPAXPBD@Z 10012150     QtCore4:QtCore4.dll
 0002:00000154       __imp_?setObjectName@QObject@@QAEXABVQString@@@Z 10012154     QtCore4:QtCore4.dll
 0002:00000158       __imp_?expandedTo@QSize@@QBE?AV1@ABV1@@Z 10012158     QtCore4:QtCore4.dll
 0002:0000015c       __imp_?qFlagLocation@@YAPBDPBD@Z 1001215c     QtCore4:QtCore4.dll
 0002:00000160       __imp_?connect@QObject@@SA_NPBV1@PBD01W4ConnectionType@Qt@@@Z 10012160     QtCore4:QtCore4.dll
 0002:00000164       __imp_??0QVariant@@QAE@XZ  10012164     QtCore4:QtCore4.dll
 0002:00000168       __imp_?fromStdString@QString@@SA?AV1@ABV?$basic_string@DU?$char_traits@D@std@@V?$allocator@D@2@@std@@@Z 10012168     QtCore4:QtCore4.dll
 0002:0000016c       __imp_??1QVariant@@QAE@XZ  1001216c     QtCore4:QtCore4.dll
 0002:00000170       __imp_?fromAscii_helper@QString@@CAPAUData@1@PBDH@Z 10012170     QtCore4:QtCore4.dll
 0002:00000174       __imp_?shared_null@QString@@0UData@1@A 10012174     QtCore4:QtCore4.dll
 0002:00000178       __imp_?free@QString@@CAXPAUData@1@@Z 10012178     QtCore4:QtCore4.dll
 0002:0000017c       __imp_??1QString@@QAE@XZ   1001217c     QtCore4:QtCore4.dll
 0002:00000180       __imp_?disconnectNotify@QObject@@MAEXPBD@Z 10012180     QtCore4:QtCore4.dll
 0002:00000184       __imp_?connectNotify@QObject@@MAEXPBD@Z 10012184     QtCore4:QtCore4.dll
 0002:00000188       __imp_?customEvent@QObject@@MAEXPAVQEvent@@@Z 10012188     QtCore4:QtCore4.dll
 0002:0000018c       __imp_?childEvent@QObject@@MAEXPAVQChildEvent@@@Z 1001218c     QtCore4:QtCore4.dll
 0002:00000190       __imp_?timerEvent@QObject@@MAEXPAVQTimerEvent@@@Z 10012190     QtCore4:QtCore4.dll
 0002:00000194       __imp_?eventFilter@QObject@@UAE_NPAV1@PAVQEvent@@@Z 10012194     QtCore4:QtCore4.dll
 0002:00000198       __imp_?event@QObject@@UAE_NPAVQEvent@@@Z 10012198     QtCore4:QtCore4.dll
 0002:0000019c       __imp_??0QObject@@QAE@PAV0@@Z 1001219c     QtCore4:QtCore4.dll
 0002:000001a0       __imp_??1QObject@@UAE@XZ   100121a0     QtCore4:QtCore4.dll
 0002:000001a4       \177QtCore4_NULL_THUNK_DATA 100121a4     QtCore4:QtCore4.dll
 0002:000001a8       __imp_?setGeometry@QGridLayout@@UAEXABVQRect@@@Z 100121a8     QtGui4:QtGui4.dll
 0002:000001ac       __imp_?geometry@QLayout@@UBE?AVQRect@@XZ 100121ac     QtGui4:QtGui4.dll
 0002:000001b0       __imp_?isEmpty@QLayout@@UBE_NXZ 100121b0     QtGui4:QtGui4.dll
 0002:000001b4       __imp_?hasHeightForWidth@QGridLayout@@UBE_NXZ 100121b4     QtGui4:QtGui4.dll
 0002:000001b8       __imp_?heightForWidth@QGridLayout@@UBEHH@Z 100121b8     QtGui4:QtGui4.dll
 0002:000001bc       __imp_?minimumHeightForWidth@QGridLayout@@UBEHH@Z 100121bc     QtGui4:QtGui4.dll
 0002:000001c0       __imp_?invalidate@QGridLayout@@UAEXXZ 100121c0     QtGui4:QtGui4.dll
 0002:000001c4       __imp_?widget@QLayoutItem@@UAEPAVQWidget@@XZ 100121c4     QtGui4:QtGui4.dll
 0002:000001c8       __imp_?layout@QLayout@@UAEPAV1@XZ 100121c8     QtGui4:QtGui4.dll
 0002:000001cc       __imp_?spacerItem@QLayoutItem@@UAEPAVQSpacerItem@@XZ 100121cc     QtGui4:QtGui4.dll
 0002:000001d0       __imp_?metaObject@QPushButton@@UBEPBUQMetaObject@@XZ 100121d0     QtGui4:QtGui4.dll
 0002:000001d4       __imp_?qt_metacast@QPushButton@@UAEPAXPBD@Z 100121d4     QtGui4:QtGui4.dll
 0002:000001d8       __imp_?qt_metacall@QPushButton@@UAEHW4Call@QMetaObject@@HPAPAX@Z 100121d8     QtGui4:QtGui4.dll
 0002:000001dc       __imp_?event@QPushButton@@MAE_NPAVQEvent@@@Z 100121dc     QtGui4:QtGui4.dll
 0002:000001e0       __imp_?timerEvent@QAbstractButton@@MAEXPAVQTimerEvent@@@Z 100121e0     QtGui4:QtGui4.dll
 0002:000001e4       __imp_?setVisible@QWidget@@UAEX_N@Z 100121e4     QtGui4:QtGui4.dll
 0002:000001e8       __imp_?sizeHint@QPushButton@@UBE?AVQSize@@XZ 100121e8     QtGui4:QtGui4.dll
 0002:000001ec       __imp_?minimumSizeHint@QPushButton@@UBE?AVQSize@@XZ 100121ec     QtGui4:QtGui4.dll
 0002:000001f0       __imp_?mousePressEvent@QAbstractButton@@MAEXPAVQMouseEvent@@@Z 100121f0     QtGui4:QtGui4.dll
 0002:000001f4       __imp_?mouseReleaseEvent@QAbstractButton@@MAEXPAVQMouseEvent@@@Z 100121f4     QtGui4:QtGui4.dll
 0002:000001f8       __imp_?mouseMoveEvent@QAbstractButton@@MAEXPAVQMouseEvent@@@Z 100121f8     QtGui4:QtGui4.dll
 0002:000001fc       __imp_?keyPressEvent@QPushButton@@MAEXPAVQKeyEvent@@@Z 100121fc     QtGui4:QtGui4.dll
 0002:00000200       __imp_?keyReleaseEvent@QAbstractButton@@MAEXPAVQKeyEvent@@@Z 10012200     QtGui4:QtGui4.dll
 0002:00000204       __imp_?focusInEvent@QPushButton@@MAEXPAVQFocusEvent@@@Z 10012204     QtGui4:QtGui4.dll
 0002:00000208       __imp_?focusOutEvent@QPushButton@@MAEXPAVQFocusEvent@@@Z 10012208     QtGui4:QtGui4.dll
 0002:0000020c       __imp_?paintEvent@QPushButton@@MAEXPAVQPaintEvent@@@Z 1001220c     QtGui4:QtGui4.dll
 0002:00000210       __imp_?resizeEvent@QWidget@@MAEXPAVQResizeEvent@@@Z 10012210     QtGui4:QtGui4.dll
 0002:00000214       __imp_?closeEvent@QWidget@@MAEXPAVQCloseEvent@@@Z 10012214     QtGui4:QtGui4.dll
 0002:00000218       __imp_?contextMenuEvent@QWidget@@MAEXPAVQContextMenuEvent@@@Z 10012218     QtGui4:QtGui4.dll
 0002:0000021c       __imp_?showEvent@QWidget@@MAEXPAVQShowEvent@@@Z 1001221c     QtGui4:QtGui4.dll
 0002:00000220       __imp_?changeEvent@QAbstractButton@@MAEXPAVQEvent@@@Z 10012220     QtGui4:QtGui4.dll
 0002:00000224       __imp_?hitButton@QAbstractButton@@MBE_NABVQPoint@@@Z 10012224     QtGui4:QtGui4.dll
 0002:00000228       __imp_?checkStateSet@QAbstractButton@@MAEXXZ 10012228     QtGui4:QtGui4.dll
 0002:0000022c       __imp_?nextCheckState@QAbstractButton@@MAEXXZ 1001222c     QtGui4:QtGui4.dll
 0002:00000230       __imp_?metaObject@QComboBox@@UBEPBUQMetaObject@@XZ 10012230     QtGui4:QtGui4.dll
 0002:00000234       __imp_?qt_metacast@QComboBox@@UAEPAXPBD@Z 10012234     QtGui4:QtGui4.dll
 0002:00000238       __imp_?qt_metacall@QComboBox@@UAEHW4Call@QMetaObject@@HPAPAX@Z 10012238     QtGui4:QtGui4.dll
 0002:0000023c       __imp_?event@QComboBox@@UAE_NPAVQEvent@@@Z 1001223c     QtGui4:QtGui4.dll
 0002:00000240       __imp_?sizeHint@QComboBox@@UBE?AVQSize@@XZ 10012240     QtGui4:QtGui4.dll
 0002:00000244       __imp_?minimumSizeHint@QComboBox@@UBE?AVQSize@@XZ 10012244     QtGui4:QtGui4.dll
 0002:00000248       __imp_?mousePressEvent@QComboBox@@MAEXPAVQMouseEvent@@@Z 10012248     QtGui4:QtGui4.dll
 0002:0000024c       __imp_?mouseReleaseEvent@QComboBox@@MAEXPAVQMouseEvent@@@Z 1001224c     QtGui4:QtGui4.dll
 0002:00000250       __imp_?wheelEvent@QComboBox@@MAEXPAVQWheelEvent@@@Z 10012250     QtGui4:QtGui4.dll
 0002:00000254       __imp_?keyPressEvent@QComboBox@@MAEXPAVQKeyEvent@@@Z 10012254     QtGui4:QtGui4.dll
 0002:00000258       __imp_?expandingDirections@QGridLayout@@UBE?AV?$QFlags@W4Orientation@Qt@@@@XZ 10012258     QtGui4:QtGui4.dll
 0002:0000025c       __imp_?focusInEvent@QComboBox@@MAEXPAVQFocusEvent@@@Z 1001225c     QtGui4:QtGui4.dll
 0002:00000260       __imp_?focusOutEvent@QComboBox@@MAEXPAVQFocusEvent@@@Z 10012260     QtGui4:QtGui4.dll
 0002:00000264       __imp_?paintEvent@QComboBox@@MAEXPAVQPaintEvent@@@Z 10012264     QtGui4:QtGui4.dll
 0002:00000268       __imp_?resizeEvent@QComboBox@@MAEXPAVQResizeEvent@@@Z 10012268     QtGui4:QtGui4.dll
 0002:0000026c       __imp_?contextMenuEvent@QComboBox@@MAEXPAVQContextMenuEvent@@@Z 1001226c     QtGui4:QtGui4.dll
 0002:00000270       __imp_?showEvent@QComboBox@@MAEXPAVQShowEvent@@@Z 10012270     QtGui4:QtGui4.dll
 0002:00000274       __imp_?hideEvent@QComboBox@@MAEXPAVQHideEvent@@@Z 10012274     QtGui4:QtGui4.dll
 0002:00000278       __imp_?changeEvent@QComboBox@@MAEXPAVQEvent@@@Z 10012278     QtGui4:QtGui4.dll
 0002:0000027c       __imp_?inputMethodEvent@QComboBox@@MAEXPAVQInputMethodEvent@@@Z 1001227c     QtGui4:QtGui4.dll
 0002:00000280       __imp_?inputMethodQuery@QComboBox@@MBE?AVQVariant@@W4InputMethodQuery@Qt@@@Z 10012280     QtGui4:QtGui4.dll
 0002:00000284       __imp_?showPopup@QComboBox@@UAEXXZ 10012284     QtGui4:QtGui4.dll
 0002:00000288       __imp_?hidePopup@QComboBox@@UAEXXZ 10012288     QtGui4:QtGui4.dll
 0002:0000028c       __imp_?metaObject@QDoubleSpinBox@@UBEPBUQMetaObject@@XZ 1001228c     QtGui4:QtGui4.dll
 0002:00000290       __imp_?qt_metacast@QDoubleSpinBox@@UAEPAXPBD@Z 10012290     QtGui4:QtGui4.dll
 0002:00000294       __imp_?qt_metacall@QDoubleSpinBox@@UAEHW4Call@QMetaObject@@HPAPAX@Z 10012294     QtGui4:QtGui4.dll
 0002:00000298       __imp_?event@QAbstractSpinBox@@UAE_NPAVQEvent@@@Z 10012298     QtGui4:QtGui4.dll
 0002:0000029c       __imp_?timerEvent@QAbstractSpinBox@@MAEXPAVQTimerEvent@@@Z 1001229c     QtGui4:QtGui4.dll
 0002:000002a0       __imp_?sizeHint@QAbstractSpinBox@@UBE?AVQSize@@XZ 100122a0     QtGui4:QtGui4.dll
 0002:000002a4       __imp_?minimumSizeHint@QAbstractSpinBox@@UBE?AVQSize@@XZ 100122a4     QtGui4:QtGui4.dll
 0002:000002a8       __imp_?mousePressEvent@QAbstractSpinBox@@MAEXPAVQMouseEvent@@@Z 100122a8     QtGui4:QtGui4.dll
 0002:000002ac       __imp_?mouseReleaseEvent@QAbstractSpinBox@@MAEXPAVQMouseEvent@@@Z 100122ac     QtGui4:QtGui4.dll
 0002:000002b0       __imp_?mouseMoveEvent@QAbstractSpinBox@@MAEXPAVQMouseEvent@@@Z 100122b0     QtGui4:QtGui4.dll
 0002:000002b4       __imp_?wheelEvent@QAbstractSpinBox@@MAEXPAVQWheelEvent@@@Z 100122b4     QtGui4:QtGui4.dll
 0002:000002b8       __imp_?keyPressEvent@QAbstractSpinBox@@MAEXPAVQKeyEvent@@@Z 100122b8     QtGui4:QtGui4.dll
 0002:000002bc       __imp_?keyReleaseEvent@QAbstractSpinBox@@MAEXPAVQKeyEvent@@@Z 100122bc     QtGui4:QtGui4.dll
 0002:000002c0       __imp_?focusInEvent@QAbstractSpinBox@@MAEXPAVQFocusEvent@@@Z 100122c0     QtGui4:QtGui4.dll
 0002:000002c4       __imp_?focusOutEvent@QAbstractSpinBox@@MAEXPAVQFocusEvent@@@Z 100122c4     QtGui4:QtGui4.dll
 0002:000002c8       __imp_?paintEvent@QAbstractSpinBox@@MAEXPAVQPaintEvent@@@Z 100122c8     QtGui4:QtGui4.dll
 0002:000002cc       __imp_?resizeEvent@QAbstractSpinBox@@MAEXPAVQResizeEvent@@@Z 100122cc     QtGui4:QtGui4.dll
 0002:000002d0       __imp_?closeEvent@QAbstractSpinBox@@MAEXPAVQCloseEvent@@@Z 100122d0     QtGui4:QtGui4.dll
 0002:000002d4       __imp_?contextMenuEvent@QAbstractSpinBox@@MAEXPAVQContextMenuEvent@@@Z 100122d4     QtGui4:QtGui4.dll
 0002:000002d8       __imp_?showEvent@QAbstractSpinBox@@MAEXPAVQShowEvent@@@Z 100122d8     QtGui4:QtGui4.dll
 0002:000002dc       __imp_?hideEvent@QAbstractSpinBox@@MAEXPAVQHideEvent@@@Z 100122dc     QtGui4:QtGui4.dll
 0002:000002e0       __imp_?changeEvent@QAbstractSpinBox@@MAEXPAVQEvent@@@Z 100122e0     QtGui4:QtGui4.dll
 0002:000002e4       __imp_?validate@QDoubleSpinBox@@UBE?AW4State@QValidator@@AAVQString@@AAH@Z 100122e4     QtGui4:QtGui4.dll
 0002:000002e8       __imp_?fixup@QDoubleSpinBox@@UBEXAAVQString@@@Z 100122e8     QtGui4:QtGui4.dll
 0002:000002ec       __imp_?stepBy@QAbstractSpinBox@@UAEXH@Z 100122ec     QtGui4:QtGui4.dll
 0002:000002f0       __imp_?clear@QAbstractSpinBox@@UAEXXZ 100122f0     QtGui4:QtGui4.dll
 0002:000002f4       __imp_?stepEnabled@QAbstractSpinBox@@MBE?AV?$QFlags@W4StepEnabledFlag@QAbstractSpinBox@@@@XZ 100122f4     QtGui4:QtGui4.dll
 0002:000002f8       __imp_?valueFromText@QDoubleSpinBox@@UBENABVQString@@@Z 100122f8     QtGui4:QtGui4.dll
 0002:000002fc       __imp_?textFromValue@QDoubleSpinBox@@UBE?AVQString@@N@Z 100122fc     QtGui4:QtGui4.dll
 0002:00000300       __imp_?metaObject@QLabel@@UBEPBUQMetaObject@@XZ 10012300     QtGui4:QtGui4.dll
 0002:00000304       __imp_?qt_metacast@QLabel@@UAEPAXPBD@Z 10012304     QtGui4:QtGui4.dll
 0002:00000308       __imp_?qt_metacall@QLabel@@UAEHW4Call@QMetaObject@@HPAPAX@Z 10012308     QtGui4:QtGui4.dll
 0002:0000030c       __imp_?event@QLabel@@MAE_NPAVQEvent@@@Z 1001230c     QtGui4:QtGui4.dll
 0002:00000310       __imp_?sizeHint@QLabel@@UBE?AVQSize@@XZ 10012310     QtGui4:QtGui4.dll
 0002:00000314       __imp_?minimumSizeHint@QLabel@@UBE?AVQSize@@XZ 10012314     QtGui4:QtGui4.dll
 0002:00000318       __imp_?heightForWidth@QLabel@@UBEHH@Z 10012318     QtGui4:QtGui4.dll
 0002:0000031c       __imp_?mousePressEvent@QLabel@@MAEXPAVQMouseEvent@@@Z 1001231c     QtGui4:QtGui4.dll
 0002:00000320       __imp_?mouseReleaseEvent@QLabel@@MAEXPAVQMouseEvent@@@Z 10012320     QtGui4:QtGui4.dll
 0002:00000324       __imp_?mouseMoveEvent@QLabel@@MAEXPAVQMouseEvent@@@Z 10012324     QtGui4:QtGui4.dll
 0002:00000328       __imp_?keyPressEvent@QLabel@@MAEXPAVQKeyEvent@@@Z 10012328     QtGui4:QtGui4.dll
 0002:0000032c       __imp_?focusInEvent@QLabel@@MAEXPAVQFocusEvent@@@Z 1001232c     QtGui4:QtGui4.dll
 0002:00000330       __imp_?focusOutEvent@QLabel@@MAEXPAVQFocusEvent@@@Z 10012330     QtGui4:QtGui4.dll
 0002:00000334       __imp_?paintEvent@QLabel@@MAEXPAVQPaintEvent@@@Z 10012334     QtGui4:QtGui4.dll
 0002:00000338       __imp_?contextMenuEvent@QLabel@@MAEXPAVQContextMenuEvent@@@Z 10012338     QtGui4:QtGui4.dll
 0002:0000033c       __imp_?changeEvent@QLabel@@MAEXPAVQEvent@@@Z 1001233c     QtGui4:QtGui4.dll
 0002:00000340       __imp_?focusNextPrevChild@QLabel@@MAE_N_N@Z 10012340     QtGui4:QtGui4.dll
 0002:00000344       __imp_??1QGridLayout@@UAE@XZ 10012344     QtGui4:QtGui4.dll
 0002:00000348       __imp_??1QPushButton@@UAE@XZ 10012348     QtGui4:QtGui4.dll
 0002:0000034c       __imp_??1QComboBox@@UAE@XZ 1001234c     QtGui4:QtGui4.dll
 0002:00000350       __imp_??1QAbstractSpinBox@@UAE@XZ 10012350     QtGui4:QtGui4.dll
 0002:00000354       __imp_??1QLabel@@UAE@XZ    10012354     QtGui4:QtGui4.dll
 0002:00000358       __imp_?qt_metacast@QDialog@@UAEPAXPBD@Z 10012358     QtGui4:QtGui4.dll
 0002:0000035c       __imp_?qt_metacall@QDialog@@UAEHW4Call@QMetaObject@@HPAPAX@Z 1001235c     QtGui4:QtGui4.dll
 0002:00000360       __imp_?staticMetaObject@QDialog@@2UQMetaObject@@B 10012360     QtGui4:QtGui4.dll
 0002:00000364       __imp_?maximumSize@QGridLayout@@UBE?AVQSize@@XZ 10012364     QtGui4:QtGui4.dll
 0002:00000368       __imp_?minimumSize@QGridLayout@@UBE?AVQSize@@XZ 10012368     QtGui4:QtGui4.dll
 0002:0000036c       __imp_?sizeHint@QGridLayout@@UBE?AVQSize@@XZ 1001236c     QtGui4:QtGui4.dll
 0002:00000370       __imp_?count@QGridLayout@@UBEHXZ 10012370     QtGui4:QtGui4.dll
 0002:00000374       __imp_?indexOf@QLayout@@UBEHPAVQWidget@@@Z 10012374     QtGui4:QtGui4.dll
 0002:00000378       __imp_?takeAt@QGridLayout@@UAEPAVQLayoutItem@@H@Z 10012378     QtGui4:QtGui4.dll
 0002:0000037c       __imp_?itemAt@QGridLayout@@UBEPAVQLayoutItem@@H@Z 1001237c     QtGui4:QtGui4.dll
 0002:00000380       __imp_?addItem@QGridLayout@@MAEXPAVQLayoutItem@@@Z 10012380     QtGui4:QtGui4.dll
 0002:00000384       __imp_?childEvent@QLayout@@MAEXPAVQChildEvent@@@Z 10012384     QtGui4:QtGui4.dll
 0002:00000388       __imp_?qt_metacall@QGridLayout@@UAEHW4Call@QMetaObject@@HPAPAX@Z 10012388     QtGui4:QtGui4.dll
 0002:0000038c       __imp_?qt_metacast@QGridLayout@@UAEPAXPBD@Z 1001238c     QtGui4:QtGui4.dll
 0002:00000390       __imp_?metaObject@QGridLayout@@UBEPBUQMetaObject@@XZ 10012390     QtGui4:QtGui4.dll
 0002:00000394       __imp_??0QDialog@@QAE@PAVQWidget@@V?$QFlags@W4WindowType@Qt@@@@@Z 10012394     QtGui4:QtGui4.dll
 0002:00000398       __imp_?setModal@QDialog@@QAEX_N@Z 10012398     QtGui4:QtGui4.dll
 0002:0000039c       __imp_??0QGridLayout@@QAE@PAVQWidget@@@Z 1001239c     QtGui4:QtGui4.dll
 0002:000003a0       __imp_??0QPushButton@@QAE@ABVQString@@PAVQWidget@@@Z 100123a0     QtGui4:QtGui4.dll
 0002:000003a4       __imp_??0QComboBox@@QAE@PAVQWidget@@@Z 100123a4     QtGui4:QtGui4.dll
 0002:000003a8       __imp_??0QDoubleSpinBox@@QAE@PAVQWidget@@@Z 100123a8     QtGui4:QtGui4.dll
 0002:000003ac       __imp_??0QLabel@@QAE@ABVQString@@PAVQWidget@@V?$QFlags@W4WindowType@Qt@@@@@Z 100123ac     QtGui4:QtGui4.dll
 0002:000003b0       __imp_?addWidget@QGridLayout@@QAEXPAVQWidget@@HHV?$QFlags@W4AlignmentFlag@Qt@@@@@Z 100123b0     QtGui4:QtGui4.dll
 0002:000003b4       __imp_?addWidget@QGridLayout@@QAEXPAVQWidget@@HHHHV?$QFlags@W4AlignmentFlag@Qt@@@@@Z 100123b4     QtGui4:QtGui4.dll
 0002:000003b8       __imp_?setText@QAbstractButton@@QAEXABVQString@@@Z 100123b8     QtGui4:QtGui4.dll
 0002:000003bc       __imp_?resize@QWidget@@QAEXABVQSize@@@Z 100123bc     QtGui4:QtGui4.dll
 0002:000003c0       __imp_??0QIcon@@QAE@XZ     100123c0     QtGui4:QtGui4.dll
 0002:000003c4       __imp_?insertItem@QComboBox@@QAEXHABVQIcon@@ABVQString@@ABVQVariant@@@Z 100123c4     QtGui4:QtGui4.dll
 0002:000003c8       __imp_??1QIcon@@QAE@XZ     100123c8     QtGui4:QtGui4.dll
 0002:000003cc       __imp_?setMinimum@QDoubleSpinBox@@QAEXN@Z 100123cc     QtGui4:QtGui4.dll
 0002:000003d0       __imp_?metric@QWidget@@MBEHW4PaintDeviceMetric@QPaintDevice@@@Z 100123d0     QtGui4:QtGui4.dll
 0002:000003d4       __imp_?releaseDC@QWidget@@UBEXPAUHDC__@@@Z 100123d4     QtGui4:QtGui4.dll
 0002:000003d8       __imp_?getDC@QWidget@@UBEPAUHDC__@@XZ 100123d8     QtGui4:QtGui4.dll
 0002:000003dc       __imp_?paintEngine@QWidget@@UBEPAVQPaintEngine@@XZ 100123dc     QtGui4:QtGui4.dll
 0002:000003e0       __imp_?devType@QWidget@@UBEHXZ 100123e0     QtGui4:QtGui4.dll
 0002:000003e4       __imp_?reject@QDialog@@UAEXXZ 100123e4     QtGui4:QtGui4.dll
 0002:000003e8       __imp_?accept@QDialog@@UAEXXZ 100123e8     QtGui4:QtGui4.dll
 0002:000003ec       __imp_?done@QDialog@@UAEXH@Z 100123ec     QtGui4:QtGui4.dll
 0002:000003f0       __imp_?languageChange@QWidget@@MAEXXZ 100123f0     QtGui4:QtGui4.dll
 0002:000003f4       __imp_?windowActivationChange@QWidget@@MAEX_N@Z 100123f4     QtGui4:QtGui4.dll
 0002:000003f8       __imp_?fontChange@QWidget@@MAEXABVQFont@@@Z 100123f8     QtGui4:QtGui4.dll
 0002:000003fc       __imp_?paletteChange@QWidget@@MAEXABVQPalette@@@Z 100123fc     QtGui4:QtGui4.dll
 0002:00000400       __imp_?enabledChange@QWidget@@MAEX_N@Z 10012400     QtGui4:QtGui4.dll
 0002:00000404       __imp_?styleChange@QWidget@@MAEXAAVQStyle@@@Z 10012404     QtGui4:QtGui4.dll
 0002:00000408       __imp_?focusNextPrevChild@QWidget@@MAE_N_N@Z 10012408     QtGui4:QtGui4.dll
 0002:0000040c       __imp_?inputMethodQuery@QWidget@@UBE?AVQVariant@@W4InputMethodQuery@Qt@@@Z 1001240c     QtGui4:QtGui4.dll
 0002:00000410       __imp_?inputMethodEvent@QWidget@@MAEXPAVQInputMethodEvent@@@Z 10012410     QtGui4:QtGui4.dll
 0002:00000414       __imp_?changeEvent@QWidget@@MAEXPAVQEvent@@@Z 10012414     QtGui4:QtGui4.dll
 0002:00000418       __imp_?winEvent@QWidget@@MAE_NPAUtagMSG@@PAJ@Z 10012418     QtGui4:QtGui4.dll
 0002:0000041c       __imp_?hideEvent@QWidget@@MAEXPAVQHideEvent@@@Z 1001241c     QtGui4:QtGui4.dll
 0002:00000420       __imp_?showEvent@QDialog@@MAEXPAVQShowEvent@@@Z 10012420     QtGui4:QtGui4.dll
 0002:00000424       __imp_?dropEvent@QWidget@@MAEXPAVQDropEvent@@@Z 10012424     QtGui4:QtGui4.dll
 0002:00000428       __imp_?dragLeaveEvent@QWidget@@MAEXPAVQDragLeaveEvent@@@Z 10012428     QtGui4:QtGui4.dll
 0002:0000042c       __imp_?dragMoveEvent@QWidget@@MAEXPAVQDragMoveEvent@@@Z 1001242c     QtGui4:QtGui4.dll
 0002:00000430       __imp_?dragEnterEvent@QWidget@@MAEXPAVQDragEnterEvent@@@Z 10012430     QtGui4:QtGui4.dll
 0002:00000434       __imp_?actionEvent@QWidget@@MAEXPAVQActionEvent@@@Z 10012434     QtGui4:QtGui4.dll
 0002:00000438       __imp_?tabletEvent@QWidget@@MAEXPAVQTabletEvent@@@Z 10012438     QtGui4:QtGui4.dll
 0002:0000043c       __imp_?contextMenuEvent@QDialog@@MAEXPAVQContextMenuEvent@@@Z 1001243c     QtGui4:QtGui4.dll
 0002:00000440       __imp_?closeEvent@QDialog@@MAEXPAVQCloseEvent@@@Z 10012440     QtGui4:QtGui4.dll
 0002:00000444       __imp_?resizeEvent@QDialog@@MAEXPAVQResizeEvent@@@Z 10012444     QtGui4:QtGui4.dll
 0002:00000448       __imp_?moveEvent@QWidget@@MAEXPAVQMoveEvent@@@Z 10012448     QtGui4:QtGui4.dll
 0002:0000044c       __imp_?paintEvent@QWidget@@MAEXPAVQPaintEvent@@@Z 1001244c     QtGui4:QtGui4.dll
 0002:00000450       __imp_?leaveEvent@QWidget@@MAEXPAVQEvent@@@Z 10012450     QtGui4:QtGui4.dll
 0002:00000454       __imp_?enterEvent@QWidget@@MAEXPAVQEvent@@@Z 10012454     QtGui4:QtGui4.dll
 0002:00000458       __imp_?focusOutEvent@QWidget@@MAEXPAVQFocusEvent@@@Z 10012458     QtGui4:QtGui4.dll
 0002:0000045c       __imp_?focusInEvent@QWidget@@MAEXPAVQFocusEvent@@@Z 1001245c     QtGui4:QtGui4.dll
 0002:00000460       __imp_?keyReleaseEvent@QWidget@@MAEXPAVQKeyEvent@@@Z 10012460     QtGui4:QtGui4.dll
 0002:00000464       __imp_?keyPressEvent@QDialog@@MAEXPAVQKeyEvent@@@Z 10012464     QtGui4:QtGui4.dll
 0002:00000468       __imp_?wheelEvent@QWidget@@MAEXPAVQWheelEvent@@@Z 10012468     QtGui4:QtGui4.dll
 0002:0000046c       __imp_?mouseMoveEvent@QWidget@@MAEXPAVQMouseEvent@@@Z 1001246c     QtGui4:QtGui4.dll
 0002:00000470       __imp_?hide@QWidget@@QAEXXZ 10012470     QtGui4:QtGui4.dll
 0002:00000474       __imp_?mouseDoubleClickEvent@QWidget@@MAEXPAVQMouseEvent@@@Z 10012474     QtGui4:QtGui4.dll
 0002:00000478       __imp_?mouseReleaseEvent@QWidget@@MAEXPAVQMouseEvent@@@Z 10012478     QtGui4:QtGui4.dll
 0002:0000047c       __imp_?mousePressEvent@QWidget@@MAEXPAVQMouseEvent@@@Z 1001247c     QtGui4:QtGui4.dll
 0002:00000480       __imp_?heightForWidth@QWidget@@UBEHH@Z 10012480     QtGui4:QtGui4.dll
 0002:00000484       __imp_?minimumSizeHint@QDialog@@UBE?AVQSize@@XZ 10012484     QtGui4:QtGui4.dll
 0002:00000488       __imp_?sizeHint@QDialog@@UBE?AVQSize@@XZ 10012488     QtGui4:QtGui4.dll
 0002:0000048c       __imp_?setVisible@QDialog@@UAEX_N@Z 1001248c     QtGui4:QtGui4.dll
 0002:00000490       __imp_?eventFilter@QDialog@@MAE_NPAVQObject@@PAVQEvent@@@Z 10012490     QtGui4:QtGui4.dll
 0002:00000494       __imp_?event@QWidget@@MAE_NPAVQEvent@@@Z 10012494     QtGui4:QtGui4.dll
 0002:00000498       __imp_??1QDialog@@UAE@XZ   10012498     QtGui4:QtGui4.dll
 0002:0000049c       __imp_?currentIndex@QComboBox@@QBEHXZ 1001249c     QtGui4:QtGui4.dll
 0002:000004a0       __imp_?setEnabled@QWidget@@QAEX_N@Z 100124a0     QtGui4:QtGui4.dll
 0002:000004a4       __imp_?value@QDoubleSpinBox@@QBENXZ 100124a4     QtGui4:QtGui4.dll
 0002:000004a8       __imp_?critical@QMessageBox@@SAHPAVQWidget@@ABVQString@@1111HH@Z 100124a8     QtGui4:QtGui4.dll
 0002:000004ac       __imp_?keyReleaseEvent@QComboBox@@MAEXPAVQKeyEvent@@@Z 100124ac     QtGui4:QtGui4.dll
 0002:000004b0       \177QtGui4_NULL_THUNK_DATA 100124b0     QtGui4:QtGui4.dll
 0002:000004b4       ___xc_a                    100124b4     MSVCRT:cinitexe.obj
 0002:000004c4       ___xc_z                    100124c4     MSVCRT:cinitexe.obj
 0002:000004c8       ___xi_a                    100124c8     MSVCRT:cinitexe.obj
 0002:000004d0       ___xi_z                    100124d0     MSVCRT:cinitexe.obj
 0002:000004fc       ??_C@_0P@GHFPNOJB@bad?5allocation?$AA@ 100124fc     DataMerge.obj
 0002:0000050c       ?collate@?$_Locbase@H@std@@2HB 1001250c     DataMerge.obj
 0002:00000510       ?ctype@?$_Locbase@H@std@@2HB 10012510     DataMerge.obj
 0002:00000514       ?monetary@?$_Locbase@H@std@@2HB 10012514     DataMerge.obj
 0002:00000518       ?numeric@?$_Locbase@H@std@@2HB 10012518     DataMerge.obj
 0002:0000051c       ?time@?$_Locbase@H@std@@2HB 1001251c     DataMerge.obj
 0002:00000520       ?messages@?$_Locbase@H@std@@2HB 10012520     DataMerge.obj
 0002:00000524       ?all@?$_Locbase@H@std@@2HB 10012524     DataMerge.obj
 0002:00000528       ?none@?$_Locbase@H@std@@2HB 10012528     DataMerge.obj
 0002:0000052c       ?skipws@?$_Iosb@H@std@@2W4_Fmtflags@12@B 1001252c     DataMerge.obj
 0002:00000530       ?unitbuf@?$_Iosb@H@std@@2W4_Fmtflags@12@B 10012530     DataMerge.obj
 0002:00000534       ?uppercase@?$_Iosb@H@std@@2W4_Fmtflags@12@B 10012534     DataMerge.obj
 0002:00000538       ?showbase@?$_Iosb@H@std@@2W4_Fmtflags@12@B 10012538     DataMerge.obj
 0002:0000053c       ?showpoint@?$_Iosb@H@std@@2W4_Fmtflags@12@B 1001253c     DataMerge.obj
 0002:00000540       ?showpos@?$_Iosb@H@std@@2W4_Fmtflags@12@B 10012540     DataMerge.obj
 0002:00000544       ?left@?$_Iosb@H@std@@2W4_Fmtflags@12@B 10012544     DataMerge.obj
 0002:00000548       ?right@?$_Iosb@H@std@@2W4_Fmtflags@12@B 10012548     DataMerge.obj
 0002:0000054c       ?internal@?$_Iosb@H@std@@2W4_Fmtflags@12@B 1001254c     DataMerge.obj
 0002:00000550       ?dec@?$_Iosb@H@std@@2W4_Fmtflags@12@B 10012550     DataMerge.obj
 0002:00000554       ?oct@?$_Iosb@H@std@@2W4_Fmtflags@12@B 10012554     DataMerge.obj
 0002:00000558       ?hex@?$_Iosb@H@std@@2W4_Fmtflags@12@B 10012558     DataMerge.obj
 0002:0000055c       ?scientific@?$_Iosb@H@std@@2W4_Fmtflags@12@B 1001255c     DataMerge.obj
 0002:00000560       ?fixed@?$_Iosb@H@std@@2W4_Fmtflags@12@B 10012560     DataMerge.obj
 0002:00000564       ?boolalpha@?$_Iosb@H@std@@2W4_Fmtflags@12@B 10012564     DataMerge.obj
 0002:00000568       ?_Stdio@?$_Iosb@H@std@@2W4_Fmtflags@12@B 10012568     DataMerge.obj
 0002:0000056c       ?adjustfield@?$_Iosb@H@std@@2W4_Fmtflags@12@B 1001256c     DataMerge.obj
 0002:00000570       ?basefield@?$_Iosb@H@std@@2W4_Fmtflags@12@B 10012570     DataMerge.obj
 0002:00000574       ?floatfield@?$_Iosb@H@std@@2W4_Fmtflags@12@B 10012574     DataMerge.obj
 0002:00000578       ?goodbit@?$_Iosb@H@std@@2W4_Iostate@12@B 10012578     DataMerge.obj
 0002:0000057c       ?eofbit@?$_Iosb@H@std@@2W4_Iostate@12@B 1001257c     DataMerge.obj
 0002:00000580       ?failbit@?$_Iosb@H@std@@2W4_Iostate@12@B 10012580     DataMerge.obj
 0002:00000584       ?badbit@?$_Iosb@H@std@@2W4_Iostate@12@B 10012584     DataMerge.obj
 0002:00000588       ?_Hardfail@?$_Iosb@H@std@@2W4_Iostate@12@B 10012588     DataMerge.obj
 0002:0000058c       ?in@?$_Iosb@H@std@@2W4_Openmode@12@B 1001258c     DataMerge.obj
 0002:00000590       ?out@?$_Iosb@H@std@@2W4_Openmode@12@B 10012590     DataMerge.obj
 0002:00000594       ?ate@?$_Iosb@H@std@@2W4_Openmode@12@B 10012594     DataMerge.obj
 0002:00000598       ?app@?$_Iosb@H@std@@2W4_Openmode@12@B 10012598     DataMerge.obj
 0002:0000059c       ?trunc@?$_Iosb@H@std@@2W4_Openmode@12@B 1001259c     DataMerge.obj
 0002:000005a0       ?_Nocreate@?$_Iosb@H@std@@2W4_Openmode@12@B 100125a0     DataMerge.obj
 0002:000005a4       ?_Noreplace@?$_Iosb@H@std@@2W4_Openmode@12@B 100125a4     DataMerge.obj
 0002:000005a8       ?binary@?$_Iosb@H@std@@2W4_Openmode@12@B 100125a8     DataMerge.obj
 0002:000005ac       ?beg@?$_Iosb@H@std@@2W4_Seekdir@12@B 100125ac     DataMerge.obj
 0002:000005b0       ?cur@?$_Iosb@H@std@@2W4_Seekdir@12@B 100125b0     DataMerge.obj
 0002:000005b4       ?end@?$_Iosb@H@std@@2W4_Seekdir@12@B 100125b4     DataMerge.obj
 0002:000005bc       ??_7bad_alloc@std@@6B@     100125bc     DataMerge.obj
 0002:000005c8       ??_7logic_error@std@@6B@   100125c8     DataMerge.obj
 0002:000005d4       ??_7length_error@std@@6B@  100125d4     DataMerge.obj
 0002:000005dc       ??_C@_0DM@FIOOOCLL@DataAccessor?5back?9pointer?5to?5dat@ 100125dc     DataMerge.obj
 0002:0000061c       ??_7PlugInFactory@@6B@     1001261c     DataMerge.obj
 0002:00000624       ??_C@_0CH@FKIDNGLE@?$HL1AA900B7?909FE?94d7b?9A8D4?925DEEDE@ 10012624     DataMerge.obj
 0002:0000064c       ??_C@_0CI@DILHPJE@?$FLSpectral?5Data?5Merge?$FN?1SpectralDa@ 1001264c     DataMerge.obj
 0002:00000678       ??_C@_0EE@MHPLEIOL@Merge?5one?9band?5spectral?5data?5int@ 10012678     DataMerge.obj
 0002:000006bc       ??_C@_0BE@LJCNKBLN@Spectral?5Data?5Merge?$AA@ 100126bc     DataMerge.obj
 0002:000006d0       ??_C@_0DI@BNLMKDHI@Copyright?5?$CIC?$CJ?52008?0?5Ball?5Aerospa@ 100126d0     DataMerge.obj
 0002:00000708       ??_C@_06OANMLBJC@Sample?$AA@ 10012708     DataMerge.obj
 0002:00000714       ??_7DataMerge@@6BSessionItemExt1@@@ 10012714     DataMerge.obj
 0002:00000724       ??_7DataMerge@@6BPlugIn@@@ 10012724     DataMerge.obj
 0002:00000784       ??_7DataMerge@@6BViewerShell@@@ 10012784     DataMerge.obj
 0002:000007c4       ??_7DataMerge@@6BQObject@@@ 100127c4     DataMerge.obj
 0002:000007f0       ??_C@_0BC@ICGJBBHK@Opticks?5Community?$AA@ 100127f0     DataMerge.obj
 0002:00000804       ??_C@_0BD@OLBABOEK@vector?$DMT?$DO?5too?5long?$AA@ 10012804     DataMerge.obj
 0002:0000081c       ??_7?$Resource@VStep@@VMessageObject@@@@6B@ 1001281c     DataMerge.obj
 0002:00000824       ??_7?$Resource@VDataRequest@@VFactoryObject@@@@6B@ 10012824     DataMerge.obj
 0002:00000828       ??_C@_01CLKCMJKC@?5?$AA@   10012828     DataMerge.obj
 0002:0000082c       ??_C@_0O@JINNKCJN@D?3?2data?$CFd?4txt?$AA@ 1001282c     DataMerge.obj
 0002:00000840       ??_7StepResource@@6B@      10012840     DataMerge.obj
 0002:00000848       ??_7?$FactoryResource@VDataRequest@@@@6B@ 10012848     DataMerge.obj
 0002:0000084c       ??_C@_0BI@HLJKOGKA@Pixel?5Aspect?5Ratio?5Test?$AA@ 1001284c     DataMerge.obj
 0002:00000864       ??_C@_0BO@DBAFGKCP@No?5RasterElement?5input?5found?$CB?$AA@ 10012864     DataMerge.obj
 0002:00000884       ??_C@_02GIPFHKNO@OK?$AA@   10012884     DataMerge.obj
 0002:00000888       ??_C@_0O@NOOCEGCF@RasterElement?$AA@ 10012888     DataMerge.obj
 0002:00000898       ??_C@_0BM@BKGGGGFL@Pixel?5Aspect?5Ratio?5Started?4?$AA@ 10012898     DataMerge.obj
 0002:000008b4       ??_C@_03CGOPKBCD@app?$AA@  100128b4     DataMerge.obj
 0002:000008b8       ??_C@_0CF@MNMEDDIH@5E4BCD48?9E662?9408b?993AF?9F9127CE5@ 100128b8     DataMerge.obj
 0002:000008dd       ??_C@_00CNPNBAHC@?$AA@     100128dd     DataMerge.obj
 0002:000008e4       ??_7BasicPlugInFactory@@6B@ 100128e4     DataMerge.obj
 0002:000008f0       ??_7DataMergePlugInFactory@SpectralDataMerge@@6B@ 100128f0     DataMerge.obj
 0002:000008f8       ??_C@_09LDNHLGFA@DataMerge?$AA@ 100128f8     DataMerge.obj
 0002:00000908       ??_7out_of_range@std@@6B@  10012908     DataMergeGui.obj
 0002:00000910       ??_C@_0BM@NMJKDPPO@invalid?5vector?$DMT?$DO?5subscript?$AA@ 10012910     DataMergeGui.obj
 0002:0000092c       ??_C@_0BB@LJLMGJMF@scaledCubeWindow?$AA@ 1001292c     DataMergeGui.obj
 0002:00000940       ??_C@_0BD@OAMAJMMH@Plug?9in?5Cancelled?$CB?$AA@ 10012940     DataMergeGui.obj
 0002:00000954       ??_C@_0BL@KMHFHNNL@Pixel?5Aspect?5Ratio?5Closed?4?$AA@ 10012954     DataMergeGui.obj
 0002:00000970       ??_C@_0CF@PKLBMDD@1E200C4D?9003D?94684?9B9B0?9712D7E17@ 10012970     DataMergeGui.obj
 0002:0000099c       ??_7DataMergeGui@@6BQPaintDevice@@@ 1001299c     DataMergeGui.obj
 0002:000009bc       ??_7DataMergeGui@@6BQObject@@@ 100129bc     DataMergeGui.obj
 0002:00000a90       __real@3ff0000000000000    10012a90     DataMergeGui.obj
 0002:00000a98       ??_C@_0CB@CAGMOHBE@2clicked?$CI?$CJ?$AA?4?2DataMergeGui?4cpp?353@ 10012a98     DataMergeGui.obj
 0002:00000abc       ??_C@_0CJ@HEJFELDL@1generateNewView?$CI?$CJ?$AA?4?2DataMergeGu@ 10012abc     DataMergeGui.obj
 0002:00000ae8       ??_C@_0CB@DJHHNGFF@2clicked?$CI?$CJ?$AA?4?2DataMergeGui?4cpp?352@ 10012ae8     DataMergeGui.obj
 0002:00000b0c       ??_C@_0CE@KAHHMIBG@1applyScale?$CI?$CJ?$AA?4?2DataMergeGui?4cpp@ 10012b0c     DataMergeGui.obj
 0002:00000b30       ??_C@_0CB@BCFKIFJG@2clicked?$CI?$CJ?$AA?4?2DataMergeGui?4cpp?351@ 10012b30     DataMergeGui.obj
 0002:00000b54       ??_C@_0CA@FIDLMGFP@1reject?$CI?$CJ?$AA?4?2DataMergeGui?4cpp?351?$AA@ 10012b54     DataMergeGui.obj
 0002:00000b74       ??_C@_05LGELBCGM@Close?$AA@ 10012b74     DataMergeGui.obj
 0002:00000b7c       ??_C@_0N@IBAGBPAK@cancelButton?$AA@ 10012b7c     DataMergeGui.obj
 0002:00000b8c       ??_C@_0P@MDBCKIOC@Y?5Scale?5Factor?$AA@ 10012b8c     DataMergeGui.obj
 0002:00000b9c       ??_C@_0P@HKOJHDAK@X?5Scale?5Factor?$AA@ 10012b9c     DataMergeGui.obj
 0002:00000bb0       ??_SQLabel@@6BQPaintDevice@@@ 10012bb0     DataMergeGui.obj
 0002:00000bcc       ??_SQLabel@@6BQObject@@@   10012bcc     DataMergeGui.obj
 0002:00000c94       ??_C@_0O@PLJMADOO@Cube?5to?5Scale?$AA@ 10012c94     DataMergeGui.obj
 0002:00000ca8       ??_SQDoubleSpinBox@@6BQPaintDevice@@@ 10012ca8     DataMergeGui.obj
 0002:00000cc4       ??_SQDoubleSpinBox@@6BQObject@@@ 10012cc4     DataMergeGui.obj
 0002:00000dac       ??_SQComboBox@@6BQPaintDevice@@@ 10012dac     DataMergeGui.obj
 0002:00000dcc       ??_SQComboBox@@6BQObject@@@ 10012dcc     DataMergeGui.obj
 0002:00000e9c       ??_C@_0BD@OHEBGBEO@Generate?5Test?5View?$AA@ 10012e9c     DataMergeGui.obj
 0002:00000eb4       ??_SQPushButton@@6BQPaintDevice@@@ 10012eb4     DataMergeGui.obj
 0002:00000ed4       ??_SQPushButton@@6BQObject@@@ 10012ed4     DataMergeGui.obj
 0002:00000fa8       ??_C@_0O@GOGJACOM@Apply?5Scaling?$AA@ 10012fa8     DataMergeGui.obj
 0002:00000fbc       ??_SQGridLayout@@6BQLayoutItem@@@ 10012fbc     DataMergeGui.obj
 0002:00000ffc       ??_SQGridLayout@@6BQObject@@@ 10012ffc     DataMergeGui.obj
 0002:0000103c       ??_C@_0BE@CMIKKFH@PixelAspectRatioGui?$AA@ 1001303c     DataMergeGui.obj
 0002:00001050       ??_C@_0CD@LKFILPEI@SpectralDataMergeInstantiatePlug@ 10013050     ModuleManager.obj
 0002:00001074       ??_C@_0BC@PNFDIAAA@SpectralDataMerge?$AA@ 10013074     ModuleManager.obj
 0002:000010ec       ??_C@_0M@JLCADHDP@ViewerShell?$AA@ 100130ec     moc_DataMerge.obj
 0002:00001188       ??_7SlotWrapper@Slot@@6B@  10013188     PlugInLib:ViewerShell.obj
 0002:000011a4       ??_7PlugInCallback@@6B@    100131a4     PlugInLib:ViewerShell.obj
 0002:000011b8       ??_C@_06PJECNADJ@Viewer?$AA@ 100131b8     PlugInLib:ViewerShell.obj
 0002:000011c4       ??_7?$SlotValue@VViewerShell@@@Slot@@6B@ 100131c4     PlugInLib:ViewerShell.obj
 0002:000011e0       ??_7?$SlotValue@V?$SafePtr@VApplicationServices@@@@@Slot@@6B@ 100131e0     PlugInLib:ViewerShell.obj
 0002:000011f8       ??_C@_0BB@JLIMABD@Subject?3?3Deleted?$AA@ 100131f8     PlugInLib:ViewerShell.obj
 0002:0000120c       ??_C@_0CD@NKDKNGIP@ApplicationServices?3?3SessionClos@ 1001320c     PlugInLib:ViewerShell.obj
 0002:00001234       ??_7ViewerCallback@@6B@    10013234     PlugInLib:ViewerShell.obj
 0002:00001248       ??_C@_0BI@COLNOGJN@pT?5?$CB?$DN?50?5?$CG?$CG?5pMethod?5?$CB?$DN?50?$AA@ 10013248     PlugInLib:ViewerShell.obj
 0002:00001260       ??_C@_0DN@JAJKOECL@C?3?2Opticks?2Rollup?2Opticks?2Code?2A@ 10013260     PlugInLib:ViewerShell.obj
 0002:000012a4       ??_7?$SafePtr@VApplicationServices@@@@6B@ 100132a4     PlugInLib:ViewerShell.obj
 0002:000012ac       ??_7?$AttachmentPtr@VApplicationServices@@@@6B@ 100132ac     PlugInLib:ViewerShell.obj
 0002:000012b4       ??_7ViewerShell@@6BSessionItemExt1@@@ 100132b4     PlugInLib:ViewerShell.obj
 0002:000012c4       ??_7ViewerShell@@6BPlugIn@@@ 100132c4     PlugInLib:ViewerShell.obj
 0002:00001324       ??_7ViewerShell@@6B@       10013324     PlugInLib:ViewerShell.obj
 0002:00001364       ??_7Executable@@6B@        10013364     PlugInLib:ExecutableShell.obj
 0002:000013a0       ??_7ExecutableShell@@6BSessionItemExt1@@@ 100133a0     PlugInLib:ExecutableShell.obj
 0002:000013ac       ??_7ExecutableShell@@6BPlugIn@@@ 100133ac     PlugInLib:ExecutableShell.obj
 0002:0000140c       ??_7ExecutableShell@@6B@   1001340c     PlugInLib:ExecutableShell.obj
 0002:00001448       ??_7SessionItem@@6B@       10013448     PlugInLib:PlugInShell.obj
 0002:00001478       ??_7SessionItemExt1@@6B@   10013478     PlugInLib:PlugInShell.obj
 0002:00001484       ??_7PlugIn@@6B@            10013484     PlugInLib:PlugInShell.obj
 0002:000014e0       ??_C@_0P@JLMCDHHI@pItemExt1?5?$CB?$DN?50?$AA@ 100134e0     PlugInLib:PlugInShell.obj
 0002:000014f0       ??_C@_0BC@EMCJJKHH@?4?2PlugInShell?4cpp?$AA@ 100134f0     PlugInLib:PlugInShell.obj
 0002:00001508       ??_7?$Resource@VSettableSessionItem@@VFactoryObject@@@@6B@ 10013508     PlugInLib:PlugInShell.obj
 0002:00001510       ??_7?$FactoryResource@VSettableSessionItem@@@@6B@ 10013510     PlugInLib:PlugInShell.obj
 0002:00001514       ??_C@_0BE@JONHPENG@map?1set?$DMT?$DO?5too?5long?$AA@ 10013514     PlugInLib:PlugInShell.obj
 0002:00001528       ??_C@_0BM@PAPJHAGI@invalid?5map?1set?$DMT?$DO?5iterator?$AA@ 10013528     PlugInLib:PlugInShell.obj
 0002:00001548       ??_7PlugInShell@@6BSessionItemExt1@@@ 10013548     PlugInLib:PlugInShell.obj
 0002:00001554       ??_7PlugInShell@@6BPlugIn@@@ 10013554     PlugInLib:PlugInShell.obj
 0002:000015b0       ??_C@_05ILABNDBH@4?43?43?$AA@ 100135b0     PlugInLib:PlugInShell.obj
 0002:000015b8       ??_C@_0BF@CBGMDFFH@ApplicationServices2?$AA@ 100135b8     PlugInUtilities:Service.obj
 0002:000015d0       ??_C@_0BB@FJJDPHAA@UtilityServices2?$AA@ 100135d0     PlugInUtilities:Service.obj
 0002:000015e4       ??_C@_0P@IDKJDNID@ModelServices2?$AA@ 100135e4     PlugInUtilities:Service.obj
 0002:000015f4       ??_C@_0BD@NJOLPMIK@AnimationServices2?$AA@ 100135f4     PlugInUtilities:Service.obj
 0002:00001608       ??_C@_0BB@DCGHPDHL@DesktopServices2?$AA@ 10013608     PlugInUtilities:Service.obj
 0002:0000161c       ??_C@_0BH@EIOKNJIO@PlugInManagerServices2?$AA@ 1001361c     PlugInUtilities:Service.obj
 0002:00001638       ??_C@_0FK@BOFLLCAH@Attempting?5to?5use?5SessionExplore@ 10013638     PlugInUtilities:Service.obj
 0002:00001694       ??_C@_0BB@ICFKALOH@Session?5Explorer?$AA@ 10013694     PlugInUtilities:Service.obj
 0002:000016a8       ??_C@_04DDKJGDCM@bool?$AA@ 100136a8     PlugInUtilities:TypeConverter.obj
 0002:000016b0       ??_C@_0N@FDIAEDPI@vector?$DMbool?$DO?$AA@ 100136b0     PlugInUtilities:TypeConverter.obj
 0002:000016c0       ??_C@_04ENMBGAPA@char?$AA@ 100136c0     PlugInUtilities:TypeConverter.obj
 0002:000016c8       ??_C@_0N@NMJLLFAE@vector?$DMchar?$DO?$AA@ 100136c8     PlugInUtilities:TypeConverter.obj
 0002:000016d8       ??_C@_0O@PPAIJIHF@unsigned?5char?$AA@ 100136d8     PlugInUtilities:TypeConverter.obj
 0002:000016e8       ??_C@_0BG@IPHPNPDM@vector?$DMunsigned?5char?$DO?$AA@ 100136e8     PlugInUtilities:TypeConverter.obj
 0002:00001700       ??_C@_0M@MPLPCMBL@signed?5char?$AA@ 10013700     PlugInUtilities:TypeConverter.obj
 0002:0000170c       ??_C@_0BE@FHIKMJEO@vector?$DMsigned?5char?$DO?$AA@ 1001370c     PlugInUtilities:TypeConverter.obj
 0002:00001720       ??_C@_05BFKKPKCG@short?$AA@ 10013720     PlugInUtilities:TypeConverter.obj
 0002:00001728       ??_C@_0O@ODJHGOGI@vector?$DMshort?$DO?$AA@ 10013728     PlugInUtilities:TypeConverter.obj
 0002:00001738       ??_C@_0P@IIMKEEHB@unsigned?5short?$AA@ 10013738     PlugInUtilities:TypeConverter.obj
 0002:00001748       ??_C@_0BH@MLMGDCJM@vector?$DMunsigned?5short?$DO?$AA@ 10013748     PlugInUtilities:TypeConverter.obj
 0002:00001760       ??_C@_03JBIPMCLC@int?$AA@  10013760     PlugInUtilities:TypeConverter.obj
 0002:00001764       ??_C@_0M@KFCDPAGK@vector?$DMint?$DO?$AA@ 10013764     PlugInUtilities:TypeConverter.obj
 0002:00001770       ??_C@_0N@OFHMGPAL@unsigned?5int?$AA@ 10013770     PlugInUtilities:TypeConverter.obj
 0002:00001780       ??_C@_0BF@PCNKPIJI@vector?$DMunsigned?5int?$DO?$AA@ 10013780     PlugInUtilities:TypeConverter.obj
 0002:00001798       ??_C@_04GOKPGOLB@long?$AA@ 10013798     PlugInUtilities:TypeConverter.obj
 0002:000017a0       ??_C@_0N@NNGDKKAM@vector?$DMlong?$DO?$AA@ 100137a0     PlugInUtilities:TypeConverter.obj
 0002:000017b0       ??_C@_0O@NMGGJGDE@unsigned?5long?$AA@ 100137b0     PlugInUtilities:TypeConverter.obj
 0002:000017c0       ??_C@_0BG@IOIHMADE@vector?$DMunsigned?5long?$DO?$AA@ 100137c0     PlugInUtilities:TypeConverter.obj
 0002:000017d8       ??_C@_07GDNIBEMG@int64_t?$AA@ 100137d8     PlugInUtilities:TypeConverter.obj
 0002:000017e0       ??_C@_0BA@MAOLBMJP@vector?$DMint64_t?$DO?$AA@ 100137e0     PlugInUtilities:TypeConverter.obj
 0002:000017f0       ??_C@_08FKMHFJJL@uint64_t?$AA@ 100137f0     PlugInUtilities:TypeConverter.obj
 0002:000017fc       ??_C@_0BB@OPLNPMNG@vector?$DMuint64_t?$DO?$AA@ 100137fc     PlugInUtilities:TypeConverter.obj
 0002:00001810       ??_C@_05KNFBNCOH@float?$AA@ 10013810     PlugInUtilities:TypeConverter.obj
 0002:00001818       ??_C@_0O@PEMGHGG@vector?$DMfloat?$DO?$AA@ 10013818     PlugInUtilities:TypeConverter.obj
 0002:00001828       ??_C@_06BNJCAIGJ@double?$AA@ 10013828     PlugInUtilities:TypeConverter.obj
 0002:00001830       ??_C@_0P@IGHPGLJL@vector?$DMdouble?$DO?$AA@ 10013830     PlugInUtilities:TypeConverter.obj
 0002:00001840       ??_C@_04GKJNKENE@void?$AA@ 10013840     PlugInUtilities:TypeConverter.obj
 0002:00001848       ??_C@_0N@OALPANBB@vector?$DMvoid?$DO?$AA@ 10013848     PlugInUtilities:TypeConverter.obj
 0002:00001858       ??_C@_06ICGJLFIM@string?$AA@ 10013858     PlugInUtilities:TypeConverter.obj
 0002:00001860       ??_C@_0P@FGIAIGNB@vector?$DMstring?$DO?$AA@ 10013860     PlugInUtilities:TypeConverter.obj
 0002:00001870       ??_C@_0P@GCFBOKAJ@AnimationCycle?$AA@ 10013870     PlugInUtilities:TypeConverter.obj
 0002:00001880       ??_C@_0BH@JFPCFADM@vector?$DMAnimationCycle?$DO?$AA@ 10013880     PlugInUtilities:TypeConverter.obj
 0002:00001898       ??_C@_0P@CBCLBGGA@AnimationState?$AA@ 10013898     PlugInUtilities:TypeConverter.obj
 0002:000018a8       ??_C@_0BH@KBNPPDDM@vector?$DMAnimationState?$DO?$AA@ 100138a8     PlugInUtilities:TypeConverter.obj
 0002:000018c0       ??_C@_09NEIGAIIL@ArcRegion?$AA@ 100138c0     PlugInUtilities:TypeConverter.obj
 0002:000018cc       ??_C@_0BC@PKNDCFBM@vector?$DMArcRegion?$DO?$AA@ 100138cc     PlugInUtilities:TypeConverter.obj
 0002:000018e0       ??_C@_0BB@DAPCCLPD@ComplexComponent?$AA@ 100138e0     PlugInUtilities:TypeConverter.obj
 0002:000018f4       ??_C@_0BJ@NKABDJHC@vector?$DMComplexComponent?$DO?$AA@ 100138f4     PlugInUtilities:TypeConverter.obj
 0002:00001910       ??_C@_0L@HMALMJG@DataOrigin?$AA@ 10013910     PlugInUtilities:TypeConverter.obj
 0002:0000191c       ??_C@_0BD@LEAMLHHE@vector?$DMDataOrigin?$DO?$AA@ 1001391c     PlugInUtilities:TypeConverter.obj
 0002:00001930       ??_C@_0M@GDNBMJPD@DisplayMode?$AA@ 10013930     PlugInUtilities:TypeConverter.obj
 0002:0000193c       ??_C@_0BE@PJPHMNOB@vector?$DMDisplayMode?$DO?$AA@ 1001393c     PlugInUtilities:TypeConverter.obj
 0002:00001950       ??_C@_0O@KEPDKPCL@DistanceUnits?$AA@ 10013950     PlugInUtilities:TypeConverter.obj
 0002:00001960       ??_C@_0BG@DPHFIPI@vector?$DMDistanceUnits?$DO?$AA@ 10013960     PlugInUtilities:TypeConverter.obj
 0002:00001978       ??_C@_0O@MNFNLMLH@DmsFormatType?$AA@ 10013978     PlugInUtilities:TypeConverter.obj
 0002:00001988       ??_C@_0BG@PKCHCJIE@vector?$DMDmsFormatType?$DO?$AA@ 10013988     PlugInUtilities:TypeConverter.obj
 0002:000019a0       ??_C@_0N@OPBMJJNK@EncodingType?$AA@ 100139a0     PlugInUtilities:TypeConverter.obj
 0002:000019b0       ??_C@_0BF@DAEHKCM@vector?$DMEncodingType?$DO?$AA@ 100139b0     PlugInUtilities:TypeConverter.obj
 0002:000019c8       ??_C@_0L@LKICPMJB@EndianType?$AA@ 100139c8     PlugInUtilities:TypeConverter.obj
 0002:000019d4       ??_C@_0BD@CKNFGAJH@vector?$DMEndianType?$DO?$AA@ 100139d4     PlugInUtilities:TypeConverter.obj
 0002:000019e8       ??_C@_09HNHLDKBC@FillStyle?$AA@ 100139e8     PlugInUtilities:TypeConverter.obj
 0002:000019f4       ??_C@_0BC@HDKJPDMO@vector?$DMFillStyle?$DO?$AA@ 100139f4     PlugInUtilities:TypeConverter.obj
 0002:00001a08       ??_C@_0O@LBKMKDP@InsetZoomMode?$AA@ 10013a08     PlugInUtilities:TypeConverter.obj
 0002:00001a18       ??_C@_0BG@BJICGFOA@vector?$DMInsetZoomMode?$DO?$AA@ 10013a18     PlugInUtilities:TypeConverter.obj
 0002:00001a30       ??_C@_0BF@BBDOMFLI@InterleaveFormatType?$AA@ 10013a30     PlugInUtilities:TypeConverter.obj
 0002:00001a48       ??_C@_0BN@DOCOFHKH@vector?$DMInterleaveFormatType?$DO?$AA@ 10013a48     PlugInUtilities:TypeConverter.obj
 0002:00001a68       ??_C@_09ONPDCMEA@GcpSymbol?$AA@ 10013a68     PlugInUtilities:TypeConverter.obj
 0002:00001a74       ??_C@_0BC@PGFMELAA@vector?$DMGcpSymbol?$DO?$AA@ 10013a74     PlugInUtilities:TypeConverter.obj
 0002:00001a88       ??_C@_0N@IMCEOJJI@GeocoordType?$AA@ 10013a88     PlugInUtilities:TypeConverter.obj
 0002:00001a98       ??_C@_0BF@JLLFGCOA@vector?$DMGeocoordType?$DO?$AA@ 10013a98     PlugInUtilities:TypeConverter.obj
 0002:00001ab0       ??_C@_0BC@PHECNJGI@GraphicObjectType?$AA@ 10013ab0     PlugInUtilities:TypeConverter.obj
 0002:00001ac4       ??_C@_0BK@BFCBCLB@vector?$DMGraphicObjectType?$DO?$AA@ 10013ac4     PlugInUtilities:TypeConverter.obj
 0002:00001ae0       ??_C@_0M@PMGHKEKB@LatLonStyle?$AA@ 10013ae0     PlugInUtilities:TypeConverter.obj
 0002:00001aec       ??_C@_0BE@HMANELFE@vector?$DMLatLonStyle?$DO?$AA@ 10013aec     PlugInUtilities:TypeConverter.obj
 0002:00001b00       ??_C@_09GIEPNBNM@LayerType?$AA@ 10013b00     PlugInUtilities:TypeConverter.obj
 0002:00001b0c       ??_C@_0BC@PGACIJC@vector?$DMLayerType?$DO?$AA@ 10013b0c     PlugInUtilities:TypeConverter.obj
 0002:00001b20       ??_C@_09LNOEOIHF@LineStyle?$AA@ 10013b20     PlugInUtilities:TypeConverter.obj
 0002:00001b2c       ??_C@_0BC@KALPJIOH@vector?$DMLineStyle?$DO?$AA@ 10013b2c     PlugInUtilities:TypeConverter.obj
 0002:00001b40       ??_C@_0N@GOLOEBKA@PanLimitType?$AA@ 10013b40     PlugInUtilities:TypeConverter.obj
 0002:00001b50       ??_C@_0BF@LDFFEANG@vector?$DMPanLimitType?$DO?$AA@ 10013b50     PlugInUtilities:TypeConverter.obj
 0002:00001b68       ??_C@_08LBIMPFBI@PassArea?$AA@ 10013b68     PlugInUtilities:TypeConverter.obj
 0002:00001b74       ??_C@_0BB@JLOHGFOA@vector?$DMPassArea?$DO?$AA@ 10013b74     PlugInUtilities:TypeConverter.obj
 0002:00001b88       ??_C@_0P@HCIEEHEP@PlotObjectType?$AA@ 10013b88     PlugInUtilities:TypeConverter.obj
 0002:00001b98       ??_C@_0BH@KFNGBDE@vector?$DMPlotObjectType?$DO?$AA@ 10013b98     PlugInUtilities:TypeConverter.obj
 0002:00001bb0       ??_C@_0BH@GNIBEJED@Point?3?3PointSymbolType?$AA@ 10013bb0     PlugInUtilities:TypeConverter.obj
 0002:00001bc8       ??_C@_0BP@BGGBEEMC@vector?$DMPoint?3?3PointSymbolType?$DO?$AA@ 10013bc8     PlugInUtilities:TypeConverter.obj
 0002:00001be8       ??_C@_0N@FDMBGMPN@PositionType?$AA@ 10013be8     PlugInUtilities:TypeConverter.obj
 0002:00001bf8       ??_C@_0BF@KGLCBCLC@vector?$DMPositionType?$DO?$AA@ 10013bf8     PlugInUtilities:TypeConverter.obj
 0002:00001c10       ??_C@_0BD@MMBGDGPE@ProcessingLocation?$AA@ 10013c10     PlugInUtilities:TypeConverter.obj
 0002:00001c24       ??_C@_0BL@DLGAFOEB@vector?$DMProcessingLocation?$DO?$AA@ 10013c24     PlugInUtilities:TypeConverter.obj
 0002:00001c40       ??_C@_0BA@LMGFGCOF@SessionSaveType?$AA@ 10013c40     PlugInUtilities:TypeConverter.obj
 0002:00001c50       ??_C@_0BI@BALPMNL@vector?$DMSessionSaveType?$DO?$AA@ 10013c50     PlugInUtilities:TypeConverter.obj
 0002:00001c68       ??_C@_0BC@KGGNDDOL@RasterChannelType?$AA@ 10013c68     PlugInUtilities:TypeConverter.obj
 0002:00001c7c       ??_C@_0BK@HFLCOPMB@vector?$DMRasterChannelType?$DO?$AA@ 10013c7c     PlugInUtilities:TypeConverter.obj
 0002:00001c98       ??_C@_0M@KGOBGCLJ@ReleaseType?$AA@ 10013c98     PlugInUtilities:TypeConverter.obj
 0002:00001ca4       ??_C@_0BE@GPDLFFME@vector?$DMReleaseType?$DO?$AA@ 10013ca4     PlugInUtilities:TypeConverter.obj
 0002:00001cb8       ??_C@_0M@IEEADENJ@StretchType?$AA@ 10013cb8     PlugInUtilities:TypeConverter.obj
 0002:00001cc4       ??_C@_0BE@CCKLJFMK@vector?$DMStretchType?$DO?$AA@ 10013cc4     PlugInUtilities:TypeConverter.obj
 0002:00001cd8       ??_C@_0L@NFINBIND@SymbolType?$AA@ 10013cd8     PlugInUtilities:TypeConverter.obj
 0002:00001ce4       ??_C@_0BD@LCGIEPMP@vector?$DMSymbolType?$DO?$AA@ 10013ce4     PlugInUtilities:TypeConverter.obj
 0002:00001cf8       ??_C@_0M@PNFGIHI@RegionUnits?$AA@ 10013cf8     PlugInUtilities:TypeConverter.obj
 0002:00001d04       ??_C@_0BE@IDPBJDOI@vector?$DMRegionUnits?$DO?$AA@ 10013d04     PlugInUtilities:TypeConverter.obj
 0002:00001d18       ??_C@_0L@HABFLNPF@UnitSystem?$AA@ 10013d18     PlugInUtilities:TypeConverter.obj
 0002:00001d24       ??_C@_0BD@GAMAFCJH@vector?$DMUnitSystem?$DO?$AA@ 10013d24     PlugInUtilities:TypeConverter.obj
 0002:00001d38       ??_C@_08PNBAGKKP@UnitType?$AA@ 10013d38     PlugInUtilities:TypeConverter.obj
 0002:00001d44       ??_C@_0BB@MOKONPFA@vector?$DMUnitType?$DO?$AA@ 10013d44     PlugInUtilities:TypeConverter.obj
 0002:00001d58       ??_C@_0P@BEECLMNP@WindowSizeType?$AA@ 10013d58     PlugInUtilities:TypeConverter.obj
 0002:00001d68       ??_C@_0BH@PKDEDEIL@vector?$DMWindowSizeType?$DO?$AA@ 10013d68     PlugInUtilities:TypeConverter.obj
 0002:00001d80       ??_C@_0L@NEAJCNKD@WindowType?$AA@ 10013d80     PlugInUtilities:TypeConverter.obj
 0002:00001d8c       ??_C@_0BD@OCGMLKMG@vector?$DMWindowType?$DO?$AA@ 10013d8c     PlugInUtilities:TypeConverter.obj
 0002:00001da0       ??_C@_0BG@FJEAGFDH@AebInstallTransaction?$AA@ 10013da0     PlugInUtilities:TypeConverter.obj
 0002:00001db8       ??_C@_0BO@FIEKCNCA@vector?$DMAebInstallTransaction?$DO?$AA@ 10013db8     PlugInUtilities:TypeConverter.obj
 0002:00001dd8       ??_C@_0BC@OOPDAAI@ApplicationWindow?$AA@ 10013dd8     PlugInUtilities:TypeConverter.obj
 0002:00001dec       ??_C@_0BK@EMBJNOAA@vector?$DMApplicationWindow?$DO?$AA@ 10013dec     PlugInUtilities:TypeConverter.obj
 0002:00001e08       ??_C@_09ONEINPNJ@Animation?$AA@ 10013e08     PlugInUtilities:TypeConverter.obj
 0002:00001e14       ??_C@_0BC@HPIPNLBD@vector?$DMAnimation?$DO?$AA@ 10013e14     PlugInUtilities:TypeConverter.obj
 0002:00001e28       ??_C@_0BE@NPDKGNGO@AnimationController?$AA@ 10013e28     PlugInUtilities:TypeConverter.obj
 0002:00001e3c       ??_C@_0BM@HLGPMJLL@vector?$DMAnimationController?$DO?$AA@ 10013e3c     PlugInUtilities:TypeConverter.obj
 0002:00001e58       ??_C@_0BC@HJKDBGGF@AnnotationElement?$AA@ 10013e58     PlugInUtilities:TypeConverter.obj
 0002:00001e6c       ??_C@_0BK@HPGNIPMD@vector?$DMAnnotationElement?$DO?$AA@ 10013e6c     PlugInUtilities:TypeConverter.obj
 0002:00001e88       ??_C@_0BA@KAAGFGBH@AnnotationLayer?$AA@ 10013e88     PlugInUtilities:TypeConverter.obj
 0002:00001e98       ??_C@_0BI@FCKEAMNP@vector?$DMAnnotationLayer?$DO?$AA@ 10013e98     PlugInUtilities:TypeConverter.obj
 0002:00001eb0       ??_C@_03EBKHDLCO@Any?$AA@  10013eb0     PlugInUtilities:TypeConverter.obj
 0002:00001eb4       ??_C@_0M@FMEKAHPM@vector?$DMAny?$DO?$AA@ 10013eb4     PlugInUtilities:TypeConverter.obj
 0002:00001ec0       ??_C@_0L@ECIAHKNK@AoiElement?$AA@ 10013ec0     PlugInUtilities:TypeConverter.obj
 0002:00001ecc       ??_C@_0BD@MLCDPKAJ@vector?$DMAoiElement?$DO?$AA@ 10013ecc     PlugInUtilities:TypeConverter.obj
 0002:00001ee0       ??_C@_08FOBACOHH@AoiLayer?$AA@ 10013ee0     PlugInUtilities:TypeConverter.obj
 0002:00001eec       ??_C@_0BB@EGAFIFPC@vector?$DMAoiLayer?$DO?$AA@ 10013eec     PlugInUtilities:TypeConverter.obj
 0002:00001f00       ??_C@_07IMLPMLBM@BitMask?$AA@ 10013f00     PlugInUtilities:TypeConverter.obj
 0002:00001f08       ??_C@_0BA@KGACEAIK@vector?$DMBitMask?$DO?$AA@ 10013f08     PlugInUtilities:TypeConverter.obj
 0002:00001f18       ??_C@_0O@CJDDHMID@CartesianPlot?$AA@ 10013f18     PlugInUtilities:TypeConverter.obj
 0002:00001f28       ??_C@_0BG@NLHHLDPB@vector?$DMCartesianPlot?$DO?$AA@ 10013f28     PlugInUtilities:TypeConverter.obj
 0002:00001f40       ??_C@_0P@PEKDEFAE@Classification?$AA@ 10013f40     PlugInUtilities:TypeConverter.obj
 0002:00001f50       ??_C@_0BH@OLNFNOCO@vector?$DMClassification?$DO?$AA@ 10013f50     PlugInUtilities:TypeConverter.obj
 0002:00001f68       ??_C@_0BE@GLEOKAAM@ClassificationLayer?$AA@ 10013f68     PlugInUtilities:TypeConverter.obj
 0002:00001f7c       ??_C@_0BM@NIGHLNAC@vector?$DMClassificationLayer?$DO?$AA@ 10013f7c     PlugInUtilities:TypeConverter.obj
 0002:00001f98       ??_C@_09MBKNDBMC@ColorType?$AA@ 10013f98     PlugInUtilities:TypeConverter.obj
 0002:00001fa4       ??_C@_0BC@PFMGPHBB@vector?$DMColorType?$DO?$AA@ 10013fa4     PlugInUtilities:TypeConverter.obj
 0002:00001fb8       ??_C@_0P@GBNHJIMA@DataDescriptor?$AA@ 10013fb8     PlugInUtilities:TypeConverter.obj
 0002:00001fc8       ??_C@_0BH@HHEJKMFK@vector?$DMDataDescriptor?$DO?$AA@ 10013fc8     PlugInUtilities:TypeConverter.obj
 0002:00001fe0       ??_C@_0M@IDLNNGAG@DataElement?$AA@ 10013fe0     PlugInUtilities:TypeConverter.obj
 0002:00001fec       ??_C@_0BE@DEMAKHGN@vector?$DMDataElement?$DO?$AA@ 10013fec     PlugInUtilities:TypeConverter.obj
 0002:00002000       ??_C@_0BB@NOFIAIEN@DataElementGroup?$AA@ 10014000     PlugInUtilities:TypeConverter.obj
 0002:00002014       ??_C@_0BJ@PGDGANNK@vector?$DMDataElementGroup?$DO?$AA@ 10014014     PlugInUtilities:TypeConverter.obj
 0002:00002030       ??_C@_0M@LMHCAHAK@DataRequest?$AA@ 10014030     PlugInUtilities:TypeConverter.obj
 0002:0000203c       ??_C@_0BE@DNEJCEJH@vector?$DMDataRequest?$DO?$AA@ 1001403c     PlugInUtilities:TypeConverter.obj
 0002:00002050       ??_C@_0BD@DLCGCPCN@DataVariantAnyData?$AA@ 10014050     PlugInUtilities:TypeConverter.obj
 0002:00002064       ??_C@_0BL@MEJIAECI@vector?$DMDataVariantAnyData?$DO?$AA@ 10014064     PlugInUtilities:TypeConverter.obj
 0002:00002080       ??_C@_08BFOPGFLN@DateTime?$AA@ 10014080     PlugInUtilities:TypeConverter.obj
 0002:0000208c       ??_C@_0BB@DNPPFBBH@vector?$DMDateTime?$DO?$AA@ 1001408c     PlugInUtilities:TypeConverter.obj
 0002:000020a0       ??_C@_0BE@LIEGLNOE@DimensionDescriptor?$AA@ 100140a0     PlugInUtilities:TypeConverter.obj
 0002:000020b4       ??_C@_0BM@HGGFNPFF@vector?$DMDimensionDescriptor?$DO?$AA@ 100140b4     PlugInUtilities:TypeConverter.obj
 0002:000020d0       ??_C@_0O@LIHDGLKA@DynamicObject?$AA@ 100140d0     PlugInUtilities:TypeConverter.obj
 0002:000020e0       ??_C@_0BG@HJIBICJE@vector?$DMDynamicObject?$DO?$AA@ 100140e0     PlugInUtilities:TypeConverter.obj
 0002:000020f8       ??_C@_0BA@DPGNDGIL@ExecutableAgent?$AA@ 100140f8     PlugInUtilities:TypeConverter.obj
 0002:00002108       ??_C@_0BI@KLICLINA@vector?$DMExecutableAgent?$DO?$AA@ 10014108     PlugInUtilities:TypeConverter.obj
 0002:00002120       ??_C@_0M@BDOMMID@ExportAgent?$AA@ 10014120     PlugInUtilities:TypeConverter.obj
 0002:0000212c       ??_C@_0BE@KJJAFDNI@vector?$DMExportAgent?$DO?$AA@ 1001412c     PlugInUtilities:TypeConverter.obj
 0002:00002140       ??_C@_0P@BHAKHJKP@FileDescriptor?$AA@ 10014140     PlugInUtilities:TypeConverter.obj
 0002:00002150       ??_C@_0BH@KKDCANHC@vector?$DMFileDescriptor?$DO?$AA@ 10014150     PlugInUtilities:TypeConverter.obj
 0002:00002168       ??_C@_0L@GMFIMLHM@FileFinder?$AA@ 10014168     PlugInUtilities:TypeConverter.obj
 0002:00002174       ??_C@_0BD@PELICEGF@vector?$DMFileFinder?$DO?$AA@ 10014174     PlugInUtilities:TypeConverter.obj
 0002:00002188       ??_C@_08JCOIAMOP@Filename?$AA@ 10014188     PlugInUtilities:TypeConverter.obj
 0002:00002194       ??_C@_0BB@LIBNGGKG@vector?$DMFilename?$DO?$AA@ 10014194     PlugInUtilities:TypeConverter.obj
 0002:000021a8       ??_C@_0N@NPKDPOCM@FloatComplex?$AA@ 100141a8     PlugInUtilities:TypeConverter.obj
 0002:000021b8       ??_C@_0BF@FHOKJCGC@vector?$DMFloatComplex?$DO?$AA@ 100141b8     PlugInUtilities:TypeConverter.obj
 0002:000021d0       ??_C@_04IEDBBIIG@Font?$AA@ 100141d0     PlugInUtilities:TypeConverter.obj
 0002:000021d8       ??_C@_0N@GFDEJBHF@vector?$DMFont?$DO?$AA@ 100141d8     PlugInUtilities:TypeConverter.obj
 0002:000021e8       ??_C@_08IIODJLKP@GcpLayer?$AA@ 100141e8     PlugInUtilities:TypeConverter.obj
 0002:000021f4       ??_C@_0BB@MONLCMKB@vector?$DMGcpLayer?$DO?$AA@ 100141f4     PlugInUtilities:TypeConverter.obj
 0002:00002208       ??_C@_07MODANHOB@GcpList?$AA@ 10014208     PlugInUtilities:TypeConverter.obj
 0002:00002210       ??_C@_0BA@GFEMEBDH@vector?$DMGcpList?$DO?$AA@ 10014210     PlugInUtilities:TypeConverter.obj
 0002:00002220       ??_C@_0P@DGOBACPK@GraphicElement?$AA@ 10014220     PlugInUtilities:TypeConverter.obj
 0002:00002230       ??_C@_0BH@LBBCEDHC@vector?$DMGraphicElement?$DO?$AA@ 10014230     PlugInUtilities:TypeConverter.obj
 0002:00002248       ??_C@_0N@JELMFKJC@GraphicLayer?$AA@ 10014248     PlugInUtilities:TypeConverter.obj
 0002:00002258       ??_C@_0BF@HLHIBDEN@vector?$DMGraphicLayer?$DO?$AA@ 10014258     PlugInUtilities:TypeConverter.obj
 0002:00002270       ??_C@_0O@OGOGAEAL@HistogramPlot?$AA@ 10014270     PlugInUtilities:TypeConverter.obj
 0002:00002280       ??_C@_0BG@DINLGNJL@vector?$DMHistogramPlot?$DO?$AA@ 10014280     PlugInUtilities:TypeConverter.obj
 0002:00002298       ??_C@_0M@NLJFOJIL@ImportAgent?$AA@ 10014298     PlugInUtilities:TypeConverter.obj
 0002:000022a4       ??_C@_0BE@KHJBHAMP@vector?$DMImportAgent?$DO?$AA@ 100142a4     PlugInUtilities:TypeConverter.obj
 0002:000022b8       ??_C@_0P@MGHFFHLC@IntegerComplex?$AA@ 100142b8     PlugInUtilities:TypeConverter.obj
 0002:000022c8       ??_C@_0BH@MJOFBOIF@vector?$DMIntegerComplex?$DO?$AA@ 100142c8     PlugInUtilities:TypeConverter.obj
 0002:000022e0       ??_C@_05DPPJJBMK@Int64?$AA@ 100142e0     PlugInUtilities:TypeConverter.obj
 0002:000022e8       ??_C@_0O@EKABJDFA@vector?$DMInt64?$DO?$AA@ 100142e8     PlugInUtilities:TypeConverter.obj
 0002:000022f8       ??_C@_0M@KMLFLDAE@LatLonLayer?$AA@ 100142f8     PlugInUtilities:TypeConverter.obj
 0002:00002304       ??_C@_0BE@NKOBMOCE@vector?$DMLatLonLayer?$DO?$AA@ 10014304     PlugInUtilities:TypeConverter.obj
 0002:00002318       ??_C@_05NHNHDHBP@Layer?$AA@ 10014318     PlugInUtilities:TypeConverter.obj
 0002:00002320       ??_C@_0O@LMFAJLKN@vector?$DMLayer?$DO?$AA@ 10014320     PlugInUtilities:TypeConverter.obj
 0002:00002330       ??_C@_0N@MAFNPHOD@LocationType?$AA@ 10014330     PlugInUtilities:TypeConverter.obj
 0002:00002340       ??_C@_0BF@FMCOLDEK@vector?$DMLocationType?$DO?$AA@ 10014340     PlugInUtilities:TypeConverter.obj
 0002:00002358       ??_C@_0BB@GPFDBOPP@MeasurementLayer?$AA@ 10014358     PlugInUtilities:TypeConverter.obj
 0002:0000236c       ??_C@_0BJ@NDOINEGM@vector?$DMMeasurementLayer?$DO?$AA@ 1001436c     PlugInUtilities:TypeConverter.obj
 0002:00002388       ??_C@_0BB@JHGIIGFI@OrthographicView?$AA@ 10014388     PlugInUtilities:TypeConverter.obj
 0002:0000239c       ??_C@_0BJ@JLKCNJLP@vector?$DMOrthographicView?$DO?$AA@ 1001439c     PlugInUtilities:TypeConverter.obj
 0002:000023b8       ??_C@_0BA@PDPHNCFA@PerspectiveView?$AA@ 100143b8     PlugInUtilities:TypeConverter.obj
 0002:000023c8       ??_C@_0BI@LKEPCJGI@vector?$DMPerspectiveView?$DO?$AA@ 100143c8     PlugInUtilities:TypeConverter.obj
 0002:000023e0       ??_C@_0BH@GPLFFOBB@Opticks?3?3PixelLocation?$AA@ 100143e0     PlugInUtilities:TypeConverter.obj
 0002:000023f8       ??_C@_0BP@JDAGEAAN@vector?$DMOpticks?3?3PixelLocation?$DO?$AA@ 100143f8     PlugInUtilities:TypeConverter.obj
 0002:00002418       ??_C@_08NOLCAIBA@PlotView?$AA@ 10014418     PlugInUtilities:TypeConverter.obj
 0002:00002424       ??_C@_0BB@JFFDNDCP@vector?$DMPlotView?$DO?$AA@ 10014424     PlugInUtilities:TypeConverter.obj
 0002:00002438       ??_C@_0L@IKFIIEHD@PlotWidget?$AA@ 10014438     PlugInUtilities:TypeConverter.obj
 0002:00002444       ??_C@_0BD@GEOBDJLL@vector?$DMPlotWidget?$DO?$AA@ 10014444     PlugInUtilities:TypeConverter.obj
 0002:00002458       ??_C@_0L@PEOHOFCJ@PlotWindow?$AA@ 10014458     PlugInUtilities:TypeConverter.obj
 0002:00002464       ??_C@_0BD@OPCBDODA@vector?$DMPlotWindow?$DO?$AA@ 10014464     PlugInUtilities:TypeConverter.obj
 0002:00002478       ??_C@_09ILOPLGEE@PolarPlot?$AA@ 10014478     PlugInUtilities:TypeConverter.obj
 0002:00002484       ??_C@_0BC@PBFHJDID@vector?$DMPolarPlot?$DO?$AA@ 10014484     PlugInUtilities:TypeConverter.obj
 0002:00002498       ??_C@_0M@CODOOFLI@ProductView?$AA@ 10014498     PlugInUtilities:TypeConverter.obj
 0002:000024a4       ??_C@_0BE@BILELKNF@vector?$DMProductView?$DO?$AA@ 100144a4     PlugInUtilities:TypeConverter.obj
 0002:000024b8       ??_C@_0O@EMICLNIB@ProductWindow?$AA@ 100144b8     PlugInUtilities:TypeConverter.obj
 0002:000024c8       ??_C@_0BG@DFBMGDBM@vector?$DMProductWindow?$DO?$AA@ 100144c8     PlugInUtilities:TypeConverter.obj
 0002:000024e0       ??_C@_08DAJBHHIG@Progress?$AA@ 100144e0     PlugInUtilities:TypeConverter.obj
 0002:000024ec       ??_C@_0BB@IMNBMGCB@vector?$DMProgress?$DO?$AA@ 100144ec     PlugInUtilities:TypeConverter.obj
 0002:00002500       ??_C@_0BB@LJALFHPD@PseudocolorLayer?$AA@ 10014500     PlugInUtilities:TypeConverter.obj
 0002:00002514       ??_C@_0BJ@NKIIMAAO@vector?$DMPseudocolorLayer?$DO?$AA@ 10014514     PlugInUtilities:TypeConverter.obj
 0002:00002530       ??_C@_0BF@CAHHICLO@RasterDataDescriptor?$AA@ 10014530     PlugInUtilities:TypeConverter.obj
 0002:00002548       ??_C@_0BN@NHHMLLNF@vector?$DMRasterDataDescriptor?$DO?$AA@ 10014548     PlugInUtilities:TypeConverter.obj
 0002:00002568       ??_C@_0BG@OEDFGEBG@vector?$DMRasterElement?$DO?$AA@ 10014568     PlugInUtilities:TypeConverter.obj
 0002:00002580       ??_C@_0BF@FGKKGDNB@RasterFileDescriptor?$AA@ 10014580     PlugInUtilities:TypeConverter.obj
 0002:00002598       ??_C@_0BN@KAHBKPN@vector?$DMRasterFileDescriptor?$DO?$AA@ 10014598     PlugInUtilities:TypeConverter.obj
 0002:000025b8       ??_C@_0M@PBHBOCH@RasterLayer?$AA@ 100145b8     PlugInUtilities:TypeConverter.obj
 0002:000025c4       ??_C@_0BE@HICFBNPL@vector?$DMRasterLayer?$DO?$AA@ 100145c4     PlugInUtilities:TypeConverter.obj
 0002:000025d8       ??_C@_0M@JFEJLCPJ@SessionItem?$AA@ 100145d8     PlugInUtilities:TypeConverter.obj
 0002:000025e4       ??_C@_0BE@BJNELMIE@vector?$DMSessionItem?$DO?$AA@ 100145e4     PlugInUtilities:TypeConverter.obj
 0002:000025f8       ??_C@_0BE@NDMBILLL@SettableSessionItem?$AA@ 100145f8     PlugInUtilities:TypeConverter.obj
 0002:0000260c       ??_C@_0BM@INNKBEAG@vector?$DMSettableSessionItem?$DO?$AA@ 1001460c     PlugInUtilities:TypeConverter.obj
 0002:00002628       ??_C@_09GDNFOKKF@Signature?$AA@ 10014628     PlugInUtilities:TypeConverter.obj
 0002:00002634       ??_C@_0BC@CGLCHLDB@vector?$DMSignature?$DO?$AA@ 10014634     PlugInUtilities:TypeConverter.obj
 0002:00002648       ??_C@_0BB@EGOKEBGE@SignatureLibrary?$AA@ 10014648     PlugInUtilities:TypeConverter.obj
 0002:0000265c       ??_C@_0BJ@LEBMCHPP@vector?$DMSignatureLibrary?$DO?$AA@ 1001465c     PlugInUtilities:TypeConverter.obj
 0002:00002678       ??_C@_0O@LHAPAKGG@SignaturePlot?$AA@ 10014678     PlugInUtilities:TypeConverter.obj
 0002:00002688       ??_C@_0BG@LIJJJHA@vector?$DMSignaturePlot?$DO?$AA@ 10014688     PlugInUtilities:TypeConverter.obj
 0002:000026a0       ??_C@_0N@FBGMLHKA@SignatureSet?$AA@ 100146a0     PlugInUtilities:TypeConverter.obj
 0002:000026b0       ??_C@_0BF@LDGKJCCA@vector?$DMSignatureSet?$DO?$AA@ 100146b0     PlugInUtilities:TypeConverter.obj
 0002:000026c8       ??_C@_0BA@OLMDCPLD@SpatialDataView?$AA@ 100146c8     PlugInUtilities:TypeConverter.obj
 0002:000026d8       ??_C@_0BI@IDFEKOFH@vector?$DMSpatialDataView?$DO?$AA@ 100146d8     PlugInUtilities:TypeConverter.obj
 0002:000026f0       ??_C@_0BC@NEMHIKBJ@SpatialDataWindow?$AA@ 100146f0     PlugInUtilities:TypeConverter.obj
 0002:00002704       ??_C@_0BK@CGHDNGEI@vector?$DMSpatialDataWindow?$DO?$AA@ 10014704     PlugInUtilities:TypeConverter.obj
 0002:00002720       ??_C@_0P@LOGJLEMD@ThresholdLayer?$AA@ 10014720     PlugInUtilities:TypeConverter.obj
 0002:00002730       ??_C@_0BH@OOJPEDMM@vector?$DMThresholdLayer?$DO?$AA@ 10014730     PlugInUtilities:TypeConverter.obj
 0002:00002748       ??_C@_0O@MFEKJDME@TiePointLayer?$AA@ 10014748     PlugInUtilities:TypeConverter.obj
 0002:00002758       ??_C@_0BG@DDCDBOCN@vector?$DMTiePointLayer?$DO?$AA@ 10014758     PlugInUtilities:TypeConverter.obj
 0002:00002770       ??_C@_0N@NFFJOEIB@TiePointList?$AA@ 10014770     PlugInUtilities:TypeConverter.obj
 0002:00002780       ??_C@_0BF@PPIHLHCN@vector?$DMTiePointList?$DO?$AA@ 10014780     PlugInUtilities:TypeConverter.obj
 0002:00002798       ??_C@_06GCLKCJAH@UInt64?$AA@ 10014798     PlugInUtilities:TypeConverter.obj
 0002:000027a0       ??_C@_0P@CMAKAPOF@vector?$DMUInt64?$DO?$AA@ 100147a0     PlugInUtilities:TypeConverter.obj
 0002:000027b0       ??_C@_05CFLIFMAE@Units?$AA@ 100147b0     PlugInUtilities:TypeConverter.obj
 0002:000027b8       ??_C@_0O@DGMHDNCK@vector?$DMUnits?$DO?$AA@ 100147b8     PlugInUtilities:TypeConverter.obj
 0002:000027c8       ??_C@_04OGMCGMPK@View?$AA@ 100147c8     PlugInUtilities:TypeConverter.obj
 0002:000027d0       ??_C@_0N@DMOFFPBG@vector?$DMView?$DO?$AA@ 100147d0     PlugInUtilities:TypeConverter.obj
 0002:000027e0       ??_C@_06BKKJGDHO@Window?$AA@ 100147e0     PlugInUtilities:TypeConverter.obj
 0002:000027e8       ??_C@_0P@FKLNFDH@vector?$DMWindow?$DO?$AA@ 100147e8     PlugInUtilities:TypeConverter.obj
 0002:000027f8       ??_C@_0N@LABCPEHB@WizardObject?$AA@ 100147f8     PlugInUtilities:TypeConverter.obj
 0002:00002808       ??_C@_0BF@ECFPAOCB@vector?$DMWizardObject?$DO?$AA@ 10014808     PlugInUtilities:TypeConverter.obj
 0002:00002820       ??_C@_0BA@MEGFCOCI@WorkspaceWindow?$AA@ 10014820     PlugInUtilities:TypeConverter.obj
 0002:00002830       ??_C@_0BI@OEKGECJK@vector?$DMWorkspaceWindow?$DO?$AA@ 10014830     PlugInUtilities:TypeConverter.obj
 0002:00002848       ??_C@_0CF@PMFPIMGN@?5Error?3?5Verification?5Failed?6?6Ver@ 10014848     PlugInUtilities:AppVerify.obj
 0002:00002870       ??_C@_0M@DDKFKEBA@?$CJ?6?5?5?5File?3?5?$AA@ 10014870     PlugInUtilities:AppVerify.obj
 0002:0000287c       ??_C@_0L@HINPDONE@?6?5?5?5Line?3?5?$AA@ 1001487c     PlugInUtilities:AppVerify.obj
 0002:00002888       ??_C@_0BE@FEIDNADG@OPTICKS_SHOW_VERIFY?$AA@ 10014888     PlugInUtilities:AppVerify.obj
 0002:0000289c       ??_C@_04LIDDHMOL@Line?$AA@ 1001489c     PlugInUtilities:AppVerify.obj
 0002:000028a4       ??_C@_04PBAHLACE@File?$AA@ 100148a4     PlugInUtilities:AppVerify.obj
 0002:000028ac       ??_C@_06NDEBMOO@Verify?$AA@ 100148ac     PlugInUtilities:AppVerify.obj
 0002:000028b4       ??_C@_07BEIHKDLJ@Message?$AA@ 100148b4     PlugInUtilities:AppVerify.obj
 0002:000028bc       ??_C@_07OLJKCMAO@Opticks?$AA@ 100148bc     PlugInUtilities:AppVerify.obj
 0002:000028c4       ??_C@_09CMNEPOJL@Internal?5?$AA@ 100148c4     PlugInUtilities:AppVerify.obj
 0002:000028d0       ??_C@_06OOBNMOBD@?5Error?$AA@ 100148d0     PlugInUtilities:AppVerify.obj
 0002:000028d8       ??_C@_0CF@GHKIFMDF@94B15D95?94EBC?94ccd?99045?92F89D91C@ 100148d8     PlugInUtilities:AppVerify.obj
 0002:00002904       ??_7type_info@@6B@         10014904     MSVCRT:ti_inst.obj
 0002:00002908       __pDefaultRawDllMain       10014908     MSVCRT:crtdll.obj
 0002:00002908       __pRawDllMain              10014908     MSVCRT:crtdll.obj
 0002:0000290c       ?ProcessDetach@NativeDll@<CrtImplementationDetails>@@0IB 1001490c     MSVCRT:tncleanup.obj
 0002:00002910       ?ProcessAttach@NativeDll@<CrtImplementationDetails>@@0IB 10014910     MSVCRT:tncleanup.obj
 0002:00002914       ?ThreadAttach@NativeDll@<CrtImplementationDetails>@@0IB 10014914     MSVCRT:tncleanup.obj
 0002:00002918       ?ThreadDetach@NativeDll@<CrtImplementationDetails>@@0IB 10014918     MSVCRT:tncleanup.obj
 0002:0000291c       ?ProcessVerifier@NativeDll@<CrtImplementationDetails>@@0IB 1001491c     MSVCRT:tncleanup.obj
 0002:00002928       __load_config_used         10014928     MSVCRT:loadcfg.obj
 0002:000029dc       ??_R4bad_alloc@std@@6B@    100149dc     DataMerge.obj
 0002:000029f0       ??_R3bad_alloc@std@@8      100149f0     DataMerge.obj
 0002:00002a00       ??_R2bad_alloc@std@@8      10014a00     DataMerge.obj
 0002:00002a0c       ??_R1A@?0A@EA@bad_alloc@std@@8 10014a0c     DataMerge.obj
 0002:00002a28       ??_R1A@?0A@EA@exception@std@@8 10014a28     DataMerge.obj
 0002:00002a44       ??_R3exception@std@@8      10014a44     DataMerge.obj
 0002:00002a54       ??_R2exception@std@@8      10014a54     DataMerge.obj
 0002:00002a5c       ??_R4logic_error@std@@6B@  10014a5c     DataMerge.obj
 0002:00002a70       ??_R3logic_error@std@@8    10014a70     DataMerge.obj
 0002:00002a80       ??_R2logic_error@std@@8    10014a80     DataMerge.obj
 0002:00002a8c       ??_R1A@?0A@EA@logic_error@std@@8 10014a8c     DataMerge.obj
 0002:00002aa8       ??_R4length_error@std@@6B@ 10014aa8     DataMerge.obj
 0002:00002abc       ??_R3length_error@std@@8   10014abc     DataMerge.obj
 0002:00002acc       ??_R2length_error@std@@8   10014acc     DataMerge.obj
 0002:00002adc       ??_R1A@?0A@EA@length_error@std@@8 10014adc     DataMerge.obj
 0002:00002af8       ??_R4PlugInFactory@@6B@    10014af8     DataMerge.obj
 0002:00002b0c       ??_R3PlugInFactory@@8      10014b0c     DataMerge.obj
 0002:00002b1c       ??_R2PlugInFactory@@8      10014b1c     DataMerge.obj
 0002:00002b24       ??_R1A@?0A@EA@PlugInFactory@@8 10014b24     DataMerge.obj
 0002:00002b40       ??_R4DataMerge@@6BQObject@@@ 10014b40     DataMerge.obj
 0002:00002b54       ??_R3DataMerge@@8          10014b54     DataMerge.obj
 0002:00002b64       ??_R2DataMerge@@8          10014b64     DataMerge.obj
 0002:00002b8c       ??_R1A@?0A@EA@DataMerge@@8 10014b8c     DataMerge.obj
 0002:00002ba8       ??_R1A@?0A@EA@QObject@@8   10014ba8     DataMerge.obj
 0002:00002bc4       ??_R3QObject@@8            10014bc4     DataMerge.obj
 0002:00002bd4       ??_R2QObject@@8            10014bd4     DataMerge.obj
 0002:00002bdc       ??_R17?0A@EA@ViewerShell@@8 10014bdc     DataMerge.obj
 0002:00002bf8       ??_R3ViewerShell@@8        10014bf8     DataMerge.obj
 0002:00002c08       ??_R2ViewerShell@@8        10014c08     DataMerge.obj
 0002:00002c28       ??_R1A@?0A@EA@ViewerShell@@8 10014c28     DataMerge.obj
 0002:00002c44       ??_R1A@?0A@EA@ExecutableShell@@8 10014c44     DataMerge.obj
 0002:00002c60       ??_R3ExecutableShell@@8    10014c60     DataMerge.obj
 0002:00002c70       ??_R2ExecutableShell@@8    10014c70     DataMerge.obj
 0002:00002c8c       ??_R1A@?0A@EA@Executable@@8 10014c8c     DataMerge.obj
 0002:00002ca8       ??_R3Executable@@8         10014ca8     DataMerge.obj
 0002:00002cb8       ??_R2Executable@@8         10014cb8     DataMerge.obj
 0002:00002cc0       ??_R13?0A@EA@PlugInShell@@8 10014cc0     DataMerge.obj
 0002:00002cdc       ??_R3PlugInShell@@8        10014cdc     DataMerge.obj
 0002:00002cec       ??_R2PlugInShell@@8        10014cec     DataMerge.obj
 0002:00002d00       ??_R1A@?0A@EA@PlugInShell@@8 10014d00     DataMerge.obj
 0002:00002d1c       ??_R1A@?0A@EA@PlugIn@@8    10014d1c     DataMerge.obj
 0002:00002d38       ??_R3PlugIn@@8             10014d38     DataMerge.obj
 0002:00002d48       ??_R2PlugIn@@8             10014d48     DataMerge.obj
 0002:00002d54       ??_R1A@?0A@EA@SessionItem@@8 10014d54     DataMerge.obj
 0002:00002d70       ??_R3SessionItem@@8        10014d70     DataMerge.obj
 0002:00002d80       ??_R2SessionItem@@8        10014d80     DataMerge.obj
 0002:00002d88       ??_R13?0A@EA@SessionItemExt1@@8 10014d88     DataMerge.obj
 0002:00002da4       ??_R3SessionItemExt1@@8    10014da4     DataMerge.obj
 0002:00002db4       ??_R2SessionItemExt1@@8    10014db4     DataMerge.obj
 0002:00002dbc       ??_R1A@?0A@EA@SessionItemExt1@@8 10014dbc     DataMerge.obj
 0002:00002dd8       ??_R13?0A@EA@PlugIn@@8     10014dd8     DataMerge.obj
 0002:00002df4       ??_R13?0A@EA@SessionItem@@8 10014df4     DataMerge.obj
 0002:00002e10       ??_R17?0A@EA@SessionItemExt1@@8 10014e10     DataMerge.obj
 0002:00002e2c       ??_R17?0A@EA@ExecutableShell@@8 10014e2c     DataMerge.obj
 0002:00002e48       ??_R17?0A@EA@Executable@@8 10014e48     DataMerge.obj
 0002:00002e64       ??_R1M@?0A@EA@PlugInShell@@8 10014e64     DataMerge.obj
 0002:00002e80       ??_R1M@?0A@EA@PlugIn@@8    10014e80     DataMerge.obj
 0002:00002e9c       ??_R1M@?0A@EA@SessionItem@@8 10014e9c     DataMerge.obj
 0002:00002eb8       ??_R1BA@?0A@EA@SessionItemExt1@@8 10014eb8     DataMerge.obj
 0002:00002ed4       ??_R4DataMerge@@6BViewerShell@@@ 10014ed4     DataMerge.obj
 0002:00002ee8       ??_R4DataMerge@@6BPlugIn@@@ 10014ee8     DataMerge.obj
 0002:00002efc       ??_R4DataMerge@@6BSessionItemExt1@@@ 10014efc     DataMerge.obj
 0002:00002f10       ??_R4?$Resource@VStep@@VMessageObject@@@@6B@ 10014f10     DataMerge.obj
 0002:00002f24       ??_R3?$Resource@VStep@@VMessageObject@@@@8 10014f24     DataMerge.obj
 0002:00002f34       ??_R2?$Resource@VStep@@VMessageObject@@@@8 10014f34     DataMerge.obj
 0002:00002f3c       ??_R1A@?0A@EA@?$Resource@VStep@@VMessageObject@@@@8 10014f3c     DataMerge.obj
 0002:00002f58       ??_R4?$Resource@VDataRequest@@VFactoryObject@@@@6B@ 10014f58     DataMerge.obj
 0002:00002f6c       ??_R3?$Resource@VDataRequest@@VFactoryObject@@@@8 10014f6c     DataMerge.obj
 0002:00002f7c       ??_R2?$Resource@VDataRequest@@VFactoryObject@@@@8 10014f7c     DataMerge.obj
 0002:00002f84       ??_R1A@?0A@EA@?$Resource@VDataRequest@@VFactoryObject@@@@8 10014f84     DataMerge.obj
 0002:00002fa0       ??_R4StepResource@@6B@     10014fa0     DataMerge.obj
 0002:00002fb4       ??_R3StepResource@@8       10014fb4     DataMerge.obj
 0002:00002fc4       ??_R2StepResource@@8       10014fc4     DataMerge.obj
 0002:00002fd0       ??_R1A@?0A@EA@StepResource@@8 10014fd0     DataMerge.obj
 0002:00002fec       ??_R4?$FactoryResource@VDataRequest@@@@6B@ 10014fec     DataMerge.obj
 0002:00003000       ??_R3?$FactoryResource@VDataRequest@@@@8 10015000     DataMerge.obj
 0002:00003010       ??_R2?$FactoryResource@VDataRequest@@@@8 10015010     DataMerge.obj
 0002:0000301c       ??_R1A@?0A@EA@?$FactoryResource@VDataRequest@@@@8 1001501c     DataMerge.obj
 0002:00003038       ??_R4BasicPlugInFactory@@6B@ 10015038     DataMerge.obj
 0002:0000304c       ??_R3BasicPlugInFactory@@8 1001504c     DataMerge.obj
 0002:0000305c       ??_R2BasicPlugInFactory@@8 1001505c     DataMerge.obj
 0002:00003068       ??_R1A@?0A@EA@BasicPlugInFactory@@8 10015068     DataMerge.obj
 0002:00003084       ??_R4DataMergePlugInFactory@SpectralDataMerge@@6B@ 10015084     DataMerge.obj
 0002:00003098       ??_R3DataMergePlugInFactory@SpectralDataMerge@@8 10015098     DataMerge.obj
 0002:000030a8       ??_R2DataMergePlugInFactory@SpectralDataMerge@@8 100150a8     DataMerge.obj
 0002:000030b8       ??_R1A@?0A@EA@DataMergePlugInFactory@SpectralDataMerge@@8 100150b8     DataMerge.obj
 0002:000030d4       ??_R4out_of_range@std@@6B@ 100150d4     DataMergeGui.obj
 0002:000030e8       ??_R3out_of_range@std@@8   100150e8     DataMergeGui.obj
 0002:000030f8       ??_R2out_of_range@std@@8   100150f8     DataMergeGui.obj
 0002:00003108       ??_R1A@?0A@EA@out_of_range@std@@8 10015108     DataMergeGui.obj
 0002:00003124       ??_R4DataMergeGui@@6BQObject@@@ 10015124     DataMergeGui.obj
 0002:00003138       ??_R3DataMergeGui@@8       10015138     DataMergeGui.obj
 0002:00003148       ??_R2DataMergeGui@@8       10015148     DataMergeGui.obj
 0002:00003160       ??_R1A@?0A@EA@DataMergeGui@@8 10015160     DataMergeGui.obj
 0002:0000317c       ??_R1A@?0A@EA@QDialog@@8   1001517c     DataMergeGui.obj
 0002:00003198       ??_R3QDialog@@8            10015198     DataMergeGui.obj
 0002:000031a8       ??_R2QDialog@@8            100151a8     DataMergeGui.obj
 0002:000031bc       ??_R1A@?0A@EA@QWidget@@8   100151bc     DataMergeGui.obj
 0002:000031d8       ??_R3QWidget@@8            100151d8     DataMergeGui.obj
 0002:000031e8       ??_R2QWidget@@8            100151e8     DataMergeGui.obj
 0002:000031f8       ??_R17?0A@EA@QPaintDevice@@8 100151f8     DataMergeGui.obj
 0002:00003214       ??_R3QPaintDevice@@8       10015214     DataMergeGui.obj
 0002:00003224       ??_R2QPaintDevice@@8       10015224     DataMergeGui.obj
 0002:0000322c       ??_R1A@?0A@EA@QPaintDevice@@8 1001522c     DataMergeGui.obj
 0002:00003248       ??_R4DataMergeGui@@6BQPaintDevice@@@ 10015248     DataMergeGui.obj
 0002:0000325c       ??_R4QGridLayout@@6BQObject@@@ 1001525c     DataMergeGui.obj
 0002:00003270       ??_R3QGridLayout@@8        10015270     DataMergeGui.obj
 0002:00003280       ??_R2QGridLayout@@8        10015280     DataMergeGui.obj
 0002:00003294       ??_R1A@?0A@EA@QGridLayout@@8 10015294     DataMergeGui.obj
 0002:000032b0       ??_R1A@?0A@EA@QLayout@@8   100152b0     DataMergeGui.obj
 0002:000032cc       ??_R3QLayout@@8            100152cc     DataMergeGui.obj
 0002:000032dc       ??_R2QLayout@@8            100152dc     DataMergeGui.obj
 0002:000032ec       ??_R17?0A@EA@QLayoutItem@@8 100152ec     DataMergeGui.obj
 0002:00003308       ??_R3QLayoutItem@@8        10015308     DataMergeGui.obj
 0002:00003318       ??_R2QLayoutItem@@8        10015318     DataMergeGui.obj
 0002:00003320       ??_R1A@?0A@EA@QLayoutItem@@8 10015320     DataMergeGui.obj
 0002:0000333c       ??_R4QGridLayout@@6BQLayoutItem@@@ 1001533c     DataMergeGui.obj
 0002:00003350       ??_R4QPushButton@@6BQObject@@@ 10015350     DataMergeGui.obj
 0002:00003364       ??_R3QPushButton@@8        10015364     DataMergeGui.obj
 0002:00003374       ??_R2QPushButton@@8        10015374     DataMergeGui.obj
 0002:0000338c       ??_R1A@?0A@EA@QPushButton@@8 1001538c     DataMergeGui.obj
 0002:000033a8       ??_R1A@?0A@EA@QAbstractButton@@8 100153a8     DataMergeGui.obj
 0002:000033c4       ??_R3QAbstractButton@@8    100153c4     DataMergeGui.obj
 0002:000033d4       ??_R2QAbstractButton@@8    100153d4     DataMergeGui.obj
 0002:000033e8       ??_R4QPushButton@@6BQPaintDevice@@@ 100153e8     DataMergeGui.obj
 0002:000033fc       ??_R4QComboBox@@6BQObject@@@ 100153fc     DataMergeGui.obj
 0002:00003410       ??_R3QComboBox@@8          10015410     DataMergeGui.obj
 0002:00003420       ??_R2QComboBox@@8          10015420     DataMergeGui.obj
 0002:00003434       ??_R1A@?0A@EA@QComboBox@@8 10015434     DataMergeGui.obj
 0002:00003450       ??_R4QComboBox@@6BQPaintDevice@@@ 10015450     DataMergeGui.obj
 0002:00003464       ??_R4QDoubleSpinBox@@6BQObject@@@ 10015464     DataMergeGui.obj
 0002:00003478       ??_R3QDoubleSpinBox@@8     10015478     DataMergeGui.obj
 0002:00003488       ??_R2QDoubleSpinBox@@8     10015488     DataMergeGui.obj
 0002:000034a0       ??_R1A@?0A@EA@QDoubleSpinBox@@8 100154a0     DataMergeGui.obj
 0002:000034bc       ??_R1A@?0A@EA@QAbstractSpinBox@@8 100154bc     DataMergeGui.obj
 0002:000034d8       ??_R3QAbstractSpinBox@@8   100154d8     DataMergeGui.obj
 0002:000034e8       ??_R2QAbstractSpinBox@@8   100154e8     DataMergeGui.obj
 0002:000034fc       ??_R4QDoubleSpinBox@@6BQPaintDevice@@@ 100154fc     DataMergeGui.obj
 0002:00003510       ??_R4QLabel@@6BQObject@@@  10015510     DataMergeGui.obj
 0002:00003524       ??_R3QLabel@@8             10015524     DataMergeGui.obj
 0002:00003534       ??_R2QLabel@@8             10015534     DataMergeGui.obj
 0002:0000354c       ??_R1A@?0A@EA@QLabel@@8    1001554c     DataMergeGui.obj
 0002:00003568       ??_R1A@?0A@EA@QFrame@@8    10015568     DataMergeGui.obj
 0002:00003584       ??_R3QFrame@@8             10015584     DataMergeGui.obj
 0002:00003594       ??_R2QFrame@@8             10015594     DataMergeGui.obj
 0002:000035a8       ??_R4QLabel@@6BQPaintDevice@@@ 100155a8     DataMergeGui.obj
 0002:000035bc       ??_R4SlotWrapper@Slot@@6B@ 100155bc     PlugInLib:ViewerShell.obj
 0002:000035d0       ??_R3SlotWrapper@Slot@@8   100155d0     PlugInLib:ViewerShell.obj
 0002:000035e0       ??_R2SlotWrapper@Slot@@8   100155e0     PlugInLib:ViewerShell.obj
 0002:000035e8       ??_R1A@?0A@EA@SlotWrapper@Slot@@8 100155e8     PlugInLib:ViewerShell.obj
 0002:00003604       ??_R4PlugInCallback@@6B@   10015604     PlugInLib:ViewerShell.obj
 0002:00003618       ??_R3PlugInCallback@@8     10015618     PlugInLib:ViewerShell.obj
 0002:00003628       ??_R2PlugInCallback@@8     10015628     PlugInLib:ViewerShell.obj
 0002:00003630       ??_R1A@?0A@EA@PlugInCallback@@8 10015630     PlugInLib:ViewerShell.obj
 0002:0000364c       ??_R4?$SlotValue@VViewerShell@@@Slot@@6B@ 1001564c     PlugInLib:ViewerShell.obj
 0002:00003660       ??_R3?$SlotValue@VViewerShell@@@Slot@@8 10015660     PlugInLib:ViewerShell.obj
 0002:00003670       ??_R2?$SlotValue@VViewerShell@@@Slot@@8 10015670     PlugInLib:ViewerShell.obj
 0002:0000367c       ??_R1A@?0A@EA@?$SlotValue@VViewerShell@@@Slot@@8 1001567c     PlugInLib:ViewerShell.obj
 0002:00003698       ??_R4?$SlotValue@V?$SafePtr@VApplicationServices@@@@@Slot@@6B@ 10015698     PlugInLib:ViewerShell.obj
 0002:000036ac       ??_R3?$SlotValue@V?$SafePtr@VApplicationServices@@@@@Slot@@8 100156ac     PlugInLib:ViewerShell.obj
 0002:000036bc       ??_R2?$SlotValue@V?$SafePtr@VApplicationServices@@@@@Slot@@8 100156bc     PlugInLib:ViewerShell.obj
 0002:000036c8       ??_R1A@?0A@EA@?$SlotValue@V?$SafePtr@VApplicationServices@@@@@Slot@@8 100156c8     PlugInLib:ViewerShell.obj
 0002:000036e4       ??_R4ViewerCallback@@6B@   100156e4     PlugInLib:ViewerShell.obj
 0002:000036f8       ??_R3ViewerCallback@@8     100156f8     PlugInLib:ViewerShell.obj
 0002:00003708       ??_R2ViewerCallback@@8     10015708     PlugInLib:ViewerShell.obj
 0002:00003714       ??_R1A@?0A@EA@ViewerCallback@@8 10015714     PlugInLib:ViewerShell.obj
 0002:00003730       ??_R4?$SafePtr@VApplicationServices@@@@6B@ 10015730     PlugInLib:ViewerShell.obj
 0002:00003744       ??_R3?$SafePtr@VApplicationServices@@@@8 10015744     PlugInLib:ViewerShell.obj
 0002:00003754       ??_R2?$SafePtr@VApplicationServices@@@@8 10015754     PlugInLib:ViewerShell.obj
 0002:0000375c       ??_R1A@?0A@EA@?$SafePtr@VApplicationServices@@@@8 1001575c     PlugInLib:ViewerShell.obj
 0002:00003778       ??_R4?$AttachmentPtr@VApplicationServices@@@@6B@ 10015778     PlugInLib:ViewerShell.obj
 0002:0000378c       ??_R3?$AttachmentPtr@VApplicationServices@@@@8 1001578c     PlugInLib:ViewerShell.obj
 0002:0000379c       ??_R2?$AttachmentPtr@VApplicationServices@@@@8 1001579c     PlugInLib:ViewerShell.obj
 0002:000037a8       ??_R1A@?0A@EA@?$AttachmentPtr@VApplicationServices@@@@8 100157a8     PlugInLib:ViewerShell.obj
 0002:000037c4       ??_R4ViewerShell@@6B@      100157c4     PlugInLib:ViewerShell.obj
 0002:000037d8       ??_R4ViewerShell@@6BPlugIn@@@ 100157d8     PlugInLib:ViewerShell.obj
 0002:000037ec       ??_R4ViewerShell@@6BSessionItemExt1@@@ 100157ec     PlugInLib:ViewerShell.obj
 0002:00003800       ??_R4Executable@@6B@       10015800     PlugInLib:ExecutableShell.obj
 0002:00003814       ??_R4ExecutableShell@@6B@  10015814     PlugInLib:ExecutableShell.obj
 0002:00003828       ??_R4ExecutableShell@@6BPlugIn@@@ 10015828     PlugInLib:ExecutableShell.obj
 0002:0000383c       ??_R4ExecutableShell@@6BSessionItemExt1@@@ 1001583c     PlugInLib:ExecutableShell.obj
 0002:00003850       ??_R4SessionItem@@6B@      10015850     PlugInLib:PlugInShell.obj
 0002:00003864       ??_R4SessionItemExt1@@6B@  10015864     PlugInLib:PlugInShell.obj
 0002:00003878       ??_R4PlugIn@@6B@           10015878     PlugInLib:PlugInShell.obj
 0002:0000388c       ??_R4?$Resource@VSettableSessionItem@@VFactoryObject@@@@6B@ 1001588c     PlugInLib:PlugInShell.obj
 0002:000038a0       ??_R3?$Resource@VSettableSessionItem@@VFactoryObject@@@@8 100158a0     PlugInLib:PlugInShell.obj
 0002:000038b0       ??_R2?$Resource@VSettableSessionItem@@VFactoryObject@@@@8 100158b0     PlugInLib:PlugInShell.obj
 0002:000038b8       ??_R1A@?0A@EA@?$Resource@VSettableSessionItem@@VFactoryObject@@@@8 100158b8     PlugInLib:PlugInShell.obj
 0002:000038d4       ??_R4?$FactoryResource@VSettableSessionItem@@@@6B@ 100158d4     PlugInLib:PlugInShell.obj
 0002:000038e8       ??_R3?$FactoryResource@VSettableSessionItem@@@@8 100158e8     PlugInLib:PlugInShell.obj
 0002:000038f8       ??_R2?$FactoryResource@VSettableSessionItem@@@@8 100158f8     PlugInLib:PlugInShell.obj
 0002:00003904       ??_R1A@?0A@EA@?$FactoryResource@VSettableSessionItem@@@@8 10015904     PlugInLib:PlugInShell.obj
 0002:00003920       ??_R4PlugInShell@@6BPlugIn@@@ 10015920     PlugInLib:PlugInShell.obj
 0002:00003934       ??_R4PlugInShell@@6BSessionItemExt1@@@ 10015934     PlugInLib:PlugInShell.obj
 0002:00003948       ??_R4type_info@@6B@        10015948     MSVCRT:ti_inst.obj
 0002:0000395c       ??_R3type_info@@8          1001595c     MSVCRT:ti_inst.obj
 0002:0000396c       ??_R2type_info@@8          1001596c     MSVCRT:ti_inst.obj
 0002:00003974       ??_R1A@?0A@EA@type_info@@8 10015974     MSVCRT:ti_inst.obj
 0002:00003990       ___safe_se_handler_table   10015990     <linker-defined>
 0002:00003b40       ___rtc_iaa                 10015b40     MSVCRT:initsect.obj
 0002:00003b44       ___rtc_izz                 10015b44     MSVCRT:initsect.obj
 0002:00003b48       ___rtc_taa                 10015b48     MSVCRT:initsect.obj
 0002:00003b4c       ___rtc_tzz                 10015b4c     MSVCRT:initsect.obj
 0002:00003b7c       __TI2?AVlogic_error@std@@  10015b7c     DataMerge.obj
 0002:00003bb8       __CTA2?AVlogic_error@std@@ 10015bb8     DataMerge.obj
 0002:00003bc4       __CT??_R0?AVlogic_error@std@@@8??0logic_error@std@@QAE@ABV01@@Z40 10015bc4     DataMerge.obj
 0002:00003be0       __CT??_R0?AVexception@std@@@8??0exception@std@@QAE@ABV01@@Z12 10015be0     DataMerge.obj
 0002:00003d48       __TI3?AVlength_error@std@@ 10015d48     DataMerge.obj
 0002:00003d8c       __CTA3?AVlength_error@std@@ 10015d8c     DataMerge.obj
 0002:00003d9c       __CT??_R0?AVlength_error@std@@@8??0length_error@std@@QAE@ABV01@@Z40 10015d9c     DataMerge.obj
 0002:00003db8       __TI2?AVbad_alloc@std@@    10015db8     DataMerge.obj
 0002:00003dc8       __CTA2?AVbad_alloc@std@@   10015dc8     DataMerge.obj
 0002:00003dd4       __CT??_R0?AVbad_alloc@std@@@8??0bad_alloc@std@@QAE@ABV01@@Z12 10015dd4     DataMerge.obj
 0002:00004700       __TI3?AVout_of_range@std@@ 10016700     DataMergeGui.obj
 0002:00004744       __CTA3?AVout_of_range@std@@ 10016744     DataMergeGui.obj
 0002:00004754       __CT??_R0?AVout_of_range@std@@@8??0out_of_range@std@@QAE@ABV01@@Z40 10016754     DataMergeGui.obj
 0002:000058ec       __IMPORT_DESCRIPTOR_QtCore4 100178ec     QtCore4:QtCore4.dll
 0002:00005900       __IMPORT_DESCRIPTOR_QtGui4 10017900     QtGui4:QtGui4.dll
 0002:00005914       __IMPORT_DESCRIPTOR_MSVCP80 10017914     msvcprt:MSVCP80.dll
 0002:00005928       __IMPORT_DESCRIPTOR_MSVCR80 10017928     MSVCRT:MSVCR80.dll
 0002:0000593c       __IMPORT_DESCRIPTOR_KERNEL32 1001793c     kernel32:KERNEL32.dll
 0002:00005950       __NULL_IMPORT_DESCRIPTOR   10017950     QtCore4:QtCore4.dll
 0003:00000004       ??_R0?AVbad_alloc@std@@@8  1001c004     DataMerge.obj
 0003:00000020       ??_R0?AVexception@std@@@8  1001c020     DataMerge.obj
 0003:0000003c       ??_R0?AVlogic_error@std@@@8 1001c03c     DataMerge.obj
 0003:0000005c       ??_R0?AVlength_error@std@@@8 1001c05c     DataMerge.obj
 0003:0000007c       ??_R0?AVPlugInFactory@@@8  1001c07c     DataMerge.obj
 0003:00000098       ??_R0?AVDataMerge@@@8      1001c098     DataMerge.obj
 0003:000000b0       ??_R0?AVQObject@@@8        1001c0b0     DataMerge.obj
 0003:000000c8       ??_R0?AVViewerShell@@@8    1001c0c8     DataMerge.obj
 0003:000000e4       ??_R0?AVExecutableShell@@@8 1001c0e4     DataMerge.obj
 0003:00000104       ??_R0?AVExecutable@@@8     1001c104     DataMerge.obj
 0003:00000120       ??_R0?AVPlugInShell@@@8    1001c120     DataMerge.obj
 0003:0000013c       ??_R0?AVPlugIn@@@8         1001c13c     DataMerge.obj
 0003:00000154       ??_R0?AVSessionItem@@@8    1001c154     DataMerge.obj
 0003:00000170       ??_R0?AVSessionItemExt1@@@8 1001c170     DataMerge.obj
 0003:00000190       ??_R0?AVAnyData@@@8        1001c190     DataMerge.obj
 0003:000001a8       ??_R0?AVAny@@@8            1001c1a8     DataMerge.obj
 0003:000001bc       ??_R0?AVDataElement@@@8    1001c1bc     DataMerge.obj
 0003:000001d8       ??_R0?AVRasterElement@@@8  1001c1d8     DataMerge.obj
 0003:000001f4       ??_R0?AV?$Resource@VStep@@VMessageObject@@@@@8 1001c1f4     DataMerge.obj
 0003:00000228       ??_R0?AV?$Resource@VDataRequest@@VFactoryObject@@@@@8 1001c228     DataMerge.obj
 0003:00000260       ??_R0?AVStepResource@@@8   1001c260     DataMerge.obj
 0003:0000027c       ??_R0?AV?$FactoryResource@VDataRequest@@@@@8 1001c27c     DataMerge.obj
 0003:000002ac       ??_R0?AVBasicPlugInFactory@@@8 1001c2ac     DataMerge.obj
 0003:000002d0       ??_R0?AVDataMergePlugInFactory@SpectralDataMerge@@@8 1001c2d0     DataMerge.obj
 0003:0000030c       ??_R0?AVout_of_range@std@@@8 1001c30c     DataMergeGui.obj
 0003:0000032c       ??_R0?AVWindow@@@8         1001c32c     DataMergeGui.obj
 0003:00000344       ??_R0?AVSpatialDataWindow@@@8 1001c344     DataMergeGui.obj
 0003:00000364       ??_R0?AVView@@@8           1001c364     DataMergeGui.obj
 0003:00000378       ??_R0?AVSpatialDataView@@@8 1001c378     DataMergeGui.obj
 0003:00000398       ??_R0?AVDataMergeGui@@@8   1001c398     DataMergeGui.obj
 0003:000003b4       ??_R0?AVQDialog@@@8        1001c3b4     DataMergeGui.obj
 0003:000003cc       ??_R0?AVQWidget@@@8        1001c3cc     DataMergeGui.obj
 0003:000003e4       ??_R0?AVQPaintDevice@@@8   1001c3e4     DataMergeGui.obj
 0003:00000400       ??_R0?AVQGridLayout@@@8    1001c400     DataMergeGui.obj
 0003:0000041c       ??_R0?AVQLayout@@@8        1001c41c     DataMergeGui.obj
 0003:00000434       ??_R0?AVQLayoutItem@@@8    1001c434     DataMergeGui.obj
 0003:00000450       ??_R0?AVQPushButton@@@8    1001c450     DataMergeGui.obj
 0003:0000046c       ??_R0?AVQAbstractButton@@@8 1001c46c     DataMergeGui.obj
 0003:0000048c       ??_R0?AVQComboBox@@@8      1001c48c     DataMergeGui.obj
 0003:000004a4       ??_R0?AVQDoubleSpinBox@@@8 1001c4a4     DataMergeGui.obj
 0003:000004c4       ??_R0?AVQAbstractSpinBox@@@8 1001c4c4     DataMergeGui.obj
 0003:000004e4       ??_R0?AVQLabel@@@8         1001c4e4     DataMergeGui.obj
 0003:000004fc       ??_R0?AVQFrame@@@8         1001c4fc     DataMergeGui.obj
 0003:00000518       _SpectralDataMergeDescriptor 1001c518     ModuleManager.obj
 0003:0000052c       ?staticMetaObject@DataMerge@@2UQMetaObject@@B 1001c52c     moc_DataMerge.obj
 0003:00000540       ?staticMetaObject@DataMergeGui@@2UQMetaObject@@B 1001c540     moc_DataMergeGui.obj
 0003:00000554       ??_R0?AVSlotWrapper@Slot@@@8 1001c554     PlugInLib:ViewerShell.obj
 0003:00000574       ??_R0?AVPlugInCallback@@@8 1001c574     PlugInLib:ViewerShell.obj
 0003:00000594       ??_R0?AV?$SlotValue@VViewerShell@@@Slot@@@8 1001c594     PlugInLib:ViewerShell.obj
 0003:000005c4       ??_R0?AVObserver@@@8       1001c5c4     PlugInLib:ViewerShell.obj
 0003:000005e0       ??_R0?AV?$SlotValue@V?$SafePtr@VApplicationServices@@@@@Slot@@@8 1001c5e0     PlugInLib:ViewerShell.obj
 0003:00000624       ??_R0?AV?$SafePtr@VApplicationServices@@@@@8 1001c624     PlugInLib:ViewerShell.obj
 0003:00000654       ??_R0?AVViewerCallback@@@8 1001c654     PlugInLib:ViewerShell.obj
 0003:00000674       ??_R0?AV?$AttachmentPtr@VApplicationServices@@@@@8 1001c674     PlugInLib:ViewerShell.obj
 0003:000006b4       ??_R0?AVSettableSessionItem@@@8 1001c6b4     PlugInLib:PlugInShell.obj
 0003:000006d8       ??_R0?AVSettableSessionItemExt1@@@8 1001c6d8     PlugInLib:PlugInShell.obj
 0003:00000700       ??_R0?AV?$Resource@VSettableSessionItem@@VFactoryObject@@@@@8 1001c700     PlugInLib:PlugInShell.obj
 0003:00000740       ??_R0?AV?$FactoryResource@VSettableSessionItem@@@@@8 1001c740     PlugInLib:PlugInShell.obj
 0003:00000784       ??_R0?AVSessionExplorer@@@8 1001c784     PlugInUtilities:Service.obj
 0003:000007ac       ??_R0?AVtype_info@@@8      1001c7ac     MSVCRT:ti_inst.obj
 0003:000007d0       ___native_dllmain_reason   1001c7d0     MSVCRT:natstart.obj
 0003:000007d4       ___native_vcclrit_reason   1001c7d4     MSVCRT:natstart.obj
 0003:000007d8       ___security_cookie         1001c7d8     MSVCRT:gs_cookie.obj
 0003:000007dc       ___security_cookie_complement 1001c7dc     MSVCRT:gs_cookie.obj
 0003:000007f4       ?mspName@ModuleManager@@0PBDB 1001c7f4     ModuleManager.obj
 0003:000007f8       ?mspVersion@ModuleManager@@0PBDB 1001c7f8     ModuleManager.obj
 0003:000007fc       ?mspDescription@ModuleManager@@0PBDB 1001c7fc     ModuleManager.obj
 0003:00000800       ?mspValidationKey@ModuleManager@@0PBDB 1001c800     ModuleManager.obj
 0003:00000804       ?mspUniqueId@ModuleManager@@0PBDB 1001c804     ModuleManager.obj
 0003:00000820       ?signalName@?1??signalDeleted@Subject@@SAABV?$basic_string@DU?$char_traits@D@std@@V?$allocator@D@2@@std@@XZ@4V34@A 1001c820     PlugInLib:ViewerShell.obj
 0003:0000083c       ??_B?1??signalDeleted@Subject@@SAABV?$basic_string@DU?$char_traits@D@std@@V?$allocator@D@2@@std@@XZ@51 1001c83c     PlugInLib:ViewerShell.obj
 0003:00000840       ?signalName@?1??signalSessionClosed@ApplicationServices@@SAABV?$basic_string@DU?$char_traits@D@std@@V?$allocator@D@2@@std@@XZ@4V34@A 1001c840     PlugInLib:ViewerShell.obj
 0003:0000085c       ??_B?1??signalSessionClosed@ApplicationServices@@SAABV?$basic_string@DU?$char_traits@D@std@@V?$allocator@D@2@@std@@XZ@51 1001c85c     PlugInLib:ViewerShell.obj
 0003:00000860       ?mspSingleton@ModuleManager@@0PAV1@A 1001c860     PlugInLib:ModuleManagerCommon.obj
 0003:00000868       __forceCRTManifest         1001c868     MSVCRT:crtmanifest.obj
 0003:0000086c       ?__type_info_root_node@@3U__type_info_node@@A 1001c86c     MSVCRT:tncleanup.obj
 0003:00000b9c       __adjust_fdiv              1001cb9c     <common>
 0003:00000ba0       ___native_startup_state    1001cba0     <common>
 0003:00000ba4       ___native_startup_lock     1001cba4     <common>
 0003:00000ba8       ___dyn_tls_init_callback   1001cba8     <common>
 0003:00000bac       ___onexitend               1001cbac     <common>
 0003:00000bb0       ___onexitbegin             1001cbb0     <common>

 entry point at        0001:0000ee74

 Static symbols

 0001:fffff000       __unwindfunclet$??0Args@MessageObject@@QAE@V?$basic_string@DU?$char_traits@D@std@@V?$allocator@D@2@@std@@0000_N@Z$0 10000000 f   DataMergeGui.obj
 0001:fffff000       __unwindfunclet$??0StepResource@@QAE@V?$basic_string@DU?$char_traits@D@std@@V?$allocator@D@2@@std@@0000@Z$0 10000000 f   DataMergeGui.obj
 0001:fffff000       __unwindfunclet$??0logic_error@std@@QAE@ABV?$basic_string@DU?$char_traits@D@std@@V?$allocator@D@2@@1@@Z$0 10000000 f   ModuleManager.obj
 0001:fffff000       __unwindfunclet$?construct@?$allocator@V?$basic_string@DU?$char_traits@D@std@@V?$allocator@D@2@@std@@@std@@QAEXPAV?$basic_string@DU?$char_traits@D@std@@V?$allocator@D@2@@2@ABV32@@Z$0 10000000 f   PlugInLib:ExecutableShell.obj
 0001:fffff000       __unwindfunclet$??0logic_error@std@@QAE@ABV01@@Z$0 10000000 f   PlugInLib:ExecutableShell.obj
 0001:fffff000       __unwindfunclet$??0logic_error@std@@QAE@ABV?$basic_string@DU?$char_traits@D@std@@V?$allocator@D@2@@1@@Z$0 10000000 f   DataMergeGui.obj
 0001:fffff000       __unwindfunclet$??0logic_error@std@@QAE@ABV01@@Z$0 10000000 f   PlugInUtilities:Service.obj
 0001:fffff000       __unwindfunclet$??0logic_error@std@@QAE@ABV01@@Z$0 10000000 f   ModuleManager.obj
 0001:fffff000       __unwindfunclet$??$_Uninit_move@PAV?$basic_string@DU?$char_traits@D@std@@V?$allocator@D@2@@std@@PAV12@V?$allocator@V?$basic_string@DU?$char_traits@D@std@@V?$allocator@D@2@@std@@@2@@std@@YAPAV?$basic_string@DU?$char_traits@D@std@@V?$allocator@D@2@@0@PAV10@00AAV?$allocator@V?$basic_string@DU?$char_traits@D@std@@V?$allocator@D@2@@std@@@0@U_Swap_move_tag@0@U_Range_checked_iterator_tag@0@@Z$2 10000000 f   PlugInLib:ExecutableShell.obj
 0001:fffff000       __unwindfunclet$??1Args@MessageObject@@QAE@XZ$0 10000000 f   DataMergeGui.obj
 0001:fffff000       __unwindfunclet$??0logic_error@std@@QAE@ABV?$basic_string@DU?$char_traits@D@std@@V?$allocator@D@2@@1@@Z$0 10000000 f   PlugInUtilities:Service.obj
 0001:fffff000       __unwindfunclet$??$_Construct@V?$basic_string@DU?$char_traits@D@std@@V?$allocator@D@2@@std@@V12@@std@@YAXPAV?$basic_string@DU?$char_traits@D@std@@V?$allocator@D@2@@0@ABV10@@Z$0 10000000 f   DataMergeGui.obj
 0001:fffff000       __unwindfunclet$?_Xlen@?$vector@V?$basic_string@DU?$char_traits@D@std@@V?$allocator@D@2@@std@@V?$allocator@V?$basic_string@DU?$char_traits@D@std@@V?$allocator@D@2@@std@@@2@@std@@KAXXZ$0 10000000 f   DataMergeGui.obj
 0001:fffff000       __unwindfunclet$??$?6U?$char_traits@D@std@@@std@@YAAAV?$basic_ostream@DU?$char_traits@D@std@@@0@AAV10@PBD@Z$2 10000000 f   PlugInUtilities:AppVerify.obj
 0001:fffff000       __unwindfunclet$??$_Uninit_fill_n@PAV?$basic_string@DU?$char_traits@D@std@@V?$allocator@D@2@@std@@IV12@V?$allocator@V?$basic_string@DU?$char_traits@D@std@@V?$allocator@D@2@@std@@@2@@std@@YAXPAV?$basic_string@DU?$char_traits@D@std@@V?$allocator@D@2@@0@IABV10@AAV?$allocator@V?$basic_string@DU?$char_traits@D@std@@V?$allocator@D@2@@std@@@0@U_Nonscalar_ptr_iterator_tag@0@U_Range_checked_iterator_tag@0@@Z$2 10000000 f   PlugInLib:ExecutableShell.obj
 0001:fffff000       __unwindfunclet$??0Args@MessageObject@@QAE@ABU01@@Z$0 10000000 f   DataMergeGui.obj
 0001:fffff000       __unwindfunclet$??1sentry@?$basic_ostream@DU?$char_traits@D@std@@@std@@QAE@XZ$0 10000000 f   PlugInUtilities:AppVerify.obj
 0001:fffff000       __unwindfunclet$?_Xlen@?$vector@V?$basic_string@DU?$char_traits@D@std@@V?$allocator@D@2@@std@@V?$allocator@V?$basic_string@DU?$char_traits@D@std@@V?$allocator@D@2@@std@@@2@@std@@KAXXZ$0 10000000 f   PlugInLib:ExecutableShell.obj
 0001:fffff000       __unwindfunclet$?_Insert_n@?$vector@V?$basic_string@DU?$char_traits@D@std@@V?$allocator@D@2@@std@@V?$allocator@V?$basic_string@DU?$char_traits@D@std@@V?$allocator@D@2@@std@@@2@@std@@IAEXV?$_Vector_iterator@V?$basic_string@DU?$char_traits@D@std@@V?$allocator@D@2@@std@@V?$allocator@V?$basic_string@DU?$char_traits@D@std@@V?$allocator@D@2@@std@@@2@@2@IABV?$basic_string@DU?$char_traits@D@std@@V?$allocator@D@2@@2@@Z$4 10000000 f   PlugInLib:ExecutableShell.obj
 0001:fffff000       __unwindfunclet$??0sentry@?$basic_ostream@DU?$char_traits@D@std@@@std@@QAE@AAV12@@Z$0 10000000 f   PlugInUtilities:AppVerify.obj
 0001:fffff000       __unwindfunclet$??0logic_error@std@@QAE@ABV?$basic_string@DU?$char_traits@D@std@@V?$allocator@D@2@@1@@Z$0 10000000 f   PlugInLib:PlugInShell.obj
 0001:fffff000       __unwindfunclet$??0logic_error@std@@QAE@ABV01@@Z$0 10000000 f   DataMergeGui.obj
 0001:fffff000       __unwindfunclet$??1?$Resource@VStep@@VMessageObject@@@@UAE@XZ$0 10000000 f   DataMergeGui.obj
 0001:fffff000       __unwindfunclet$?obtainResource@FactoryObject@@QBEPAXABVArgs@FactoryAllocator@@@Z$0 10000000 f   PlugInLib:PlugInShell.obj
 0001:fffff000       __unwindfunclet$?construct@?$allocator@V?$basic_string@DU?$char_traits@D@std@@V?$allocator@D@2@@std@@@std@@QAEXPAV?$basic_string@DU?$char_traits@D@std@@V?$allocator@D@2@@2@ABV32@@Z$0 10000000 f   DataMergeGui.obj
 0001:fffff000       __unwindfunclet$?releaseResource@FactoryObject@@QBEXABVArgs@FactoryAllocator@@PAX@Z$0 10000000 f   PlugInLib:PlugInShell.obj
 0001:fffff000       __unwindfunclet$??0logic_error@std@@QAE@ABV01@@Z$0 10000000 f   PlugInLib:ViewerShell.obj
 0001:fffff000       __unwindfunclet$??0logic_error@std@@QAE@ABV?$basic_string@DU?$char_traits@D@std@@V?$allocator@D@2@@1@@Z$0 10000000 f   PlugInLib:ExecutableShell.obj
 0001:fffff000       __unwindfunclet$??0logic_error@std@@QAE@ABV?$basic_string@DU?$char_traits@D@std@@V?$allocator@D@2@@1@@Z$0 10000000 f   PlugInLib:ViewerShell.obj
 0001:fffff000       __unwindfunclet$??0logic_error@std@@QAE@ABV01@@Z$0 10000000 f   PlugInLib:PlugInShell.obj
 0001:fffff000       __unwindfunclet$??0?$Resource@VStep@@VMessageObject@@@@QAE@ABUArgs@MessageObject@@@Z$0 10000000 f   DataMergeGui.obj
 0001:fffff000       __unwindfunclet$??$_Construct@V?$basic_string@DU?$char_traits@D@std@@V?$allocator@D@2@@std@@V12@@std@@YAXPAV?$basic_string@DU?$char_traits@D@std@@V?$allocator@D@2@@0@ABV10@@Z$0 10000000 f   PlugInLib:ExecutableShell.obj
 0001:fffff008       __ehhandler$??1sentry@?$basic_ostream@DU?$char_traits@D@std@@@std@@QAE@XZ 10000008 f   PlugInUtilities:AppVerify.obj
 0001:fffff008       __ehhandler$??0sentry@?$basic_ostream@DU?$char_traits@D@std@@@std@@QAE@AAV12@@Z 10000008 f   PlugInUtilities:AppVerify.obj
 0001:fffff008       __unwindfunclet$??$?6U?$char_traits@D@std@@@std@@YAAAV?$basic_ostream@DU?$char_traits@D@std@@@0@AAV10@PBD@Z$3 10000008 f   PlugInUtilities:AppVerify.obj
 0001:fffff009       __ehhandler$??0logic_error@std@@QAE@ABV01@@Z 10000009 f   PlugInLib:ViewerShell.obj
 0001:fffff009       __ehhandler$?obtainResource@FactoryObject@@QBEPAXABVArgs@FactoryAllocator@@@Z 10000009 f   PlugInLib:PlugInShell.obj
 0001:fffff009       __ehhandler$??0logic_error@std@@QAE@ABV?$basic_string@DU?$char_traits@D@std@@V?$allocator@D@2@@1@@Z 10000009 f   PlugInLib:ExecutableShell.obj
 0001:fffff009       __ehhandler$??0logic_error@std@@QAE@ABV?$basic_string@DU?$char_traits@D@std@@V?$allocator@D@2@@1@@Z 10000009 f   PlugInLib:PlugInShell.obj
 0001:fffff009       __ehhandler$?releaseResource@FactoryObject@@QBEXABVArgs@FactoryAllocator@@PAX@Z 10000009 f   PlugInLib:PlugInShell.obj
 0001:fffff009       __ehhandler$?_Insert_n@?$vector@V?$basic_string@DU?$char_traits@D@std@@V?$allocator@D@2@@std@@V?$allocator@V?$basic_string@DU?$char_traits@D@std@@V?$allocator@D@2@@std@@@2@@std@@IAEXV?$_Vector_iterator@V?$basic_string@DU?$char_traits@D@std@@V?$allocator@D@2@@std@@V?$allocator@V?$basic_string@DU?$char_traits@D@std@@V?$allocator@D@2@@std@@@2@@2@IABV?$basic_string@DU?$char_traits@D@std@@V?$allocator@D@2@@2@@Z 10000009 f   PlugInLib:ExecutableShell.obj
 0001:fffff009       __ehhandler$??0logic_error@std@@QAE@ABV?$basic_string@DU?$char_traits@D@std@@V?$allocator@D@2@@1@@Z 10000009 f   DataMergeGui.obj
 0001:fffff009       __unwindfunclet$??0Args@MessageObject@@QAE@V?$basic_string@DU?$char_traits@D@std@@V?$allocator@D@2@@std@@0000_N@Z$1 10000009 f   DataMergeGui.obj
 0001:fffff009       __ehhandler$??0logic_error@std@@QAE@ABV?$basic_string@DU?$char_traits@D@std@@V?$allocator@D@2@@1@@Z 10000009 f   PlugInLib:ViewerShell.obj
 0001:fffff009       __unwindfunclet$?_Xlen@?$vector@V?$basic_string@DU?$char_traits@D@std@@V?$allocator@D@2@@std@@V?$allocator@V?$basic_string@DU?$char_traits@D@std@@V?$allocator@D@2@@std@@@2@@std@@KAXXZ$2 10000009 f   DataMergeGui.obj
 0001:fffff009       __unwindfunclet$?_Xlen@?$vector@V?$basic_string@DU?$char_traits@D@std@@V?$allocator@D@2@@std@@V?$allocator@V?$basic_string@DU?$char_traits@D@std@@V?$allocator@D@2@@std@@@2@@std@@KAXXZ$2 10000009 f   PlugInLib:ExecutableShell.obj
 0001:fffff009       __ehhandler$??0logic_error@std@@QAE@ABV01@@Z 10000009 f   DataMergeGui.obj
 0001:fffff009       __unwindfunclet$??0Args@MessageObject@@QAE@ABU01@@Z$1 10000009 f   DataMergeGui.obj
 0001:fffff009       __ehhandler$??0logic_error@std@@QAE@ABV?$basic_string@DU?$char_traits@D@std@@V?$allocator@D@2@@1@@Z 10000009 f   PlugInUtilities:Service.obj
 0001:fffff009       __ehhandler$??0logic_error@std@@QAE@ABV01@@Z 10000009 f   ModuleManager.obj
 0001:fffff009       __unwindfunclet$??1Args@MessageObject@@QAE@XZ$1 10000009 f   DataMergeGui.obj
 0001:fffff009       __ehhandler$??0logic_error@std@@QAE@ABV01@@Z 10000009 f   PlugInUtilities:Service.obj
 0001:fffff009       __unwindfunclet$??$_Uninit_move@PAV?$basic_string@DU?$char_traits@D@std@@V?$allocator@D@2@@std@@PAV12@V?$allocator@V?$basic_string@DU?$char_traits@D@std@@V?$allocator@D@2@@std@@@2@@std@@YAPAV?$basic_string@DU?$char_traits@D@std@@V?$allocator@D@2@@0@PAV10@00AAV?$allocator@V?$basic_string@DU?$char_traits@D@std@@V?$allocator@D@2@@std@@@0@U_Swap_move_tag@0@U_Range_checked_iterator_tag@0@@Z$3 10000009 f   PlugInLib:ExecutableShell.obj
 0001:fffff009       __unwindfunclet$??0StepResource@@QAE@V?$basic_string@DU?$char_traits@D@std@@V?$allocator@D@2@@std@@0000@Z$1 10000009 f   DataMergeGui.obj
 0001:fffff009       __ehhandler$??0logic_error@std@@QAE@ABV?$basic_string@DU?$char_traits@D@std@@V?$allocator@D@2@@1@@Z 10000009 f   ModuleManager.obj
 0001:fffff009       __ehhandler$??0logic_error@std@@QAE@ABV01@@Z 10000009 f   PlugInLib:ExecutableShell.obj
 0001:fffff009       __ehhandler$??0logic_error@std@@QAE@ABV01@@Z 10000009 f   PlugInLib:PlugInShell.obj
 0001:fffff00b       __ehhandler$??1?$Resource@VStep@@VMessageObject@@@@UAE@XZ 1000000b f   DataMergeGui.obj
 0001:fffff00b       __ehhandler$??0?$Resource@VStep@@VMessageObject@@@@QAE@ABUArgs@MessageObject@@@Z 1000000b f   DataMergeGui.obj
 0001:fffff010       __ehhandler$??$?6U?$char_traits@D@std@@@std@@YAAAV?$basic_ostream@DU?$char_traits@D@std@@@0@AAV10@PBD@Z 10000010 f   PlugInUtilities:AppVerify.obj
 0001:fffff011       __ehhandler$?construct@?$allocator@V?$basic_string@DU?$char_traits@D@std@@V?$allocator@D@2@@std@@@std@@QAEXPAV?$basic_string@DU?$char_traits@D@std@@V?$allocator@D@2@@2@ABV32@@Z 10000011 f   DataMergeGui.obj
 0001:fffff011       __ehhandler$?construct@?$allocator@V?$basic_string@DU?$char_traits@D@std@@V?$allocator@D@2@@std@@@std@@QAEXPAV?$basic_string@DU?$char_traits@D@std@@V?$allocator@D@2@@2@ABV32@@Z 10000011 f   PlugInLib:ExecutableShell.obj
 0001:fffff011       __ehhandler$??$_Construct@V?$basic_string@DU?$char_traits@D@std@@V?$allocator@D@2@@std@@V12@@std@@YAXPAV?$basic_string@DU?$char_traits@D@std@@V?$allocator@D@2@@0@ABV10@@Z 10000011 f   PlugInLib:ExecutableShell.obj
 0001:fffff011       __ehhandler$??$_Uninit_fill_n@PAV?$basic_string@DU?$char_traits@D@std@@V?$allocator@D@2@@std@@IV12@V?$allocator@V?$basic_string@DU?$char_traits@D@std@@V?$allocator@D@2@@std@@@2@@std@@YAXPAV?$basic_string@DU?$char_traits@D@std@@V?$allocator@D@2@@0@IABV10@AAV?$allocator@V?$basic_string@DU?$char_traits@D@std@@V?$allocator@D@2@@std@@@0@U_Nonscalar_ptr_iterator_tag@0@U_Range_checked_iterator_tag@0@@Z 10000011 f   PlugInLib:ExecutableShell.obj
 0001:fffff011       __ehhandler$??$_Construct@V?$basic_string@DU?$char_traits@D@std@@V?$allocator@D@2@@std@@V12@@std@@YAXPAV?$basic_string@DU?$char_traits@D@std@@V?$allocator@D@2@@0@ABV10@@Z 10000011 f   DataMergeGui.obj
 0001:fffff012       __ehhandler$?_Xlen@?$vector@V?$basic_string@DU?$char_traits@D@std@@V?$allocator@D@2@@std@@V?$allocator@V?$basic_string@DU?$char_traits@D@std@@V?$allocator@D@2@@std@@@2@@std@@KAXXZ 10000012 f   PlugInLib:ExecutableShell.obj
 0001:fffff012       __ehhandler$?_Xlen@?$vector@V?$basic_string@DU?$char_traits@D@std@@V?$allocator@D@2@@std@@V?$allocator@V?$basic_string@DU?$char_traits@D@std@@V?$allocator@D@2@@std@@@2@@std@@KAXXZ 10000012 f   DataMergeGui.obj
 0001:fffff012       __unwindfunclet$??0StepResource@@QAE@V?$basic_string@DU?$char_traits@D@std@@V?$allocator@D@2@@std@@0000@Z$2 10000012 f   DataMergeGui.obj
 0001:fffff012       __unwindfunclet$??0Args@MessageObject@@QAE@V?$basic_string@DU?$char_traits@D@std@@V?$allocator@D@2@@std@@0000_N@Z$2 10000012 f   DataMergeGui.obj
 0001:fffff015       __unwindfunclet$??0Args@MessageObject@@QAE@ABU01@@Z$2 10000015 f   DataMergeGui.obj
 0001:fffff015       __unwindfunclet$??1Args@MessageObject@@QAE@XZ$2 10000015 f   DataMergeGui.obj
 0001:fffff01a       __ehhandler$??$_Uninit_move@PAV?$basic_string@DU?$char_traits@D@std@@V?$allocator@D@2@@std@@PAV12@V?$allocator@V?$basic_string@DU?$char_traits@D@std@@V?$allocator@D@2@@std@@@2@@std@@YAPAV?$basic_string@DU?$char_traits@D@std@@V?$allocator@D@2@@0@PAV10@00AAV?$allocator@V?$basic_string@DU?$char_traits@D@std@@V?$allocator@D@2@@std@@@0@U_Swap_move_tag@0@U_Range_checked_iterator_tag@0@@Z 1000001a f   PlugInLib:ExecutableShell.obj
 0001:fffff01b       __unwindfunclet$??0StepResource@@QAE@V?$basic_string@DU?$char_traits@D@std@@V?$allocator@D@2@@std@@0000@Z$3 1000001b f   DataMergeGui.obj
 0001:fffff01b       __unwindfunclet$??0Args@MessageObject@@QAE@V?$basic_string@DU?$char_traits@D@std@@V?$allocator@D@2@@std@@0000_N@Z$3 1000001b f   DataMergeGui.obj
 0001:fffff021       __unwindfunclet$??0Args@MessageObject@@QAE@ABU01@@Z$3 10000021 f   DataMergeGui.obj
 0001:fffff021       __unwindfunclet$??1Args@MessageObject@@QAE@XZ$3 10000021 f   DataMergeGui.obj
 0001:fffff024       __unwindfunclet$??0Args@MessageObject@@QAE@V?$basic_string@DU?$char_traits@D@std@@V?$allocator@D@2@@std@@0000_N@Z$4 10000024 f   DataMergeGui.obj
 0001:fffff024       __unwindfunclet$??0StepResource@@QAE@V?$basic_string@DU?$char_traits@D@std@@V?$allocator@D@2@@std@@0000@Z$4 10000024 f   DataMergeGui.obj
 0001:fffff02d       __ehhandler$??0Args@MessageObject@@QAE@ABU01@@Z 1000002d f   DataMergeGui.obj
 0001:fffff02d       __ehhandler$??1Args@MessageObject@@QAE@XZ 1000002d f   DataMergeGui.obj
 0001:fffff02d       __unwindfunclet$??0Args@MessageObject@@QAE@V?$basic_string@DU?$char_traits@D@std@@V?$allocator@D@2@@std@@0000_N@Z$5 1000002d f   DataMergeGui.obj
 0001:fffff02d       __unwindfunclet$??0StepResource@@QAE@V?$basic_string@DU?$char_traits@D@std@@V?$allocator@D@2@@std@@0000@Z$5 1000002d f   DataMergeGui.obj
 0001:fffff036       __unwindfunclet$??0Args@MessageObject@@QAE@V?$basic_string@DU?$char_traits@D@std@@V?$allocator@D@2@@std@@0000_N@Z$6 10000036 f   DataMergeGui.obj
 0001:fffff039       __unwindfunclet$??0StepResource@@QAE@V?$basic_string@DU?$char_traits@D@std@@V?$allocator@D@2@@std@@0000@Z$6 10000039 f   DataMergeGui.obj
 0001:fffff042       __unwindfunclet$??0Args@MessageObject@@QAE@V?$basic_string@DU?$char_traits@D@std@@V?$allocator@D@2@@std@@0000_N@Z$7 10000042 f   DataMergeGui.obj
 0001:fffff045       __unwindfunclet$??0StepResource@@QAE@V?$basic_string@DU?$char_traits@D@std@@V?$allocator@D@2@@std@@0000@Z$7 10000045 f   DataMergeGui.obj
 0001:fffff04e       __unwindfunclet$??0Args@MessageObject@@QAE@V?$basic_string@DU?$char_traits@D@std@@V?$allocator@D@2@@std@@0000_N@Z$8 1000004e f   DataMergeGui.obj
 0001:fffff051       __unwindfunclet$??0StepResource@@QAE@V?$basic_string@DU?$char_traits@D@std@@V?$allocator@D@2@@std@@0000@Z$8 10000051 f   DataMergeGui.obj
 0001:fffff05a       __unwindfunclet$??0Args@MessageObject@@QAE@V?$basic_string@DU?$char_traits@D@std@@V?$allocator@D@2@@std@@0000_N@Z$9 1000005a f   DataMergeGui.obj
 0001:fffff05c       __catch$??$_Uninit_fill_n@PAV?$basic_string@DU?$char_traits@D@std@@V?$allocator@D@2@@std@@IV12@V?$allocator@V?$basic_string@DU?$char_traits@D@std@@V?$allocator@D@2@@std@@@2@@std@@YAXPAV?$basic_string@DU?$char_traits@D@std@@V?$allocator@D@2@@0@IABV10@AAV?$allocator@V?$basic_string@DU?$char_traits@D@std@@V?$allocator@D@2@@std@@@0@U_Nonscalar_ptr_iterator_tag@0@U_Range_checked_iterator_tag@0@@Z$0 1000005c f   PlugInLib:ExecutableShell.obj
 0001:fffff05d       __unwindfunclet$??0StepResource@@QAE@V?$basic_string@DU?$char_traits@D@std@@V?$allocator@D@2@@std@@0000@Z$10 1000005d f   DataMergeGui.obj
 0001:fffff066       __unwindfunclet$??0Args@MessageObject@@QAE@V?$basic_string@DU?$char_traits@D@std@@V?$allocator@D@2@@std@@0000_N@Z$10 10000066 f   DataMergeGui.obj
 0001:fffff068       __unwindfunclet$??0StepResource@@QAE@V?$basic_string@DU?$char_traits@D@std@@V?$allocator@D@2@@std@@0000@Z$11 10000068 f   DataMergeGui.obj
 0001:fffff06f       __ehhandler$??0Args@MessageObject@@QAE@V?$basic_string@DU?$char_traits@D@std@@V?$allocator@D@2@@std@@0000_N@Z 1000006f f   DataMergeGui.obj
 0001:fffff073       __ehhandler$??0StepResource@@QAE@V?$basic_string@DU?$char_traits@D@std@@V?$allocator@D@2@@std@@0000@Z 10000073 f   DataMergeGui.obj
 0001:fffff076       __catch$??$_Uninit_move@PAV?$basic_string@DU?$char_traits@D@std@@V?$allocator@D@2@@std@@PAV12@V?$allocator@V?$basic_string@DU?$char_traits@D@std@@V?$allocator@D@2@@std@@@2@@std@@YAPAV?$basic_string@DU?$char_traits@D@std@@V?$allocator@D@2@@0@PAV10@00AAV?$allocator@V?$basic_string@DU?$char_traits@D@std@@V?$allocator@D@2@@std@@@0@U_Swap_move_tag@0@U_Range_checked_iterator_tag@0@@Z$0 10000076 f   PlugInLib:ExecutableShell.obj
 0001:fffff195       __catch$??$?6U?$char_traits@D@std@@@std@@YAAAV?$basic_ostream@DU?$char_traits@D@std@@@0@AAV10@PBD@Z$0 10000195 f   PlugInUtilities:AppVerify.obj
 0001:fffff1d0       __catch$?_Insert_n@?$vector@V?$basic_string@DU?$char_traits@D@std@@V?$allocator@D@2@@std@@V?$allocator@V?$basic_string@DU?$char_traits@D@std@@V?$allocator@D@2@@std@@@2@@std@@IAEXV?$_Vector_iterator@V?$basic_string@DU?$char_traits@D@std@@V?$allocator@D@2@@std@@V?$allocator@V?$basic_string@DU?$char_traits@D@std@@V?$allocator@D@2@@std@@@2@@2@IABV?$basic_string@DU?$char_traits@D@std@@V?$allocator@D@2@@2@@Z$0 100001d0 f   PlugInLib:ExecutableShell.obj
 0001:fffff28a       __catch$?_Insert_n@?$vector@V?$basic_string@DU?$char_traits@D@std@@V?$allocator@D@2@@std@@V?$allocator@V?$basic_string@DU?$char_traits@D@std@@V?$allocator@D@2@@std@@@2@@std@@IAEXV?$_Vector_iterator@V?$basic_string@DU?$char_traits@D@std@@V?$allocator@D@2@@std@@V?$allocator@V?$basic_string@DU?$char_traits@D@std@@V?$allocator@D@2@@std@@@2@@2@IABV?$basic_string@DU?$char_traits@D@std@@V?$allocator@D@2@@2@@Z$2 1000028a f   PlugInLib:ExecutableShell.obj
 0001:00001695       __catch$??$?6U?$char_traits@D@std@@@std@@YAAAV?$basic_ostream@DU?$char_traits@D@std@@@0@AAV10@PBD@Z$0 10002695 f i DataMerge.obj
 0001:00001818       __catch$??$?6U?$char_traits@D@std@@@std@@YAAAV?$basic_ostream@DU?$char_traits@D@std@@@0@AAV10@D@Z$0 10002818 f i DataMerge.obj
 0001:000024c6       __catch$??$_Uninit_move@PAV?$basic_string@DU?$char_traits@D@std@@V?$allocator@D@2@@std@@PAV12@V?$allocator@V?$basic_string@DU?$char_traits@D@std@@V?$allocator@D@2@@std@@@2@@std@@YAPAV?$basic_string@DU?$char_traits@D@std@@V?$allocator@D@2@@0@PAV10@00AAV?$allocator@V?$basic_string@DU?$char_traits@D@std@@V?$allocator@D@2@@std@@@0@U_Swap_move_tag@0@U_Range_checked_iterator_tag@0@@Z$0 100034c6 f i DataMerge.obj
 0001:00002b6c       __catch$??$_Uninit_fill_n@PAV?$basic_string@DU?$char_traits@D@std@@V?$allocator@D@2@@std@@IV12@V?$allocator@V?$basic_string@DU?$char_traits@D@std@@V?$allocator@D@2@@std@@@2@@std@@YAXPAV?$basic_string@DU?$char_traits@D@std@@V?$allocator@D@2@@0@IABV10@AAV?$allocator@V?$basic_string@DU?$char_traits@D@std@@V?$allocator@D@2@@std@@@0@U_Nonscalar_ptr_iterator_tag@0@U_Range_checked_iterator_tag@0@@Z$0 10003b6c f i DataMerge.obj
 0001:00003550       __catch$?_Insert_n@?$vector@V?$basic_string@DU?$char_traits@D@std@@V?$allocator@D@2@@std@@V?$allocator@V?$basic_string@DU?$char_traits@D@std@@V?$allocator@D@2@@std@@@2@@std@@IAEXV?$_Vector_iterator@V?$basic_string@DU?$char_traits@D@std@@V?$allocator@D@2@@std@@V?$allocator@V?$basic_string@DU?$char_traits@D@std@@V?$allocator@D@2@@std@@@2@@2@IABV?$basic_string@DU?$char_traits@D@std@@V?$allocator@D@2@@2@@Z$0 10004550 f i DataMerge.obj
 0001:0000360a       __catch$?_Insert_n@?$vector@V?$basic_string@DU?$char_traits@D@std@@V?$allocator@D@2@@std@@V?$allocator@V?$basic_string@DU?$char_traits@D@std@@V?$allocator@D@2@@std@@@2@@std@@IAEXV?$_Vector_iterator@V?$basic_string@DU?$char_traits@D@std@@V?$allocator@D@2@@std@@V?$allocator@V?$basic_string@DU?$char_traits@D@std@@V?$allocator@D@2@@std@@@2@@2@IABV?$basic_string@DU?$char_traits@D@std@@V?$allocator@D@2@@2@@Z$2 1000460a f i DataMerge.obj
 0001:00003a0a       __catch$??$_Uninit_copy@PBV?$basic_string@DU?$char_traits@D@std@@V?$allocator@D@2@@std@@PAV12@V?$allocator@V?$basic_string@DU?$char_traits@D@std@@V?$allocator@D@2@@std@@@2@@std@@YAPAV?$basic_string@DU?$char_traits@D@std@@V?$allocator@D@2@@0@PBV10@0PAV10@AAV?$allocator@V?$basic_string@DU?$char_traits@D@std@@V?$allocator@D@2@@std@@@0@U_Nonscalar_ptr_iterator_tag@0@U_Range_checked_iterator_tag@0@@Z$0 10004a0a f i DataMerge.obj
 0001:00003b50       __catch$??0?$vector@V?$basic_string@DU?$char_traits@D@std@@V?$allocator@D@2@@std@@V?$allocator@V?$basic_string@DU?$char_traits@D@std@@V?$allocator@D@2@@std@@@2@@std@@QAE@ABV01@@Z$0 10004b50 f i DataMerge.obj
 0001:000040fa       __catch$??$_Uninit_copy@PAV?$basic_string@DU?$char_traits@D@std@@V?$allocator@D@2@@std@@PAV12@V?$allocator@V?$basic_string@DU?$char_traits@D@std@@V?$allocator@D@2@@std@@@2@@std@@YAPAV?$basic_string@DU?$char_traits@D@std@@V?$allocator@D@2@@0@PAV10@00AAV?$allocator@V?$basic_string@DU?$char_traits@D@std@@V?$allocator@D@2@@std@@@0@U_Nonscalar_ptr_iterator_tag@0@U_Range_checked_iterator_tag@0@@Z$0 100050fa f i DataMergeGui.obj
 0001:00005d80       __catch$??$_Uninit_copy@PAU?$pair@V?$basic_string@DU?$char_traits@D@std@@V?$allocator@D@2@@std@@PAVPlugInFactory@@@std@@PAU12@V?$allocator@U?$pair@V?$basic_string@DU?$char_traits@D@std@@V?$allocator@D@2@@std@@PAVPlugInFactory@@@std@@@2@@std@@YAPAU?$pair@V?$basic_string@DU?$char_traits@D@std@@V?$allocator@D@2@@std@@PAVPlugInFactory@@@0@PAU10@00AAV?$allocator@U?$pair@V?$basic_string@DU?$char_traits@D@std@@V?$allocator@D@2@@std@@PAVPlugInFactory@@@std@@@0@U_Nonscalar_ptr_iterator_tag@0@U_Range_checked_iterator_tag@0@@Z$0 10006d80 f i ModuleManager.obj
 0001:00005f15       __catch$??$_Uninit_fill_n@PAU?$pair@V?$basic_string@DU?$char_traits@D@std@@V?$allocator@D@2@@std@@PAVPlugInFactory@@@std@@IU12@V?$allocator@U?$pair@V?$basic_string@DU?$char_traits@D@std@@V?$allocator@D@2@@std@@PAVPlugInFactory@@@std@@@2@@std@@YAXPAU?$pair@V?$basic_string@DU?$char_traits@D@std@@V?$allocator@D@2@@std@@PAVPlugInFactory@@@0@IABU10@AAV?$allocator@U?$pair@V?$basic_string@DU?$char_traits@D@std@@V?$allocator@D@2@@std@@PAVPlugInFactory@@@std@@@0@U_Nonscalar_ptr_iterator_tag@0@U_Range_checked_iterator_tag@0@@Z$0 10006f15 f i ModuleManager.obj
 0001:00006fe3       __catch$?_Insert_n@?$vector@U?$pair@V?$basic_string@DU?$char_traits@D@std@@V?$allocator@D@2@@std@@PAVPlugInFactory@@@std@@V?$allocator@U?$pair@V?$basic_string@DU?$char_traits@D@std@@V?$allocator@D@2@@std@@PAVPlugInFactory@@@std@@@2@@std@@IAEXV?$_Vector_iterator@U?$pair@V?$basic_string@DU?$char_traits@D@std@@V?$allocator@D@2@@std@@PAVPlugInFactory@@@std@@V?$allocator@U?$pair@V?$basic_string@DU?$char_traits@D@std@@V?$allocator@D@2@@std@@PAVPlugInFactory@@@std@@@2@@2@IABU?$pair@V?$basic_string@DU?$char_traits@D@std@@V?$allocator@D@2@@std@@PAVPlugInFactory@@@2@@Z$0 10007fe3 f i ModuleManager.obj
 0001:0000706c       __catch$?_Insert_n@?$vector@U?$pair@V?$basic_string@DU?$char_traits@D@std@@V?$allocator@D@2@@std@@PAVPlugInFactory@@@std@@V?$allocator@U?$pair@V?$basic_string@DU?$char_traits@D@std@@V?$allocator@D@2@@std@@PAVPlugInFactory@@@std@@@2@@std@@IAEXV?$_Vector_iterator@U?$pair@V?$basic_string@DU?$char_traits@D@std@@V?$allocator@D@2@@std@@PAVPlugInFactory@@@std@@V?$allocator@U?$pair@V?$basic_string@DU?$char_traits@D@std@@V?$allocator@D@2@@std@@PAVPlugInFactory@@@std@@@2@@2@IABU?$pair@V?$basic_string@DU?$char_traits@D@std@@V?$allocator@D@2@@std@@PAVPlugInFactory@@@2@@Z$2 1000806c f i ModuleManager.obj
 0001:00008fe2       __catch$??$_Uninit_copy@PAU?$pair@V?$basic_string@DU?$char_traits@D@std@@V?$allocator@D@2@@std@@VSlot@@@std@@PAU12@V?$allocator@U?$pair@V?$basic_string@DU?$char_traits@D@std@@V?$allocator@D@2@@std@@VSlot@@@std@@@2@@std@@YAPAU?$pair@V?$basic_string@DU?$char_traits@D@std@@V?$allocator@D@2@@std@@VSlot@@@0@PAU10@00AAV?$allocator@U?$pair@V?$basic_string@DU?$char_traits@D@std@@V?$allocator@D@2@@std@@VSlot@@@std@@@0@U_Nonscalar_ptr_iterator_tag@0@U_Range_checked_iterator_tag@0@@Z$0 10009fe2 f i PlugInLib:ViewerShell.obj
 0001:000091b7       __catch$??$_Uninit_fill_n@PAU?$pair@V?$basic_string@DU?$char_traits@D@std@@V?$allocator@D@2@@std@@VSlot@@@std@@IU12@V?$allocator@U?$pair@V?$basic_string@DU?$char_traits@D@std@@V?$allocator@D@2@@std@@VSlot@@@std@@@2@@std@@YAXPAU?$pair@V?$basic_string@DU?$char_traits@D@std@@V?$allocator@D@2@@std@@VSlot@@@0@IABU10@AAV?$allocator@U?$pair@V?$basic_string@DU?$char_traits@D@std@@V?$allocator@D@2@@std@@VSlot@@@std@@@0@U_Nonscalar_ptr_iterator_tag@0@U_Range_checked_iterator_tag@0@@Z$0 1000a1b7 f i PlugInLib:ViewerShell.obj
 0001:0000974f       __catch$?_Insert_n@?$vector@U?$pair@V?$basic_string@DU?$char_traits@D@std@@V?$allocator@D@2@@std@@VSlot@@@std@@V?$allocator@U?$pair@V?$basic_string@DU?$char_traits@D@std@@V?$allocator@D@2@@std@@VSlot@@@std@@@2@@std@@IAEXV?$_Vector_iterator@U?$pair@V?$basic_string@DU?$char_traits@D@std@@V?$allocator@D@2@@std@@VSlot@@@std@@V?$allocator@U?$pair@V?$basic_string@DU?$char_traits@D@std@@V?$allocator@D@2@@std@@VSlot@@@std@@@2@@2@IABU?$pair@V?$basic_string@DU?$char_traits@D@std@@V?$allocator@D@2@@std@@VSlot@@@2@@Z$0 1000a74f f i PlugInLib:ViewerShell.obj
 0001:000097d8       __catch$?_Insert_n@?$vector@U?$pair@V?$basic_string@DU?$char_traits@D@std@@V?$allocator@D@2@@std@@VSlot@@@std@@V?$allocator@U?$pair@V?$basic_string@DU?$char_traits@D@std@@V?$allocator@D@2@@std@@VSlot@@@std@@@2@@std@@IAEXV?$_Vector_iterator@U?$pair@V?$basic_string@DU?$char_traits@D@std@@V?$allocator@D@2@@std@@VSlot@@@std@@V?$allocator@U?$pair@V?$basic_string@DU?$char_traits@D@std@@V?$allocator@D@2@@std@@VSlot@@@std@@@2@@2@IABU?$pair@V?$basic_string@DU?$char_traits@D@std@@V?$allocator@D@2@@std@@VSlot@@@2@@Z$2 1000a7d8 f i PlugInLib:ViewerShell.obj
 0001:0000b03e       __catch$?_Buynode@?$_Tree@V?$_Tmap_traits@V?$basic_string@DU?$char_traits@D@std@@V?$allocator@D@2@@std@@V12@U?$less@V?$basic_string@DU?$char_traits@D@std@@V?$allocator@D@2@@std@@@2@V?$allocator@U?$pair@$$CBV?$basic_string@DU?$char_traits@D@std@@V?$allocator@D@2@@std@@V12@@std@@@2@$0A@@std@@@std@@IAEPAU_Node@?$_Tree_nod@V?$_Tmap_traits@V?$basic_string@DU?$char_traits@D@std@@V?$allocator@D@2@@std@@V12@U?$less@V?$basic_string@DU?$char_traits@D@std@@V?$allocator@D@2@@std@@@2@V?$allocator@U?$pair@$$CBV?$basic_string@DU?$char_traits@D@std@@V?$allocator@D@2@@std@@V12@@std@@@2@$0A@@std@@@2@PAU342@00ABU?$pair@$$CBV?$basic_string@DU?$char_traits@D@std@@V?$allocator@D@2@@std@@V12@@2@D@Z$0 1000c03e f i PlugInLib:PlugInShell.obj
 0001:0000b9b2       __catch$?_Copy@?$_Tree@V?$_Tmap_traits@V?$basic_string@DU?$char_traits@D@std@@V?$allocator@D@2@@std@@V12@U?$less@V?$basic_string@DU?$char_traits@D@std@@V?$allocator@D@2@@std@@@2@V?$allocator@U?$pair@$$CBV?$basic_string@DU?$char_traits@D@std@@V?$allocator@D@2@@std@@V12@@std@@@2@$0A@@std@@@std@@IAEPAU_Node@?$_Tree_nod@V?$_Tmap_traits@V?$basic_string@DU?$char_traits@D@std@@V?$allocator@D@2@@std@@V12@U?$less@V?$basic_string@DU?$char_traits@D@std@@V?$allocator@D@2@@std@@@2@V?$allocator@U?$pair@$$CBV?$basic_string@DU?$char_traits@D@std@@V?$allocator@D@2@@std@@V12@@std@@@2@$0A@@std@@@2@PAU342@0@Z$0 1000c9b2 f i PlugInLib:PlugInShell.obj
 0001:0000c021       __catch$??0?$_Tree@V?$_Tmap_traits@V?$basic_string@DU?$char_traits@D@std@@V?$allocator@D@2@@std@@V12@U?$less@V?$basic_string@DU?$char_traits@D@std@@V?$allocator@D@2@@std@@@2@V?$allocator@U?$pair@$$CBV?$basic_string@DU?$char_traits@D@std@@V?$allocator@D@2@@std@@V12@@std@@@2@$0A@@std@@@std@@QAE@ABV01@@Z$0 1000d021 f i PlugInLib:PlugInShell.obj
 0001:0000eb4e       _pre_c_init                1000fb4e f   MSVCRT:crtdll.obj
 0001:0000ed5e       ___DllMainCRTStartup       1000fd5e f   MSVCRT:crtdll.obj
 0001:0000eea2       ?ArrayUnwindFilter@@YAHPAU_EXCEPTION_POINTERS@@@Z 1000fea2 f   MSVCRT:ehvecdtr.obj
 0001:0000f420       __unwindfunclet$??0logic_error@std@@QAE@ABV?$basic_string@DU?$char_traits@D@std@@V?$allocator@D@2@@1@@Z$0 10010420 f   DataMerge.obj
 0001:0000f429       __ehhandler$??0logic_error@std@@QAE@ABV?$basic_string@DU?$char_traits@D@std@@V?$allocator@D@2@@1@@Z 10010429 f   DataMerge.obj
 0001:0000f440       __unwindfunclet$?updateIfNeeded@DataAccessorImpl@@AAEXXZ$0 10010440 f   DataMerge.obj
 0001:0000f449       __ehhandler$?updateIfNeeded@DataAccessorImpl@@AAEXXZ 10010449 f   DataMerge.obj
 0001:0000f460       __unwindfunclet$??0logic_error@std@@QAE@ABV01@@Z$0 10010460 f   DataMerge.obj
 0001:0000f469       __ehhandler$??0logic_error@std@@QAE@ABV01@@Z 10010469 f   DataMerge.obj
 0001:0000f480       __unwindfunclet$??1Args@MessageObject@@QAE@XZ$0 10010480 f   DataMerge.obj
 0001:0000f489       __unwindfunclet$??1Args@MessageObject@@QAE@XZ$1 10010489 f   DataMerge.obj
 0001:0000f495       __unwindfunclet$??1Args@MessageObject@@QAE@XZ$2 10010495 f   DataMerge.obj
 0001:0000f4a1       __unwindfunclet$??1Args@MessageObject@@QAE@XZ$3 100104a1 f   DataMerge.obj
 0001:0000f4ad       __ehhandler$??1Args@MessageObject@@QAE@XZ 100104ad f   DataMerge.obj
 0001:0000f4c0       __unwindfunclet$??0DataMerge@@QAE@XZ$0 100104c0 f   DataMerge.obj
 0001:0000f4c9       __unwindfunclet$??0DataMerge@@QAE@XZ$1 100104c9 f   DataMerge.obj
 0001:0000f4d4       __unwindfunclet$??0DataMerge@@QAE@XZ$2 100104d4 f   DataMerge.obj
 0001:0000f4dd       __unwindfunclet$??0DataMerge@@QAE@XZ$3 100104dd f   DataMerge.obj
 0001:0000f4e6       __unwindfunclet$??0DataMerge@@QAE@XZ$4 100104e6 f   DataMerge.obj
 0001:0000f4ef       __unwindfunclet$??0DataMerge@@QAE@XZ$5 100104ef f   DataMerge.obj
 0001:0000f4f8       __unwindfunclet$??0DataMerge@@QAE@XZ$6 100104f8 f   DataMerge.obj
 0001:0000f501       __unwindfunclet$??0DataMerge@@QAE@XZ$7 10010501 f   DataMerge.obj
 0001:0000f50a       __unwindfunclet$??0DataMerge@@QAE@XZ$8 1001050a f   DataMerge.obj
 0001:0000f513       __ehhandler$??0DataMerge@@QAE@XZ 10010513 f   DataMerge.obj
 0001:0000f520       __unwindfunclet$??1DataMerge@@UAE@XZ$0 10010520 f   DataMerge.obj
 0001:0000f529       __ehhandler$??1DataMerge@@UAE@XZ 10010529 f   DataMerge.obj
 0001:0000f540       __unwindfunclet$??0Args@MessageObject@@QAE@ABU01@@Z$0 10010540 f   DataMerge.obj
 0001:0000f549       __unwindfunclet$??0Args@MessageObject@@QAE@ABU01@@Z$1 10010549 f   DataMerge.obj
 0001:0000f555       __unwindfunclet$??0Args@MessageObject@@QAE@ABU01@@Z$2 10010555 f   DataMerge.obj
 0001:0000f561       __unwindfunclet$??0Args@MessageObject@@QAE@ABU01@@Z$3 10010561 f   DataMerge.obj
 0001:0000f56d       __ehhandler$??0Args@MessageObject@@QAE@ABU01@@Z 1001056d f   DataMerge.obj
 0001:0000f580       __unwindfunclet$?_Xlen@?$vector@V?$basic_string@DU?$char_traits@D@std@@V?$allocator@D@2@@std@@V?$allocator@V?$basic_string@DU?$char_traits@D@std@@V?$allocator@D@2@@std@@@2@@std@@KAXXZ$0 10010580 f   DataMerge.obj
 0001:0000f589       __unwindfunclet$?_Xlen@?$vector@V?$basic_string@DU?$char_traits@D@std@@V?$allocator@D@2@@std@@V?$allocator@V?$basic_string@DU?$char_traits@D@std@@V?$allocator@D@2@@std@@@2@@std@@KAXXZ$2 10010589 f   DataMerge.obj
 0001:0000f592       __ehhandler$?_Xlen@?$vector@V?$basic_string@DU?$char_traits@D@std@@V?$allocator@D@2@@std@@V?$allocator@V?$basic_string@DU?$char_traits@D@std@@V?$allocator@D@2@@std@@@2@@std@@KAXXZ 10010592 f   DataMerge.obj
 0001:0000f5a0       __unwindfunclet$??$_Construct@V?$basic_string@DU?$char_traits@D@std@@V?$allocator@D@2@@std@@V12@@std@@YAXPAV?$basic_string@DU?$char_traits@D@std@@V?$allocator@D@2@@0@ABV10@@Z$0 100105a0 f   DataMerge.obj
 0001:0000f5b1       __ehhandler$??$_Construct@V?$basic_string@DU?$char_traits@D@std@@V?$allocator@D@2@@std@@V12@@std@@YAXPAV?$basic_string@DU?$char_traits@D@std@@V?$allocator@D@2@@0@ABV10@@Z 100105b1 f   DataMerge.obj
 0001:0000f5c0       __unwindfunclet$?obtainResource@FactoryObject@@QBEPAXABVArgs@FactoryAllocator@@@Z$0 100105c0 f   DataMerge.obj
 0001:0000f5c9       __ehhandler$?obtainResource@FactoryObject@@QBEPAXABVArgs@FactoryAllocator@@@Z 100105c9 f   DataMerge.obj
 0001:0000f5e0       __unwindfunclet$?releaseResource@FactoryObject@@QBEXABVArgs@FactoryAllocator@@PAX@Z$0 100105e0 f   DataMerge.obj
 0001:0000f5e9       __ehhandler$?releaseResource@FactoryObject@@QBEXABVArgs@FactoryAllocator@@PAX@Z 100105e9 f   DataMerge.obj
 0001:0000f600       __unwindfunclet$??0Args@MessageObject@@QAE@V?$basic_string@DU?$char_traits@D@std@@V?$allocator@D@2@@std@@0000_N@Z$0 10010600 f   DataMerge.obj
 0001:0000f609       __unwindfunclet$??0Args@MessageObject@@QAE@V?$basic_string@DU?$char_traits@D@std@@V?$allocator@D@2@@std@@0000_N@Z$1 10010609 f   DataMerge.obj
 0001:0000f612       __unwindfunclet$??0Args@MessageObject@@QAE@V?$basic_string@DU?$char_traits@D@std@@V?$allocator@D@2@@std@@0000_N@Z$2 10010612 f   DataMerge.obj
 0001:0000f61b       __unwindfunclet$??0Args@MessageObject@@QAE@V?$basic_string@DU?$char_traits@D@std@@V?$allocator@D@2@@std@@0000_N@Z$3 1001061b f   DataMerge.obj
 0001:0000f624       __unwindfunclet$??0Args@MessageObject@@QAE@V?$basic_string@DU?$char_traits@D@std@@V?$allocator@D@2@@std@@0000_N@Z$4 10010624 f   DataMerge.obj
 0001:0000f62d       __unwindfunclet$??0Args@MessageObject@@QAE@V?$basic_string@DU?$char_traits@D@std@@V?$allocator@D@2@@std@@0000_N@Z$5 1001062d f   DataMerge.obj
 0001:0000f636       __unwindfunclet$??0Args@MessageObject@@QAE@V?$basic_string@DU?$char_traits@D@std@@V?$allocator@D@2@@std@@0000_N@Z$6 10010636 f   DataMerge.obj
 0001:0000f642       __unwindfunclet$??0Args@MessageObject@@QAE@V?$basic_string@DU?$char_traits@D@std@@V?$allocator@D@2@@std@@0000_N@Z$7 10010642 f   DataMerge.obj
 0001:0000f64e       __unwindfunclet$??0Args@MessageObject@@QAE@V?$basic_string@DU?$char_traits@D@std@@V?$allocator@D@2@@std@@0000_N@Z$8 1001064e f   DataMerge.obj
 0001:0000f65a       __unwindfunclet$??0Args@MessageObject@@QAE@V?$basic_string@DU?$char_traits@D@std@@V?$allocator@D@2@@std@@0000_N@Z$9 1001065a f   DataMerge.obj
 0001:0000f666       __unwindfunclet$??0Args@MessageObject@@QAE@V?$basic_string@DU?$char_traits@D@std@@V?$allocator@D@2@@std@@0000_N@Z$10 10010666 f   DataMerge.obj
 0001:0000f66f       __ehhandler$??0Args@MessageObject@@QAE@V?$basic_string@DU?$char_traits@D@std@@V?$allocator@D@2@@std@@0000_N@Z 1001066f f   DataMerge.obj
 0001:0000f680       __unwindfunclet$??0?$Resource@VStep@@VMessageObject@@@@QAE@ABUArgs@MessageObject@@@Z$0 10010680 f   DataMerge.obj
 0001:0000f68b       __ehhandler$??0?$Resource@VStep@@VMessageObject@@@@QAE@ABUArgs@MessageObject@@@Z 1001068b f   DataMerge.obj
 0001:0000f6a0       __unwindfunclet$??0?$Resource@VDataRequest@@VFactoryObject@@@@QAE@ABVArgs@FactoryAllocator@@@Z$0 100106a0 f   DataMerge.obj
 0001:0000f6ab       __ehhandler$??0?$Resource@VDataRequest@@VFactoryObject@@@@QAE@ABVArgs@FactoryAllocator@@@Z 100106ab f   DataMerge.obj
 0001:0000f6c0       __unwindfunclet$??0sentry@?$basic_ostream@DU?$char_traits@D@std@@@std@@QAE@AAV12@@Z$0 100106c0 f   DataMerge.obj
 0001:0000f6c8       __ehhandler$??0sentry@?$basic_ostream@DU?$char_traits@D@std@@@std@@QAE@AAV12@@Z 100106c8 f   DataMerge.obj
 0001:0000f6e0       __unwindfunclet$??1sentry@?$basic_ostream@DU?$char_traits@D@std@@@std@@QAE@XZ$0 100106e0 f   DataMerge.obj
 0001:0000f6e8       __ehhandler$??1sentry@?$basic_ostream@DU?$char_traits@D@std@@@std@@QAE@XZ 100106e8 f   DataMerge.obj
 0001:0000f700       __unwindfunclet$??$?6U?$char_traits@D@std@@@std@@YAAAV?$basic_ostream@DU?$char_traits@D@std@@@0@AAV10@PBD@Z$2 10010700 f   DataMerge.obj
 0001:0000f708       __unwindfunclet$??$?6U?$char_traits@D@std@@@std@@YAAAV?$basic_ostream@DU?$char_traits@D@std@@@0@AAV10@PBD@Z$3 10010708 f   DataMerge.obj
 0001:0000f710       __ehhandler$??$?6U?$char_traits@D@std@@@std@@YAAAV?$basic_ostream@DU?$char_traits@D@std@@@0@AAV10@PBD@Z 10010710 f   DataMerge.obj
 0001:0000f720       __unwindfunclet$?construct@?$allocator@V?$basic_string@DU?$char_traits@D@std@@V?$allocator@D@2@@std@@@std@@QAEXPAV?$basic_string@DU?$char_traits@D@std@@V?$allocator@D@2@@2@ABV32@@Z$0 10010720 f   DataMerge.obj
 0001:0000f731       __ehhandler$?construct@?$allocator@V?$basic_string@DU?$char_traits@D@std@@V?$allocator@D@2@@std@@@std@@QAEXPAV?$basic_string@DU?$char_traits@D@std@@V?$allocator@D@2@@2@ABV32@@Z 10010731 f   DataMerge.obj
 0001:0000f740       __unwindfunclet$??$?6U?$char_traits@D@std@@@std@@YAAAV?$basic_ostream@DU?$char_traits@D@std@@@0@AAV10@D@Z$2 10010740 f   DataMerge.obj
 0001:0000f748       __unwindfunclet$??$?6U?$char_traits@D@std@@@std@@YAAAV?$basic_ostream@DU?$char_traits@D@std@@@0@AAV10@D@Z$3 10010748 f   DataMerge.obj
 0001:0000f750       __ehhandler$??$?6U?$char_traits@D@std@@@std@@YAAAV?$basic_ostream@DU?$char_traits@D@std@@@0@AAV10@D@Z 10010750 f   DataMerge.obj
 0001:0000f760       __unwindfunclet$??1?$Resource@VDataRequest@@VFactoryObject@@@@UAE@XZ$0 10010760 f   DataMerge.obj
 0001:0000f76b       __ehhandler$??1?$Resource@VDataRequest@@VFactoryObject@@@@UAE@XZ 1001076b f   DataMerge.obj
 0001:0000f780       __unwindfunclet$??1?$Resource@VStep@@VMessageObject@@@@UAE@XZ$0 10010780 f   DataMerge.obj
 0001:0000f78b       __ehhandler$??1?$Resource@VStep@@VMessageObject@@@@UAE@XZ 1001078b f   DataMerge.obj
 0001:0000f7a0       __unwindfunclet$??$mergeElement@G@?A0x2f705ce9@@YAXPAGHHVDataAccessor@@H@Z$0 100107a0 f   DataMerge.obj
 0001:0000f7a8       __unwindfunclet$??$mergeElement@G@?A0x2f705ce9@@YAXPAGHHVDataAccessor@@H@Z$1 100107a8 f   DataMerge.obj
 0001:0000f7b4       __ehhandler$??$mergeElement@G@?A0x2f705ce9@@YAXPAGHHVDataAccessor@@H@Z 100107b4 f   DataMerge.obj
 0001:0000f7c0       __unwindfunclet$??$mergeElement@F@?A0x2f705ce9@@YAXPAFHHVDataAccessor@@H@Z$0 100107c0 f   DataMerge.obj
 0001:0000f7c8       __unwindfunclet$??$mergeElement@F@?A0x2f705ce9@@YAXPAFHHVDataAccessor@@H@Z$1 100107c8 f   DataMerge.obj
 0001:0000f7d4       __ehhandler$??$mergeElement@F@?A0x2f705ce9@@YAXPAFHHVDataAccessor@@H@Z 100107d4 f   DataMerge.obj
 0001:0000f7e0       __unwindfunclet$??$mergeElement@I@?A0x2f705ce9@@YAXPAIHHVDataAccessor@@H@Z$0 100107e0 f   DataMerge.obj
 0001:0000f7e8       __unwindfunclet$??$mergeElement@I@?A0x2f705ce9@@YAXPAIHHVDataAccessor@@H@Z$1 100107e8 f   DataMerge.obj
 0001:0000f7f4       __ehhandler$??$mergeElement@I@?A0x2f705ce9@@YAXPAIHHVDataAccessor@@H@Z 100107f4 f   DataMerge.obj
 0001:0000f800       __unwindfunclet$??$mergeElement@H@?A0x2f705ce9@@YAXPAHHHVDataAccessor@@H@Z$0 10010800 f   DataMerge.obj
 0001:0000f808       __unwindfunclet$??$mergeElement@H@?A0x2f705ce9@@YAXPAHHHVDataAccessor@@H@Z$1 10010808 f   DataMerge.obj
 0001:0000f814       __ehhandler$??$mergeElement@H@?A0x2f705ce9@@YAXPAHHHVDataAccessor@@H@Z 10010814 f   DataMerge.obj
 0001:0000f820       __unwindfunclet$??$mergeElement@M@?A0x2f705ce9@@YAXPAMHHVDataAccessor@@H@Z$0 10010820 f   DataMerge.obj
 0001:0000f828       __unwindfunclet$??$mergeElement@M@?A0x2f705ce9@@YAXPAMHHVDataAccessor@@H@Z$1 10010828 f   DataMerge.obj
 0001:0000f834       __ehhandler$??$mergeElement@M@?A0x2f705ce9@@YAXPAMHHVDataAccessor@@H@Z 10010834 f   DataMerge.obj
 0001:0000f840       __unwindfunclet$??$mergeElement@N@?A0x2f705ce9@@YAXPANHHVDataAccessor@@H@Z$0 10010840 f   DataMerge.obj
 0001:0000f848       __unwindfunclet$??$mergeElement@N@?A0x2f705ce9@@YAXPANHHVDataAccessor@@H@Z$1 10010848 f   DataMerge.obj
 0001:0000f854       __ehhandler$??$mergeElement@N@?A0x2f705ce9@@YAXPANHHVDataAccessor@@H@Z 10010854 f   DataMerge.obj
 0001:0000f860       __unwindfunclet$??$_Uninit_move@PAV?$basic_string@DU?$char_traits@D@std@@V?$allocator@D@2@@std@@PAV12@V?$allocator@V?$basic_string@DU?$char_traits@D@std@@V?$allocator@D@2@@std@@@2@@std@@YAPAV?$basic_string@DU?$char_traits@D@std@@V?$allocator@D@2@@0@PAV10@00AAV?$allocator@V?$basic_string@DU?$char_traits@D@std@@V?$allocator@D@2@@std@@@0@U_Swap_move_tag@0@U_Range_checked_iterator_tag@0@@Z$2 10010860 f   DataMerge.obj
 0001:0000f869       __unwindfunclet$??$_Uninit_move@PAV?$basic_string@DU?$char_traits@D@std@@V?$allocator@D@2@@std@@PAV12@V?$allocator@V?$basic_string@DU?$char_traits@D@std@@V?$allocator@D@2@@std@@@2@@std@@YAPAV?$basic_string@DU?$char_traits@D@std@@V?$allocator@D@2@@0@PAV10@00AAV?$allocator@V?$basic_string@DU?$char_traits@D@std@@V?$allocator@D@2@@std@@@0@U_Swap_move_tag@0@U_Range_checked_iterator_tag@0@@Z$3 10010869 f   DataMerge.obj
 0001:0000f87a       __ehhandler$??$_Uninit_move@PAV?$basic_string@DU?$char_traits@D@std@@V?$allocator@D@2@@std@@PAV12@V?$allocator@V?$basic_string@DU?$char_traits@D@std@@V?$allocator@D@2@@std@@@2@@std@@YAPAV?$basic_string@DU?$char_traits@D@std@@V?$allocator@D@2@@0@PAV10@00AAV?$allocator@V?$basic_string@DU?$char_traits@D@std@@V?$allocator@D@2@@std@@@0@U_Swap_move_tag@0@U_Range_checked_iterator_tag@0@@Z 1001087a f   DataMerge.obj
 0001:0000f890       __unwindfunclet$??0StepResource@@QAE@V?$basic_string@DU?$char_traits@D@std@@V?$allocator@D@2@@std@@0000@Z$0 10010890 f   DataMerge.obj
 0001:0000f899       __unwindfunclet$??0StepResource@@QAE@V?$basic_string@DU?$char_traits@D@std@@V?$allocator@D@2@@std@@0000@Z$1 10010899 f   DataMerge.obj
 0001:0000f8a2       __unwindfunclet$??0StepResource@@QAE@V?$basic_string@DU?$char_traits@D@std@@V?$allocator@D@2@@std@@0000@Z$2 100108a2 f   DataMerge.obj
 0001:0000f8ab       __unwindfunclet$??0StepResource@@QAE@V?$basic_string@DU?$char_traits@D@std@@V?$allocator@D@2@@std@@0000@Z$3 100108ab f   DataMerge.obj
 0001:0000f8b4       __unwindfunclet$??0StepResource@@QAE@V?$basic_string@DU?$char_traits@D@std@@V?$allocator@D@2@@std@@0000@Z$4 100108b4 f   DataMerge.obj
 0001:0000f8bd       __unwindfunclet$??0StepResource@@QAE@V?$basic_string@DU?$char_traits@D@std@@V?$allocator@D@2@@std@@0000@Z$5 100108bd f   DataMerge.obj
 0001:0000f8c9       __unwindfunclet$??0StepResource@@QAE@V?$basic_string@DU?$char_traits@D@std@@V?$allocator@D@2@@std@@0000@Z$6 100108c9 f   DataMerge.obj
 0001:0000f8d5       __unwindfunclet$??0StepResource@@QAE@V?$basic_string@DU?$char_traits@D@std@@V?$allocator@D@2@@std@@0000@Z$7 100108d5 f   DataMerge.obj
 0001:0000f8e1       __unwindfunclet$??0StepResource@@QAE@V?$basic_string@DU?$char_traits@D@std@@V?$allocator@D@2@@std@@0000@Z$8 100108e1 f   DataMerge.obj
 0001:0000f8ed       __unwindfunclet$??0StepResource@@QAE@V?$basic_string@DU?$char_traits@D@std@@V?$allocator@D@2@@std@@0000@Z$10 100108ed f   DataMerge.obj
 0001:0000f8f8       __unwindfunclet$??0StepResource@@QAE@V?$basic_string@DU?$char_traits@D@std@@V?$allocator@D@2@@std@@0000@Z$11 100108f8 f   DataMerge.obj
 0001:0000f903       __ehhandler$??0StepResource@@QAE@V?$basic_string@DU?$char_traits@D@std@@V?$allocator@D@2@@std@@0000@Z 10010903 f   DataMerge.obj
 0001:0000f910       __unwindfunclet$??0?$FactoryResource@VDataRequest@@@@QAE@XZ$0 10010910 f   DataMerge.obj
 0001:0000f918       __unwindfunclet$??0?$FactoryResource@VDataRequest@@@@QAE@XZ$1 10010918 f   DataMerge.obj
 0001:0000f920       __ehhandler$??0?$FactoryResource@VDataRequest@@@@QAE@XZ 10010920 f   DataMerge.obj
 0001:0000f930       __unwindfunclet$??$mergeElement@E@?A0x2f705ce9@@YAXPAEHHVDataAccessor@@H@Z$0 10010930 f   DataMerge.obj
 0001:0000f938       __unwindfunclet$??$mergeElement@E@?A0x2f705ce9@@YAXPAEHHVDataAccessor@@H@Z$1 10010938 f   DataMerge.obj
 0001:0000f944       __ehhandler$??$mergeElement@E@?A0x2f705ce9@@YAXPAEHHVDataAccessor@@H@Z 10010944 f   DataMerge.obj
 0001:0000f950       __unwindfunclet$??$mergeElement@C@?A0x2f705ce9@@YAXPACHHVDataAccessor@@H@Z$0 10010950 f   DataMerge.obj
 0001:0000f958       __unwindfunclet$??$mergeElement@C@?A0x2f705ce9@@YAXPACHHVDataAccessor@@H@Z$1 10010958 f   DataMerge.obj
 0001:0000f964       __ehhandler$??$mergeElement@C@?A0x2f705ce9@@YAXPACHHVDataAccessor@@H@Z 10010964 f   DataMerge.obj
 0001:0000f970       __unwindfunclet$??$_Uninit_fill_n@PAV?$basic_string@DU?$char_traits@D@std@@V?$allocator@D@2@@std@@IV12@V?$allocator@V?$basic_string@DU?$char_traits@D@std@@V?$allocator@D@2@@std@@@2@@std@@YAXPAV?$basic_string@DU?$char_traits@D@std@@V?$allocator@D@2@@0@IABV10@AAV?$allocator@V?$basic_string@DU?$char_traits@D@std@@V?$allocator@D@2@@std@@@0@U_Nonscalar_ptr_iterator_tag@0@U_Range_checked_iterator_tag@0@@Z$2 10010970 f   DataMerge.obj
 0001:0000f981       __ehhandler$??$_Uninit_fill_n@PAV?$basic_string@DU?$char_traits@D@std@@V?$allocator@D@2@@std@@IV12@V?$allocator@V?$basic_string@DU?$char_traits@D@std@@V?$allocator@D@2@@std@@@2@@std@@YAXPAV?$basic_string@DU?$char_traits@D@std@@V?$allocator@D@2@@0@IABV10@AAV?$allocator@V?$basic_string@DU?$char_traits@D@std@@V?$allocator@D@2@@std@@@0@U_Nonscalar_ptr_iterator_tag@0@U_Range_checked_iterator_tag@0@@Z 10010981 f   DataMerge.obj
 0001:0000f990       __unwindfunclet$?showGui@DataMerge@@AAE_NXZ$0 10010990 f   DataMerge.obj
 0001:0000f99c       __unwindfunclet$?showGui@DataMerge@@AAE_NXZ$1 1001099c f   DataMerge.obj
 0001:0000f9a8       __unwindfunclet$?showGui@DataMerge@@AAE_NXZ$2 100109a8 f   DataMerge.obj
 0001:0000f9b4       __unwindfunclet$?showGui@DataMerge@@AAE_NXZ$3 100109b4 f   DataMerge.obj
 0001:0000f9c0       __unwindfunclet$?showGui@DataMerge@@AAE_NXZ$5 100109c0 f   DataMerge.obj
 0001:0000f9cb       __unwindfunclet$?showGui@DataMerge@@AAE_NXZ$6 100109cb f   DataMerge.obj
 0001:0000f9d7       __unwindfunclet$?showGui@DataMerge@@AAE_NXZ$7 100109d7 f   DataMerge.obj
 0001:0000f9e2       __unwindfunclet$?showGui@DataMerge@@AAE_NXZ$8 100109e2 f   DataMerge.obj
 0001:0000f9ee       __unwindfunclet$?showGui@DataMerge@@AAE_NXZ$9 100109ee f   DataMerge.obj
 0001:0000f9fa       __unwindfunclet$?showGui@DataMerge@@AAE_NXZ$10 100109fa f   DataMerge.obj
 0001:0000fa06       __unwindfunclet$?showGui@DataMerge@@AAE_NXZ$11 10010a06 f   DataMerge.obj
 0001:0000fa12       __unwindfunclet$?showGui@DataMerge@@AAE_NXZ$12 10010a12 f   DataMerge.obj
 0001:0000fa1e       __unwindfunclet$?showGui@DataMerge@@AAE_NXZ$13 10010a1e f   DataMerge.obj
 0001:0000fa2a       __unwindfunclet$?showGui@DataMerge@@AAE_NXZ$14 10010a2a f   DataMerge.obj
 0001:0000fa35       __unwindfunclet$?showGui@DataMerge@@AAE_NXZ$15 10010a35 f   DataMerge.obj
 0001:0000fa40       __unwindfunclet$?showGui@DataMerge@@AAE_NXZ$27 10010a40 f   DataMerge.obj
 0001:0000fa4b       __ehhandler$?showGui@DataMerge@@AAE_NXZ 10010a4b f   DataMerge.obj
 0001:0000fa60       __unwindfunclet$?_Insert_n@?$vector@V?$basic_string@DU?$char_traits@D@std@@V?$allocator@D@2@@std@@V?$allocator@V?$basic_string@DU?$char_traits@D@std@@V?$allocator@D@2@@std@@@2@@std@@IAEXV?$_Vector_iterator@V?$basic_string@DU?$char_traits@D@std@@V?$allocator@D@2@@std@@V?$allocator@V?$basic_string@DU?$char_traits@D@std@@V?$allocator@D@2@@std@@@2@@2@IABV?$basic_string@DU?$char_traits@D@std@@V?$allocator@D@2@@2@@Z$4 10010a60 f   DataMerge.obj
 0001:0000fa69       __ehhandler$?_Insert_n@?$vector@V?$basic_string@DU?$char_traits@D@std@@V?$allocator@D@2@@std@@V?$allocator@V?$basic_string@DU?$char_traits@D@std@@V?$allocator@D@2@@std@@@2@@std@@IAEXV?$_Vector_iterator@V?$basic_string@DU?$char_traits@D@std@@V?$allocator@D@2@@std@@V?$allocator@V?$basic_string@DU?$char_traits@D@std@@V?$allocator@D@2@@std@@@2@@2@IABV?$basic_string@DU?$char_traits@D@std@@V?$allocator@D@2@@2@@Z 10010a69 f   DataMerge.obj
 0001:0000fa80       __unwindfunclet$?addPlugInName@BasicPlugInFactory@@AAEXV?$basic_string@DU?$char_traits@D@std@@V?$allocator@D@2@@std@@@Z$0 10010a80 f   DataMerge.obj
 0001:0000fa89       __ehhandler$?addPlugInName@BasicPlugInFactory@@AAEXV?$basic_string@DU?$char_traits@D@std@@V?$allocator@D@2@@std@@@Z 10010a89 f   DataMerge.obj
 0001:0000faa0       __unwindfunclet$??0BasicPlugInFactory@@QAE@ABV?$basic_string@DU?$char_traits@D@std@@V?$allocator@D@2@@std@@@Z$0 10010aa0 f   DataMerge.obj
 0001:0000faab       __unwindfunclet$??0BasicPlugInFactory@@QAE@ABV?$basic_string@DU?$char_traits@D@std@@V?$allocator@D@2@@std@@@Z$2 10010aab f   DataMerge.obj
 0001:0000fab4       __ehhandler$??0BasicPlugInFactory@@QAE@ABV?$basic_string@DU?$char_traits@D@std@@V?$allocator@D@2@@std@@@Z 10010ab4 f   DataMerge.obj
 0001:0000fac0       __unwindfunclet$??$_Uninit_copy@PBV?$basic_string@DU?$char_traits@D@std@@V?$allocator@D@2@@std@@PAV12@V?$allocator@V?$basic_string@DU?$char_traits@D@std@@V?$allocator@D@2@@std@@@2@@std@@YAPAV?$basic_string@DU?$char_traits@D@std@@V?$allocator@D@2@@0@PBV10@0PAV10@AAV?$allocator@V?$basic_string@DU?$char_traits@D@std@@V?$allocator@D@2@@std@@@0@U_Nonscalar_ptr_iterator_tag@0@U_Range_checked_iterator_tag@0@@Z$2 10010ac0 f   DataMerge.obj
 0001:0000fad1       __ehhandler$??$_Uninit_copy@PBV?$basic_string@DU?$char_traits@D@std@@V?$allocator@D@2@@std@@PAV12@V?$allocator@V?$basic_string@DU?$char_traits@D@std@@V?$allocator@D@2@@std@@@2@@std@@YAPAV?$basic_string@DU?$char_traits@D@std@@V?$allocator@D@2@@0@PBV10@0PAV10@AAV?$allocator@V?$basic_string@DU?$char_traits@D@std@@V?$allocator@D@2@@std@@@0@U_Nonscalar_ptr_iterator_tag@0@U_Range_checked_iterator_tag@0@@Z 10010ad1 f   DataMerge.obj
 0001:0000fae0       __ehhandler$??0?$vector@V?$basic_string@DU?$char_traits@D@std@@V?$allocator@D@2@@std@@V?$allocator@V?$basic_string@DU?$char_traits@D@std@@V?$allocator@D@2@@std@@@2@@std@@QAE@ABV01@@Z 10010ae0 f   DataMerge.obj
 0001:0000faf0       __unwindfunclet$??0DataMergePlugInFactory@SpectralDataMerge@@QAE@ABV?$basic_string@DU?$char_traits@D@std@@V?$allocator@D@2@@std@@@Z$0 10010af0 f   DataMerge.obj
 0001:0000faf8       __ehhandler$??0DataMergePlugInFactory@SpectralDataMerge@@QAE@ABV?$basic_string@DU?$char_traits@D@std@@V?$allocator@D@2@@std@@@Z 10010af8 f   DataMerge.obj
 0001:0000fb10       __unwindfunclet$?createPlugIn@DataMergePlugInFactory@SpectralDataMerge@@UAEPAVPlugIn@@ABV?$basic_string@DU?$char_traits@D@std@@V?$allocator@D@2@@std@@@Z$0 10010b10 f   DataMerge.obj
 0001:0000fb1b       __ehhandler$?createPlugIn@DataMergePlugInFactory@SpectralDataMerge@@UAEPAVPlugIn@@ABV?$basic_string@DU?$char_traits@D@std@@V?$allocator@D@2@@std@@@Z 10010b1b f   DataMerge.obj
 0001:0000fb30       __unwindfunclet$??__EDataMergepluginFactory@SpectralDataMerge@@YAXXZ$0 10010b30 f   DataMerge.obj
 0001:0000fb39       __unwindfunclet$??__EDataMergepluginFactory@SpectralDataMerge@@YAXXZ$1 10010b39 f   DataMerge.obj
 0001:0000fb43       __ehhandler$??__EDataMergepluginFactory@SpectralDataMerge@@YAXXZ 10010b43 f   DataMerge.obj
 0001:0000fb50       __unwindfunclet$?_Xran@?$vector@V?$basic_string@DU?$char_traits@D@std@@V?$allocator@D@2@@std@@V?$allocator@V?$basic_string@DU?$char_traits@D@std@@V?$allocator@D@2@@std@@@2@@std@@KAXXZ$0 10010b50 f   DataMergeGui.obj
 0001:0000fb59       __unwindfunclet$?_Xran@?$vector@V?$basic_string@DU?$char_traits@D@std@@V?$allocator@D@2@@std@@V?$allocator@V?$basic_string@DU?$char_traits@D@std@@V?$allocator@D@2@@std@@@2@@std@@KAXXZ$2 10010b59 f   DataMergeGui.obj
 0001:0000fb62       __ehhandler$?_Xran@?$vector@V?$basic_string@DU?$char_traits@D@std@@V?$allocator@D@2@@std@@V?$allocator@V?$basic_string@DU?$char_traits@D@std@@V?$allocator@D@2@@std@@@2@@std@@KAXXZ 10010b62 f   DataMergeGui.obj
 0001:0000fb70       __unwindfunclet$?applyScale@DataMergeGui@@QAEXXZ$0 10010b70 f   DataMergeGui.obj
 0001:0000fb79       __ehhandler$?applyScale@DataMergeGui@@QAEXXZ 10010b79 f   DataMergeGui.obj
 0001:0000fb90       __unwindfunclet$??$_Uninit_copy@PAV?$basic_string@DU?$char_traits@D@std@@V?$allocator@D@2@@std@@PAV12@V?$allocator@V?$basic_string@DU?$char_traits@D@std@@V?$allocator@D@2@@std@@@2@@std@@YAPAV?$basic_string@DU?$char_traits@D@std@@V?$allocator@D@2@@0@PAV10@00AAV?$allocator@V?$basic_string@DU?$char_traits@D@std@@V?$allocator@D@2@@std@@@0@U_Nonscalar_ptr_iterator_tag@0@U_Range_checked_iterator_tag@0@@Z$2 10010b90 f   DataMergeGui.obj
 0001:0000fba1       __ehhandler$??$_Uninit_copy@PAV?$basic_string@DU?$char_traits@D@std@@V?$allocator@D@2@@std@@PAV12@V?$allocator@V?$basic_string@DU?$char_traits@D@std@@V?$allocator@D@2@@std@@@2@@std@@YAPAV?$basic_string@DU?$char_traits@D@std@@V?$allocator@D@2@@0@PAV10@00AAV?$allocator@V?$basic_string@DU?$char_traits@D@std@@V?$allocator@D@2@@std@@@0@U_Nonscalar_ptr_iterator_tag@0@U_Range_checked_iterator_tag@0@@Z 10010ba1 f   DataMergeGui.obj
 0001:0000fbb0       __unwindfunclet$?generateNewView@DataMergeGui@@QAEXXZ$0 10010bb0 f   DataMergeGui.obj
 0001:0000fbb9       __unwindfunclet$?generateNewView@DataMergeGui@@QAEXXZ$1 10010bb9 f   DataMergeGui.obj
 0001:0000fbc2       __ehhandler$?generateNewView@DataMergeGui@@QAEXXZ 10010bc2 f   DataMergeGui.obj
 0001:0000fbd0       __unwindfunclet$??1DataMergeGui@@UAE@XZ$0 10010bd0 f   DataMergeGui.obj
 0001:0000fbdc       __unwindfunclet$??1DataMergeGui@@UAE@XZ$1 10010bdc f   DataMergeGui.obj
 0001:0000fbea       __unwindfunclet$??1DataMergeGui@@UAE@XZ$2 10010bea f   DataMergeGui.obj
 0001:0000fbf6       __unwindfunclet$??1DataMergeGui@@UAE@XZ$3 10010bf6 f   DataMergeGui.obj
 0001:0000fc02       __unwindfunclet$??1DataMergeGui@@UAE@XZ$4 10010c02 f   DataMergeGui.obj
 0001:0000fc0e       __unwindfunclet$??1DataMergeGui@@UAE@XZ$5 10010c0e f   DataMergeGui.obj
 0001:0000fc1a       __unwindfunclet$??1DataMergeGui@@UAE@XZ$7 10010c1a f   DataMergeGui.obj
 0001:0000fc25       __unwindfunclet$??1DataMergeGui@@UAE@XZ$8 10010c25 f   DataMergeGui.obj
 0001:0000fc31       __unwindfunclet$??1DataMergeGui@@UAE@XZ$9 10010c31 f   DataMergeGui.obj
 0001:0000fc3d       __unwindfunclet$??1DataMergeGui@@UAE@XZ$10 10010c3d f   DataMergeGui.obj
 0001:0000fc49       __ehhandler$??1DataMergeGui@@UAE@XZ 10010c49 f   DataMergeGui.obj
 0001:0000fc60       __unwindfunclet$?init@DataMergeGui@@AAEXXZ$0 10010c60 f   DataMergeGui.obj
 0001:0000fc69       __unwindfunclet$?init@DataMergeGui@@AAEXXZ$1 10010c69 f   DataMergeGui.obj
 0001:0000fc71       __unwindfunclet$?init@DataMergeGui@@AAEXXZ$2 10010c71 f   DataMergeGui.obj
 0001:0000fc7a       __unwindfunclet$?init@DataMergeGui@@AAEXXZ$3 10010c7a f   DataMergeGui.obj
 0001:0000fc83       __unwindfunclet$?init@DataMergeGui@@AAEXXZ$4 10010c83 f   DataMergeGui.obj
 0001:0000fc8c       __ehhandler$?init@DataMergeGui@@AAEXXZ 10010c8c f   DataMergeGui.obj
 0001:0000fca0       __unwindfunclet$??0DataMergeGui@@QAE@PAVQWidget@@PBD_N@Z$0 10010ca0 f   DataMergeGui.obj
 0001:0000fca9       __unwindfunclet$??0DataMergeGui@@QAE@PAVQWidget@@PBD_N@Z$1 10010ca9 f   DataMergeGui.obj
 0001:0000fcb4       __unwindfunclet$??0DataMergeGui@@QAE@PAVQWidget@@PBD_N@Z$2 10010cb4 f   DataMergeGui.obj
 0001:0000fcbd       __unwindfunclet$??0DataMergeGui@@QAE@PAVQWidget@@PBD_N@Z$3 10010cbd f   DataMergeGui.obj
 0001:0000fcc8       __unwindfunclet$??0DataMergeGui@@QAE@PAVQWidget@@PBD_N@Z$4 10010cc8 f   DataMergeGui.obj
 0001:0000fcd3       __unwindfunclet$??0DataMergeGui@@QAE@PAVQWidget@@PBD_N@Z$5 10010cd3 f   DataMergeGui.obj
 0001:0000fced       __unwindfunclet$??0DataMergeGui@@QAE@PAVQWidget@@PBD_N@Z$6 10010ced f   DataMergeGui.obj
 0001:0000fcf8       __unwindfunclet$??0DataMergeGui@@QAE@PAVQWidget@@PBD_N@Z$7 10010cf8 f   DataMergeGui.obj
 0001:0000fd12       __unwindfunclet$??0DataMergeGui@@QAE@PAVQWidget@@PBD_N@Z$8 10010d12 f   DataMergeGui.obj
 0001:0000fd1d       __unwindfunclet$??0DataMergeGui@@QAE@PAVQWidget@@PBD_N@Z$9 10010d1d f   DataMergeGui.obj
 0001:0000fd28       __unwindfunclet$??0DataMergeGui@@QAE@PAVQWidget@@PBD_N@Z$10 10010d28 f   DataMergeGui.obj
 0001:0000fd33       __unwindfunclet$??0DataMergeGui@@QAE@PAVQWidget@@PBD_N@Z$11 10010d33 f   DataMergeGui.obj
 0001:0000fd3e       __unwindfunclet$??0DataMergeGui@@QAE@PAVQWidget@@PBD_N@Z$12 10010d3e f   DataMergeGui.obj
 0001:0000fd58       __unwindfunclet$??0DataMergeGui@@QAE@PAVQWidget@@PBD_N@Z$13 10010d58 f   DataMergeGui.obj
 0001:0000fd63       __unwindfunclet$??0DataMergeGui@@QAE@PAVQWidget@@PBD_N@Z$14 10010d63 f   DataMergeGui.obj
 0001:0000fd7d       __unwindfunclet$??0DataMergeGui@@QAE@PAVQWidget@@PBD_N@Z$15 10010d7d f   DataMergeGui.obj
 0001:0000fd88       __unwindfunclet$??0DataMergeGui@@QAE@PAVQWidget@@PBD_N@Z$16 10010d88 f   DataMergeGui.obj
 0001:0000fda2       __unwindfunclet$??0DataMergeGui@@QAE@PAVQWidget@@PBD_N@Z$17 10010da2 f   DataMergeGui.obj
 0001:0000fdad       __unwindfunclet$??0DataMergeGui@@QAE@PAVQWidget@@PBD_N@Z$18 10010dad f   DataMergeGui.obj
 0001:0000fdc7       __unwindfunclet$??0DataMergeGui@@QAE@PAVQWidget@@PBD_N@Z$19 10010dc7 f   DataMergeGui.obj
 0001:0000fdd0       __ehhandler$??0DataMergeGui@@QAE@PAVQWidget@@PBD_N@Z 10010dd0 f   DataMergeGui.obj
 0001:0000fde0       __unwindfunclet$?_Xlen@?$vector@U?$pair@V?$basic_string@DU?$char_traits@D@std@@V?$allocator@D@2@@std@@PAVPlugInFactory@@@std@@V?$allocator@U?$pair@V?$basic_string@DU?$char_traits@D@std@@V?$allocator@D@2@@std@@PAVPlugInFactory@@@std@@@2@@std@@KAXXZ$0 10010de0 f   ModuleManager.obj
 0001:0000fde9       __unwindfunclet$?_Xlen@?$vector@U?$pair@V?$basic_string@DU?$char_traits@D@std@@V?$allocator@D@2@@std@@PAVPlugInFactory@@@std@@V?$allocator@U?$pair@V?$basic_string@DU?$char_traits@D@std@@V?$allocator@D@2@@std@@PAVPlugInFactory@@@std@@@2@@std@@KAXXZ$2 10010de9 f   ModuleManager.obj
 0001:0000fdf2       __ehhandler$?_Xlen@?$vector@U?$pair@V?$basic_string@DU?$char_traits@D@std@@V?$allocator@D@2@@std@@PAVPlugInFactory@@@std@@V?$allocator@U?$pair@V?$basic_string@DU?$char_traits@D@std@@V?$allocator@D@2@@std@@PAVPlugInFactory@@@std@@@2@@std@@KAXXZ 10010df2 f   ModuleManager.obj
 0001:0000fe00       __unwindfunclet$??$_Construct@U?$pair@V?$basic_string@DU?$char_traits@D@std@@V?$allocator@D@2@@std@@PAVPlugInFactory@@@std@@U12@@std@@YAXPAU?$pair@V?$basic_string@DU?$char_traits@D@std@@V?$allocator@D@2@@std@@PAVPlugInFactory@@@0@ABU10@@Z$0 10010e00 f   ModuleManager.obj
 0001:0000fe11       __ehhandler$??$_Construct@U?$pair@V?$basic_string@DU?$char_traits@D@std@@V?$allocator@D@2@@std@@PAVPlugInFactory@@@std@@U12@@std@@YAXPAU?$pair@V?$basic_string@DU?$char_traits@D@std@@V?$allocator@D@2@@std@@PAVPlugInFactory@@@0@ABU10@@Z 10010e11 f   ModuleManager.obj
 0001:0000fe20       __unwindfunclet$??$_Rotate@PAU?$pair@V?$basic_string@DU?$char_traits@D@std@@V?$allocator@D@2@@std@@PAVPlugInFactory@@@std@@HU12@@std@@YAXPAU?$pair@V?$basic_string@DU?$char_traits@D@std@@V?$allocator@D@2@@std@@PAVPlugInFactory@@@0@00PAH0@Z$0 10010e20 f   ModuleManager.obj
 0001:0000fe28       __ehhandler$??$_Rotate@PAU?$pair@V?$basic_string@DU?$char_traits@D@std@@V?$allocator@D@2@@std@@PAVPlugInFactory@@@std@@HU12@@std@@YAXPAU?$pair@V?$basic_string@DU?$char_traits@D@std@@V?$allocator@D@2@@std@@PAVPlugInFactory@@@0@00PAH0@Z 10010e28 f   ModuleManager.obj
 0001:0000fe40       __unwindfunclet$??$make_pair@V?$basic_string@DU?$char_traits@D@std@@V?$allocator@D@2@@std@@PAVPlugInFactory@@@std@@YA?AU?$pair@V?$basic_string@DU?$char_traits@D@std@@V?$allocator@D@2@@std@@PAVPlugInFactory@@@0@V?$basic_string@DU?$char_traits@D@std@@V?$allocator@D@2@@0@PAVPlugInFactory@@@Z$0 10010e40 f   ModuleManager.obj
 0001:0000fe49       __unwindfunclet$??$make_pair@V?$basic_string@DU?$char_traits@D@std@@V?$allocator@D@2@@std@@PAVPlugInFactory@@@std@@YA?AU?$pair@V?$basic_string@DU?$char_traits@D@std@@V?$allocator@D@2@@std@@PAVPlugInFactory@@@0@V?$basic_string@DU?$char_traits@D@std@@V?$allocator@D@2@@0@PAVPlugInFactory@@@Z$1 10010e49 f   ModuleManager.obj
 0001:0000fe62       __ehhandler$??$make_pair@V?$basic_string@DU?$char_traits@D@std@@V?$allocator@D@2@@std@@PAVPlugInFactory@@@std@@YA?AU?$pair@V?$basic_string@DU?$char_traits@D@std@@V?$allocator@D@2@@std@@PAVPlugInFactory@@@0@V?$basic_string@DU?$char_traits@D@std@@V?$allocator@D@2@@0@PAVPlugInFactory@@@Z 10010e62 f   ModuleManager.obj
 0001:0000fe70       __unwindfunclet$??$_Uninit_copy@PAU?$pair@V?$basic_string@DU?$char_traits@D@std@@V?$allocator@D@2@@std@@PAVPlugInFactory@@@std@@PAU12@V?$allocator@U?$pair@V?$basic_string@DU?$char_traits@D@std@@V?$allocator@D@2@@std@@PAVPlugInFactory@@@std@@@2@@std@@YAPAU?$pair@V?$basic_string@DU?$char_traits@D@std@@V?$allocator@D@2@@std@@PAVPlugInFactory@@@0@PAU10@00AAV?$allocator@U?$pair@V?$basic_string@DU?$char_traits@D@std@@V?$allocator@D@2@@std@@PAVPlugInFactory@@@std@@@0@U_Nonscalar_ptr_iterator_tag@0@U_Range_checked_iterator_tag@0@@Z$2 10010e70 f   ModuleManager.obj
 0001:0000fe81       __ehhandler$??$_Uninit_copy@PAU?$pair@V?$basic_string@DU?$char_traits@D@std@@V?$allocator@D@2@@std@@PAVPlugInFactory@@@std@@PAU12@V?$allocator@U?$pair@V?$basic_string@DU?$char_traits@D@std@@V?$allocator@D@2@@std@@PAVPlugInFactory@@@std@@@2@@std@@YAPAU?$pair@V?$basic_string@DU?$char_traits@D@std@@V?$allocator@D@2@@std@@PAVPlugInFactory@@@0@PAU10@00AAV?$allocator@U?$pair@V?$basic_string@DU?$char_traits@D@std@@V?$allocator@D@2@@std@@PAVPlugInFactory@@@std@@@0@U_Nonscalar_ptr_iterator_tag@0@U_Range_checked_iterator_tag@0@@Z 10010e81 f   ModuleManager.obj
 0001:0000fe90       __unwindfunclet$??$_Uninit_fill_n@PAU?$pair@V?$basic_string@DU?$char_traits@D@std@@V?$allocator@D@2@@std@@PAVPlugInFactory@@@std@@IU12@V?$allocator@U?$pair@V?$basic_string@DU?$char_traits@D@std@@V?$allocator@D@2@@std@@PAVPlugInFactory@@@std@@@2@@std@@YAXPAU?$pair@V?$basic_string@DU?$char_traits@D@std@@V?$allocator@D@2@@std@@PAVPlugInFactory@@@0@IABU10@AAV?$allocator@U?$pair@V?$basic_string@DU?$char_traits@D@std@@V?$allocator@D@2@@std@@PAVPlugInFactory@@@std@@@0@U_Nonscalar_ptr_iterator_tag@0@U_Range_checked_iterator_tag@0@@Z$2 10010e90 f   ModuleManager.obj
 0001:0000fea1       __ehhandler$??$_Uninit_fill_n@PAU?$pair@V?$basic_string@DU?$char_traits@D@std@@V?$allocator@D@2@@std@@PAVPlugInFactory@@@std@@IU12@V?$allocator@U?$pair@V?$basic_string@DU?$char_traits@D@std@@V?$allocator@D@2@@std@@PAVPlugInFactory@@@std@@@2@@std@@YAXPAU?$pair@V?$basic_string@DU?$char_traits@D@std@@V?$allocator@D@2@@std@@PAVPlugInFactory@@@0@IABU10@AAV?$allocator@U?$pair@V?$basic_string@DU?$char_traits@D@std@@V?$allocator@D@2@@std@@PAVPlugInFactory@@@std@@@0@U_Nonscalar_ptr_iterator_tag@0@U_Range_checked_iterator_tag@0@@Z 10010ea1 f   ModuleManager.obj
 0001:0000feb0       __unwindfunclet$??RFactoryPtrComparator@@QAE_NU?$pair@V?$basic_string@DU?$char_traits@D@std@@V?$allocator@D@2@@std@@PAVPlugInFactory@@@std@@0@Z$0 10010eb0 f   ModuleManager.obj
 0001:0000feb8       __unwindfunclet$??RFactoryPtrComparator@@QAE_NU?$pair@V?$basic_string@DU?$char_traits@D@std@@V?$allocator@D@2@@std@@PAVPlugInFactory@@@std@@0@Z$1 10010eb8 f   ModuleManager.obj
 0001:0000fec0       __ehhandler$??RFactoryPtrComparator@@QAE_NU?$pair@V?$basic_string@DU?$char_traits@D@std@@V?$allocator@D@2@@std@@PAVPlugInFactory@@@std@@0@Z 10010ec0 f   ModuleManager.obj
 0001:0000fed0       __unwindfunclet$??$_Insertion_sort@PAU?$pair@V?$basic_string@DU?$char_traits@D@std@@V?$allocator@D@2@@std@@PAVPlugInFactory@@@std@@UFactoryPtrComparator@@@std@@YAXPAU?$pair@V?$basic_string@DU?$char_traits@D@std@@V?$allocator@D@2@@std@@PAVPlugInFactory@@@0@0UFactoryPtrComparator@@@Z$0 10010ed0 f   ModuleManager.obj
 0001:0000fed8       __unwindfunclet$??$_Insertion_sort@PAU?$pair@V?$basic_string@DU?$char_traits@D@std@@V?$allocator@D@2@@std@@PAVPlugInFactory@@@std@@UFactoryPtrComparator@@@std@@YAXPAU?$pair@V?$basic_string@DU?$char_traits@D@std@@V?$allocator@D@2@@std@@PAVPlugInFactory@@@0@0UFactoryPtrComparator@@@Z$2 10010ed8 f   ModuleManager.obj
 0001:0000fee0       __ehhandler$??$_Insertion_sort@PAU?$pair@V?$basic_string@DU?$char_traits@D@std@@V?$allocator@D@2@@std@@PAVPlugInFactory@@@std@@UFactoryPtrComparator@@@std@@YAXPAU?$pair@V?$basic_string@DU?$char_traits@D@std@@V?$allocator@D@2@@std@@PAVPlugInFactory@@@0@0UFactoryPtrComparator@@@Z 10010ee0 f   ModuleManager.obj
 0001:0000fef0       __unwindfunclet$??$_Med3@PAU?$pair@V?$basic_string@DU?$char_traits@D@std@@V?$allocator@D@2@@std@@PAVPlugInFactory@@@std@@UFactoryPtrComparator@@@std@@YAXPAU?$pair@V?$basic_string@DU?$char_traits@D@std@@V?$allocator@D@2@@std@@PAVPlugInFactory@@@0@00UFactoryPtrComparator@@@Z$0 10010ef0 f   ModuleManager.obj
 0001:0000fef8       __unwindfunclet$??$_Med3@PAU?$pair@V?$basic_string@DU?$char_traits@D@std@@V?$allocator@D@2@@std@@PAVPlugInFactory@@@std@@UFactoryPtrComparator@@@std@@YAXPAU?$pair@V?$basic_string@DU?$char_traits@D@std@@V?$allocator@D@2@@std@@PAVPlugInFactory@@@0@00UFactoryPtrComparator@@@Z$2 10010ef8 f   ModuleManager.obj
 0001:0000ff00       __unwindfunclet$??$_Med3@PAU?$pair@V?$basic_string@DU?$char_traits@D@std@@V?$allocator@D@2@@std@@PAVPlugInFactory@@@std@@UFactoryPtrComparator@@@std@@YAXPAU?$pair@V?$basic_string@DU?$char_traits@D@std@@V?$allocator@D@2@@std@@PAVPlugInFactory@@@0@00UFactoryPtrComparator@@@Z$4 10010f00 f   ModuleManager.obj
 0001:0000ff08       __ehhandler$??$_Med3@PAU?$pair@V?$basic_string@DU?$char_traits@D@std@@V?$allocator@D@2@@std@@PAVPlugInFactory@@@std@@UFactoryPtrComparator@@@std@@YAXPAU?$pair@V?$basic_string@DU?$char_traits@D@std@@V?$allocator@D@2@@std@@PAVPlugInFactory@@@0@00UFactoryPtrComparator@@@Z 10010f08 f   ModuleManager.obj
 0001:0000ff20       __unwindfunclet$??$_Push_heap@PAU?$pair@V?$basic_string@DU?$char_traits@D@std@@V?$allocator@D@2@@std@@PAVPlugInFactory@@@std@@HU12@UFactoryPtrComparator@@@std@@YAXPAU?$pair@V?$basic_string@DU?$char_traits@D@std@@V?$allocator@D@2@@std@@PAVPlugInFactory@@@0@HHU10@UFactoryPtrComparator@@@Z$0 10010f20 f   ModuleManager.obj
 0001:0000ff28       __unwindfunclet$??$_Push_heap@PAU?$pair@V?$basic_string@DU?$char_traits@D@std@@V?$allocator@D@2@@std@@PAVPlugInFactory@@@std@@HU12@UFactoryPtrComparator@@@std@@YAXPAU?$pair@V?$basic_string@DU?$char_traits@D@std@@V?$allocator@D@2@@std@@PAVPlugInFactory@@@0@HHU10@UFactoryPtrComparator@@@Z$1 10010f28 f   ModuleManager.obj
 0001:0000ff30       __ehhandler$??$_Push_heap@PAU?$pair@V?$basic_string@DU?$char_traits@D@std@@V?$allocator@D@2@@std@@PAVPlugInFactory@@@std@@HU12@UFactoryPtrComparator@@@std@@YAXPAU?$pair@V?$basic_string@DU?$char_traits@D@std@@V?$allocator@D@2@@std@@PAVPlugInFactory@@@0@HHU10@UFactoryPtrComparator@@@Z 10010f30 f   ModuleManager.obj
 0001:0000ff40       __unwindfunclet$??$_Adjust_heap@PAU?$pair@V?$basic_string@DU?$char_traits@D@std@@V?$allocator@D@2@@std@@PAVPlugInFactory@@@std@@HU12@UFactoryPtrComparator@@@std@@YAXPAU?$pair@V?$basic_string@DU?$char_traits@D@std@@V?$allocator@D@2@@std@@PAVPlugInFactory@@@0@HHU10@UFactoryPtrComparator@@@Z$0 10010f40 f   ModuleManager.obj
 0001:0000ff48       __unwindfunclet$??$_Adjust_heap@PAU?$pair@V?$basic_string@DU?$char_traits@D@std@@V?$allocator@D@2@@std@@PAVPlugInFactory@@@std@@HU12@UFactoryPtrComparator@@@std@@YAXPAU?$pair@V?$basic_string@DU?$char_traits@D@std@@V?$allocator@D@2@@std@@PAVPlugInFactory@@@0@HHU10@UFactoryPtrComparator@@@Z$1 10010f48 f   ModuleManager.obj
 0001:0000ff50       __ehhandler$??$_Adjust_heap@PAU?$pair@V?$basic_string@DU?$char_traits@D@std@@V?$allocator@D@2@@std@@PAVPlugInFactory@@@std@@HU12@UFactoryPtrComparator@@@std@@YAXPAU?$pair@V?$basic_string@DU?$char_traits@D@std@@V?$allocator@D@2@@std@@PAVPlugInFactory@@@0@HHU10@UFactoryPtrComparator@@@Z 10010f50 f   ModuleManager.obj
 0001:0000ff60       __unwindfunclet$??$_Pop_heap@PAU?$pair@V?$basic_string@DU?$char_traits@D@std@@V?$allocator@D@2@@std@@PAVPlugInFactory@@@std@@HU12@UFactoryPtrComparator@@@std@@YAXPAU?$pair@V?$basic_string@DU?$char_traits@D@std@@V?$allocator@D@2@@std@@PAVPlugInFactory@@@0@00U10@UFactoryPtrComparator@@PAH@Z$0 10010f60 f   ModuleManager.obj
 0001:0000ff68       __ehhandler$??$_Pop_heap@PAU?$pair@V?$basic_string@DU?$char_traits@D@std@@V?$allocator@D@2@@std@@PAVPlugInFactory@@@std@@HU12@UFactoryPtrComparator@@@std@@YAXPAU?$pair@V?$basic_string@DU?$char_traits@D@std@@V?$allocator@D@2@@std@@PAVPlugInFactory@@@0@00U10@UFactoryPtrComparator@@PAH@Z 10010f68 f   ModuleManager.obj
 0001:0000ff80       __unwindfunclet$??$_Unguarded_partition@PAU?$pair@V?$basic_string@DU?$char_traits@D@std@@V?$allocator@D@2@@std@@PAVPlugInFactory@@@std@@UFactoryPtrComparator@@@std@@YA?AU?$pair@PAU?$pair@V?$basic_string@DU?$char_traits@D@std@@V?$allocator@D@2@@std@@PAVPlugInFactory@@@std@@PAU12@@0@PAU?$pair@V?$basic_string@DU?$char_traits@D@std@@V?$allocator@D@2@@std@@PAVPlugInFactory@@@0@0UFactoryPtrComparator@@@Z$0 10010f80 f   ModuleManager.obj
 0001:0000ff88       __unwindfunclet$??$_Unguarded_partition@PAU?$pair@V?$basic_string@DU?$char_traits@D@std@@V?$allocator@D@2@@std@@PAVPlugInFactory@@@std@@UFactoryPtrComparator@@@std@@YA?AU?$pair@PAU?$pair@V?$basic_string@DU?$char_traits@D@std@@V?$allocator@D@2@@std@@PAVPlugInFactory@@@std@@PAU12@@0@PAU?$pair@V?$basic_string@DU?$char_traits@D@std@@V?$allocator@D@2@@std@@PAVPlugInFactory@@@0@0UFactoryPtrComparator@@@Z$2 10010f88 f   ModuleManager.obj
 0001:0000ff90       __unwindfunclet$??$_Unguarded_partition@PAU?$pair@V?$basic_string@DU?$char_traits@D@std@@V?$allocator@D@2@@std@@PAVPlugInFactory@@@std@@UFactoryPtrComparator@@@std@@YA?AU?$pair@PAU?$pair@V?$basic_string@DU?$char_traits@D@std@@V?$allocator@D@2@@std@@PAVPlugInFactory@@@std@@PAU12@@0@PAU?$pair@V?$basic_string@DU?$char_traits@D@std@@V?$allocator@D@2@@std@@PAVPlugInFactory@@@0@0UFactoryPtrComparator@@@Z$4 10010f90 f   ModuleManager.obj
 0001:0000ff98       __unwindfunclet$??$_Unguarded_partition@PAU?$pair@V?$basic_string@DU?$char_traits@D@std@@V?$allocator@D@2@@std@@PAVPlugInFactory@@@std@@UFactoryPtrComparator@@@std@@YA?AU?$pair@PAU?$pair@V?$basic_string@DU?$char_traits@D@std@@V?$allocator@D@2@@std@@PAVPlugInFactory@@@std@@PAU12@@0@PAU?$pair@V?$basic_string@DU?$char_traits@D@std@@V?$allocator@D@2@@std@@PAVPlugInFactory@@@0@0UFactoryPtrComparator@@@Z$6 10010f98 f   ModuleManager.obj
 0001:0000ffa0       __unwindfunclet$??$_Unguarded_partition@PAU?$pair@V?$basic_string@DU?$char_traits@D@std@@V?$allocator@D@2@@std@@PAVPlugInFactory@@@std@@UFactoryPtrComparator@@@std@@YA?AU?$pair@PAU?$pair@V?$basic_string@DU?$char_traits@D@std@@V?$allocator@D@2@@std@@PAVPlugInFactory@@@std@@PAU12@@0@PAU?$pair@V?$basic_string@DU?$char_traits@D@std@@V?$allocator@D@2@@std@@PAVPlugInFactory@@@0@0UFactoryPtrComparator@@@Z$8 10010fa0 f   ModuleManager.obj
 0001:0000ffa8       __unwindfunclet$??$_Unguarded_partition@PAU?$pair@V?$basic_string@DU?$char_traits@D@std@@V?$allocator@D@2@@std@@PAVPlugInFactory@@@std@@UFactoryPtrComparator@@@std@@YA?AU?$pair@PAU?$pair@V?$basic_string@DU?$char_traits@D@std@@V?$allocator@D@2@@std@@PAVPlugInFactory@@@std@@PAU12@@0@PAU?$pair@V?$basic_string@DU?$char_traits@D@std@@V?$allocator@D@2@@std@@PAVPlugInFactory@@@0@0UFactoryPtrComparator@@@Z$10 10010fa8 f   ModuleManager.obj
 0001:0000ffb0       __unwindfunclet$??$_Unguarded_partition@PAU?$pair@V?$basic_string@DU?$char_traits@D@std@@V?$allocator@D@2@@std@@PAVPlugInFactory@@@std@@UFactoryPtrComparator@@@std@@YA?AU?$pair@PAU?$pair@V?$basic_string@DU?$char_traits@D@std@@V?$allocator@D@2@@std@@PAVPlugInFactory@@@std@@PAU12@@0@PAU?$pair@V?$basic_string@DU?$char_traits@D@std@@V?$allocator@D@2@@std@@PAVPlugInFactory@@@0@0UFactoryPtrComparator@@@Z$12 10010fb0 f   ModuleManager.obj
 0001:0000ffb8       __unwindfunclet$??$_Unguarded_partition@PAU?$pair@V?$basic_string@DU?$char_traits@D@std@@V?$allocator@D@2@@std@@PAVPlugInFactory@@@std@@UFactoryPtrComparator@@@std@@YA?AU?$pair@PAU?$pair@V?$basic_string@DU?$char_traits@D@std@@V?$allocator@D@2@@std@@PAVPlugInFactory@@@std@@PAU12@@0@PAU?$pair@V?$basic_string@DU?$char_traits@D@std@@V?$allocator@D@2@@std@@PAVPlugInFactory@@@0@0UFactoryPtrComparator@@@Z$14 10010fb8 f   ModuleManager.obj
 0001:0000ffc0       __ehhandler$??$_Unguarded_partition@PAU?$pair@V?$basic_string@DU?$char_traits@D@std@@V?$allocator@D@2@@std@@PAVPlugInFactory@@@std@@UFactoryPtrComparator@@@std@@YA?AU?$pair@PAU?$pair@V?$basic_string@DU?$char_traits@D@std@@V?$allocator@D@2@@std@@PAVPlugInFactory@@@std@@PAU12@@0@PAU?$pair@V?$basic_string@DU?$char_traits@D@std@@V?$allocator@D@2@@std@@PAVPlugInFactory@@@0@0UFactoryPtrComparator@@@Z 10010fc0 f   ModuleManager.obj
 0001:0000ffd0       __unwindfunclet$?_Insert_n@?$vector@U?$pair@V?$basic_string@DU?$char_traits@D@std@@V?$allocator@D@2@@std@@PAVPlugInFactory@@@std@@V?$allocator@U?$pair@V?$basic_string@DU?$char_traits@D@std@@V?$allocator@D@2@@std@@PAVPlugInFactory@@@std@@@2@@std@@IAEXV?$_Vector_iterator@U?$pair@V?$basic_string@DU?$char_traits@D@std@@V?$allocator@D@2@@std@@PAVPlugInFactory@@@std@@V?$allocator@U?$pair@V?$basic_string@DU?$char_traits@D@std@@V?$allocator@D@2@@std@@PAVPlugInFactory@@@std@@@2@@2@IABU?$pair@V?$basic_string@DU?$char_traits@D@std@@V?$allocator@D@2@@std@@PAVPlugInFactory@@@2@@Z$4 10010fd0 f   ModuleManager.obj
 0001:0000ffd8       __ehhandler$?_Insert_n@?$vector@U?$pair@V?$basic_string@DU?$char_traits@D@std@@V?$allocator@D@2@@std@@PAVPlugInFactory@@@std@@V?$allocator@U?$pair@V?$basic_string@DU?$char_traits@D@std@@V?$allocator@D@2@@std@@PAVPlugInFactory@@@std@@@2@@std@@IAEXV?$_Vector_iterator@U?$pair@V?$basic_string@DU?$char_traits@D@std@@V?$allocator@D@2@@std@@PAVPlugInFactory@@@std@@V?$allocator@U?$pair@V?$basic_string@DU?$char_traits@D@std@@V?$allocator@D@2@@std@@PAVPlugInFactory@@@std@@@2@@2@IABU?$pair@V?$basic_string@DU?$char_traits@D@std@@V?$allocator@D@2@@std@@PAVPlugInFactory@@@2@@Z 10010fd8 f   ModuleManager.obj
 0001:0000fff0       __unwindfunclet$?factories@SpectralDataMerge@@YAAAV?$vector@U?$pair@V?$basic_string@DU?$char_traits@D@std@@V?$allocator@D@2@@std@@PAVPlugInFactory@@@std@@V?$allocator@U?$pair@V?$basic_string@DU?$char_traits@D@std@@V?$allocator@D@2@@std@@PAVPlugInFactory@@@std@@@2@@std@@XZ$0 10010ff0 f   ModuleManager.obj
 0001:0000fffe       __ehhandler$?factories@SpectralDataMerge@@YAAAV?$vector@U?$pair@V?$basic_string@DU?$char_traits@D@std@@V?$allocator@D@2@@std@@PAVPlugInFactory@@@std@@V?$allocator@U?$pair@V?$basic_string@DU?$char_traits@D@std@@V?$allocator@D@2@@std@@PAVPlugInFactory@@@std@@@2@@std@@XZ 10010ffe f   ModuleManager.obj
 0001:00010010       __unwindfunclet$?addFactory@SpectralDataMerge@@YAXPAVPlugInFactory@@@Z$0 10011010 f   ModuleManager.obj
 0001:00010018       __unwindfunclet$?addFactory@SpectralDataMerge@@YAXPAVPlugInFactory@@@Z$2 10011018 f   ModuleManager.obj
 0001:00010020       __unwindfunclet$?addFactory@SpectralDataMerge@@YAXPAVPlugInFactory@@@Z$3 10011020 f   ModuleManager.obj
 0001:0001002e       __ehhandler$?addFactory@SpectralDataMerge@@YAXPAVPlugInFactory@@@Z 1001102e f   ModuleManager.obj
 0001:00010040       __unwindfunclet$?_Xlen@?$vector@U?$pair@V?$basic_string@DU?$char_traits@D@std@@V?$allocator@D@2@@std@@VSlot@@@std@@V?$allocator@U?$pair@V?$basic_string@DU?$char_traits@D@std@@V?$allocator@D@2@@std@@VSlot@@@std@@@2@@std@@KAXXZ$0 10011040 f   PlugInLib:ViewerShell.obj
 0001:00010049       __unwindfunclet$?_Xlen@?$vector@U?$pair@V?$basic_string@DU?$char_traits@D@std@@V?$allocator@D@2@@std@@VSlot@@@std@@V?$allocator@U?$pair@V?$basic_string@DU?$char_traits@D@std@@V?$allocator@D@2@@std@@VSlot@@@std@@@2@@std@@KAXXZ$2 10011049 f   PlugInLib:ViewerShell.obj
 0001:00010052       __ehhandler$?_Xlen@?$vector@U?$pair@V?$basic_string@DU?$char_traits@D@std@@V?$allocator@D@2@@std@@VSlot@@@std@@V?$allocator@U?$pair@V?$basic_string@DU?$char_traits@D@std@@V?$allocator@D@2@@std@@VSlot@@@std@@@2@@std@@KAXXZ 10011052 f   PlugInLib:ViewerShell.obj
 0001:00010060       __unwindfunclet$?update@?$SlotValue@VViewerShell@@@Slot@@UBEXAAVSubject@@ABV?$basic_string@DU?$char_traits@D@std@@V?$allocator@D@2@@std@@ABVany@boost@@@Z$0 10011060 f   PlugInLib:ViewerShell.obj
 0001:00010069       __ehhandler$?update@?$SlotValue@VViewerShell@@@Slot@@UBEXAAVSubject@@ABV?$basic_string@DU?$char_traits@D@std@@V?$allocator@D@2@@std@@ABVany@boost@@@Z 10011069 f   PlugInLib:ViewerShell.obj
 0001:00010080       __unwindfunclet$?update@?$SlotValue@V?$SafePtr@VApplicationServices@@@@@Slot@@UBEXAAVSubject@@ABV?$basic_string@DU?$char_traits@D@std@@V?$allocator@D@2@@std@@ABVany@boost@@@Z$0 10011080 f   PlugInLib:ViewerShell.obj
 0001:00010089       __ehhandler$?update@?$SlotValue@V?$SafePtr@VApplicationServices@@@@@Slot@@UBEXAAVSubject@@ABV?$basic_string@DU?$char_traits@D@std@@V?$allocator@D@2@@std@@ABVany@boost@@@Z 10011089 f   PlugInLib:ViewerShell.obj
 0001:000100a0       __unwindfunclet$?signalDeleted@Subject@@SAABV?$basic_string@DU?$char_traits@D@std@@V?$allocator@D@2@@std@@XZ$0 100110a0 f   PlugInLib:ViewerShell.obj
 0001:000100ae       __ehhandler$?signalDeleted@Subject@@SAABV?$basic_string@DU?$char_traits@D@std@@V?$allocator@D@2@@std@@XZ 100110ae f   PlugInLib:ViewerShell.obj
 0001:000100c0       __unwindfunclet$?signalSessionClosed@ApplicationServices@@SAABV?$basic_string@DU?$char_traits@D@std@@V?$allocator@D@2@@std@@XZ$0 100110c0 f   PlugInLib:ViewerShell.obj
 0001:000100ce       __ehhandler$?signalSessionClosed@ApplicationServices@@SAABV?$basic_string@DU?$char_traits@D@std@@V?$allocator@D@2@@std@@XZ 100110ce f   PlugInLib:ViewerShell.obj
 0001:000100e0       __unwindfunclet$?abort@ViewerShell@@UAE_NXZ$0 100110e0 f   PlugInLib:ViewerShell.obj
 0001:000100eb       __ehhandler$?abort@ViewerShell@@UAE_NXZ 100110eb f   PlugInLib:ViewerShell.obj
 0001:00010100       __unwindfunclet$??0?$pair@V?$basic_string@DU?$char_traits@D@std@@V?$allocator@D@2@@std@@VSlot@@@std@@QAE@ABU01@@Z$0 10011100 f   PlugInLib:ViewerShell.obj
 0001:00010109       __ehhandler$??0?$pair@V?$basic_string@DU?$char_traits@D@std@@V?$allocator@D@2@@std@@VSlot@@@std@@QAE@ABU01@@Z 10011109 f   PlugInLib:ViewerShell.obj
 0001:00010120       __unwindfunclet$??0?$pair@V?$basic_string@DU?$char_traits@D@std@@V?$allocator@D@2@@std@@VSlot@@@std@@QAE@ABV?$basic_string@DU?$char_traits@D@std@@V?$allocator@D@2@@1@ABVSlot@@@Z$0 10011120 f   PlugInLib:ViewerShell.obj
 0001:00010129       __ehhandler$??0?$pair@V?$basic_string@DU?$char_traits@D@std@@V?$allocator@D@2@@std@@VSlot@@@std@@QAE@ABV?$basic_string@DU?$char_traits@D@std@@V?$allocator@D@2@@1@ABVSlot@@@Z 10011129 f   PlugInLib:ViewerShell.obj
 0001:00010140       __unwindfunclet$??$_Construct@U?$pair@V?$basic_string@DU?$char_traits@D@std@@V?$allocator@D@2@@std@@VSlot@@@std@@U12@@std@@YAXPAU?$pair@V?$basic_string@DU?$char_traits@D@std@@V?$allocator@D@2@@std@@VSlot@@@0@ABU10@@Z$0 10011140 f   PlugInLib:ViewerShell.obj
 0001:00010151       __ehhandler$??$_Construct@U?$pair@V?$basic_string@DU?$char_traits@D@std@@V?$allocator@D@2@@std@@VSlot@@@std@@U12@@std@@YAXPAU?$pair@V?$basic_string@DU?$char_traits@D@std@@V?$allocator@D@2@@std@@VSlot@@@0@ABU10@@Z 10011151 f   PlugInLib:ViewerShell.obj
 0001:00010160       __unwindfunclet$?detachFromDeleted@?$SafePtr@VApplicationServices@@@@AAEXXZ$0 10011160 f   PlugInLib:ViewerShell.obj
 0001:00010168       __ehhandler$?detachFromDeleted@?$SafePtr@VApplicationServices@@@@AAEXXZ 10011168 f   PlugInLib:ViewerShell.obj
 0001:00010180       __unwindfunclet$?attachToDeleted@?$SafePtr@VApplicationServices@@@@AAEXXZ$0 10011180 f   PlugInLib:ViewerShell.obj
 0001:00010188       __ehhandler$?attachToDeleted@?$SafePtr@VApplicationServices@@@@AAEXXZ 10011188 f   PlugInLib:ViewerShell.obj
 0001:000101a0       __unwindfunclet$??$make_pair@V?$basic_string@DU?$char_traits@D@std@@V?$allocator@D@2@@std@@VSlot@@@std@@YA?AU?$pair@V?$basic_string@DU?$char_traits@D@std@@V?$allocator@D@2@@std@@VSlot@@@0@V?$basic_string@DU?$char_traits@D@std@@V?$allocator@D@2@@0@VSlot@@@Z$0 100111a0 f   PlugInLib:ViewerShell.obj
 0001:000101a8       __unwindfunclet$??$make_pair@V?$basic_string@DU?$char_traits@D@std@@V?$allocator@D@2@@std@@VSlot@@@std@@YA?AU?$pair@V?$basic_string@DU?$char_traits@D@std@@V?$allocator@D@2@@std@@VSlot@@@0@V?$basic_string@DU?$char_traits@D@std@@V?$allocator@D@2@@0@VSlot@@@Z$1 100111a8 f   PlugInLib:ViewerShell.obj
 0001:000101b1       __unwindfunclet$??$make_pair@V?$basic_string@DU?$char_traits@D@std@@V?$allocator@D@2@@std@@VSlot@@@std@@YA?AU?$pair@V?$basic_string@DU?$char_traits@D@std@@V?$allocator@D@2@@std@@VSlot@@@0@V?$basic_string@DU?$char_traits@D@std@@V?$allocator@D@2@@0@VSlot@@@Z$2 100111b1 f   PlugInLib:ViewerShell.obj
 0001:000101ca       __ehhandler$??$make_pair@V?$basic_string@DU?$char_traits@D@std@@V?$allocator@D@2@@std@@VSlot@@@std@@YA?AU?$pair@V?$basic_string@DU?$char_traits@D@std@@V?$allocator@D@2@@std@@VSlot@@@0@V?$basic_string@DU?$char_traits@D@std@@V?$allocator@D@2@@0@VSlot@@@Z 100111ca f   PlugInLib:ViewerShell.obj
 0001:000101e0       __unwindfunclet$?construct@?$allocator@U?$pair@V?$basic_string@DU?$char_traits@D@std@@V?$allocator@D@2@@std@@VSlot@@@std@@@std@@QAEXPAU?$pair@V?$basic_string@DU?$char_traits@D@std@@V?$allocator@D@2@@std@@VSlot@@@2@ABU32@@Z$0 100111e0 f   PlugInLib:ViewerShell.obj
 0001:000101f1       __ehhandler$?construct@?$allocator@U?$pair@V?$basic_string@DU?$char_traits@D@std@@V?$allocator@D@2@@std@@VSlot@@@std@@@std@@QAEXPAU?$pair@V?$basic_string@DU?$char_traits@D@std@@V?$allocator@D@2@@std@@VSlot@@@2@ABU32@@Z 100111f1 f   PlugInLib:ViewerShell.obj
 0001:00010200       __unwindfunclet$??$_Uninit_copy@PAU?$pair@V?$basic_string@DU?$char_traits@D@std@@V?$allocator@D@2@@std@@VSlot@@@std@@PAU12@V?$allocator@U?$pair@V?$basic_string@DU?$char_traits@D@std@@V?$allocator@D@2@@std@@VSlot@@@std@@@2@@std@@YAPAU?$pair@V?$basic_string@DU?$char_traits@D@std@@V?$allocator@D@2@@std@@VSlot@@@0@PAU10@00AAV?$allocator@U?$pair@V?$basic_string@DU?$char_traits@D@std@@V?$allocator@D@2@@std@@VSlot@@@std@@@0@U_Nonscalar_ptr_iterator_tag@0@U_Range_checked_iterator_tag@0@@Z$2 10011200 f   PlugInLib:ViewerShell.obj
 0001:00010211       __unwindfunclet$??$_Uninit_copy@PAU?$pair@V?$basic_string@DU?$char_traits@D@std@@V?$allocator@D@2@@std@@VSlot@@@std@@PAU12@V?$allocator@U?$pair@V?$basic_string@DU?$char_traits@D@std@@V?$allocator@D@2@@std@@VSlot@@@std@@@2@@std@@YAPAU?$pair@V?$basic_string@DU?$char_traits@D@std@@V?$allocator@D@2@@std@@VSlot@@@0@PAU10@00AAV?$allocator@U?$pair@V?$basic_string@DU?$char_traits@D@std@@V?$allocator@D@2@@std@@VSlot@@@std@@@0@U_Nonscalar_ptr_iterator_tag@0@U_Range_checked_iterator_tag@0@@Z$3 10011211 f   PlugInLib:ViewerShell.obj
 0001:0001021a       __ehhandler$??$_Uninit_copy@PAU?$pair@V?$basic_string@DU?$char_traits@D@std@@V?$allocator@D@2@@std@@VSlot@@@std@@PAU12@V?$allocator@U?$pair@V?$basic_string@DU?$char_traits@D@std@@V?$allocator@D@2@@std@@VSlot@@@std@@@2@@std@@YAPAU?$pair@V?$basic_string@DU?$char_traits@D@std@@V?$allocator@D@2@@std@@VSlot@@@0@PAU10@00AAV?$allocator@U?$pair@V?$basic_string@DU?$char_traits@D@std@@V?$allocator@D@2@@std@@VSlot@@@std@@@0@U_Nonscalar_ptr_iterator_tag@0@U_Range_checked_iterator_tag@0@@Z 1001121a f   PlugInLib:ViewerShell.obj
 0001:00010230       __unwindfunclet$??$_Uninit_fill_n@PAU?$pair@V?$basic_string@DU?$char_traits@D@std@@V?$allocator@D@2@@std@@VSlot@@@std@@IU12@V?$allocator@U?$pair@V?$basic_string@DU?$char_traits@D@std@@V?$allocator@D@2@@std@@VSlot@@@std@@@2@@std@@YAXPAU?$pair@V?$basic_string@DU?$char_traits@D@std@@V?$allocator@D@2@@std@@VSlot@@@0@IABU10@AAV?$allocator@U?$pair@V?$basic_string@DU?$char_traits@D@std@@V?$allocator@D@2@@std@@VSlot@@@std@@@0@U_Nonscalar_ptr_iterator_tag@0@U_Range_checked_iterator_tag@0@@Z$2 10011230 f   PlugInLib:ViewerShell.obj
 0001:00010241       __unwindfunclet$??$_Uninit_fill_n@PAU?$pair@V?$basic_string@DU?$char_traits@D@std@@V?$allocator@D@2@@std@@VSlot@@@std@@IU12@V?$allocator@U?$pair@V?$basic_string@DU?$char_traits@D@std@@V?$allocator@D@2@@std@@VSlot@@@std@@@2@@std@@YAXPAU?$pair@V?$basic_string@DU?$char_traits@D@std@@V?$allocator@D@2@@std@@VSlot@@@0@IABU10@AAV?$allocator@U?$pair@V?$basic_string@DU?$char_traits@D@std@@V?$allocator@D@2@@std@@VSlot@@@std@@@0@U_Nonscalar_ptr_iterator_tag@0@U_Range_checked_iterator_tag@0@@Z$3 10011241 f   PlugInLib:ViewerShell.obj
 0001:0001024a       __ehhandler$??$_Uninit_fill_n@PAU?$pair@V?$basic_string@DU?$char_traits@D@std@@V?$allocator@D@2@@std@@VSlot@@@std@@IU12@V?$allocator@U?$pair@V?$basic_string@DU?$char_traits@D@std@@V?$allocator@D@2@@std@@VSlot@@@std@@@2@@std@@YAXPAU?$pair@V?$basic_string@DU?$char_traits@D@std@@V?$allocator@D@2@@std@@VSlot@@@0@IABU10@AAV?$allocator@U?$pair@V?$basic_string@DU?$char_traits@D@std@@V?$allocator@D@2@@std@@VSlot@@@std@@@0@U_Nonscalar_ptr_iterator_tag@0@U_Range_checked_iterator_tag@0@@Z 1001124a f   PlugInLib:ViewerShell.obj
 0001:00010260       __unwindfunclet$?_Insert_n@?$vector@U?$pair@V?$basic_string@DU?$char_traits@D@std@@V?$allocator@D@2@@std@@VSlot@@@std@@V?$allocator@U?$pair@V?$basic_string@DU?$char_traits@D@std@@V?$allocator@D@2@@std@@VSlot@@@std@@@2@@std@@IAEXV?$_Vector_iterator@U?$pair@V?$basic_string@DU?$char_traits@D@std@@V?$allocator@D@2@@std@@VSlot@@@std@@V?$allocator@U?$pair@V?$basic_string@DU?$char_traits@D@std@@V?$allocator@D@2@@std@@VSlot@@@std@@@2@@2@IABU?$pair@V?$basic_string@DU?$char_traits@D@std@@V?$allocator@D@2@@std@@VSlot@@@2@@Z$4 10011260 f   PlugInLib:ViewerShell.obj
 0001:00010268       __ehhandler$?_Insert_n@?$vector@U?$pair@V?$basic_string@DU?$char_traits@D@std@@V?$allocator@D@2@@std@@VSlot@@@std@@V?$allocator@U?$pair@V?$basic_string@DU?$char_traits@D@std@@V?$allocator@D@2@@std@@VSlot@@@std@@@2@@std@@IAEXV?$_Vector_iterator@U?$pair@V?$basic_string@DU?$char_traits@D@std@@V?$allocator@D@2@@std@@VSlot@@@std@@V?$allocator@U?$pair@V?$basic_string@DU?$char_traits@D@std@@V?$allocator@D@2@@std@@VSlot@@@std@@@2@@2@IABU?$pair@V?$basic_string@DU?$char_traits@D@std@@V?$allocator@D@2@@std@@VSlot@@@2@@Z 10011268 f   PlugInLib:ViewerShell.obj
 0001:00010280       __unwindfunclet$??0?$AttachmentPtr@VApplicationServices@@@@QAE@XZ$0 10011280 f   PlugInLib:ViewerShell.obj
 0001:00010288       __ehhandler$??0?$AttachmentPtr@VApplicationServices@@@@QAE@XZ 10011288 f   PlugInLib:ViewerShell.obj
 0001:000102a0       __unwindfunclet$??1?$AttachmentPtr@VApplicationServices@@@@UAE@XZ$0 100112a0 f   PlugInLib:ViewerShell.obj
 0001:000102a8       __unwindfunclet$??1?$AttachmentPtr@VApplicationServices@@@@UAE@XZ$1 100112a8 f   PlugInLib:ViewerShell.obj
 0001:000102b3       __ehhandler$??1?$AttachmentPtr@VApplicationServices@@@@UAE@XZ 100112b3 f   PlugInLib:ViewerShell.obj
 0001:000102c0       __unwindfunclet$??1ViewerShell@@UAE@XZ$0 100112c0 f   PlugInLib:ViewerShell.obj
 0001:000102c8       __ehhandler$??1ViewerShell@@UAE@XZ 100112c8 f   PlugInLib:ViewerShell.obj
 0001:000102e0       __unwindfunclet$?addSignal@?$AttachmentPtr@VApplicationServices@@@@QAEXABV?$basic_string@DU?$char_traits@D@std@@V?$allocator@D@2@@std@@ABVSlot@@@Z$0 100112e0 f   PlugInLib:ViewerShell.obj
 0001:000102e8       __unwindfunclet$?addSignal@?$AttachmentPtr@VApplicationServices@@@@QAEXABV?$basic_string@DU?$char_traits@D@std@@V?$allocator@D@2@@std@@ABVSlot@@@Z$2 100112e8 f   PlugInLib:ViewerShell.obj
 0001:000102f0       __ehhandler$?addSignal@?$AttachmentPtr@VApplicationServices@@@@QAEXABV?$basic_string@DU?$char_traits@D@std@@V?$allocator@D@2@@std@@ABVSlot@@@Z 100112f0 f   PlugInLib:ViewerShell.obj
 0001:00010300       __unwindfunclet$??0ViewerShell@@QAE@XZ$0 10011300 f   PlugInLib:ViewerShell.obj
 0001:00010308       __unwindfunclet$??0ViewerShell@@QAE@XZ$4 10011308 f   PlugInLib:ViewerShell.obj
 0001:00010310       __unwindfunclet$??0ViewerShell@@QAE@XZ$1 10011310 f   PlugInLib:ViewerShell.obj
 0001:0001031e       __unwindfunclet$??0ViewerShell@@QAE@XZ$2 1001131e f   PlugInLib:ViewerShell.obj
 0001:00010327       __unwindfunclet$??0ViewerShell@@QAE@XZ$3 10011327 f   PlugInLib:ViewerShell.obj
 0001:0001032f       __ehhandler$??0ViewerShell@@QAE@XZ 1001132f f   PlugInLib:ViewerShell.obj
 0001:00010340       __unwindfunclet$??0ExecutableShell@@QAE@XZ$0 10011340 f   PlugInLib:ExecutableShell.obj
 0001:00010348       __unwindfunclet$??0ExecutableShell@@QAE@XZ$1 10011348 f   PlugInLib:ExecutableShell.obj
 0001:00010353       __ehhandler$??0ExecutableShell@@QAE@XZ 10011353 f   PlugInLib:ExecutableShell.obj
 0001:00010360       __unwindfunclet$??1ExecutableShell@@UAE@XZ$0 10011360 f   PlugInLib:ExecutableShell.obj
 0001:00010368       __unwindfunclet$??1ExecutableShell@@UAE@XZ$1 10011368 f   PlugInLib:ExecutableShell.obj
 0001:0001038f       __ehhandler$??1ExecutableShell@@UAE@XZ 1001138f f   PlugInLib:ExecutableShell.obj
 0001:000103a0       __unwindfunclet$??1?$pair@$$CBV?$basic_string@DU?$char_traits@D@std@@V?$allocator@D@2@@std@@V12@@std@@QAE@XZ$0 100113a0 f   PlugInLib:PlugInShell.obj
 0001:000103a9       __ehhandler$??1?$pair@$$CBV?$basic_string@DU?$char_traits@D@std@@V?$allocator@D@2@@std@@V12@@std@@QAE@XZ 100113a9 f   PlugInLib:PlugInShell.obj
 0001:000103c0       __unwindfunclet$??0?$pair@$$CBV?$basic_string@DU?$char_traits@D@std@@V?$allocator@D@2@@std@@V12@@std@@QAE@ABV?$basic_string@DU?$char_traits@D@std@@V?$allocator@D@2@@1@0@Z$0 100113c0 f   PlugInLib:PlugInShell.obj
 0001:000103c9       __ehhandler$??0?$pair@$$CBV?$basic_string@DU?$char_traits@D@std@@V?$allocator@D@2@@std@@V12@@std@@QAE@ABV?$basic_string@DU?$char_traits@D@std@@V?$allocator@D@2@@1@0@Z 100113c9 f   PlugInLib:PlugInShell.obj
 0001:000103e0       __unwindfunclet$??0?$pair@$$CBV?$basic_string@DU?$char_traits@D@std@@V?$allocator@D@2@@std@@V12@@std@@QAE@ABU01@@Z$0 100113e0 f   PlugInLib:PlugInShell.obj
 0001:000103e9       __ehhandler$??0?$pair@$$CBV?$basic_string@DU?$char_traits@D@std@@V?$allocator@D@2@@std@@V12@@std@@QAE@ABU01@@Z 100113e9 f   PlugInLib:PlugInShell.obj
 0001:00010400       __unwindfunclet$??1ContextMenuAction@@QAE@XZ$0 10011400 f   PlugInLib:PlugInShell.obj
 0001:0001040c       __ehhandler$??1ContextMenuAction@@QAE@XZ 1001140c f   PlugInLib:PlugInShell.obj
 0001:00010420       __unwindfunclet$??0?$Resource@VSettableSessionItem@@VFactoryObject@@@@QAE@ABVArgs@FactoryAllocator@@@Z$0 10011420 f   PlugInLib:PlugInShell.obj
 0001:0001042b       __ehhandler$??0?$Resource@VSettableSessionItem@@VFactoryObject@@@@QAE@ABVArgs@FactoryAllocator@@@Z 1001142b f   PlugInLib:PlugInShell.obj
 0001:00010440       __unwindfunclet$??1?$Resource@VSettableSessionItem@@VFactoryObject@@@@UAE@XZ$0 10011440 f   PlugInLib:PlugInShell.obj
 0001:0001044b       __ehhandler$??1?$Resource@VSettableSessionItem@@VFactoryObject@@@@UAE@XZ 1001144b f   PlugInLib:PlugInShell.obj
 0001:00010460       __unwindfunclet$?_Buynode@?$_Tree@V?$_Tmap_traits@V?$basic_string@DU?$char_traits@D@std@@V?$allocator@D@2@@std@@V12@U?$less@V?$basic_string@DU?$char_traits@D@std@@V?$allocator@D@2@@std@@@2@V?$allocator@U?$pair@$$CBV?$basic_string@DU?$char_traits@D@std@@V?$allocator@D@2@@std@@V12@@std@@@2@$0A@@std@@@std@@IAEPAU_Node@?$_Tree_nod@V?$_Tmap_traits@V?$basic_string@DU?$char_traits@D@std@@V?$allocator@D@2@@std@@V12@U?$less@V?$basic_string@DU?$char_traits@D@std@@V?$allocator@D@2@@std@@@2@V?$allocator@U?$pair@$$CBV?$basic_string@DU?$char_traits@D@std@@V?$allocator@D@2@@std@@V12@@std@@@2@$0A@@std@@@2@PAU342@00ABU?$pair@$$CBV?$basic_string@DU?$char_traits@D@std@@V?$allocator@D@2@@std@@V12@@2@D@Z$2 10011460 f   PlugInLib:PlugInShell.obj
 0001:00010471       __ehhandler$?_Buynode@?$_Tree@V?$_Tmap_traits@V?$basic_string@DU?$char_traits@D@std@@V?$allocator@D@2@@std@@V12@U?$less@V?$basic_string@DU?$char_traits@D@std@@V?$allocator@D@2@@std@@@2@V?$allocator@U?$pair@$$CBV?$basic_string@DU?$char_traits@D@std@@V?$allocator@D@2@@std@@V12@@std@@@2@$0A@@std@@@std@@IAEPAU_Node@?$_Tree_nod@V?$_Tmap_traits@V?$basic_string@DU?$char_traits@D@std@@V?$allocator@D@2@@std@@V12@U?$less@V?$basic_string@DU?$char_traits@D@std@@V?$allocator@D@2@@std@@@2@V?$allocator@U?$pair@$$CBV?$basic_string@DU?$char_traits@D@std@@V?$allocator@D@2@@std@@V12@@std@@@2@$0A@@std@@@2@PAU342@00ABU?$pair@$$CBV?$basic_string@DU?$char_traits@D@std@@V?$allocator@D@2@@std@@V12@@2@D@Z 10011471 f   PlugInLib:PlugInShell.obj
 0001:00010480       __unwindfunclet$??0?$FactoryResource@VSettableSessionItem@@@@QAE@XZ$0 10011480 f   PlugInLib:PlugInShell.obj
 0001:00010488       __unwindfunclet$??0?$FactoryResource@VSettableSessionItem@@@@QAE@XZ$1 10011488 f   PlugInLib:PlugInShell.obj
 0001:00010490       __ehhandler$??0?$FactoryResource@VSettableSessionItem@@@@QAE@XZ 10011490 f   PlugInLib:PlugInShell.obj
 0001:000104a0       __unwindfunclet$?_Insert@?$_Tree@V?$_Tmap_traits@V?$basic_string@DU?$char_traits@D@std@@V?$allocator@D@2@@std@@V12@U?$less@V?$basic_string@DU?$char_traits@D@std@@V?$allocator@D@2@@std@@@2@V?$allocator@U?$pair@$$CBV?$basic_string@DU?$char_traits@D@std@@V?$allocator@D@2@@std@@V12@@std@@@2@$0A@@std@@@std@@IAE?AViterator@12@_NPAU_Node@?$_Tree_nod@V?$_Tmap_traits@V?$basic_string@DU?$char_traits@D@std@@V?$allocator@D@2@@std@@V12@U?$less@V?$basic_string@DU?$char_traits@D@std@@V?$allocator@D@2@@std@@@2@V?$allocator@U?$pair@$$CBV?$basic_string@DU?$char_traits@D@std@@V?$allocator@D@2@@std@@V12@@std@@@2@$0A@@std@@@2@ABU?$pair@$$CBV?$basic_string@DU?$char_traits@D@std@@V?$allocator@D@2@@std@@V12@@2@@Z$0 100114a0 f   PlugInLib:PlugInShell.obj
 0001:000104a9       __unwindfunclet$?_Insert@?$_Tree@V?$_Tmap_traits@V?$basic_string@DU?$char_traits@D@std@@V?$allocator@D@2@@std@@V12@U?$less@V?$basic_string@DU?$char_traits@D@std@@V?$allocator@D@2@@std@@@2@V?$allocator@U?$pair@$$CBV?$basic_string@DU?$char_traits@D@std@@V?$allocator@D@2@@std@@V12@@std@@@2@$0A@@std@@@std@@IAE?AViterator@12@_NPAU_Node@?$_Tree_nod@V?$_Tmap_traits@V?$basic_string@DU?$char_traits@D@std@@V?$allocator@D@2@@std@@V12@U?$less@V?$basic_string@DU?$char_traits@D@std@@V?$allocator@D@2@@std@@@2@V?$allocator@U?$pair@$$CBV?$basic_string@DU?$char_traits@D@std@@V?$allocator@D@2@@std@@V12@@std@@@2@$0A@@std@@@2@ABU?$pair@$$CBV?$basic_string@DU?$char_traits@D@std@@V?$allocator@D@2@@std@@V12@@2@@Z$2 100114a9 f   PlugInLib:PlugInShell.obj
 0001:000104b2       __ehhandler$?_Insert@?$_Tree@V?$_Tmap_traits@V?$basic_string@DU?$char_traits@D@std@@V?$allocator@D@2@@std@@V12@U?$less@V?$basic_string@DU?$char_traits@D@std@@V?$allocator@D@2@@std@@@2@V?$allocator@U?$pair@$$CBV?$basic_string@DU?$char_traits@D@std@@V?$allocator@D@2@@std@@V12@@std@@@2@$0A@@std@@@std@@IAE?AViterator@12@_NPAU_Node@?$_Tree_nod@V?$_Tmap_traits@V?$basic_string@DU?$char_traits@D@std@@V?$allocator@D@2@@std@@V12@U?$less@V?$basic_string@DU?$char_traits@D@std@@V?$allocator@D@2@@std@@@2@V?$allocator@U?$pair@$$CBV?$basic_string@DU?$char_traits@D@std@@V?$allocator@D@2@@std@@V12@@std@@@2@$0A@@std@@@2@ABU?$pair@$$CBV?$basic_string@DU?$char_traits@D@std@@V?$allocator@D@2@@std@@V12@@2@@Z 100114b2 f   PlugInLib:PlugInShell.obj
 0001:000104c0       __unwindfunclet$?_Erase@?$_Tree@V?$_Tmap_traits@V?$basic_string@DU?$char_traits@D@std@@V?$allocator@D@2@@std@@V12@U?$less@V?$basic_string@DU?$char_traits@D@std@@V?$allocator@D@2@@std@@@2@V?$allocator@U?$pair@$$CBV?$basic_string@DU?$char_traits@D@std@@V?$allocator@D@2@@std@@V12@@std@@@2@$0A@@std@@@std@@IAEXPAU_Node@?$_Tree_nod@V?$_Tmap_traits@V?$basic_string@DU?$char_traits@D@std@@V?$allocator@D@2@@std@@V12@U?$less@V?$basic_string@DU?$char_traits@D@std@@V?$allocator@D@2@@std@@@2@V?$allocator@U?$pair@$$CBV?$basic_string@DU?$char_traits@D@std@@V?$allocator@D@2@@std@@V12@@std@@@2@$0A@@std@@@2@@Z$1 100114c0 f   PlugInLib:PlugInShell.obj
 0001:000104c9       __ehhandler$?_Erase@?$_Tree@V?$_Tmap_traits@V?$basic_string@DU?$char_traits@D@std@@V?$allocator@D@2@@std@@V12@U?$less@V?$basic_string@DU?$char_traits@D@std@@V?$allocator@D@2@@std@@@2@V?$allocator@U?$pair@$$CBV?$basic_string@DU?$char_traits@D@std@@V?$allocator@D@2@@std@@V12@@std@@@2@$0A@@std@@@std@@IAEXPAU_Node@?$_Tree_nod@V?$_Tmap_traits@V?$basic_string@DU?$char_traits@D@std@@V?$allocator@D@2@@std@@V12@U?$less@V?$basic_string@DU?$char_traits@D@std@@V?$allocator@D@2@@std@@@2@V?$allocator@U?$pair@$$CBV?$basic_string@DU?$char_traits@D@std@@V?$allocator@D@2@@std@@V12@@std@@@2@$0A@@std@@@2@@Z 100114c9 f   PlugInLib:PlugInShell.obj
 0001:000104e0       __unwindfunclet$?erase@?$_Tree@V?$_Tmap_traits@V?$basic_string@DU?$char_traits@D@std@@V?$allocator@D@2@@std@@V12@U?$less@V?$basic_string@DU?$char_traits@D@std@@V?$allocator@D@2@@std@@@2@V?$allocator@U?$pair@$$CBV?$basic_string@DU?$char_traits@D@std@@V?$allocator@D@2@@std@@V12@@std@@@2@$0A@@std@@@std@@QAE?AViterator@12@V312@@Z$0 100114e0 f   PlugInLib:PlugInShell.obj
 0001:000104e9       __unwindfunclet$?erase@?$_Tree@V?$_Tmap_traits@V?$basic_string@DU?$char_traits@D@std@@V?$allocator@D@2@@std@@V12@U?$less@V?$basic_string@DU?$char_traits@D@std@@V?$allocator@D@2@@std@@@2@V?$allocator@U?$pair@$$CBV?$basic_string@DU?$char_traits@D@std@@V?$allocator@D@2@@std@@V12@@std@@@2@$0A@@std@@@std@@QAE?AViterator@12@V312@@Z$2 100114e9 f   PlugInLib:PlugInShell.obj
 0001:000104f2       __unwindfunclet$?erase@?$_Tree@V?$_Tmap_traits@V?$basic_string@DU?$char_traits@D@std@@V?$allocator@D@2@@std@@V12@U?$less@V?$basic_string@DU?$char_traits@D@std@@V?$allocator@D@2@@std@@@2@V?$allocator@U?$pair@$$CBV?$basic_string@DU?$char_traits@D@std@@V?$allocator@D@2@@std@@V12@@std@@@2@$0A@@std@@@std@@QAE?AViterator@12@V312@@Z$5 100114f2 f   PlugInLib:PlugInShell.obj
 0001:000104fb       __ehhandler$?erase@?$_Tree@V?$_Tmap_traits@V?$basic_string@DU?$char_traits@D@std@@V?$allocator@D@2@@std@@V12@U?$less@V?$basic_string@DU?$char_traits@D@std@@V?$allocator@D@2@@std@@@2@V?$allocator@U?$pair@$$CBV?$basic_string@DU?$char_traits@D@std@@V?$allocator@D@2@@std@@V12@@std@@@2@$0A@@std@@@std@@QAE?AViterator@12@V312@@Z 100114fb f   PlugInLib:PlugInShell.obj
 0001:00010510       __ehhandler$?_Copy@?$_Tree@V?$_Tmap_traits@V?$basic_string@DU?$char_traits@D@std@@V?$allocator@D@2@@std@@V12@U?$less@V?$basic_string@DU?$char_traits@D@std@@V?$allocator@D@2@@std@@@2@V?$allocator@U?$pair@$$CBV?$basic_string@DU?$char_traits@D@std@@V?$allocator@D@2@@std@@V12@@std@@@2@$0A@@std@@@std@@IAEPAU_Node@?$_Tree_nod@V?$_Tmap_traits@V?$basic_string@DU?$char_traits@D@std@@V?$allocator@D@2@@std@@V12@U?$less@V?$basic_string@DU?$char_traits@D@std@@V?$allocator@D@2@@std@@@2@V?$allocator@U?$pair@$$CBV?$basic_string@DU?$char_traits@D@std@@V?$allocator@D@2@@std@@V12@@std@@@2@$0A@@std@@@2@PAU342@0@Z 10011510 f   PlugInLib:PlugInShell.obj
 0001:00010520       __unwindfunclet$?clear@?$list@UContextMenuAction@@V?$allocator@UContextMenuAction@@@std@@@std@@QAEXXZ$1 10011520 f   PlugInLib:PlugInShell.obj
 0001:0001052c       __ehhandler$?clear@?$list@UContextMenuAction@@V?$allocator@UContextMenuAction@@@std@@@std@@QAEXXZ 1001152c f   PlugInLib:PlugInShell.obj
 0001:00010540       __unwindfunclet$??A?$map@V?$basic_string@DU?$char_traits@D@std@@V?$allocator@D@2@@std@@V12@U?$less@V?$basic_string@DU?$char_traits@D@std@@V?$allocator@D@2@@std@@@2@V?$allocator@U?$pair@$$CBV?$basic_string@DU?$char_traits@D@std@@V?$allocator@D@2@@std@@V12@@std@@@2@@std@@QAEAAV?$basic_string@DU?$char_traits@D@std@@V?$allocator@D@2@@1@ABV21@@Z$0 10011540 f   PlugInLib:PlugInShell.obj
 0001:00010549       __unwindfunclet$??A?$map@V?$basic_string@DU?$char_traits@D@std@@V?$allocator@D@2@@std@@V12@U?$less@V?$basic_string@DU?$char_traits@D@std@@V?$allocator@D@2@@std@@@2@V?$allocator@U?$pair@$$CBV?$basic_string@DU?$char_traits@D@std@@V?$allocator@D@2@@std@@V12@@std@@@2@@std@@QAEAAV?$basic_string@DU?$char_traits@D@std@@V?$allocator@D@2@@1@ABV21@@Z$1 10011549 f   PlugInLib:PlugInShell.obj
 0001:00010551       __ehhandler$??A?$map@V?$basic_string@DU?$char_traits@D@std@@V?$allocator@D@2@@std@@V12@U?$less@V?$basic_string@DU?$char_traits@D@std@@V?$allocator@D@2@@std@@@2@V?$allocator@U?$pair@$$CBV?$basic_string@DU?$char_traits@D@std@@V?$allocator@D@2@@std@@V12@@std@@@2@@std@@QAEAAV?$basic_string@DU?$char_traits@D@std@@V?$allocator@D@2@@1@ABV21@@Z 10011551 f   PlugInLib:PlugInShell.obj
 0001:00010560       __ehhandler$??0?$_Tree@V?$_Tmap_traits@V?$basic_string@DU?$char_traits@D@std@@V?$allocator@D@2@@std@@V12@U?$less@V?$basic_string@DU?$char_traits@D@std@@V?$allocator@D@2@@std@@@2@V?$allocator@U?$pair@$$CBV?$basic_string@DU?$char_traits@D@std@@V?$allocator@D@2@@std@@V12@@std@@@2@$0A@@std@@@std@@QAE@ABV01@@Z 10011560 f   PlugInLib:PlugInShell.obj
 0001:00010570       __unwindfunclet$??1PlugInShell@@UAE@XZ$0 10011570 f   PlugInLib:PlugInShell.obj
 0001:00010578       __unwindfunclet$??1PlugInShell@@UAE@XZ$1 10011578 f   PlugInLib:PlugInShell.obj
 0001:0001059f       __unwindfunclet$??1PlugInShell@@UAE@XZ$2 1001159f f   PlugInLib:PlugInShell.obj
 0001:000105aa       __unwindfunclet$??1PlugInShell@@UAE@XZ$3 100115aa f   PlugInLib:PlugInShell.obj
 0001:000105b6       __unwindfunclet$??1PlugInShell@@UAE@XZ$4 100115b6 f   PlugInLib:PlugInShell.obj
 0001:000105c2       __unwindfunclet$??1PlugInShell@@UAE@XZ$5 100115c2 f   PlugInLib:PlugInShell.obj
 0001:000105ce       __unwindfunclet$??1PlugInShell@@UAE@XZ$6 100115ce f   PlugInLib:PlugInShell.obj
 0001:000105dc       __unwindfunclet$??1PlugInShell@@UAE@XZ$7 100115dc f   PlugInLib:PlugInShell.obj
 0001:000105eb       __unwindfunclet$??1PlugInShell@@UAE@XZ$8 100115eb f   PlugInLib:PlugInShell.obj
 0001:000105fa       __unwindfunclet$??1PlugInShell@@UAE@XZ$9 100115fa f   PlugInLib:PlugInShell.obj
 0001:00010609       __unwindfunclet$??1PlugInShell@@UAE@XZ$10 10011609 f   PlugInLib:PlugInShell.obj
 0001:00010618       __ehhandler$??1PlugInShell@@UAE@XZ 10011618 f   PlugInLib:PlugInShell.obj
 0001:00010630       __unwindfunclet$??0PlugInShell@@QAE@XZ$0 10011630 f   PlugInLib:PlugInShell.obj
 0001:00010638       __unwindfunclet$??0PlugInShell@@QAE@XZ$1 10011638 f   PlugInLib:PlugInShell.obj
 0001:00010643       __unwindfunclet$??0PlugInShell@@QAE@XZ$2 10011643 f   PlugInLib:PlugInShell.obj
 0001:0001064e       __unwindfunclet$??0PlugInShell@@QAE@XZ$3 1001164e f   PlugInLib:PlugInShell.obj
 0001:0001065a       __unwindfunclet$??0PlugInShell@@QAE@XZ$4 1001165a f   PlugInLib:PlugInShell.obj
 0001:00010666       __unwindfunclet$??0PlugInShell@@QAE@XZ$5 10011666 f   PlugInLib:PlugInShell.obj
 0001:00010672       __unwindfunclet$??0PlugInShell@@QAE@XZ$6 10011672 f   PlugInLib:PlugInShell.obj
 0001:00010680       __unwindfunclet$??0PlugInShell@@QAE@XZ$7 10011680 f   PlugInLib:PlugInShell.obj
 0001:0001068f       __unwindfunclet$??0PlugInShell@@QAE@XZ$8 1001168f f   PlugInLib:PlugInShell.obj
 0001:0001069e       __unwindfunclet$??0PlugInShell@@QAE@XZ$9 1001169e f   PlugInLib:PlugInShell.obj
 0001:000106ad       __unwindfunclet$??0PlugInShell@@QAE@XZ$10 100116ad f   PlugInLib:PlugInShell.obj
 0001:000106bc       __ehhandler$??0PlugInShell@@QAE@XZ 100116bc f   PlugInLib:PlugInShell.obj
 0001:000106d0       __unwindfunclet$?get@?$Service@VSessionExplorer@@@@QBEPAVSessionExplorer@@XZ$0 100116d0 f   PlugInUtilities:Service.obj
 0001:000106d9       __unwindfunclet$?get@?$Service@VSessionExplorer@@@@QBEPAVSessionExplorer@@XZ$1 100116d9 f   PlugInUtilities:Service.obj
 0001:000106e2       __ehhandler$?get@?$Service@VSessionExplorer@@@@QBEPAVSessionExplorer@@XZ 100116e2 f   PlugInUtilities:Service.obj
 0001:000106f0       __unwindfunclet$?LogVerificationErrorProc@@YAXPBD0I0@Z$0 100116f0 f   PlugInUtilities:AppVerify.obj
 0001:000106fc       __unwindfunclet$?LogVerificationErrorProc@@YAXPBD0I0@Z$1 100116fc f   PlugInUtilities:AppVerify.obj
 0001:00010708       __unwindfunclet$?LogVerificationErrorProc@@YAXPBD0I0@Z$2 10011708 f   PlugInUtilities:AppVerify.obj
 0001:00010714       __unwindfunclet$?LogVerificationErrorProc@@YAXPBD0I0@Z$3 10011714 f   PlugInUtilities:AppVerify.obj
 0001:00010720       __unwindfunclet$?LogVerificationErrorProc@@YAXPBD0I0@Z$4 10011720 f   PlugInUtilities:AppVerify.obj
 0001:0001072c       __unwindfunclet$?LogVerificationErrorProc@@YAXPBD0I0@Z$5 1001172c f   PlugInUtilities:AppVerify.obj
 0001:00010738       __unwindfunclet$?LogVerificationErrorProc@@YAXPBD0I0@Z$6 10011738 f   PlugInUtilities:AppVerify.obj
 0001:00010744       __unwindfunclet$?LogVerificationErrorProc@@YAXPBD0I0@Z$7 10011744 f   PlugInUtilities:AppVerify.obj
 0001:00010750       __unwindfunclet$?LogVerificationErrorProc@@YAXPBD0I0@Z$8 10011750 f   PlugInUtilities:AppVerify.obj
 0001:0001075c       __unwindfunclet$?LogVerificationErrorProc@@YAXPBD0I0@Z$9 1001175c f   PlugInUtilities:AppVerify.obj
 0001:00010768       __unwindfunclet$?LogVerificationErrorProc@@YAXPBD0I0@Z$10 10011768 f   PlugInUtilities:AppVerify.obj
 0001:00010774       __unwindfunclet$?LogVerificationErrorProc@@YAXPBD0I0@Z$11 10011774 f   PlugInUtilities:AppVerify.obj
 0001:00010780       __unwindfunclet$?LogVerificationErrorProc@@YAXPBD0I0@Z$12 10011780 f   PlugInUtilities:AppVerify.obj
 0001:0001078c       __unwindfunclet$?LogVerificationErrorProc@@YAXPBD0I0@Z$13 1001178c f   PlugInUtilities:AppVerify.obj
 0001:00010798       __unwindfunclet$?LogVerificationErrorProc@@YAXPBD0I0@Z$14 10011798 f   PlugInUtilities:AppVerify.obj
 0001:000107a4       __unwindfunclet$?LogVerificationErrorProc@@YAXPBD0I0@Z$15 100117a4 f   PlugInUtilities:AppVerify.obj
 0001:000107b0       __ehhandler$?LogVerificationErrorProc@@YAXPBD0I0@Z 100117b0 f   PlugInUtilities:AppVerify.obj
 0001:000107c0       ??__EDataMergepluginFactory@SpectralDataMerge@@YAXXZ 100117c0 f   DataMerge.obj
 0001:00010850       ??__E?staticMetaObject@DataMerge@@2UQMetaObject@@B@@YAXXZ 10011850 f   moc_DataMerge.obj
 0001:00010860       ??__E?staticMetaObject@DataMergeGui@@2UQMetaObject@@B@@YAXXZ 10011860 f   moc_DataMergeGui.obj
 0001:00010870       ??__FDataMergepluginFactory@SpectralDataMerge@@YAXXZ 10011870 f   DataMerge.obj
 0001:00010880       ??__FsFactories@?1??factories@SpectralDataMerge@@YAAAV?$vector@U?$pair@V?$basic_string@DU?$char_traits@D@std@@V?$allocator@D@2@@std@@PAVPlugInFactory@@@std@@V?$allocator@U?$pair@V?$basic_string@DU?$char_traits@D@std@@V?$allocator@D@2@@std@@PAVPlugInFactory@@@std@@@2@@std@@XZ@YAXXZ 10011880 f   ModuleManager.obj

 Exports

  ordinal    name

        1    _SpectralDataMergeInstantiatePlugIn
               exported name: SpectralDataMergeInstantiatePlugIn
        2    _opticks_get_module_descriptor
               exported name: opticks_get_module_descriptor
