 DataMerge

 Timestamp is 4c3c63c1 (Tue Jul 13 21:01:53 2010)

 Preferred load address is 10000000

 Start         Length     Name                   Class
 0001:00000000 0000db74H .text                   CODE
 0001:0000db80 0000110aH .text$x                 CODE
 0001:0000ec90 0000009bH .text$yc                CODE
 0001:0000ed30 0000003bH .text$yd                CODE
 0002:00000000 00000198H .idata$5                DATA
 0002:00000198 00000004H .CRT$XCA                DATA
 0002:0000019c 00000008H .CRT$XCU                DATA
 0002:000001a4 00000004H .CRT$XCZ                DATA
 0002:000001a8 00000004H .CRT$XIA                DATA
 0002:000001ac 00000004H .CRT$XIAA               DATA
 0002:000001b0 00000004H .CRT$XIZ                DATA
 0002:000001c0 00001cc8H .rdata                  DATA
 0002:00001e88 00000055H .rdata$debug            DATA
 0002:00001ee0 00000b1cH .rdata$r                DATA
 0002:00002a00 00000194H .rdata$sxdata           DATA
 0002:00002b94 00000004H .rtc$IAA                DATA
 0002:00002b98 00000004H .rtc$IZZ                DATA
 0002:00002b9c 00000004H .rtc$TAA                DATA
 0002:00002ba0 00000004H .rtc$TZZ                DATA
 0002:00002ba8 00001af4H .xdata$x                DATA
 0002:0000469c 00000064H .idata$2                DATA
 0002:00004700 00000014H .idata$3                DATA
 0002:00004714 00000198H .idata$4                DATA
 0002:000048ac 00001060H .idata$6                DATA
 0002:00005910 0000008bH .edata                  DATA
 0003:00000000 000005f0H .data                   DATA
 0003:000005f0 000003d4H .bss                    DATA

  Address         Publics by Value              Rva+Base       Lib:Object

 0000:00000000       __except_list              00000000     <absolute>
 0000:00000065       ___safe_se_handler_count   00000065     <absolute>
 0000:00009876       __fltused                  00009876     <absolute>
 0000:00009876       __ldused                   00009876     <absolute>
 0000:00000000       ___ImageBase               10000000     <linker-defined>
 0001:00000000       ??CDataAccessor@@QAEPAVDataAccessorImpl@@XZ 10001000 f i DataMerge.obj
 0001:00000010       ??0bad_alloc@std@@QAE@PBD@Z 10001010 f i DataMerge.obj
 0001:00000030       ??1bad_alloc@std@@UAE@XZ   10001030 f i DataMerge.obj
 0001:00000040       ??_Ebad_alloc@std@@UAEPAXI@Z 10001040 f i DataMerge.obj
 0001:00000040       ??_Gbad_alloc@std@@UAEPAXI@Z 10001040 f i DataMerge.obj
 0001:00000070       ??2@YAPAXIPAX@Z            10001070 f i DataMerge.obj
 0001:00000080       ??3@YAXPAX0@Z              10001080 f i DataMerge.obj
 0001:00000090       ??0_Iterator_base@std@@QAE@XZ 10001090 f i DataMerge.obj
 0001:000000a0       ??0logic_error@std@@QAE@ABV?$basic_string@DU?$char_traits@D@std@@V?$allocator@D@2@@1@@Z 100010a0 f i DataMerge.obj
 0001:00000100       ??1logic_error@std@@UAE@XZ 10001100 f i DataMerge.obj
 0001:00000120       ?what@logic_error@std@@UBEPBDXZ 10001120 f i DataMerge.obj
 0001:00000130       ??_Elogic_error@std@@UAEPAXI@Z 10001130 f i DataMerge.obj
 0001:00000130       ??_Glogic_error@std@@UAEPAXI@Z 10001130 f i DataMerge.obj
 0001:00000160       ??0length_error@std@@QAE@ABV?$basic_string@DU?$char_traits@D@std@@V?$allocator@D@2@@1@@Z 10001160 f i DataMerge.obj
 0001:00000180       ??1length_error@std@@UAE@XZ 10001180 f i DataMerge.obj
 0001:000001a0       ??_Elength_error@std@@UAEPAXI@Z 100011a0 f i DataMerge.obj
 0001:000001a0       ??_Glength_error@std@@UAEPAXI@Z 100011a0 f i DataMerge.obj
 0001:000001d0       ??0Args@FactoryAllocator@@QAE@PBD@Z 100011d0 f i DataMerge.obj
 0001:000001f0       ?getColumn@DataAccessorImpl@@QAEPAXXZ 100011f0 f i DataMerge.obj
 0001:00000200       ?updateIfNeeded@DataAccessorImpl@@AAEXXZ 10001200 f i DataMerge.obj
 0001:00000290       ??0logic_error@std@@QAE@ABV01@@Z 10001290 f i DataMerge.obj
 0001:000002f0       ??1Args@MessageObject@@QAE@XZ 100012f0 f i DataMerge.obj
 0001:00000370       ??0PlugInFactory@@QAE@XZ   10001370 f i DataMerge.obj
 0001:00000380       ??0DataMerge@@QAE@XZ       10001380 f   DataMerge.obj
 0001:00000570       ??1DataMerge@@UAE@XZ       10001570 f   DataMerge.obj
 0001:000005e0       ?getWidget@DataMerge@@UBEPAVQWidget@@XZ 100015e0 f   DataMerge.obj
 0001:000005f0       ?dialogClosed@DataMerge@@QAEXXZ 100015f0 f   DataMerge.obj
 0001:00000600       ?serialize@DataMerge@@UBE_NAAVSessionItemSerializer@@@Z 10001600 f   DataMerge.obj
 0001:00000620       ??C?$Service@VApplicationServices@@@@QBEPAVApplicationServices@@XZ 10001620 f i DataMerge.obj
 0001:00000630       ??C?$Service@VModelServices@@@@QBEPAVModelServices@@XZ 10001630 f i DataMerge.obj
 0001:00000640       ?get@?$Resource@VDataRequest@@VFactoryObject@@@@QAEPAVDataRequest@@XZ 10001640 f i DataMerge.obj
 0001:00000650       ?release@?$Resource@VDataRequest@@VFactoryObject@@@@QAEPAVDataRequest@@XZ 10001650 f i DataMerge.obj
 0001:00000660       ??0?$EnumWrapper@W4ResultEnum@Message@@@@QAE@ABW4ResultEnum@Message@@@Z 10001660 f i DataMerge.obj
 0001:00000680       ??C?$Service@VSessionManager@@@@QBEPAVSessionManager@@XZ 10001680 f i DataMerge.obj
 0001:00000690       ??C?$Service@VMessageLogMgr@@@@QBEPAVMessageLogMgr@@XZ 10001690 f i DataMerge.obj
 0001:000006a0       ??B?$EnumWrapper@W4EncodingTypeEnum@@@@QBE?AW4EncodingTypeEnum@@XZ 100016a0 f i DataMerge.obj
 0001:000006b0       ?size@?$vector@PAVDataElement@@V?$allocator@PAVDataElement@@@std@@@std@@QBEIXZ 100016b0 f i DataMerge.obj
 0001:000006d0       ??1Args@FactoryAllocator@@QAE@XZ 100016d0 f i DataMerge.obj
 0001:000006e0       ??0Args@MessageObject@@QAE@ABU01@@Z 100016e0 f i DataMerge.obj
 0001:00000780       ?capacity@?$vector@V?$basic_string@DU?$char_traits@D@std@@V?$allocator@D@2@@std@@V?$allocator@V?$basic_string@DU?$char_traits@D@std@@V?$allocator@D@2@@std@@@2@@std@@QBEIXZ 10001780 f i DataMerge.obj
 0001:000007b0       ?size@?$vector@V?$basic_string@DU?$char_traits@D@std@@V?$allocator@D@2@@std@@V?$allocator@V?$basic_string@DU?$char_traits@D@std@@V?$allocator@D@2@@std@@@2@@std@@QBEIXZ 100017b0 f i DataMerge.obj
 0001:000007e0       ??0?$allocator@V?$basic_string@DU?$char_traits@D@std@@V?$allocator@D@2@@std@@@std@@QAE@XZ 100017e0 f i DataMerge.obj
 0001:000007f0       ??0?$allocator@V?$basic_string@DU?$char_traits@D@std@@V?$allocator@D@2@@std@@@std@@QAE@ABV01@@Z 100017f0 f i DataMerge.obj
 0001:00000800       ?deallocate@?$allocator@V?$basic_string@DU?$char_traits@D@std@@V?$allocator@D@2@@std@@@std@@QAEXPAV?$basic_string@DU?$char_traits@D@std@@V?$allocator@D@2@@2@I@Z 10001800 f i DataMerge.obj
 0001:00000810       ?get@?$Resource@VStep@@VMessageObject@@@@QAEPAVStep@@XZ 10001810 f i DataMerge.obj
 0001:00000820       ??D?$_Vector_const_iterator@PAVDataElement@@V?$allocator@PAVDataElement@@@std@@@std@@QBEABQAVDataElement@@XZ 10001820 f i DataMerge.obj
 0001:00000850       ??E?$_Vector_const_iterator@PAVDataElement@@V?$allocator@PAVDataElement@@@std@@@std@@QAEAAV01@XZ 10001850 f i DataMerge.obj
 0001:00000880       ??8?$_Vector_const_iterator@PAVDataElement@@V?$allocator@PAVDataElement@@@std@@@std@@QBE_NABV01@@Z 10001880 f i DataMerge.obj
 0001:000008b0       ??Bsentry@?$basic_ostream@DU?$char_traits@D@std@@@std@@QBE_NXZ 100018b0 f i DataMerge.obj
 0001:000008c0       ??0Args@FactoryAllocator@@QAE@ABV01@@Z 100018c0 f i DataMerge.obj
 0001:000008e0       ?_Xlen@?$vector@V?$basic_string@DU?$char_traits@D@std@@V?$allocator@D@2@@std@@V?$allocator@V?$basic_string@DU?$char_traits@D@std@@V?$allocator@D@2@@std@@@2@@std@@KAXXZ 100018e0 f i DataMerge.obj
 0001:00000960       ??0length_error@std@@QAE@ABV01@@Z 10001960 f i DataMerge.obj
 0001:00000980       ?deallocate@?$allocator@PAVDataElement@@@std@@QAEXPAPAVDataElement@@I@Z 10001980 f i DataMerge.obj
 0001:00000990       ??0_Sentry_base@?$basic_ostream@DU?$char_traits@D@std@@@std@@QAE@AAV12@@Z 10001990 f i DataMerge.obj
 0001:000009c0       ??1_Sentry_base@?$basic_ostream@DU?$char_traits@D@std@@@std@@QAE@XZ 100019c0 f i DataMerge.obj
 0001:000009e0       ??0?$_Ranit@PAVDataElement@@HPBQAV1@ABQAV1@@std@@QAE@XZ 100019e0 f i DataMerge.obj
 0001:000009f0       ??0?$_Ranit@V?$basic_string@DU?$char_traits@D@std@@V?$allocator@D@2@@std@@HPBV12@ABV12@@std@@QAE@XZ 100019f0 f i DataMerge.obj
 0001:00000a00       ?max_size@?$allocator@V?$basic_string@DU?$char_traits@D@std@@V?$allocator@D@2@@std@@@std@@QBEIXZ 10001a00 f i DataMerge.obj
 0001:00000a10       ??G?$_Vector_const_iterator@V?$basic_string@DU?$char_traits@D@std@@V?$allocator@D@2@@std@@V?$allocator@V?$basic_string@DU?$char_traits@D@std@@V?$allocator@D@2@@std@@@2@@std@@QBEHABV01@@Z 10001a10 f i DataMerge.obj
 0001:00000a50       ??Y?$_Vector_const_iterator@V?$basic_string@DU?$char_traits@D@std@@V?$allocator@D@2@@std@@V?$allocator@V?$basic_string@DU?$char_traits@D@std@@V?$allocator@D@2@@std@@@2@@std@@QAEAAV01@H@Z 10001a50 f i DataMerge.obj
 0001:00000aa0       ??$model_cast@PAVRasterElement@@PAVDataElement@@@@YAPAVRasterElement@@PAVDataElement@@@Z 10001aa0 f i DataMerge.obj
 0001:00000b10       ??$_Allocate@V?$basic_string@DU?$char_traits@D@std@@V?$allocator@D@2@@std@@@std@@YAPAV?$basic_string@DU?$char_traits@D@std@@V?$allocator@D@2@@0@IPAV10@@Z 10001b10 f i DataMerge.obj
 0001:00000b80       ??0bad_alloc@std@@QAE@ABV01@@Z 10001b80 f i DataMerge.obj
 0001:00000ba0       ??$_Iter_random@PAV?$basic_string@DU?$char_traits@D@std@@V?$allocator@D@2@@std@@PAV12@@std@@YA?AUrandom_access_iterator_tag@0@ABQAV?$basic_string@DU?$char_traits@D@std@@V?$allocator@D@2@@0@0@Z 10001ba0 f i DataMerge.obj
 0001:00000bb0       ??$_Ptr_cat@PAV?$basic_string@DU?$char_traits@D@std@@V?$allocator@D@2@@std@@PAV12@@std@@YA?AU_Nonscalar_ptr_iterator_tag@0@AAPAV?$basic_string@DU?$char_traits@D@std@@V?$allocator@D@2@@0@0@Z 10001bb0 f i DataMerge.obj
 0001:00000bc0       ??$_Fill@PAV?$basic_string@DU?$char_traits@D@std@@V?$allocator@D@2@@std@@V12@@std@@YAXPAV?$basic_string@DU?$char_traits@D@std@@V?$allocator@D@2@@0@0ABV10@@Z 10001bc0 f i DataMerge.obj
 0001:00000bf0       ??$_Move_cat@PAV?$basic_string@DU?$char_traits@D@std@@V?$allocator@D@2@@std@@@std@@YA?AU_Swap_move_tag@0@ABQAV?$basic_string@DU?$char_traits@D@std@@V?$allocator@D@2@@0@@Z 10001bf0 f i DataMerge.obj
 0001:00000c00       ??$_Ptr_cat@PAPAVDataElement@@PAPAV1@@std@@YA?AU_Scalar_ptr_iterator_tag@0@AAPAPAVDataElement@@0@Z 10001c00 f i DataMerge.obj
 0001:00000c10       ??$_Destroy_range@PAVDataElement@@V?$allocator@PAVDataElement@@@std@@@std@@YAXPAPAVDataElement@@0AAV?$allocator@PAVDataElement@@@0@U_Scalar_ptr_iterator_tag@0@@Z 10001c10 f i DataMerge.obj
 0001:00000c20       ??$_Checked_base@PAV?$basic_string@DU?$char_traits@D@std@@V?$allocator@D@2@@std@@@std@@YAPAV?$basic_string@DU?$char_traits@D@std@@V?$allocator@D@2@@0@AAPAV10@U_Unchanged_checked_iterator_base_type_tag@0@@Z 10001c20 f i DataMerge.obj
 0001:00000c30       ??$_Construct@V?$basic_string@DU?$char_traits@D@std@@V?$allocator@D@2@@std@@V12@@std@@YAXPAV?$basic_string@DU?$char_traits@D@std@@V?$allocator@D@2@@0@ABV10@@Z 10001c30 f i DataMerge.obj
 0001:00000c80       ??_G?$basic_string@DU?$char_traits@D@std@@V?$allocator@D@2@@std@@QAEPAXI@Z 10001c80 f i DataMerge.obj
 0001:00000ca0       ??$swap@DU?$char_traits@D@std@@V?$allocator@D@2@@std@@YAXAAV?$basic_string@DU?$char_traits@D@std@@V?$allocator@D@2@@0@0@Z 10001ca0 f i DataMerge.obj
 0001:00000cb0       ??_EDataMerge@@W7AEPAXI@Z  10001cb0 f i DataMerge.obj
 0001:00000cc0       ??_EDataMerge@@WM@AEPAXI@Z 10001cc0 f i DataMerge.obj
 0001:00000cd0       ??_EDataMerge@@WBA@AEPAXI@Z 10001cd0 f i DataMerge.obj
 0001:00000ce0       ?getFactory@FactoryAllocator@@IBEPAVObjectFactory@@XZ 10001ce0 f i DataMerge.obj
 0001:00000d00       ?obtainResource@FactoryObject@@QBEPAXABVArgs@FactoryAllocator@@@Z 10001d00 f i DataMerge.obj
 0001:00000d90       ?releaseResource@FactoryObject@@QBEXABVArgs@FactoryAllocator@@PAX@Z 10001d90 f i DataMerge.obj
 0001:00000e20       ?toPixel@DataAccessorImpl@@QAEXHH@Z 10001e20 f i DataMerge.obj
 0001:00000e50       ??0Args@MessageObject@@QAE@V?$basic_string@DU?$char_traits@D@std@@V?$allocator@D@2@@std@@0000_N@Z 10001e50 f i DataMerge.obj
 0001:00000fa0       ?obtainResource@MessageObject@@QBEPAVMessage@@ABUArgs@1@@Z 10001fa0 f i DataMerge.obj
 0001:00001010       ?releaseResource@MessageObject@@QBEXABUArgs@1@PAVMessage@@@Z 10002010 f i DataMerge.obj
 0001:00001050       ??_GDataMerge@@UAEPAXI@Z   10002050 f i DataMerge.obj
 0001:00001050       ??_EDataMerge@@UAEPAXI@Z   10002050 f i DataMerge.obj
 0001:00001070       ??0?$Resource@VStep@@VMessageObject@@@@QAE@ABUArgs@MessageObject@@@Z 10002070 f i DataMerge.obj
 0001:000010e0       ??C?$Resource@VStep@@VMessageObject@@@@QAEPAVStep@@XZ 100020e0 f i DataMerge.obj
 0001:000010f0       ??D?$_Vector_iterator@PAVDataElement@@V?$allocator@PAVDataElement@@@std@@@std@@QBEAAPAVDataElement@@XZ 100020f0 f i DataMerge.obj
 0001:00001120       ??E?$_Vector_iterator@PAVDataElement@@V?$allocator@PAVDataElement@@@std@@@std@@QAEAAV01@XZ 10002120 f i DataMerge.obj
 0001:00001150       ??9?$_Vector_const_iterator@PAVDataElement@@V?$allocator@PAVDataElement@@@std@@@std@@QBE_NABV01@@Z 10002150 f i DataMerge.obj
 0001:00001180       ??0?$_Vector_val@V?$basic_string@DU?$char_traits@D@std@@V?$allocator@D@2@@std@@V?$allocator@V?$basic_string@DU?$char_traits@D@std@@V?$allocator@D@2@@std@@@2@@std@@IAE@V?$allocator@V?$basic_string@DU?$char_traits@D@std@@V?$allocator@D@2@@std@@@1@@Z 10002180 f i DataMerge.obj
 0001:00001190       ??0?$Resource@VDataRequest@@VFactoryObject@@@@QAE@ABVArgs@FactoryAllocator@@@Z 10002190 f i DataMerge.obj
 0001:000011f0       ?destroyIfOwned@?$Resource@VDataRequest@@VFactoryObject@@@@IAEXXZ 100021f0 f i DataMerge.obj
 0001:00001220       ?destroyIfOwned@?$Resource@VStep@@VMessageObject@@@@IAEXXZ 10002220 f i DataMerge.obj
 0001:00001270       ??0sentry@?$basic_ostream@DU?$char_traits@D@std@@@std@@QAE@AAV12@@Z 10002270 f i DataMerge.obj
 0001:00001300       ??1sentry@?$basic_ostream@DU?$char_traits@D@std@@@std@@QAE@XZ 10002300 f i DataMerge.obj
 0001:00001370       ?max_size@?$vector@V?$basic_string@DU?$char_traits@D@std@@V?$allocator@D@2@@std@@V?$allocator@V?$basic_string@DU?$char_traits@D@std@@V?$allocator@D@2@@std@@@2@@std@@QBEIXZ 10002370 f i DataMerge.obj
 0001:00001380       ?allocate@?$allocator@V?$basic_string@DU?$char_traits@D@std@@V?$allocator@D@2@@std@@@std@@QAEPAV?$basic_string@DU?$char_traits@D@std@@V?$allocator@D@2@@2@I@Z 10002380 f i DataMerge.obj
 0001:000013a0       ??0?$_Vector_const_iterator@PAVDataElement@@V?$allocator@PAVDataElement@@@std@@@std@@QAE@PAPAVDataElement@@PBU_Container_base@1@@Z 100023a0 f i DataMerge.obj
 0001:000013e0       ??0?$_Vector_const_iterator@V?$basic_string@DU?$char_traits@D@std@@V?$allocator@D@2@@std@@V?$allocator@V?$basic_string@DU?$char_traits@D@std@@V?$allocator@D@2@@std@@@2@@std@@QAE@PAV?$basic_string@DU?$char_traits@D@std@@V?$allocator@D@2@@1@PBU_Container_base@1@@Z 100023e0 f i DataMerge.obj
 0001:00001420       ??0?$_Vector_iterator@V?$basic_string@DU?$char_traits@D@std@@V?$allocator@D@2@@std@@V?$allocator@V?$basic_string@DU?$char_traits@D@std@@V?$allocator@D@2@@std@@@2@@std@@QAE@PAV?$basic_string@DU?$char_traits@D@std@@V?$allocator@D@2@@1@PBU_Container_base@1@@Z 10002420 f i DataMerge.obj
 0001:00001460       ??G?$_Vector_iterator@V?$basic_string@DU?$char_traits@D@std@@V?$allocator@D@2@@std@@V?$allocator@V?$basic_string@DU?$char_traits@D@std@@V?$allocator@D@2@@std@@@2@@std@@QBEHABV?$_Vector_const_iterator@V?$basic_string@DU?$char_traits@D@std@@V?$allocator@D@2@@std@@V?$allocator@V?$basic_string@DU?$char_traits@D@std@@V?$allocator@D@2@@std@@@2@@1@@Z 10002460 f i DataMerge.obj
 0001:000014a0       ??Y?$_Vector_iterator@V?$basic_string@DU?$char_traits@D@std@@V?$allocator@D@2@@std@@V?$allocator@V?$basic_string@DU?$char_traits@D@std@@V?$allocator@D@2@@std@@@2@@std@@QAEAAV01@H@Z 100024a0 f i DataMerge.obj
 0001:000014f0       ??$_Destroy_range@PAVDataElement@@V?$allocator@PAVDataElement@@@std@@@std@@YAXPAPAVDataElement@@0AAV?$allocator@PAVDataElement@@@0@@Z 100024f0 f i DataMerge.obj
 0001:00001500       ??$?6U?$char_traits@D@std@@@std@@YAAAV?$basic_ostream@DU?$char_traits@D@std@@@0@AAV10@PBD@Z 10002500 f i DataMerge.obj
 0001:000016c0       ??$_Checked_base@PAV?$basic_string@DU?$char_traits@D@std@@V?$allocator@D@2@@std@@@std@@YAPAV?$basic_string@DU?$char_traits@D@std@@V?$allocator@D@2@@0@AAPAV10@@Z 100026c0 f i DataMerge.obj
 0001:000016d0       ?construct@?$allocator@V?$basic_string@DU?$char_traits@D@std@@V?$allocator@D@2@@std@@@std@@QAEXPAV?$basic_string@DU?$char_traits@D@std@@V?$allocator@D@2@@2@ABV32@@Z 100026d0 f i DataMerge.obj
 0001:00001720       ??$?6U?$char_traits@D@std@@@std@@YAAAV?$basic_ostream@DU?$char_traits@D@std@@@0@AAV10@D@Z 10002720 f i DataMerge.obj
 0001:000018c0       ??$_Move_backward_opt@PAV?$basic_string@DU?$char_traits@D@std@@V?$allocator@D@2@@std@@PAV12@Uforward_iterator_tag@2@@std@@YAPAV?$basic_string@DU?$char_traits@D@std@@V?$allocator@D@2@@0@PAV10@00Uforward_iterator_tag@0@U_Swap_move_tag@0@U_Range_checked_iterator_tag@0@@Z 100028c0 f i DataMerge.obj
 0001:00001900       ??$_Destroy@V?$basic_string@DU?$char_traits@D@std@@V?$allocator@D@2@@std@@@std@@YAXPAV?$basic_string@DU?$char_traits@D@std@@V?$allocator@D@2@@0@@Z 10002900 f i DataMerge.obj
 0001:00001910       ??1?$Resource@VDataRequest@@VFactoryObject@@@@UAE@XZ 10002910 f i DataMerge.obj
 0001:00001990       ??1?$Resource@VStep@@VMessageObject@@@@UAE@XZ 10002990 f i DataMerge.obj
 0001:000019e0       ??_G?$Resource@VDataRequest@@VFactoryObject@@@@UAEPAXI@Z 100029e0 f i DataMerge.obj
 0001:000019e0       ??_E?$Resource@VDataRequest@@VFactoryObject@@@@UAEPAXI@Z 100029e0 f i DataMerge.obj
 0001:00001a00       ??_E?$Resource@VStep@@VMessageObject@@@@UAEPAXI@Z 10002a00 f i DataMerge.obj
 0001:00001a00       ??_G?$Resource@VStep@@VMessageObject@@@@UAEPAXI@Z 10002a00 f i DataMerge.obj
 0001:00001a20       ?end@?$vector@V?$basic_string@DU?$char_traits@D@std@@V?$allocator@D@2@@std@@V?$allocator@V?$basic_string@DU?$char_traits@D@std@@V?$allocator@D@2@@std@@@2@@std@@QAE?AV?$_Vector_iterator@V?$basic_string@DU?$char_traits@D@std@@V?$allocator@D@2@@std@@V?$allocator@V?$basic_string@DU?$char_traits@D@std@@V?$allocator@D@2@@std@@@2@@2@XZ 10002a20 f i DataMerge.obj
 0001:00001a50       ?_Buy@?$vector@V?$basic_string@DU?$char_traits@D@std@@V?$allocator@D@2@@std@@V?$allocator@V?$basic_string@DU?$char_traits@D@std@@V?$allocator@D@2@@std@@@2@@std@@IAE_NI@Z 10002a50 f i DataMerge.obj
 0001:00001ab0       ??0?$_Vector_iterator@PAVDataElement@@V?$allocator@PAVDataElement@@@std@@@std@@QAE@PAPAVDataElement@@PBU_Container_base@1@@Z 10002ab0 f i DataMerge.obj
 0001:00001af0       ?begin@?$vector@V?$basic_string@DU?$char_traits@D@std@@V?$allocator@D@2@@std@@V?$allocator@V?$basic_string@DU?$char_traits@D@std@@V?$allocator@D@2@@std@@@2@@std@@QAE?AV?$_Vector_iterator@V?$basic_string@DU?$char_traits@D@std@@V?$allocator@D@2@@std@@V?$allocator@V?$basic_string@DU?$char_traits@D@std@@V?$allocator@D@2@@std@@@2@@2@XZ 10002af0 f i DataMerge.obj
 0001:00001b20       ?_Destroy@?$vector@PAVDataElement@@V?$allocator@PAVDataElement@@@std@@@std@@IAEXPAPAVDataElement@@0@Z 10002b20 f i DataMerge.obj
 0001:00001b30       ??H?$_Vector_iterator@V?$basic_string@DU?$char_traits@D@std@@V?$allocator@D@2@@std@@V?$allocator@V?$basic_string@DU?$char_traits@D@std@@V?$allocator@D@2@@std@@@2@@std@@QBE?AV01@H@Z 10002b30 f i DataMerge.obj
 0001:00001b70       ??$mergeElement@G@?A0x41753d5a@@YAXPAGHHVDataAccessor@@H@Z 10002b70 f i DataMerge.obj
 0001:00001cd0       ??$mergeElement@F@?A0x41753d5a@@YAXPAFHHVDataAccessor@@H@Z 10002cd0 f i DataMerge.obj
 0001:00001e30       ??$mergeElement@I@?A0x41753d5a@@YAXPAIHHVDataAccessor@@H@Z 10002e30 f i DataMerge.obj
 0001:00001f80       ??$mergeElement@H@?A0x41753d5a@@YAXPAHHHVDataAccessor@@H@Z 10002f80 f i DataMerge.obj
 0001:000020d0       ??$mergeElement@M@?A0x41753d5a@@YAXPAMHHVDataAccessor@@H@Z 100030d0 f i DataMerge.obj
 0001:00002230       ??$mergeElement@N@?A0x41753d5a@@YAXPANHHVDataAccessor@@H@Z 10003230 f i DataMerge.obj
 0001:00002390       ??$fill@PAV?$basic_string@DU?$char_traits@D@std@@V?$allocator@D@2@@std@@V12@@std@@YAXPAV?$basic_string@DU?$char_traits@D@std@@V?$allocator@D@2@@0@0ABV10@@Z 10003390 f i DataMerge.obj
 0001:000023c0       ??$?6U?$char_traits@D@std@@@std@@YAAAV?$basic_ostream@DU?$char_traits@D@std@@@0@AAV10@E@Z 100033c0 f i DataMerge.obj
 0001:000023d0       ??$?6U?$char_traits@D@std@@@std@@YAAAV?$basic_ostream@DU?$char_traits@D@std@@@0@AAV10@C@Z 100033d0 f i DataMerge.obj
 0001:000023e0       ??$_Move_backward_opt@PAV?$basic_string@DU?$char_traits@D@std@@V?$allocator@D@2@@std@@PAV12@@std@@YAPAV?$basic_string@DU?$char_traits@D@std@@V?$allocator@D@2@@0@PAV10@00Urandom_access_iterator_tag@0@U_Swap_move_tag@0@U_Range_checked_iterator_tag@0@@Z 100033e0 f i DataMerge.obj
 0001:00002440       ?destroy@?$allocator@V?$basic_string@DU?$char_traits@D@std@@V?$allocator@D@2@@std@@@std@@QAEXPAV?$basic_string@DU?$char_traits@D@std@@V?$allocator@D@2@@2@@Z 10003440 f i DataMerge.obj
 0001:00002450       ??$_Uninit_move@PAV?$basic_string@DU?$char_traits@D@std@@V?$allocator@D@2@@std@@PAV12@V?$allocator@V?$basic_string@DU?$char_traits@D@std@@V?$allocator@D@2@@std@@@2@@std@@YAPAV?$basic_string@DU?$char_traits@D@std@@V?$allocator@D@2@@0@PAV10@00AAV?$allocator@V?$basic_string@DU?$char_traits@D@std@@V?$allocator@D@2@@std@@@0@U_Swap_move_tag@0@U_Range_checked_iterator_tag@0@@Z 10003450 f i DataMerge.obj
 0001:00002510       ??1?$FactoryResource@VDataRequest@@@@UAE@XZ 10003510 f i DataMerge.obj
 0001:00002520       ??0StepResource@@QAE@V?$basic_string@DU?$char_traits@D@std@@V?$allocator@D@2@@std@@0000@Z 10003520 f i DataMerge.obj
 0001:000026b0       ??1StepResource@@UAE@XZ    100036b0 f i DataMerge.obj
 0001:000026c0       ??0?$vector@V?$basic_string@DU?$char_traits@D@std@@V?$allocator@D@2@@std@@V?$allocator@V?$basic_string@DU?$char_traits@D@std@@V?$allocator@D@2@@std@@@2@@std@@QAE@XZ 100036c0 f i DataMerge.obj
 0001:000026d0       ??0?$FactoryResource@VDataRequest@@@@QAE@XZ 100036d0 f i DataMerge.obj
 0001:00002740       ?begin@?$vector@PAVDataElement@@V?$allocator@PAVDataElement@@@std@@@std@@QAE?AV?$_Vector_iterator@PAVDataElement@@V?$allocator@PAVDataElement@@@std@@@2@XZ 10003740 f i DataMerge.obj
 0001:00002770       ?end@?$vector@PAVDataElement@@V?$allocator@PAVDataElement@@@std@@@std@@QAE?AV?$_Vector_iterator@PAVDataElement@@V?$allocator@PAVDataElement@@@std@@@2@XZ 10003770 f i DataMerge.obj
 0001:000027a0       ??_G?$FactoryResource@VDataRequest@@@@UAEPAXI@Z 100037a0 f i DataMerge.obj
 0001:000027a0       ??_E?$FactoryResource@VDataRequest@@@@UAEPAXI@Z 100037a0 f i DataMerge.obj
 0001:000027c0       ?_Tidy@?$vector@PAVDataElement@@V?$allocator@PAVDataElement@@@std@@@std@@IAEXXZ 100037c0 f i DataMerge.obj
 0001:000027f0       ??$mergeElement@E@?A0x41753d5a@@YAXPAEHHVDataAccessor@@H@Z 100037f0 f i DataMerge.obj
 0001:00002950       ??$mergeElement@C@?A0x41753d5a@@YAXPACHHVDataAccessor@@H@Z 10003950 f i DataMerge.obj
 0001:00002ab0       ??$_Unchecked_move_backward@PAV?$basic_string@DU?$char_traits@D@std@@V?$allocator@D@2@@std@@PAV12@@stdext@@YAPAV?$basic_string@DU?$char_traits@D@std@@V?$allocator@D@2@@std@@PAV12@00@Z 10003ab0 f i DataMerge.obj
 0001:00002ae0       ??$_Destroy_range@V?$basic_string@DU?$char_traits@D@std@@V?$allocator@D@2@@std@@V?$allocator@V?$basic_string@DU?$char_traits@D@std@@V?$allocator@D@2@@std@@@2@@std@@YAXPAV?$basic_string@DU?$char_traits@D@std@@V?$allocator@D@2@@0@0AAV?$allocator@V?$basic_string@DU?$char_traits@D@std@@V?$allocator@D@2@@std@@@0@U_Nonscalar_ptr_iterator_tag@0@@Z 10003ae0 f i DataMerge.obj
 0001:00002b10       ??$_Uninit_fill_n@PAV?$basic_string@DU?$char_traits@D@std@@V?$allocator@D@2@@std@@IV12@V?$allocator@V?$basic_string@DU?$char_traits@D@std@@V?$allocator@D@2@@std@@@2@@std@@YAXPAV?$basic_string@DU?$char_traits@D@std@@V?$allocator@D@2@@0@IABV10@AAV?$allocator@V?$basic_string@DU?$char_traits@D@std@@V?$allocator@D@2@@std@@@0@U_Nonscalar_ptr_iterator_tag@0@U_Range_checked_iterator_tag@0@@Z 10003b10 f i DataMerge.obj
 0001:00002ba0       ??$_Unchecked_uninitialized_move@PAV?$basic_string@DU?$char_traits@D@std@@V?$allocator@D@2@@std@@PAV12@V?$allocator@V?$basic_string@DU?$char_traits@D@std@@V?$allocator@D@2@@std@@@2@@stdext@@YAPAV?$basic_string@DU?$char_traits@D@std@@V?$allocator@D@2@@std@@PAV12@00AAV?$allocator@V?$basic_string@DU?$char_traits@D@std@@V?$allocator@D@2@@std@@@2@@Z 10003ba0 f i DataMerge.obj
 0001:00002bd0       ??_GStepResource@@UAEPAXI@Z 10003bd0 f i DataMerge.obj
 0001:00002bd0       ??_EStepResource@@UAEPAXI@Z 10003bd0 f i DataMerge.obj
 0001:00002bf0       ??1?$vector@PAVDataElement@@V?$allocator@PAVDataElement@@@std@@@std@@QAE@XZ 10003bf0 f i DataMerge.obj
 0001:00002c20       ??$_Destroy_range@V?$basic_string@DU?$char_traits@D@std@@V?$allocator@D@2@@std@@V?$allocator@V?$basic_string@DU?$char_traits@D@std@@V?$allocator@D@2@@std@@@2@@std@@YAXPAV?$basic_string@DU?$char_traits@D@std@@V?$allocator@D@2@@0@0AAV?$allocator@V?$basic_string@DU?$char_traits@D@std@@V?$allocator@D@2@@std@@@0@@Z 10003c20 f i DataMerge.obj
 0001:00002c50       ??$unchecked_uninitialized_fill_n@PAV?$basic_string@DU?$char_traits@D@std@@V?$allocator@D@2@@std@@IV12@V?$allocator@V?$basic_string@DU?$char_traits@D@std@@V?$allocator@D@2@@std@@@2@@stdext@@YAXPAV?$basic_string@DU?$char_traits@D@std@@V?$allocator@D@2@@std@@IABV12@AAV?$allocator@V?$basic_string@DU?$char_traits@D@std@@V?$allocator@D@2@@std@@@2@@Z 10003c50 f i DataMerge.obj
 0001:00002c80       ??$_Umove@PAV?$basic_string@DU?$char_traits@D@std@@V?$allocator@D@2@@std@@@?$vector@V?$basic_string@DU?$char_traits@D@std@@V?$allocator@D@2@@std@@V?$allocator@V?$basic_string@DU?$char_traits@D@std@@V?$allocator@D@2@@std@@@2@@std@@IAEPAV?$basic_string@DU?$char_traits@D@std@@V?$allocator@D@2@@1@PAV21@00@Z 10003c80 f i DataMerge.obj
 0001:00002cb0       ?showGui@DataMerge@@AAE_NXZ 10003cb0 f   DataMerge.obj
 0001:000032a0       ?execute@DataMerge@@UAE_NPAVPlugInArgList@@0@Z 100042a0 f   DataMerge.obj
 0001:000032b0       ?deserialize@DataMerge@@UAE_NAAVSessionItemDeserializer@@@Z 100042b0 f   DataMerge.obj
 0001:000032c0       ?_Destroy@?$vector@V?$basic_string@DU?$char_traits@D@std@@V?$allocator@D@2@@std@@V?$allocator@V?$basic_string@DU?$char_traits@D@std@@V?$allocator@D@2@@std@@@2@@std@@IAEXPAV?$basic_string@DU?$char_traits@D@std@@V?$allocator@D@2@@2@0@Z 100042c0 f i DataMerge.obj
 0001:000032f0       ?_Tidy@?$vector@V?$basic_string@DU?$char_traits@D@std@@V?$allocator@D@2@@std@@V?$allocator@V?$basic_string@DU?$char_traits@D@std@@V?$allocator@D@2@@std@@@2@@std@@IAEXXZ 100042f0 f i DataMerge.obj
 0001:00003340       ?_Ufill@?$vector@V?$basic_string@DU?$char_traits@D@std@@V?$allocator@D@2@@std@@V?$allocator@V?$basic_string@DU?$char_traits@D@std@@V?$allocator@D@2@@std@@@2@@std@@IAEPAV?$basic_string@DU?$char_traits@D@std@@V?$allocator@D@2@@2@PAV32@IABV32@@Z 10004340 f i DataMerge.obj
 0001:00003380       ?_Insert_n@?$vector@V?$basic_string@DU?$char_traits@D@std@@V?$allocator@D@2@@std@@V?$allocator@V?$basic_string@DU?$char_traits@D@std@@V?$allocator@D@2@@std@@@2@@std@@IAEXV?$_Vector_iterator@V?$basic_string@DU?$char_traits@D@std@@V?$allocator@D@2@@std@@V?$allocator@V?$basic_string@DU?$char_traits@D@std@@V?$allocator@D@2@@std@@@2@@2@IABV?$basic_string@DU?$char_traits@D@std@@V?$allocator@D@2@@2@@Z 10004380 f i DataMerge.obj
 0001:000036a0       ??1?$vector@V?$basic_string@DU?$char_traits@D@std@@V?$allocator@D@2@@std@@V?$allocator@V?$basic_string@DU?$char_traits@D@std@@V?$allocator@D@2@@std@@@2@@std@@QAE@XZ 100046a0 f i DataMerge.obj
 0001:000036b0       ?insert@?$vector@V?$basic_string@DU?$char_traits@D@std@@V?$allocator@D@2@@std@@V?$allocator@V?$basic_string@DU?$char_traits@D@std@@V?$allocator@D@2@@std@@@2@@std@@QAE?AV?$_Vector_iterator@V?$basic_string@DU?$char_traits@D@std@@V?$allocator@D@2@@std@@V?$allocator@V?$basic_string@DU?$char_traits@D@std@@V?$allocator@D@2@@std@@@2@@2@V32@ABV?$basic_string@DU?$char_traits@D@std@@V?$allocator@D@2@@2@@Z 100046b0 f i DataMerge.obj
 0001:00003770       ??1BasicPlugInFactory@@QAE@XZ 10004770 f i DataMerge.obj
 0001:00003780       ??1DataMergePlugInFactory@SpectralDataMerge@@QAE@XZ 10004780 f i DataMerge.obj
 0001:00003790       ?push_back@?$vector@V?$basic_string@DU?$char_traits@D@std@@V?$allocator@D@2@@std@@V?$allocator@V?$basic_string@DU?$char_traits@D@std@@V?$allocator@D@2@@std@@@2@@std@@QAEXABV?$basic_string@DU?$char_traits@D@std@@V?$allocator@D@2@@2@@Z 10004790 f i DataMerge.obj
 0001:00003840       ?addPlugInName@BasicPlugInFactory@@AAEXV?$basic_string@DU?$char_traits@D@std@@V?$allocator@D@2@@std@@@Z 10004840 f i DataMerge.obj
 0001:00003890       ??0BasicPlugInFactory@@QAE@ABV?$basic_string@DU?$char_traits@D@std@@V?$allocator@D@2@@std@@@Z 10004890 f i DataMerge.obj
 0001:00003910       ??$_Ptr_cat@V?$_Vector_const_iterator@V?$basic_string@DU?$char_traits@D@std@@V?$allocator@D@2@@std@@V?$allocator@V?$basic_string@DU?$char_traits@D@std@@V?$allocator@D@2@@std@@@2@@std@@PAV?$basic_string@DU?$char_traits@D@std@@V?$allocator@D@2@@2@@std@@YA?AU_Nonscalar_ptr_iterator_tag@0@AAV?$_Vector_const_iterator@V?$basic_string@DU?$char_traits@D@std@@V?$allocator@D@2@@std@@V?$allocator@V?$basic_string@DU?$char_traits@D@std@@V?$allocator@D@2@@std@@@2@@0@AAPAV?$basic_string@DU?$char_traits@D@std@@V?$allocator@D@2@@0@@Z 10004910 f i DataMerge.obj
 0001:00003920       ?_Checked_iterator_base@?$_Vector_const_iterator@V?$basic_string@DU?$char_traits@D@std@@V?$allocator@D@2@@std@@V?$allocator@V?$basic_string@DU?$char_traits@D@std@@V?$allocator@D@2@@std@@@2@@std@@QBEPBV?$basic_string@DU?$char_traits@D@std@@V?$allocator@D@2@@2@XZ 10004920 f i DataMerge.obj
 0001:00003930       ??$_Checked_base@V?$_Vector_const_iterator@V?$basic_string@DU?$char_traits@D@std@@V?$allocator@D@2@@std@@V?$allocator@V?$basic_string@DU?$char_traits@D@std@@V?$allocator@D@2@@std@@@2@@std@@U_Different_checked_iterator_base_type_tag@2@@std@@YAPBV?$basic_string@DU?$char_traits@D@std@@V?$allocator@D@2@@0@AAV?$_Vector_const_iterator@V?$basic_string@DU?$char_traits@D@std@@V?$allocator@D@2@@std@@V?$allocator@V?$basic_string@DU?$char_traits@D@std@@V?$allocator@D@2@@std@@@2@@0@U_Different_checked_iterator_base_type_tag@0@@Z 10004930 f i DataMerge.obj
 0001:00003940       ?begin@?$vector@V?$basic_string@DU?$char_traits@D@std@@V?$allocator@D@2@@std@@V?$allocator@V?$basic_string@DU?$char_traits@D@std@@V?$allocator@D@2@@std@@@2@@std@@QBE?AV?$_Vector_const_iterator@V?$basic_string@DU?$char_traits@D@std@@V?$allocator@D@2@@std@@V?$allocator@V?$basic_string@DU?$char_traits@D@std@@V?$allocator@D@2@@std@@@2@@2@XZ 10004940 f i DataMerge.obj
 0001:00003970       ?end@?$vector@V?$basic_string@DU?$char_traits@D@std@@V?$allocator@D@2@@std@@V?$allocator@V?$basic_string@DU?$char_traits@D@std@@V?$allocator@D@2@@std@@@2@@std@@QBE?AV?$_Vector_const_iterator@V?$basic_string@DU?$char_traits@D@std@@V?$allocator@D@2@@std@@V?$allocator@V?$basic_string@DU?$char_traits@D@std@@V?$allocator@D@2@@std@@@2@@2@XZ 10004970 f i DataMerge.obj
 0001:000039a0       ??$_Checked_base@V?$_Vector_const_iterator@V?$basic_string@DU?$char_traits@D@std@@V?$allocator@D@2@@std@@V?$allocator@V?$basic_string@DU?$char_traits@D@std@@V?$allocator@D@2@@std@@@2@@std@@@std@@YAPBV?$basic_string@DU?$char_traits@D@std@@V?$allocator@D@2@@0@AAV?$_Vector_const_iterator@V?$basic_string@DU?$char_traits@D@std@@V?$allocator@D@2@@std@@V?$allocator@V?$basic_string@DU?$char_traits@D@std@@V?$allocator@D@2@@std@@@2@@0@@Z 100049a0 f i DataMerge.obj
 0001:000039b0       ??$_Uninit_copy@PBV?$basic_string@DU?$char_traits@D@std@@V?$allocator@D@2@@std@@PAV12@V?$allocator@V?$basic_string@DU?$char_traits@D@std@@V?$allocator@D@2@@std@@@2@@std@@YAPAV?$basic_string@DU?$char_traits@D@std@@V?$allocator@D@2@@0@PBV10@0PAV10@AAV?$allocator@V?$basic_string@DU?$char_traits@D@std@@V?$allocator@D@2@@std@@@0@U_Nonscalar_ptr_iterator_tag@0@U_Range_checked_iterator_tag@0@@Z 100049b0 f i DataMerge.obj
 0001:00003a40       ??$unchecked_uninitialized_copy@V?$_Vector_const_iterator@V?$basic_string@DU?$char_traits@D@std@@V?$allocator@D@2@@std@@V?$allocator@V?$basic_string@DU?$char_traits@D@std@@V?$allocator@D@2@@std@@@2@@std@@PAV?$basic_string@DU?$char_traits@D@std@@V?$allocator@D@2@@2@V?$allocator@V?$basic_string@DU?$char_traits@D@std@@V?$allocator@D@2@@std@@@2@@stdext@@YAPAV?$basic_string@DU?$char_traits@D@std@@V?$allocator@D@2@@std@@V?$_Vector_const_iterator@V?$basic_string@DU?$char_traits@D@std@@V?$allocator@D@2@@std@@V?$allocator@V?$basic_string@DU?$char_traits@D@std@@V?$allocator@D@2@@std@@@2@@2@0PAV12@AAV?$allocator@V?$basic_string@DU?$char_traits@D@std@@V?$allocator@D@2@@std@@@2@@Z 10004a40 f i DataMerge.obj
 0001:00003a70       ??$_Ucopy@V?$_Vector_const_iterator@V?$basic_string@DU?$char_traits@D@std@@V?$allocator@D@2@@std@@V?$allocator@V?$basic_string@DU?$char_traits@D@std@@V?$allocator@D@2@@std@@@2@@std@@@?$vector@V?$basic_string@DU?$char_traits@D@std@@V?$allocator@D@2@@std@@V?$allocator@V?$basic_string@DU?$char_traits@D@std@@V?$allocator@D@2@@std@@@2@@std@@IAEPAV?$basic_string@DU?$char_traits@D@std@@V?$allocator@D@2@@1@V?$_Vector_const_iterator@V?$basic_string@DU?$char_traits@D@std@@V?$allocator@D@2@@std@@V?$allocator@V?$basic_string@DU?$char_traits@D@std@@V?$allocator@D@2@@std@@@2@@1@0PAV21@@Z 10004a70 f i DataMerge.obj
 0001:00003aa0       ??0?$vector@V?$basic_string@DU?$char_traits@D@std@@V?$allocator@D@2@@std@@V?$allocator@V?$basic_string@DU?$char_traits@D@std@@V?$allocator@D@2@@std@@@2@@std@@QAE@ABV01@@Z 10004aa0 f i DataMerge.obj
 0001:00003b70       ?getPlugInNames@BasicPlugInFactory@@UAE?AV?$vector@V?$basic_string@DU?$char_traits@D@std@@V?$allocator@D@2@@std@@V?$allocator@V?$basic_string@DU?$char_traits@D@std@@V?$allocator@D@2@@std@@@2@@std@@XZ 10004b70 f i DataMerge.obj
 0001:00003b90       ??0DataMergePlugInFactory@SpectralDataMerge@@QAE@ABV?$basic_string@DU?$char_traits@D@std@@V?$allocator@D@2@@std@@@Z 10004b90 f i DataMerge.obj
 0001:00003bf0       ?createPlugIn@DataMergePlugInFactory@SpectralDataMerge@@UAEPAVPlugIn@@ABV?$basic_string@DU?$char_traits@D@std@@V?$allocator@D@2@@std@@@Z 10004bf0 f i DataMerge.obj
 0001:00003c60       ??1?$pair@V?$basic_string@DU?$char_traits@D@std@@V?$allocator@D@2@@std@@PAVPlugInFactory@@@std@@QAE@XZ 10004c60 f i ModuleManager.obj
 0001:00003c70       ?setService@ModuleManager@@QAEXPAVExternal@@@Z 10004c70 f i ModuleManager.obj
 0001:00003c80       _opticks_get_module_descriptor 10004c80 f   ModuleManager.obj
 0001:00003c90       ?getTotalPlugIns@ModuleManager@@SAIXZ 10004c90 f   ModuleManager.obj
 0001:00003ca0       ?getPlugIn@ModuleManager@@QAEPAVPlugIn@@I@Z 10004ca0 f   ModuleManager.obj
 0001:00003cb0       ?size@?$vector@U?$pair@V?$basic_string@DU?$char_traits@D@std@@V?$allocator@D@2@@std@@PAVPlugInFactory@@@std@@V?$allocator@U?$pair@V?$basic_string@DU?$char_traits@D@std@@V?$allocator@D@2@@std@@PAVPlugInFactory@@@std@@@2@@std@@QBEIXZ 10004cb0 f i ModuleManager.obj
 0001:00003cd0       ??A?$vector@U?$pair@V?$basic_string@DU?$char_traits@D@std@@V?$allocator@D@2@@std@@PAVPlugInFactory@@@std@@V?$allocator@U?$pair@V?$basic_string@DU?$char_traits@D@std@@V?$allocator@D@2@@std@@PAVPlugInFactory@@@std@@@2@@std@@QAEAAU?$pair@V?$basic_string@DU?$char_traits@D@std@@V?$allocator@D@2@@std@@PAVPlugInFactory@@@1@I@Z 10004cd0 f i ModuleManager.obj
 0001:00003d00       ?capacity@?$vector@U?$pair@V?$basic_string@DU?$char_traits@D@std@@V?$allocator@D@2@@std@@PAVPlugInFactory@@@std@@V?$allocator@U?$pair@V?$basic_string@DU?$char_traits@D@std@@V?$allocator@D@2@@std@@PAVPlugInFactory@@@std@@@2@@std@@QBEIXZ 10004d00 f i ModuleManager.obj
 0001:00003d20       ??0?$allocator@U?$pair@V?$basic_string@DU?$char_traits@D@std@@V?$allocator@D@2@@std@@PAVPlugInFactory@@@std@@@std@@QAE@XZ 10004d20 f i ModuleManager.obj
 0001:00003d30       ??D?$_Vector_const_iterator@V?$basic_string@DU?$char_traits@D@std@@V?$allocator@D@2@@std@@V?$allocator@V?$basic_string@DU?$char_traits@D@std@@V?$allocator@D@2@@std@@@2@@std@@QBEABV?$basic_string@DU?$char_traits@D@std@@V?$allocator@D@2@@1@XZ 10004d30 f i ModuleManager.obj
 0001:00003d60       ??E?$_Vector_const_iterator@V?$basic_string@DU?$char_traits@D@std@@V?$allocator@D@2@@std@@V?$allocator@V?$basic_string@DU?$char_traits@D@std@@V?$allocator@D@2@@std@@@2@@std@@QAEAAV01@XZ 10004d60 f i ModuleManager.obj
 0001:00003d90       ??8?$_Vector_const_iterator@V?$basic_string@DU?$char_traits@D@std@@V?$allocator@D@2@@std@@V?$allocator@V?$basic_string@DU?$char_traits@D@std@@V?$allocator@D@2@@std@@@2@@std@@QBE_NABV01@@Z 10004d90 f i ModuleManager.obj
 0001:00003dc0       ?_Xlen@?$vector@U?$pair@V?$basic_string@DU?$char_traits@D@std@@V?$allocator@D@2@@std@@PAVPlugInFactory@@@std@@V?$allocator@U?$pair@V?$basic_string@DU?$char_traits@D@std@@V?$allocator@D@2@@std@@PAVPlugInFactory@@@std@@@2@@std@@KAXXZ 10004dc0 f i ModuleManager.obj
 0001:00003e40       ??0?$allocator@U?$pair@V?$basic_string@DU?$char_traits@D@std@@V?$allocator@D@2@@std@@PAVPlugInFactory@@@std@@@std@@QAE@ABV01@@Z 10004e40 f i ModuleManager.obj
 0001:00003e50       ?deallocate@?$allocator@U?$pair@V?$basic_string@DU?$char_traits@D@std@@V?$allocator@D@2@@std@@PAVPlugInFactory@@@std@@@std@@QAEXPAU?$pair@V?$basic_string@DU?$char_traits@D@std@@V?$allocator@D@2@@std@@PAVPlugInFactory@@@2@I@Z 10004e50 f i ModuleManager.obj
 0001:00003e60       ??0?$pair@V?$basic_string@DU?$char_traits@D@std@@V?$allocator@D@2@@std@@PAVPlugInFactory@@@std@@QAE@ABU01@@Z 10004e60 f i ModuleManager.obj
 0001:00003e80       ??0?$_Ranit@U?$pair@V?$basic_string@DU?$char_traits@D@std@@V?$allocator@D@2@@std@@PAVPlugInFactory@@@std@@HPBU12@ABU12@@std@@QAE@XZ 10004e80 f i ModuleManager.obj
 0001:00003e90       ?max_size@?$allocator@U?$pair@V?$basic_string@DU?$char_traits@D@std@@V?$allocator@D@2@@std@@PAVPlugInFactory@@@std@@@std@@QBEIXZ 10004e90 f i ModuleManager.obj
 0001:00003ea0       ??G?$_Vector_const_iterator@U?$pair@V?$basic_string@DU?$char_traits@D@std@@V?$allocator@D@2@@std@@PAVPlugInFactory@@@std@@V?$allocator@U?$pair@V?$basic_string@DU?$char_traits@D@std@@V?$allocator@D@2@@std@@PAVPlugInFactory@@@std@@@2@@std@@QBEHABV01@@Z 10004ea0 f i ModuleManager.obj
 0001:00003ed0       ??Y?$_Vector_const_iterator@U?$pair@V?$basic_string@DU?$char_traits@D@std@@V?$allocator@D@2@@std@@PAVPlugInFactory@@@std@@V?$allocator@U?$pair@V?$basic_string@DU?$char_traits@D@std@@V?$allocator@D@2@@std@@PAVPlugInFactory@@@std@@@2@@std@@QAEAAV01@H@Z 10004ed0 f i ModuleManager.obj
 0001:00003f10       ??$_Allocate@U?$pair@V?$basic_string@DU?$char_traits@D@std@@V?$allocator@D@2@@std@@PAVPlugInFactory@@@std@@@std@@YAPAU?$pair@V?$basic_string@DU?$char_traits@D@std@@V?$allocator@D@2@@std@@PAVPlugInFactory@@@0@IPAU10@@Z 10004f10 f i ModuleManager.obj
 0001:00003f70       ??0?$pair@V?$basic_string@DU?$char_traits@D@std@@V?$allocator@D@2@@std@@PAVPlugInFactory@@@std@@QAE@ABV?$basic_string@DU?$char_traits@D@std@@V?$allocator@D@2@@1@ABQAVPlugInFactory@@@Z 10004f70 f i ModuleManager.obj
 0001:00003f90       ??$_Count@PADD@std@@YAHPAD0ABD@Z 10004f90 f i ModuleManager.obj
 0001:00003fc0       ??$_Ptr_cat@PAU?$pair@V?$basic_string@DU?$char_traits@D@std@@V?$allocator@D@2@@std@@PAVPlugInFactory@@@std@@PAU12@@std@@YA?AU_Nonscalar_ptr_iterator_tag@0@AAPAU?$pair@V?$basic_string@DU?$char_traits@D@std@@V?$allocator@D@2@@std@@PAVPlugInFactory@@@0@0@Z 10004fc0 f i ModuleManager.obj
 0001:00003fd0       ??$_Iter_random@PAU?$pair@V?$basic_string@DU?$char_traits@D@std@@V?$allocator@D@2@@std@@PAVPlugInFactory@@@std@@PAU12@@std@@YA?AUrandom_access_iterator_tag@0@ABQAU?$pair@V?$basic_string@DU?$char_traits@D@std@@V?$allocator@D@2@@std@@PAVPlugInFactory@@@0@0@Z 10004fd0 f i ModuleManager.obj
 0001:00003fe0       ??$_Move_cat@PAU?$pair@V?$basic_string@DU?$char_traits@D@std@@V?$allocator@D@2@@std@@PAVPlugInFactory@@@std@@@std@@YA?AU_Undefined_move_tag@0@ABQAU?$pair@V?$basic_string@DU?$char_traits@D@std@@V?$allocator@D@2@@std@@PAVPlugInFactory@@@0@@Z 10004fe0 f i ModuleManager.obj
 0001:00003ff0       ??4?$pair@V?$basic_string@DU?$char_traits@D@std@@V?$allocator@D@2@@std@@PAVPlugInFactory@@@std@@QAEAAU01@ABU01@@Z 10004ff0 f i ModuleManager.obj
 0001:00004010       ??$_Checked_base@PAU?$pair@V?$basic_string@DU?$char_traits@D@std@@V?$allocator@D@2@@std@@PAVPlugInFactory@@@std@@@std@@YAPAU?$pair@V?$basic_string@DU?$char_traits@D@std@@V?$allocator@D@2@@std@@PAVPlugInFactory@@@0@AAPAU10@U_Unchanged_checked_iterator_base_type_tag@0@@Z 10005010 f i ModuleManager.obj
 0001:00004020       ??$_Construct@U?$pair@V?$basic_string@DU?$char_traits@D@std@@V?$allocator@D@2@@std@@PAVPlugInFactory@@@std@@U12@@std@@YAXPAU?$pair@V?$basic_string@DU?$char_traits@D@std@@V?$allocator@D@2@@std@@PAVPlugInFactory@@@0@ABU10@@Z 10005020 f i ModuleManager.obj
 0001:00004080       ??_G?$pair@V?$basic_string@DU?$char_traits@D@std@@V?$allocator@D@2@@std@@PAVPlugInFactory@@@std@@QAEPAXI@Z 10005080 f i ModuleManager.obj
 0001:000040a0       ?_Checked_iterator_base@?$_String_iterator@DU?$char_traits@D@std@@V?$allocator@D@2@@std@@QBEPADXZ 100050a0 f i ModuleManager.obj
 0001:000040b0       ?_Checked_iterator_base@?$_Vector_iterator@U?$pair@V?$basic_string@DU?$char_traits@D@std@@V?$allocator@D@2@@std@@PAVPlugInFactory@@@std@@V?$allocator@U?$pair@V?$basic_string@DU?$char_traits@D@std@@V?$allocator@D@2@@std@@PAVPlugInFactory@@@std@@@2@@std@@QBEPAU?$pair@V?$basic_string@DU?$char_traits@D@std@@V?$allocator@D@2@@std@@PAVPlugInFactory@@@2@XZ 100050b0 f i ModuleManager.obj
 0001:000040c0       ??0?$pair@PAU?$pair@V?$basic_string@DU?$char_traits@D@std@@V?$allocator@D@2@@std@@PAVPlugInFactory@@@std@@PAU12@@std@@QAE@ABQAU?$pair@V?$basic_string@DU?$char_traits@D@std@@V?$allocator@D@2@@std@@PAVPlugInFactory@@@1@0@Z 100050c0 f i ModuleManager.obj
 0001:000040e0       ??$_Dist_type@PAU?$pair@V?$basic_string@DU?$char_traits@D@std@@V?$allocator@D@2@@std@@PAVPlugInFactory@@@std@@@std@@YAPAHPAU?$pair@V?$basic_string@DU?$char_traits@D@std@@V?$allocator@D@2@@std@@PAVPlugInFactory@@@0@@Z 100050e0 f i ModuleManager.obj
 0001:000040f0       ??$_Val_type@PAU?$pair@V?$basic_string@DU?$char_traits@D@std@@V?$allocator@D@2@@std@@PAVPlugInFactory@@@std@@@std@@YAPAU?$pair@V?$basic_string@DU?$char_traits@D@std@@V?$allocator@D@2@@std@@PAVPlugInFactory@@@0@PAU10@@Z 100050f0 f i ModuleManager.obj
 0001:00004100       ??$_Copy_backward_opt@PAU?$pair@V?$basic_string@DU?$char_traits@D@std@@V?$allocator@D@2@@std@@PAVPlugInFactory@@@std@@PAU12@Uforward_iterator_tag@2@@std@@YAPAU?$pair@V?$basic_string@DU?$char_traits@D@std@@V?$allocator@D@2@@std@@PAVPlugInFactory@@@0@PAU10@00Uforward_iterator_tag@0@U_Nonscalar_ptr_iterator_tag@0@U_Range_checked_iterator_tag@0@@Z 10005100 f i ModuleManager.obj
 0001:00004140       ??$_Iter_cat@PAU?$pair@V?$basic_string@DU?$char_traits@D@std@@V?$allocator@D@2@@std@@PAVPlugInFactory@@@std@@@std@@YA?AUrandom_access_iterator_tag@0@ABQAU?$pair@V?$basic_string@DU?$char_traits@D@std@@V?$allocator@D@2@@std@@PAVPlugInFactory@@@0@@Z 10005140 f i ModuleManager.obj
 0001:00004150       ??$_Rotate@PAU?$pair@V?$basic_string@DU?$char_traits@D@std@@V?$allocator@D@2@@std@@PAVPlugInFactory@@@std@@HU12@@std@@YAXPAU?$pair@V?$basic_string@DU?$char_traits@D@std@@V?$allocator@D@2@@std@@PAVPlugInFactory@@@0@00PAH0@Z 10005150 f i ModuleManager.obj
 0001:00004290       ??$swap@PAVPlugInFactory@@@std@@YAXAAPAVPlugInFactory@@0@Z 10005290 f i ModuleManager.obj
 0001:000042b0       ??D?$_Vector_iterator@V?$basic_string@DU?$char_traits@D@std@@V?$allocator@D@2@@std@@V?$allocator@V?$basic_string@DU?$char_traits@D@std@@V?$allocator@D@2@@std@@@2@@std@@QBEAAV?$basic_string@DU?$char_traits@D@std@@V?$allocator@D@2@@1@XZ 100052b0 f i ModuleManager.obj
 0001:000042e0       ??E?$_Vector_iterator@V?$basic_string@DU?$char_traits@D@std@@V?$allocator@D@2@@std@@V?$allocator@V?$basic_string@DU?$char_traits@D@std@@V?$allocator@D@2@@std@@@2@@std@@QAEAAV01@XZ 100052e0 f i ModuleManager.obj
 0001:00004310       ??9?$_Vector_const_iterator@V?$basic_string@DU?$char_traits@D@std@@V?$allocator@D@2@@std@@V?$allocator@V?$basic_string@DU?$char_traits@D@std@@V?$allocator@D@2@@std@@@2@@std@@QBE_NABV01@@Z 10005310 f i ModuleManager.obj
 0001:00004340       ??0?$_Vector_val@U?$pair@V?$basic_string@DU?$char_traits@D@std@@V?$allocator@D@2@@std@@PAVPlugInFactory@@@std@@V?$allocator@U?$pair@V?$basic_string@DU?$char_traits@D@std@@V?$allocator@D@2@@std@@PAVPlugInFactory@@@std@@@2@@std@@IAE@V?$allocator@U?$pair@V?$basic_string@DU?$char_traits@D@std@@V?$allocator@D@2@@std@@PAVPlugInFactory@@@std@@@1@@Z 10005340 f i ModuleManager.obj
 0001:00004350       ?max_size@?$vector@U?$pair@V?$basic_string@DU?$char_traits@D@std@@V?$allocator@D@2@@std@@PAVPlugInFactory@@@std@@V?$allocator@U?$pair@V?$basic_string@DU?$char_traits@D@std@@V?$allocator@D@2@@std@@PAVPlugInFactory@@@std@@@2@@std@@QBEIXZ 10005350 f i ModuleManager.obj
 0001:00004360       ?allocate@?$allocator@U?$pair@V?$basic_string@DU?$char_traits@D@std@@V?$allocator@D@2@@std@@PAVPlugInFactory@@@std@@@std@@QAEPAU?$pair@V?$basic_string@DU?$char_traits@D@std@@V?$allocator@D@2@@std@@PAVPlugInFactory@@@2@I@Z 10005360 f i ModuleManager.obj
 0001:00004380       ??G?$_Vector_iterator@U?$pair@V?$basic_string@DU?$char_traits@D@std@@V?$allocator@D@2@@std@@PAVPlugInFactory@@@std@@V?$allocator@U?$pair@V?$basic_string@DU?$char_traits@D@std@@V?$allocator@D@2@@std@@PAVPlugInFactory@@@std@@@2@@std@@QBEHABV?$_Vector_const_iterator@U?$pair@V?$basic_string@DU?$char_traits@D@std@@V?$allocator@D@2@@std@@PAVPlugInFactory@@@std@@V?$allocator@U?$pair@V?$basic_string@DU?$char_traits@D@std@@V?$allocator@D@2@@std@@PAVPlugInFactory@@@std@@@2@@1@@Z 10005380 f i ModuleManager.obj
 0001:000043b0       ??0?$_Vector_const_iterator@U?$pair@V?$basic_string@DU?$char_traits@D@std@@V?$allocator@D@2@@std@@PAVPlugInFactory@@@std@@V?$allocator@U?$pair@V?$basic_string@DU?$char_traits@D@std@@V?$allocator@D@2@@std@@PAVPlugInFactory@@@std@@@2@@std@@QAE@PAU?$pair@V?$basic_string@DU?$char_traits@D@std@@V?$allocator@D@2@@std@@PAVPlugInFactory@@@1@PBU_Container_base@1@@Z 100053b0 f i ModuleManager.obj
 0001:000043f0       ??Y?$_Vector_iterator@U?$pair@V?$basic_string@DU?$char_traits@D@std@@V?$allocator@D@2@@std@@PAVPlugInFactory@@@std@@V?$allocator@U?$pair@V?$basic_string@DU?$char_traits@D@std@@V?$allocator@D@2@@std@@PAVPlugInFactory@@@std@@@2@@std@@QAEAAV01@H@Z 100053f0 f i ModuleManager.obj
 0001:00004430       ??$make_pair@V?$basic_string@DU?$char_traits@D@std@@V?$allocator@D@2@@std@@PAVPlugInFactory@@@std@@YA?AU?$pair@V?$basic_string@DU?$char_traits@D@std@@V?$allocator@D@2@@std@@PAVPlugInFactory@@@0@V?$basic_string@DU?$char_traits@D@std@@V?$allocator@D@2@@0@PAVPlugInFactory@@@Z 10005430 f i ModuleManager.obj
 0001:000044a0       ??$_Checked_base@PAU?$pair@V?$basic_string@DU?$char_traits@D@std@@V?$allocator@D@2@@std@@PAVPlugInFactory@@@std@@@std@@YAPAU?$pair@V?$basic_string@DU?$char_traits@D@std@@V?$allocator@D@2@@std@@PAVPlugInFactory@@@0@AAPAU10@@Z 100054a0 f i ModuleManager.obj
 0001:000044b0       ??$_Fill@PAU?$pair@V?$basic_string@DU?$char_traits@D@std@@V?$allocator@D@2@@std@@PAVPlugInFactory@@@std@@U12@@std@@YAXPAU?$pair@V?$basic_string@DU?$char_traits@D@std@@V?$allocator@D@2@@std@@PAVPlugInFactory@@@0@0ABU10@@Z 100054b0 f i ModuleManager.obj
 0001:000044e0       ?construct@?$allocator@U?$pair@V?$basic_string@DU?$char_traits@D@std@@V?$allocator@D@2@@std@@PAVPlugInFactory@@@std@@@std@@QAEXPAU?$pair@V?$basic_string@DU?$char_traits@D@std@@V?$allocator@D@2@@std@@PAVPlugInFactory@@@2@ABU32@@Z 100054e0 f i ModuleManager.obj
 0001:00004500       ??$_Checked_base@V?$_String_iterator@DU?$char_traits@D@std@@V?$allocator@D@2@@std@@U_Different_checked_iterator_base_type_tag@2@@std@@YAPADAAV?$_String_iterator@DU?$char_traits@D@std@@V?$allocator@D@2@@0@U_Different_checked_iterator_base_type_tag@0@@Z 10005500 f i ModuleManager.obj
 0001:00004510       ??$_Checked_base@V?$_Vector_iterator@U?$pair@V?$basic_string@DU?$char_traits@D@std@@V?$allocator@D@2@@std@@PAVPlugInFactory@@@std@@V?$allocator@U?$pair@V?$basic_string@DU?$char_traits@D@std@@V?$allocator@D@2@@std@@PAVPlugInFactory@@@std@@@2@@std@@U_Different_checked_iterator_base_type_tag@2@@std@@YAPAU?$pair@V?$basic_string@DU?$char_traits@D@std@@V?$allocator@D@2@@std@@PAVPlugInFactory@@@0@AAV?$_Vector_iterator@U?$pair@V?$basic_string@DU?$char_traits@D@std@@V?$allocator@D@2@@std@@PAVPlugInFactory@@@std@@V?$allocator@U?$pair@V?$basic_string@DU?$char_traits@D@std@@V?$allocator@D@2@@std@@PAVPlugInFactory@@@std@@@2@@0@U_Different_checked_iterator_base_type_tag@0@@Z 10005510 f i ModuleManager.obj
 0001:00004520       ??$_Copy_backward_opt@PAU?$pair@V?$basic_string@DU?$char_traits@D@std@@V?$allocator@D@2@@std@@PAVPlugInFactory@@@std@@PAU12@@std@@YAPAU?$pair@V?$basic_string@DU?$char_traits@D@std@@V?$allocator@D@2@@std@@PAVPlugInFactory@@@0@PAU10@00Urandom_access_iterator_tag@0@U_Nonscalar_ptr_iterator_tag@0@U_Range_checked_iterator_tag@0@@Z 10005520 f i ModuleManager.obj
 0001:00004570       ??$_Destroy@U?$pair@V?$basic_string@DU?$char_traits@D@std@@V?$allocator@D@2@@std@@PAVPlugInFactory@@@std@@@std@@YAXPAU?$pair@V?$basic_string@DU?$char_traits@D@std@@V?$allocator@D@2@@std@@PAVPlugInFactory@@@0@@Z 10005570 f i ModuleManager.obj
 0001:00004580       ??$_Rotate@PAU?$pair@V?$basic_string@DU?$char_traits@D@std@@V?$allocator@D@2@@std@@PAVPlugInFactory@@@std@@@std@@YAXPAU?$pair@V?$basic_string@DU?$char_traits@D@std@@V?$allocator@D@2@@std@@PAVPlugInFactory@@@0@00Urandom_access_iterator_tag@0@@Z 10005580 f i ModuleManager.obj
 0001:000045a0       ?swap@?$pair@V?$basic_string@DU?$char_traits@D@std@@V?$allocator@D@2@@std@@PAVPlugInFactory@@@std@@QAEXAAU12@@Z 100055a0 f i ModuleManager.obj
 0001:000045c0       ?_Buy@?$vector@U?$pair@V?$basic_string@DU?$char_traits@D@std@@V?$allocator@D@2@@std@@PAVPlugInFactory@@@std@@V?$allocator@U?$pair@V?$basic_string@DU?$char_traits@D@std@@V?$allocator@D@2@@std@@PAVPlugInFactory@@@std@@@2@@std@@IAE_NI@Z 100055c0 f i ModuleManager.obj
 0001:00004610       ??0?$_Vector_iterator@U?$pair@V?$basic_string@DU?$char_traits@D@std@@V?$allocator@D@2@@std@@PAVPlugInFactory@@@std@@V?$allocator@U?$pair@V?$basic_string@DU?$char_traits@D@std@@V?$allocator@D@2@@std@@PAVPlugInFactory@@@std@@@2@@std@@QAE@PAU?$pair@V?$basic_string@DU?$char_traits@D@std@@V?$allocator@D@2@@std@@PAVPlugInFactory@@@1@PBU_Container_base@1@@Z 10005610 f i ModuleManager.obj
 0001:00004650       ??H?$_Vector_iterator@U?$pair@V?$basic_string@DU?$char_traits@D@std@@V?$allocator@D@2@@std@@PAVPlugInFactory@@@std@@V?$allocator@U?$pair@V?$basic_string@DU?$char_traits@D@std@@V?$allocator@D@2@@std@@PAVPlugInFactory@@@std@@@2@@std@@QBE?AV01@H@Z 10005650 f i ModuleManager.obj
 0001:00004690       ??$fill@PAU?$pair@V?$basic_string@DU?$char_traits@D@std@@V?$allocator@D@2@@std@@PAVPlugInFactory@@@std@@U12@@std@@YAXPAU?$pair@V?$basic_string@DU?$char_traits@D@std@@V?$allocator@D@2@@std@@PAVPlugInFactory@@@0@0ABU10@@Z 10005690 f i ModuleManager.obj
 0001:000046c0       ??$_Checked_base@V?$_String_iterator@DU?$char_traits@D@std@@V?$allocator@D@2@@std@@@std@@YAPADAAV?$_String_iterator@DU?$char_traits@D@std@@V?$allocator@D@2@@0@@Z 100056c0 f i ModuleManager.obj
 0001:000046d0       ??$_Checked_base@V?$_Vector_iterator@U?$pair@V?$basic_string@DU?$char_traits@D@std@@V?$allocator@D@2@@std@@PAVPlugInFactory@@@std@@V?$allocator@U?$pair@V?$basic_string@DU?$char_traits@D@std@@V?$allocator@D@2@@std@@PAVPlugInFactory@@@std@@@2@@std@@@std@@YAPAU?$pair@V?$basic_string@DU?$char_traits@D@std@@V?$allocator@D@2@@std@@PAVPlugInFactory@@@0@AAV?$_Vector_iterator@U?$pair@V?$basic_string@DU?$char_traits@D@std@@V?$allocator@D@2@@std@@PAVPlugInFactory@@@std@@V?$allocator@U?$pair@V?$basic_string@DU?$char_traits@D@std@@V?$allocator@D@2@@std@@PAVPlugInFactory@@@std@@@2@@0@@Z 100056d0 f i ModuleManager.obj
 0001:000046e0       ??$_Move_backward_opt@PAU?$pair@V?$basic_string@DU?$char_traits@D@std@@V?$allocator@D@2@@std@@PAVPlugInFactory@@@std@@PAU12@Urandom_access_iterator_tag@2@U_Undefined_move_tag@2@@std@@YAPAU?$pair@V?$basic_string@DU?$char_traits@D@std@@V?$allocator@D@2@@std@@PAVPlugInFactory@@@0@PAU10@00Urandom_access_iterator_tag@0@U_Undefined_move_tag@0@U_Range_checked_iterator_tag@0@@Z 100056e0 f i ModuleManager.obj
 0001:00004730       ?destroy@?$allocator@U?$pair@V?$basic_string@DU?$char_traits@D@std@@V?$allocator@D@2@@std@@PAVPlugInFactory@@@std@@@std@@QAEXPAU?$pair@V?$basic_string@DU?$char_traits@D@std@@V?$allocator@D@2@@std@@PAVPlugInFactory@@@2@@Z 10005730 f i ModuleManager.obj
 0001:00004740       ??$rotate@PAU?$pair@V?$basic_string@DU?$char_traits@D@std@@V?$allocator@D@2@@std@@PAVPlugInFactory@@@std@@@std@@YAXPAU?$pair@V?$basic_string@DU?$char_traits@D@std@@V?$allocator@D@2@@std@@PAVPlugInFactory@@@0@00@Z 10005740 f i ModuleManager.obj
 0001:00004770       ??$swap@V?$basic_string@DU?$char_traits@D@std@@V?$allocator@D@2@@std@@PAVPlugInFactory@@@std@@YAXAAU?$pair@V?$basic_string@DU?$char_traits@D@std@@V?$allocator@D@2@@std@@PAVPlugInFactory@@@0@0@Z 10005770 f i ModuleManager.obj
 0001:000047a0       ??$_Uninit_copy@PAU?$pair@V?$basic_string@DU?$char_traits@D@std@@V?$allocator@D@2@@std@@PAVPlugInFactory@@@std@@PAU12@V?$allocator@U?$pair@V?$basic_string@DU?$char_traits@D@std@@V?$allocator@D@2@@std@@PAVPlugInFactory@@@std@@@2@@std@@YAPAU?$pair@V?$basic_string@DU?$char_traits@D@std@@V?$allocator@D@2@@std@@PAVPlugInFactory@@@0@PAU10@00AAV?$allocator@U?$pair@V?$basic_string@DU?$char_traits@D@std@@V?$allocator@D@2@@std@@PAVPlugInFactory@@@std@@@0@U_Nonscalar_ptr_iterator_tag@0@U_Range_checked_iterator_tag@0@@Z 100057a0 f i ModuleManager.obj
 0001:00004840       ??0?$vector@U?$pair@V?$basic_string@DU?$char_traits@D@std@@V?$allocator@D@2@@std@@PAVPlugInFactory@@@std@@V?$allocator@U?$pair@V?$basic_string@DU?$char_traits@D@std@@V?$allocator@D@2@@std@@PAVPlugInFactory@@@std@@@2@@std@@QAE@XZ 10005840 f i ModuleManager.obj
 0001:00004850       ?begin@?$vector@U?$pair@V?$basic_string@DU?$char_traits@D@std@@V?$allocator@D@2@@std@@PAVPlugInFactory@@@std@@V?$allocator@U?$pair@V?$basic_string@DU?$char_traits@D@std@@V?$allocator@D@2@@std@@PAVPlugInFactory@@@std@@@2@@std@@QAE?AV?$_Vector_iterator@U?$pair@V?$basic_string@DU?$char_traits@D@std@@V?$allocator@D@2@@std@@PAVPlugInFactory@@@std@@V?$allocator@U?$pair@V?$basic_string@DU?$char_traits@D@std@@V?$allocator@D@2@@std@@PAVPlugInFactory@@@std@@@2@@2@XZ 10005850 f i ModuleManager.obj
 0001:00004880       ?end@?$vector@U?$pair@V?$basic_string@DU?$char_traits@D@std@@V?$allocator@D@2@@std@@PAVPlugInFactory@@@std@@V?$allocator@U?$pair@V?$basic_string@DU?$char_traits@D@std@@V?$allocator@D@2@@std@@PAVPlugInFactory@@@std@@@2@@std@@QAE?AV?$_Vector_iterator@U?$pair@V?$basic_string@DU?$char_traits@D@std@@V?$allocator@D@2@@std@@PAVPlugInFactory@@@std@@V?$allocator@U?$pair@V?$basic_string@DU?$char_traits@D@std@@V?$allocator@D@2@@std@@PAVPlugInFactory@@@std@@@2@@2@XZ 10005880 f i ModuleManager.obj
 0001:000048b0       ??$count@V?$_String_iterator@DU?$char_traits@D@std@@V?$allocator@D@2@@std@@D@std@@YAHV?$_String_iterator@DU?$char_traits@D@std@@V?$allocator@D@2@@0@0ABD@Z 100058b0 f i ModuleManager.obj
 0001:000048e0       ??$_Unchecked_move_backward@PAU?$pair@V?$basic_string@DU?$char_traits@D@std@@V?$allocator@D@2@@std@@PAVPlugInFactory@@@std@@PAU12@@stdext@@YAPAU?$pair@V?$basic_string@DU?$char_traits@D@std@@V?$allocator@D@2@@std@@PAVPlugInFactory@@@std@@PAU12@00@Z 100058e0 f i ModuleManager.obj
 0001:00004930       ??$_Uninit_fill_n@PAU?$pair@V?$basic_string@DU?$char_traits@D@std@@V?$allocator@D@2@@std@@PAVPlugInFactory@@@std@@IU12@V?$allocator@U?$pair@V?$basic_string@DU?$char_traits@D@std@@V?$allocator@D@2@@std@@PAVPlugInFactory@@@std@@@2@@std@@YAXPAU?$pair@V?$basic_string@DU?$char_traits@D@std@@V?$allocator@D@2@@std@@PAVPlugInFactory@@@0@IABU10@AAV?$allocator@U?$pair@V?$basic_string@DU?$char_traits@D@std@@V?$allocator@D@2@@std@@PAVPlugInFactory@@@std@@@0@U_Nonscalar_ptr_iterator_tag@0@U_Range_checked_iterator_tag@0@@Z 10005930 f i ModuleManager.obj
 0001:000049d0       ??$_Destroy_range@U?$pair@V?$basic_string@DU?$char_traits@D@std@@V?$allocator@D@2@@std@@PAVPlugInFactory@@@std@@V?$allocator@U?$pair@V?$basic_string@DU?$char_traits@D@std@@V?$allocator@D@2@@std@@PAVPlugInFactory@@@std@@@2@@std@@YAXPAU?$pair@V?$basic_string@DU?$char_traits@D@std@@V?$allocator@D@2@@std@@PAVPlugInFactory@@@0@0AAV?$allocator@U?$pair@V?$basic_string@DU?$char_traits@D@std@@V?$allocator@D@2@@std@@PAVPlugInFactory@@@std@@@0@U_Nonscalar_ptr_iterator_tag@0@@Z 100059d0 f i ModuleManager.obj
 0001:00004a00       ??$iter_swap@PAU?$pair@V?$basic_string@DU?$char_traits@D@std@@V?$allocator@D@2@@std@@PAVPlugInFactory@@@std@@PAU12@@std@@YAXPAU?$pair@V?$basic_string@DU?$char_traits@D@std@@V?$allocator@D@2@@std@@PAVPlugInFactory@@@0@0@Z 10005a00 f i ModuleManager.obj
 0001:00004a30       ??$unchecked_uninitialized_copy@PAU?$pair@V?$basic_string@DU?$char_traits@D@std@@V?$allocator@D@2@@std@@PAVPlugInFactory@@@std@@PAU12@V?$allocator@U?$pair@V?$basic_string@DU?$char_traits@D@std@@V?$allocator@D@2@@std@@PAVPlugInFactory@@@std@@@2@@stdext@@YAPAU?$pair@V?$basic_string@DU?$char_traits@D@std@@V?$allocator@D@2@@std@@PAVPlugInFactory@@@std@@PAU12@00AAV?$allocator@U?$pair@V?$basic_string@DU?$char_traits@D@std@@V?$allocator@D@2@@std@@PAVPlugInFactory@@@std@@@2@@Z 10005a30 f i ModuleManager.obj
 0001:00004a60       ??RFactoryPtrComparator@@QAE_NU?$pair@V?$basic_string@DU?$char_traits@D@std@@V?$allocator@D@2@@std@@PAVPlugInFactory@@@std@@0@Z 10005a60 f i ModuleManager.obj
 0001:00004bb0       ??$unchecked_uninitialized_fill_n@PAU?$pair@V?$basic_string@DU?$char_traits@D@std@@V?$allocator@D@2@@std@@PAVPlugInFactory@@@std@@IU12@V?$allocator@U?$pair@V?$basic_string@DU?$char_traits@D@std@@V?$allocator@D@2@@std@@PAVPlugInFactory@@@std@@@2@@stdext@@YAXPAU?$pair@V?$basic_string@DU?$char_traits@D@std@@V?$allocator@D@2@@std@@PAVPlugInFactory@@@std@@IABU12@AAV?$allocator@U?$pair@V?$basic_string@DU?$char_traits@D@std@@V?$allocator@D@2@@std@@PAVPlugInFactory@@@std@@@2@@Z 10005bb0 f i ModuleManager.obj
 0001:00004be0       ??$_Destroy_range@U?$pair@V?$basic_string@DU?$char_traits@D@std@@V?$allocator@D@2@@std@@PAVPlugInFactory@@@std@@V?$allocator@U?$pair@V?$basic_string@DU?$char_traits@D@std@@V?$allocator@D@2@@std@@PAVPlugInFactory@@@std@@@2@@std@@YAXPAU?$pair@V?$basic_string@DU?$char_traits@D@std@@V?$allocator@D@2@@std@@PAVPlugInFactory@@@0@0AAV?$allocator@U?$pair@V?$basic_string@DU?$char_traits@D@std@@V?$allocator@D@2@@std@@PAVPlugInFactory@@@std@@@0@@Z 10005be0 f i ModuleManager.obj
 0001:00004c10       ??$_Insertion_sort@PAU?$pair@V?$basic_string@DU?$char_traits@D@std@@V?$allocator@D@2@@std@@PAVPlugInFactory@@@std@@UFactoryPtrComparator@@@std@@YAXPAU?$pair@V?$basic_string@DU?$char_traits@D@std@@V?$allocator@D@2@@std@@PAVPlugInFactory@@@0@0UFactoryPtrComparator@@@Z 10005c10 f i ModuleManager.obj
 0001:00004d60       ??$_Uninit_move@PAU?$pair@V?$basic_string@DU?$char_traits@D@std@@V?$allocator@D@2@@std@@PAVPlugInFactory@@@std@@PAU12@V?$allocator@U?$pair@V?$basic_string@DU?$char_traits@D@std@@V?$allocator@D@2@@std@@PAVPlugInFactory@@@std@@@2@U_Undefined_move_tag@2@@std@@YAPAU?$pair@V?$basic_string@DU?$char_traits@D@std@@V?$allocator@D@2@@std@@PAVPlugInFactory@@@0@PAU10@00AAV?$allocator@U?$pair@V?$basic_string@DU?$char_traits@D@std@@V?$allocator@D@2@@std@@PAVPlugInFactory@@@std@@@0@U_Undefined_move_tag@0@U_Range_checked_iterator_tag@0@@Z 10005d60 f i ModuleManager.obj
 0001:00004d80       ??$_Med3@PAU?$pair@V?$basic_string@DU?$char_traits@D@std@@V?$allocator@D@2@@std@@PAVPlugInFactory@@@std@@UFactoryPtrComparator@@@std@@YAXPAU?$pair@V?$basic_string@DU?$char_traits@D@std@@V?$allocator@D@2@@std@@PAVPlugInFactory@@@0@00UFactoryPtrComparator@@@Z 10005d80 f i ModuleManager.obj
 0001:00004ee0       ??$_Push_heap@PAU?$pair@V?$basic_string@DU?$char_traits@D@std@@V?$allocator@D@2@@std@@PAVPlugInFactory@@@std@@HU12@UFactoryPtrComparator@@@std@@YAXPAU?$pair@V?$basic_string@DU?$char_traits@D@std@@V?$allocator@D@2@@std@@PAVPlugInFactory@@@0@HHU10@UFactoryPtrComparator@@@Z 10005ee0 f i ModuleManager.obj
 0001:00004ff0       ?_Ufill@?$vector@U?$pair@V?$basic_string@DU?$char_traits@D@std@@V?$allocator@D@2@@std@@PAVPlugInFactory@@@std@@V?$allocator@U?$pair@V?$basic_string@DU?$char_traits@D@std@@V?$allocator@D@2@@std@@PAVPlugInFactory@@@std@@@2@@std@@IAEPAU?$pair@V?$basic_string@DU?$char_traits@D@std@@V?$allocator@D@2@@std@@PAVPlugInFactory@@@2@PAU32@IABU32@@Z 10005ff0 f i ModuleManager.obj
 0001:00005030       ?_Destroy@?$vector@U?$pair@V?$basic_string@DU?$char_traits@D@std@@V?$allocator@D@2@@std@@PAVPlugInFactory@@@std@@V?$allocator@U?$pair@V?$basic_string@DU?$char_traits@D@std@@V?$allocator@D@2@@std@@PAVPlugInFactory@@@std@@@2@@std@@IAEXPAU?$pair@V?$basic_string@DU?$char_traits@D@std@@V?$allocator@D@2@@std@@PAVPlugInFactory@@@2@0@Z 10006030 f i ModuleManager.obj
 0001:00005060       ??$_Unchecked_uninitialized_move@PAU?$pair@V?$basic_string@DU?$char_traits@D@std@@V?$allocator@D@2@@std@@PAVPlugInFactory@@@std@@PAU12@V?$allocator@U?$pair@V?$basic_string@DU?$char_traits@D@std@@V?$allocator@D@2@@std@@PAVPlugInFactory@@@std@@@2@@stdext@@YAPAU?$pair@V?$basic_string@DU?$char_traits@D@std@@V?$allocator@D@2@@std@@PAVPlugInFactory@@@std@@PAU12@00AAV?$allocator@U?$pair@V?$basic_string@DU?$char_traits@D@std@@V?$allocator@D@2@@std@@PAVPlugInFactory@@@std@@@2@@Z 10006060 f i ModuleManager.obj
 0001:00005090       ??$_Median@PAU?$pair@V?$basic_string@DU?$char_traits@D@std@@V?$allocator@D@2@@std@@PAVPlugInFactory@@@std@@UFactoryPtrComparator@@@std@@YAXPAU?$pair@V?$basic_string@DU?$char_traits@D@std@@V?$allocator@D@2@@std@@PAVPlugInFactory@@@0@00UFactoryPtrComparator@@@Z 10006090 f i ModuleManager.obj
 0001:00005140       ??$_Adjust_heap@PAU?$pair@V?$basic_string@DU?$char_traits@D@std@@V?$allocator@D@2@@std@@PAVPlugInFactory@@@std@@HU12@UFactoryPtrComparator@@@std@@YAXPAU?$pair@V?$basic_string@DU?$char_traits@D@std@@V?$allocator@D@2@@std@@PAVPlugInFactory@@@0@HHU10@UFactoryPtrComparator@@@Z 10006140 f i ModuleManager.obj
 0001:000052b0       ??$_Pop_heap@PAU?$pair@V?$basic_string@DU?$char_traits@D@std@@V?$allocator@D@2@@std@@PAVPlugInFactory@@@std@@HU12@UFactoryPtrComparator@@@std@@YAXPAU?$pair@V?$basic_string@DU?$char_traits@D@std@@V?$allocator@D@2@@std@@PAVPlugInFactory@@@0@00U10@UFactoryPtrComparator@@PAH@Z 100062b0 f i ModuleManager.obj
 0001:00005340       ?_Tidy@?$vector@U?$pair@V?$basic_string@DU?$char_traits@D@std@@V?$allocator@D@2@@std@@PAVPlugInFactory@@@std@@V?$allocator@U?$pair@V?$basic_string@DU?$char_traits@D@std@@V?$allocator@D@2@@std@@PAVPlugInFactory@@@std@@@2@@std@@IAEXXZ 10006340 f i ModuleManager.obj
 0001:00005390       ??$_Umove@PAU?$pair@V?$basic_string@DU?$char_traits@D@std@@V?$allocator@D@2@@std@@PAVPlugInFactory@@@std@@@?$vector@U?$pair@V?$basic_string@DU?$char_traits@D@std@@V?$allocator@D@2@@std@@PAVPlugInFactory@@@std@@V?$allocator@U?$pair@V?$basic_string@DU?$char_traits@D@std@@V?$allocator@D@2@@std@@PAVPlugInFactory@@@std@@@2@@std@@IAEPAU?$pair@V?$basic_string@DU?$char_traits@D@std@@V?$allocator@D@2@@std@@PAVPlugInFactory@@@1@PAU21@00@Z 10006390 f i ModuleManager.obj
 0001:000053c0       ??$_Unguarded_partition@PAU?$pair@V?$basic_string@DU?$char_traits@D@std@@V?$allocator@D@2@@std@@PAVPlugInFactory@@@std@@UFactoryPtrComparator@@@std@@YA?AU?$pair@PAU?$pair@V?$basic_string@DU?$char_traits@D@std@@V?$allocator@D@2@@std@@PAVPlugInFactory@@@std@@PAU12@@0@PAU?$pair@V?$basic_string@DU?$char_traits@D@std@@V?$allocator@D@2@@std@@PAVPlugInFactory@@@0@0UFactoryPtrComparator@@@Z 100063c0 f i ModuleManager.obj
 0001:00005830       ??$_Make_heap@PAU?$pair@V?$basic_string@DU?$char_traits@D@std@@V?$allocator@D@2@@std@@PAVPlugInFactory@@@std@@HU12@UFactoryPtrComparator@@@std@@YAXPAU?$pair@V?$basic_string@DU?$char_traits@D@std@@V?$allocator@D@2@@std@@PAVPlugInFactory@@@0@0UFactoryPtrComparator@@PAH0@Z 10006830 f i ModuleManager.obj
 0001:00005890       ??$_Pop_heap_0@PAU?$pair@V?$basic_string@DU?$char_traits@D@std@@V?$allocator@D@2@@std@@PAVPlugInFactory@@@std@@U12@UFactoryPtrComparator@@@std@@YAXPAU?$pair@V?$basic_string@DU?$char_traits@D@std@@V?$allocator@D@2@@std@@PAVPlugInFactory@@@0@0UFactoryPtrComparator@@0@Z 10006890 f i ModuleManager.obj
 0001:000058d0       ??1?$vector@U?$pair@V?$basic_string@DU?$char_traits@D@std@@V?$allocator@D@2@@std@@PAVPlugInFactory@@@std@@V?$allocator@U?$pair@V?$basic_string@DU?$char_traits@D@std@@V?$allocator@D@2@@std@@PAVPlugInFactory@@@std@@@2@@std@@QAE@XZ 100068d0 f i ModuleManager.obj
 0001:000058e0       ?_Insert_n@?$vector@U?$pair@V?$basic_string@DU?$char_traits@D@std@@V?$allocator@D@2@@std@@PAVPlugInFactory@@@std@@V?$allocator@U?$pair@V?$basic_string@DU?$char_traits@D@std@@V?$allocator@D@2@@std@@PAVPlugInFactory@@@std@@@2@@std@@IAEXV?$_Vector_iterator@U?$pair@V?$basic_string@DU?$char_traits@D@std@@V?$allocator@D@2@@std@@PAVPlugInFactory@@@std@@V?$allocator@U?$pair@V?$basic_string@DU?$char_traits@D@std@@V?$allocator@D@2@@std@@PAVPlugInFactory@@@std@@@2@@2@IABU?$pair@V?$basic_string@DU?$char_traits@D@std@@V?$allocator@D@2@@std@@PAVPlugInFactory@@@2@@Z 100068e0 f i ModuleManager.obj
 0001:00005b70       ??$make_heap@PAU?$pair@V?$basic_string@DU?$char_traits@D@std@@V?$allocator@D@2@@std@@PAVPlugInFactory@@@std@@UFactoryPtrComparator@@@std@@YAXPAU?$pair@V?$basic_string@DU?$char_traits@D@std@@V?$allocator@D@2@@std@@PAVPlugInFactory@@@0@0UFactoryPtrComparator@@@Z 10006b70 f i ModuleManager.obj
 0001:00005ba0       ??$pop_heap@PAU?$pair@V?$basic_string@DU?$char_traits@D@std@@V?$allocator@D@2@@std@@PAVPlugInFactory@@@std@@UFactoryPtrComparator@@@std@@YAXPAU?$pair@V?$basic_string@DU?$char_traits@D@std@@V?$allocator@D@2@@std@@PAVPlugInFactory@@@0@0UFactoryPtrComparator@@@Z 10006ba0 f i ModuleManager.obj
 0001:00005bf0       ?insert@?$vector@U?$pair@V?$basic_string@DU?$char_traits@D@std@@V?$allocator@D@2@@std@@PAVPlugInFactory@@@std@@V?$allocator@U?$pair@V?$basic_string@DU?$char_traits@D@std@@V?$allocator@D@2@@std@@PAVPlugInFactory@@@std@@@2@@std@@QAE?AV?$_Vector_iterator@U?$pair@V?$basic_string@DU?$char_traits@D@std@@V?$allocator@D@2@@std@@PAVPlugInFactory@@@std@@V?$allocator@U?$pair@V?$basic_string@DU?$char_traits@D@std@@V?$allocator@D@2@@std@@PAVPlugInFactory@@@std@@@2@@2@V32@ABU?$pair@V?$basic_string@DU?$char_traits@D@std@@V?$allocator@D@2@@std@@PAVPlugInFactory@@@2@@Z 10006bf0 f i ModuleManager.obj
 0001:00005c80       ??$_Sort_heap@PAU?$pair@V?$basic_string@DU?$char_traits@D@std@@V?$allocator@D@2@@std@@PAVPlugInFactory@@@std@@UFactoryPtrComparator@@@std@@YAXPAU?$pair@V?$basic_string@DU?$char_traits@D@std@@V?$allocator@D@2@@std@@PAVPlugInFactory@@@0@0UFactoryPtrComparator@@@Z 10006c80 f i ModuleManager.obj
 0001:00005cf0       ?factories@SpectralDataMerge@@YAAAV?$vector@U?$pair@V?$basic_string@DU?$char_traits@D@std@@V?$allocator@D@2@@std@@PAVPlugInFactory@@@std@@V?$allocator@U?$pair@V?$basic_string@DU?$char_traits@D@std@@V?$allocator@D@2@@std@@PAVPlugInFactory@@@std@@@2@@std@@XZ 10006cf0 f   ModuleManager.obj
 0001:00005d50       ?push_back@?$vector@U?$pair@V?$basic_string@DU?$char_traits@D@std@@V?$allocator@D@2@@std@@PAVPlugInFactory@@@std@@V?$allocator@U?$pair@V?$basic_string@DU?$char_traits@D@std@@V?$allocator@D@2@@std@@PAVPlugInFactory@@@std@@@2@@std@@QAEXABU?$pair@V?$basic_string@DU?$char_traits@D@std@@V?$allocator@D@2@@std@@PAVPlugInFactory@@@2@@Z 10006d50 f i ModuleManager.obj
 0001:00005de0       ??$sort_heap@PAU?$pair@V?$basic_string@DU?$char_traits@D@std@@V?$allocator@D@2@@std@@PAVPlugInFactory@@@std@@UFactoryPtrComparator@@@std@@YAXPAU?$pair@V?$basic_string@DU?$char_traits@D@std@@V?$allocator@D@2@@std@@PAVPlugInFactory@@@0@0UFactoryPtrComparator@@@Z 10006de0 f i ModuleManager.obj
 0001:00005df0       ?addFactory@SpectralDataMerge@@YAXPAVPlugInFactory@@@Z 10006df0 f   ModuleManager.obj
 0001:00005f50       ??$_Sort@PAU?$pair@V?$basic_string@DU?$char_traits@D@std@@V?$allocator@D@2@@std@@PAVPlugInFactory@@@std@@HUFactoryPtrComparator@@@std@@YAXPAU?$pair@V?$basic_string@DU?$char_traits@D@std@@V?$allocator@D@2@@std@@PAVPlugInFactory@@@0@0HUFactoryPtrComparator@@@Z 10006f50 f i ModuleManager.obj
 0001:00006040       ??$sort@V?$_Vector_iterator@U?$pair@V?$basic_string@DU?$char_traits@D@std@@V?$allocator@D@2@@std@@PAVPlugInFactory@@@std@@V?$allocator@U?$pair@V?$basic_string@DU?$char_traits@D@std@@V?$allocator@D@2@@std@@PAVPlugInFactory@@@std@@@2@@std@@UFactoryPtrComparator@@@std@@YAXV?$_Vector_iterator@U?$pair@V?$basic_string@DU?$char_traits@D@std@@V?$allocator@D@2@@std@@PAVPlugInFactory@@@std@@V?$allocator@U?$pair@V?$basic_string@DU?$char_traits@D@std@@V?$allocator@D@2@@std@@PAVPlugInFactory@@@std@@@2@@0@0UFactoryPtrComparator@@@Z 10007040 f i ModuleManager.obj
 0001:00006080       ?getPlugIn@SpectralDataMerge@@YAPAVPlugIn@@I@Z 10007080 f   ModuleManager.obj
 0001:00006140       _SpectralDataMergeInstantiatePlugIn 10007140 f   ModuleManager.obj
 0001:00006170       ?metaObject@DataMerge@@UBEPBUQMetaObject@@XZ 10007170 f   moc_DataMerge.obj
 0001:00006180       ?qt_metacast@DataMerge@@UAEPAXPBD@Z 10007180 f   moc_DataMerge.obj
 0001:00006200       ?qt_metacall@DataMerge@@UAEHW4Call@QMetaObject@@HPAPAX@Z 10007200 f   moc_DataMerge.obj
 0001:0000623c       ??1QObject@@UAE@XZ         1000723c f   QtCore4:QtCore4.dll
 0001:00006242       ??0QObject@@QAE@PAV0@@Z    10007242 f   QtCore4:QtCore4.dll
 0001:00006248       ?event@QObject@@UAE_NPAVQEvent@@@Z 10007248 f   QtCore4:QtCore4.dll
 0001:0000624e       ?eventFilter@QObject@@UAE_NPAV1@PAVQEvent@@@Z 1000724e f   QtCore4:QtCore4.dll
 0001:00006254       ?timerEvent@QObject@@MAEXPAVQTimerEvent@@@Z 10007254 f   QtCore4:QtCore4.dll
 0001:0000625a       ?childEvent@QObject@@MAEXPAVQChildEvent@@@Z 1000725a f   QtCore4:QtCore4.dll
 0001:00006260       ?customEvent@QObject@@MAEXPAVQEvent@@@Z 10007260 f   QtCore4:QtCore4.dll
 0001:00006266       ?connectNotify@QObject@@MAEXPBD@Z 10007266 f   QtCore4:QtCore4.dll
 0001:0000626c       ?disconnectNotify@QObject@@MAEXPBD@Z 1000726c f   QtCore4:QtCore4.dll
 0001:00006272       ??1QString@@QAE@XZ         10007272 f   QtCore4:QtCore4.dll
 0001:00006278       ?free@QString@@CAXPAUData@1@@Z 10007278 f   QtCore4:QtCore4.dll
 0001:0000627e       ?fromAscii_helper@QString@@CAPAUData@1@PBDH@Z 1000727e f   QtCore4:QtCore4.dll
 0001:00006284       ?qt_metacast@QObject@@UAEPAXPBD@Z 10007284 f   QtCore4:QtCore4.dll
 0001:0000628a       ?qt_metacall@QObject@@UAEHW4Call@QMetaObject@@HPAPAX@Z 1000728a f   QtCore4:QtCore4.dll
 0001:00006290       ?critical@QMessageBox@@SAHPAVQWidget@@ABVQString@@1111HH@Z 10007290 f   QtGui4:QtGui4.dll
 0001:000062a0       ?isValid@Slot@@QBE_NXZ     100072a0 f i PlugInLib:ViewerShell.obj
 0001:000062b0       ??1Slot@@QAE@XZ            100072b0 f i PlugInLib:ViewerShell.obj
 0001:000062d0       ??0SlotWrapper@Slot@@QAE@XZ 100072d0 f i PlugInLib:ViewerShell.obj
 0001:000062e0       ??1PlugInCallback@@UAE@XZ  100072e0 f i PlugInLib:ViewerShell.obj
 0001:000062f0       ??_EPlugInCallback@@UAEPAXI@Z 100072f0 f i PlugInLib:ViewerShell.obj
 0001:000062f0       ??_GPlugInCallback@@UAEPAXI@Z 100072f0 f i PlugInLib:ViewerShell.obj
 0001:00006310       ?ViewerType@PlugInManagerServices@@SA?AV?$basic_string@DU?$char_traits@D@std@@V?$allocator@D@2@@std@@XZ 10007310 f i PlugInLib:ViewerShell.obj
 0001:00006330       ?getInputSpecification@ViewerShell@@UAE_NAAPAVPlugInArgList@@@Z 10007330 f   PlugInLib:ViewerShell.obj
 0001:00006340       ?getOutputSpecification@ViewerShell@@UAE_NAAPAVPlugInArgList@@@Z 10007340 f   PlugInLib:ViewerShell.obj
 0001:00006350       ??0PlugInCallback@@QAE@XZ  10007350 f i PlugInLib:ViewerShell.obj
 0001:00006360       ?cleanupWidget@ViewerShell@@QAEXAAVSubject@@ABV?$basic_string@DU?$char_traits@D@std@@V?$allocator@D@2@@std@@ABVany@boost@@@Z 10007360 f   PlugInLib:ViewerShell.obj
 0001:00006390       ??C?$Service@VDesktopServices@@@@QBEPAVDesktopServices@@XZ 10007390 f i PlugInLib:ViewerShell.obj
 0001:000063a0       ??0?$EnumWrapper@W4PlugInCallbackTypeEnum@@@@QAE@ABW4PlugInCallbackTypeEnum@@@Z 100073a0 f i PlugInLib:ViewerShell.obj
 0001:000063c0       ??1?$pair@V?$basic_string@DU?$char_traits@D@std@@V?$allocator@D@2@@std@@VSlot@@@std@@QAE@XZ 100073c0 f i PlugInLib:ViewerShell.obj
 0001:000063f0       ?get@?$SafePtr@VApplicationServices@@@@QAEPAVApplicationServices@@XZ 100073f0 f i PlugInLib:ViewerShell.obj
 0001:00006400       ?attach@?$SafePtr@VApplicationServices@@@@IAEXABV?$basic_string@DU?$char_traits@D@std@@V?$allocator@D@2@@std@@ABVSlot@@@Z 10007400 f i PlugInLib:ViewerShell.obj
 0001:00006420       ?detach@?$SafePtr@VApplicationServices@@@@IAEXABV?$basic_string@DU?$char_traits@D@std@@V?$allocator@D@2@@std@@ABVSlot@@@Z 10007420 f i PlugInLib:ViewerShell.obj
 0001:00006440       ??E?$_Vector_const_iterator@U?$pair@V?$basic_string@DU?$char_traits@D@std@@V?$allocator@D@2@@std@@VSlot@@@std@@V?$allocator@U?$pair@V?$basic_string@DU?$char_traits@D@std@@V?$allocator@D@2@@std@@VSlot@@@std@@@2@@std@@QAEAAV01@XZ 10007440 f i PlugInLib:ViewerShell.obj
 0001:00006470       ?capacity@?$vector@U?$pair@V?$basic_string@DU?$char_traits@D@std@@V?$allocator@D@2@@std@@VSlot@@@std@@V?$allocator@U?$pair@V?$basic_string@DU?$char_traits@D@std@@V?$allocator@D@2@@std@@VSlot@@@std@@@2@@std@@QBEIXZ 10007470 f i PlugInLib:ViewerShell.obj
 0001:00006490       ?size@?$vector@U?$pair@V?$basic_string@DU?$char_traits@D@std@@V?$allocator@D@2@@std@@VSlot@@@std@@V?$allocator@U?$pair@V?$basic_string@DU?$char_traits@D@std@@V?$allocator@D@2@@std@@VSlot@@@std@@@2@@std@@QBEIXZ 10007490 f i PlugInLib:ViewerShell.obj
 0001:000064b0       ??0?$allocator@U?$pair@V?$basic_string@DU?$char_traits@D@std@@V?$allocator@D@2@@std@@VSlot@@@std@@@std@@QAE@XZ 100074b0 f i PlugInLib:ViewerShell.obj
 0001:000064c0       ?subjectDeleted@?$SafePtr@VApplicationServices@@@@AAEXAAVSubject@@ABV?$basic_string@DU?$char_traits@D@std@@V?$allocator@D@2@@std@@ABVany@boost@@@Z 100074c0 f i PlugInLib:ViewerShell.obj
 0001:000064e0       ??D?$_Vector_const_iterator@U?$pair@V?$basic_string@DU?$char_traits@D@std@@V?$allocator@D@2@@std@@VSlot@@@std@@V?$allocator@U?$pair@V?$basic_string@DU?$char_traits@D@std@@V?$allocator@D@2@@std@@VSlot@@@std@@@2@@std@@QBEABU?$pair@V?$basic_string@DU?$char_traits@D@std@@V?$allocator@D@2@@std@@VSlot@@@1@XZ 100074e0 f i PlugInLib:ViewerShell.obj
 0001:00006510       ??8?$_Vector_const_iterator@U?$pair@V?$basic_string@DU?$char_traits@D@std@@V?$allocator@D@2@@std@@VSlot@@@std@@V?$allocator@U?$pair@V?$basic_string@DU?$char_traits@D@std@@V?$allocator@D@2@@std@@VSlot@@@std@@@2@@std@@QBE_NABV01@@Z 10007510 f i PlugInLib:ViewerShell.obj
 0001:00006540       ?_Xlen@?$vector@U?$pair@V?$basic_string@DU?$char_traits@D@std@@V?$allocator@D@2@@std@@VSlot@@@std@@V?$allocator@U?$pair@V?$basic_string@DU?$char_traits@D@std@@V?$allocator@D@2@@std@@VSlot@@@std@@@2@@std@@KAXXZ 10007540 f i PlugInLib:ViewerShell.obj
 0001:000065c0       ??0?$allocator@U?$pair@V?$basic_string@DU?$char_traits@D@std@@V?$allocator@D@2@@std@@VSlot@@@std@@@std@@QAE@ABV01@@Z 100075c0 f i PlugInLib:ViewerShell.obj
 0001:000065d0       ?deallocate@?$allocator@U?$pair@V?$basic_string@DU?$char_traits@D@std@@V?$allocator@D@2@@std@@VSlot@@@std@@@std@@QAEXPAU?$pair@V?$basic_string@DU?$char_traits@D@std@@V?$allocator@D@2@@std@@VSlot@@@2@I@Z 100075d0 f i PlugInLib:ViewerShell.obj
 0001:000065e0       ??0?$_Ranit@U?$pair@V?$basic_string@DU?$char_traits@D@std@@V?$allocator@D@2@@std@@VSlot@@@std@@HPBU12@ABU12@@std@@QAE@XZ 100075e0 f i PlugInLib:ViewerShell.obj
 0001:000065f0       ?max_size@?$allocator@U?$pair@V?$basic_string@DU?$char_traits@D@std@@V?$allocator@D@2@@std@@VSlot@@@std@@@std@@QBEIXZ 100075f0 f i PlugInLib:ViewerShell.obj
 0001:00006600       ??G?$_Vector_const_iterator@U?$pair@V?$basic_string@DU?$char_traits@D@std@@V?$allocator@D@2@@std@@VSlot@@@std@@V?$allocator@U?$pair@V?$basic_string@DU?$char_traits@D@std@@V?$allocator@D@2@@std@@VSlot@@@std@@@2@@std@@QBEHABV01@@Z 10007600 f i PlugInLib:ViewerShell.obj
 0001:00006630       ??Y?$_Vector_const_iterator@U?$pair@V?$basic_string@DU?$char_traits@D@std@@V?$allocator@D@2@@std@@VSlot@@@std@@V?$allocator@U?$pair@V?$basic_string@DU?$char_traits@D@std@@V?$allocator@D@2@@std@@VSlot@@@std@@@2@@std@@QAEAAV01@H@Z 10007630 f i PlugInLib:ViewerShell.obj
 0001:00006670       ??$_Allocate@U?$pair@V?$basic_string@DU?$char_traits@D@std@@V?$allocator@D@2@@std@@VSlot@@@std@@@std@@YAPAU?$pair@V?$basic_string@DU?$char_traits@D@std@@V?$allocator@D@2@@std@@VSlot@@@0@IPAU10@@Z 10007670 f i PlugInLib:ViewerShell.obj
 0001:000066d0       ??0?$SlotValue@VViewerShell@@@Slot@@QAE@PAVViewerShell@@P82@AEXAAVSubject@@ABV?$basic_string@DU?$char_traits@D@std@@V?$allocator@D@2@@std@@ABVany@boost@@@Z@Z 100076d0 f i PlugInLib:ViewerShell.obj
 0001:000066f0       ?update@?$SlotValue@VViewerShell@@@Slot@@UBEXAAVSubject@@ABV?$basic_string@DU?$char_traits@D@std@@V?$allocator@D@2@@std@@ABVany@boost@@@Z 100076f0 f i PlugInLib:ViewerShell.obj
 0001:00006770       ?callAttachMethod@?$SlotValue@VViewerShell@@@Slot@@UAEXAAVSubject@@ABV?$basic_string@DU?$char_traits@D@std@@V?$allocator@D@2@@std@@ABV2@@Z 10007770 f i PlugInLib:ViewerShell.obj
 0001:000067a0       ?callDetachMethod@?$SlotValue@VViewerShell@@@Slot@@UAEXAAVSubject@@ABV?$basic_string@DU?$char_traits@D@std@@V?$allocator@D@2@@std@@ABV2@@Z 100077a0 f i PlugInLib:ViewerShell.obj
 0001:000067d0       ?clone@?$SlotValue@VViewerShell@@@Slot@@UBEPAVSlotWrapper@2@XZ 100077d0 f i PlugInLib:ViewerShell.obj
 0001:00006800       ?getType@?$SlotValue@VViewerShell@@@Slot@@UBEABVtype_info@@XZ 10007800 f i PlugInLib:ViewerShell.obj
 0001:00006810       ?matches@?$SlotValue@VViewerShell@@@Slot@@UBE_NABVSlotWrapper@2@@Z 10007810 f i PlugInLib:ViewerShell.obj
 0001:00006870       ??0?$SlotValue@V?$SafePtr@VApplicationServices@@@@@Slot@@QAE@PAV?$SafePtr@VApplicationServices@@@@P82@AEXAAVSubject@@ABV?$basic_string@DU?$char_traits@D@std@@V?$allocator@D@2@@std@@ABVany@boost@@@Z@Z 10007870 f i PlugInLib:ViewerShell.obj
 0001:00006890       ?update@?$SlotValue@V?$SafePtr@VApplicationServices@@@@@Slot@@UBEXAAVSubject@@ABV?$basic_string@DU?$char_traits@D@std@@V?$allocator@D@2@@std@@ABVany@boost@@@Z 10007890 f i PlugInLib:ViewerShell.obj
 0001:00006910       ?callAttachMethod@?$SlotValue@V?$SafePtr@VApplicationServices@@@@@Slot@@UAEXAAVSubject@@ABV?$basic_string@DU?$char_traits@D@std@@V?$allocator@D@2@@std@@ABV2@@Z 10007910 f i PlugInLib:ViewerShell.obj
 0001:00006940       ?callDetachMethod@?$SlotValue@V?$SafePtr@VApplicationServices@@@@@Slot@@UAEXAAVSubject@@ABV?$basic_string@DU?$char_traits@D@std@@V?$allocator@D@2@@std@@ABV2@@Z 10007940 f i PlugInLib:ViewerShell.obj
 0001:00006970       ?clone@?$SlotValue@V?$SafePtr@VApplicationServices@@@@@Slot@@UBEPAVSlotWrapper@2@XZ 10007970 f i PlugInLib:ViewerShell.obj
 0001:000069a0       ?getType@?$SlotValue@V?$SafePtr@VApplicationServices@@@@@Slot@@UBEABVtype_info@@XZ 100079a0 f i PlugInLib:ViewerShell.obj
 0001:000069b0       ?matches@?$SlotValue@V?$SafePtr@VApplicationServices@@@@@Slot@@UBE_NABVSlotWrapper@2@@Z 100079b0 f i PlugInLib:ViewerShell.obj
 0001:00006a00       ??$_Ptr_cat@PAU?$pair@V?$basic_string@DU?$char_traits@D@std@@V?$allocator@D@2@@std@@VSlot@@@std@@PAU12@@std@@YA?AU_Nonscalar_ptr_iterator_tag@0@AAPAU?$pair@V?$basic_string@DU?$char_traits@D@std@@V?$allocator@D@2@@std@@VSlot@@@0@0@Z 10007a00 f i PlugInLib:ViewerShell.obj
 0001:00006a10       ??$_Iter_random@PAU?$pair@V?$basic_string@DU?$char_traits@D@std@@V?$allocator@D@2@@std@@VSlot@@@std@@PAU12@@std@@YA?AUrandom_access_iterator_tag@0@ABQAU?$pair@V?$basic_string@DU?$char_traits@D@std@@V?$allocator@D@2@@std@@VSlot@@@0@0@Z 10007a10 f i PlugInLib:ViewerShell.obj
 0001:00006a20       ??$_Move_cat@PAU?$pair@V?$basic_string@DU?$char_traits@D@std@@V?$allocator@D@2@@std@@VSlot@@@std@@@std@@YA?AU_Undefined_move_tag@0@ABQAU?$pair@V?$basic_string@DU?$char_traits@D@std@@V?$allocator@D@2@@std@@VSlot@@@0@@Z 10007a20 f i PlugInLib:ViewerShell.obj
 0001:00006a30       ??$_Checked_base@PAU?$pair@V?$basic_string@DU?$char_traits@D@std@@V?$allocator@D@2@@std@@VSlot@@@std@@@std@@YAPAU?$pair@V?$basic_string@DU?$char_traits@D@std@@V?$allocator@D@2@@std@@VSlot@@@0@AAPAU10@U_Unchanged_checked_iterator_base_type_tag@0@@Z 10007a30 f i PlugInLib:ViewerShell.obj
 0001:00006a40       ??_G?$pair@V?$basic_string@DU?$char_traits@D@std@@V?$allocator@D@2@@std@@VSlot@@@std@@QAEPAXI@Z 10007a40 f i PlugInLib:ViewerShell.obj
 0001:00006a80       ??0Slot@@QAE@ABV0@@Z       10007a80 f i PlugInLib:ViewerShell.obj
 0001:00006ab0       ??4Slot@@QAEAAV0@ABV0@@Z   10007ab0 f i PlugInLib:ViewerShell.obj
 0001:00006af0       ?signalDeleted@Subject@@SAABV?$basic_string@DU?$char_traits@D@std@@V?$allocator@D@2@@std@@XZ 10007af0 f i PlugInLib:ViewerShell.obj
 0001:00006b50       ?signalSessionClosed@ApplicationServices@@SAABV?$basic_string@DU?$char_traits@D@std@@V?$allocator@D@2@@std@@XZ 10007b50 f i PlugInLib:ViewerShell.obj
 0001:00006bb0       ??0ViewerCallback@@QAE@PAVPlugIn@@PAVQWidget@@@Z 10007bb0 f i PlugInLib:ViewerShell.obj
 0001:00006bd0       ??1ViewerCallback@@UAE@XZ  10007bd0 f i PlugInLib:ViewerShell.obj
 0001:00006be0       ??RViewerCallback@@UAEXXZ  10007be0 f i PlugInLib:ViewerShell.obj
 0001:00006c10       ?finish@ViewerCallback@@UAE_NXZ 10007c10 f i PlugInLib:ViewerShell.obj
 0001:00006c20       ?getPlugIn@ViewerCallback@@UBEPAVPlugIn@@XZ 10007c20 f i PlugInLib:ViewerShell.obj
 0001:00006c30       ?progress@ViewerCallback@@UBEPAVProgress@@XZ 10007c30 f i PlugInLib:ViewerShell.obj
 0001:00006c40       ??_GViewerCallback@@UAEPAXI@Z 10007c40 f i PlugInLib:ViewerShell.obj
 0001:00006c40       ??_EViewerCallback@@UAEPAXI@Z 10007c40 f i PlugInLib:ViewerShell.obj
 0001:00006c60       ?abort@ViewerShell@@UAE_NXZ 10007c60 f   PlugInLib:ViewerShell.obj
 0001:00006d20       ??C?$_Vector_const_iterator@U?$pair@V?$basic_string@DU?$char_traits@D@std@@V?$allocator@D@2@@std@@VSlot@@@std@@V?$allocator@U?$pair@V?$basic_string@DU?$char_traits@D@std@@V?$allocator@D@2@@std@@VSlot@@@std@@@2@@std@@QBEPBU?$pair@V?$basic_string@DU?$char_traits@D@std@@V?$allocator@D@2@@std@@VSlot@@@1@XZ 10007d20 f i PlugInLib:ViewerShell.obj
 0001:00006d50       ??9?$_Vector_const_iterator@U?$pair@V?$basic_string@DU?$char_traits@D@std@@V?$allocator@D@2@@std@@VSlot@@@std@@V?$allocator@U?$pair@V?$basic_string@DU?$char_traits@D@std@@V?$allocator@D@2@@std@@VSlot@@@std@@@2@@std@@QBE_NABV01@@Z 10007d50 f i PlugInLib:ViewerShell.obj
 0001:00006d80       ??0?$_Vector_val@U?$pair@V?$basic_string@DU?$char_traits@D@std@@V?$allocator@D@2@@std@@VSlot@@@std@@V?$allocator@U?$pair@V?$basic_string@DU?$char_traits@D@std@@V?$allocator@D@2@@std@@VSlot@@@std@@@2@@std@@IAE@V?$allocator@U?$pair@V?$basic_string@DU?$char_traits@D@std@@V?$allocator@D@2@@std@@VSlot@@@std@@@1@@Z 10007d80 f i PlugInLib:ViewerShell.obj
 0001:00006d90       ?max_size@?$vector@U?$pair@V?$basic_string@DU?$char_traits@D@std@@V?$allocator@D@2@@std@@VSlot@@@std@@V?$allocator@U?$pair@V?$basic_string@DU?$char_traits@D@std@@V?$allocator@D@2@@std@@VSlot@@@std@@@2@@std@@QBEIXZ 10007d90 f i PlugInLib:ViewerShell.obj
 0001:00006da0       ?allocate@?$allocator@U?$pair@V?$basic_string@DU?$char_traits@D@std@@V?$allocator@D@2@@std@@VSlot@@@std@@@std@@QAEPAU?$pair@V?$basic_string@DU?$char_traits@D@std@@V?$allocator@D@2@@std@@VSlot@@@2@I@Z 10007da0 f i PlugInLib:ViewerShell.obj
 0001:00006dc0       ??0?$_Vector_const_iterator@U?$pair@V?$basic_string@DU?$char_traits@D@std@@V?$allocator@D@2@@std@@VSlot@@@std@@V?$allocator@U?$pair@V?$basic_string@DU?$char_traits@D@std@@V?$allocator@D@2@@std@@VSlot@@@std@@@2@@std@@QAE@PAU?$pair@V?$basic_string@DU?$char_traits@D@std@@V?$allocator@D@2@@std@@VSlot@@@1@PBU_Container_base@1@@Z 10007dc0 f i PlugInLib:ViewerShell.obj
 0001:00006e00       ??G?$_Vector_iterator@U?$pair@V?$basic_string@DU?$char_traits@D@std@@V?$allocator@D@2@@std@@VSlot@@@std@@V?$allocator@U?$pair@V?$basic_string@DU?$char_traits@D@std@@V?$allocator@D@2@@std@@VSlot@@@std@@@2@@std@@QBEHABV?$_Vector_const_iterator@U?$pair@V?$basic_string@DU?$char_traits@D@std@@V?$allocator@D@2@@std@@VSlot@@@std@@V?$allocator@U?$pair@V?$basic_string@DU?$char_traits@D@std@@V?$allocator@D@2@@std@@VSlot@@@std@@@2@@1@@Z 10007e00 f i PlugInLib:ViewerShell.obj
 0001:00006e30       ??0?$pair@V?$basic_string@DU?$char_traits@D@std@@V?$allocator@D@2@@std@@VSlot@@@std@@QAE@ABU01@@Z 10007e30 f i PlugInLib:ViewerShell.obj
 0001:00006e90       ??Y?$_Vector_iterator@U?$pair@V?$basic_string@DU?$char_traits@D@std@@V?$allocator@D@2@@std@@VSlot@@@std@@V?$allocator@U?$pair@V?$basic_string@DU?$char_traits@D@std@@V?$allocator@D@2@@std@@VSlot@@@std@@@2@@std@@QAEAAV01@H@Z 10007e90 f i PlugInLib:ViewerShell.obj
 0001:00006ed0       ??$?0VViewerShell@@P80@AEXAAVSubject@@ABV?$basic_string@DU?$char_traits@D@std@@V?$allocator@D@2@@std@@ABVany@boost@@@Z@Slot@@QAE@PAVViewerShell@@P81@AEXAAVSubject@@ABV?$basic_string@DU?$char_traits@D@std@@V?$allocator@D@2@@std@@ABVany@boost@@@Z@Z 10007ed0 f i PlugInLib:ViewerShell.obj
 0001:00006f40       ??$?0V?$SafePtr@VApplicationServices@@@@P80@AEXAAVSubject@@ABV?$basic_string@DU?$char_traits@D@std@@V?$allocator@D@2@@std@@ABVany@boost@@@Z@Slot@@QAE@PAV?$SafePtr@VApplicationServices@@@@P81@AEXAAVSubject@@ABV?$basic_string@DU?$char_traits@D@std@@V?$allocator@D@2@@std@@ABVany@boost@@@Z@Z 10007f40 f i PlugInLib:ViewerShell.obj
 0001:00006fb0       ??0?$pair@V?$basic_string@DU?$char_traits@D@std@@V?$allocator@D@2@@std@@VSlot@@@std@@QAE@ABV?$basic_string@DU?$char_traits@D@std@@V?$allocator@D@2@@1@ABVSlot@@@Z 10007fb0 f i PlugInLib:ViewerShell.obj
 0001:00007010       ??$_Checked_base@PAU?$pair@V?$basic_string@DU?$char_traits@D@std@@V?$allocator@D@2@@std@@VSlot@@@std@@@std@@YAPAU?$pair@V?$basic_string@DU?$char_traits@D@std@@V?$allocator@D@2@@std@@VSlot@@@0@AAPAU10@@Z 10008010 f i PlugInLib:ViewerShell.obj
 0001:00007020       ??4?$pair@V?$basic_string@DU?$char_traits@D@std@@V?$allocator@D@2@@std@@VSlot@@@std@@QAEAAU01@ABU01@@Z 10008020 f i PlugInLib:ViewerShell.obj
 0001:00007060       ??$_Construct@U?$pair@V?$basic_string@DU?$char_traits@D@std@@V?$allocator@D@2@@std@@VSlot@@@std@@U12@@std@@YAXPAU?$pair@V?$basic_string@DU?$char_traits@D@std@@V?$allocator@D@2@@std@@VSlot@@@0@ABU10@@Z 10008060 f i PlugInLib:ViewerShell.obj
 0001:000070b0       ??$_Destroy@U?$pair@V?$basic_string@DU?$char_traits@D@std@@V?$allocator@D@2@@std@@VSlot@@@std@@@std@@YAXPAU?$pair@V?$basic_string@DU?$char_traits@D@std@@V?$allocator@D@2@@std@@VSlot@@@0@@Z 100080b0 f i PlugInLib:ViewerShell.obj
 0001:000070e0       ??$_Copy_backward_opt@PAU?$pair@V?$basic_string@DU?$char_traits@D@std@@V?$allocator@D@2@@std@@VSlot@@@std@@PAU12@Uforward_iterator_tag@2@@std@@YAPAU?$pair@V?$basic_string@DU?$char_traits@D@std@@V?$allocator@D@2@@std@@VSlot@@@0@PAU10@00Uforward_iterator_tag@0@U_Nonscalar_ptr_iterator_tag@0@U_Range_checked_iterator_tag@0@@Z 100080e0 f i PlugInLib:ViewerShell.obj
 0001:00007140       ?detachFromDeleted@?$SafePtr@VApplicationServices@@@@AAEXXZ 10008140 f i PlugInLib:ViewerShell.obj
 0001:000071b0       ?_Buy@?$vector@U?$pair@V?$basic_string@DU?$char_traits@D@std@@V?$allocator@D@2@@std@@VSlot@@@std@@V?$allocator@U?$pair@V?$basic_string@DU?$char_traits@D@std@@V?$allocator@D@2@@std@@VSlot@@@std@@@2@@std@@IAE_NI@Z 100081b0 f i PlugInLib:ViewerShell.obj
 0001:00007200       ?attachToDeleted@?$SafePtr@VApplicationServices@@@@AAEXXZ 10008200 f i PlugInLib:ViewerShell.obj
 0001:00007270       ??0?$_Vector_iterator@U?$pair@V?$basic_string@DU?$char_traits@D@std@@V?$allocator@D@2@@std@@VSlot@@@std@@V?$allocator@U?$pair@V?$basic_string@DU?$char_traits@D@std@@V?$allocator@D@2@@std@@VSlot@@@std@@@2@@std@@QAE@PAU?$pair@V?$basic_string@DU?$char_traits@D@std@@V?$allocator@D@2@@std@@VSlot@@@1@PBU_Container_base@1@@Z 10008270 f i PlugInLib:ViewerShell.obj
 0001:000072b0       ??H?$_Vector_iterator@U?$pair@V?$basic_string@DU?$char_traits@D@std@@V?$allocator@D@2@@std@@VSlot@@@std@@V?$allocator@U?$pair@V?$basic_string@DU?$char_traits@D@std@@V?$allocator@D@2@@std@@VSlot@@@std@@@2@@std@@QBE?AV01@H@Z 100082b0 f i PlugInLib:ViewerShell.obj
 0001:000072f0       ??$make_pair@V?$basic_string@DU?$char_traits@D@std@@V?$allocator@D@2@@std@@VSlot@@@std@@YA?AU?$pair@V?$basic_string@DU?$char_traits@D@std@@V?$allocator@D@2@@std@@VSlot@@@0@V?$basic_string@DU?$char_traits@D@std@@V?$allocator@D@2@@0@VSlot@@@Z 100082f0 f i PlugInLib:ViewerShell.obj
 0001:00007370       ??$_Fill@PAU?$pair@V?$basic_string@DU?$char_traits@D@std@@V?$allocator@D@2@@std@@VSlot@@@std@@U12@@std@@YAXPAU?$pair@V?$basic_string@DU?$char_traits@D@std@@V?$allocator@D@2@@std@@VSlot@@@0@0ABU10@@Z 10008370 f i PlugInLib:ViewerShell.obj
 0001:000073c0       ?construct@?$allocator@U?$pair@V?$basic_string@DU?$char_traits@D@std@@V?$allocator@D@2@@std@@VSlot@@@std@@@std@@QAEXPAU?$pair@V?$basic_string@DU?$char_traits@D@std@@V?$allocator@D@2@@std@@VSlot@@@2@ABU32@@Z 100083c0 f i PlugInLib:ViewerShell.obj
 0001:00007410       ?destroy@?$allocator@U?$pair@V?$basic_string@DU?$char_traits@D@std@@V?$allocator@D@2@@std@@VSlot@@@std@@@std@@QAEXPAU?$pair@V?$basic_string@DU?$char_traits@D@std@@V?$allocator@D@2@@std@@VSlot@@@2@@Z 10008410 f i PlugInLib:ViewerShell.obj
 0001:00007440       ??$_Copy_backward_opt@PAU?$pair@V?$basic_string@DU?$char_traits@D@std@@V?$allocator@D@2@@std@@VSlot@@@std@@PAU12@@std@@YAPAU?$pair@V?$basic_string@DU?$char_traits@D@std@@V?$allocator@D@2@@std@@VSlot@@@0@PAU10@00Urandom_access_iterator_tag@0@U_Nonscalar_ptr_iterator_tag@0@U_Range_checked_iterator_tag@0@@Z 10008440 f i PlugInLib:ViewerShell.obj
 0001:00007490       ??$_Uninit_copy@PAU?$pair@V?$basic_string@DU?$char_traits@D@std@@V?$allocator@D@2@@std@@VSlot@@@std@@PAU12@V?$allocator@U?$pair@V?$basic_string@DU?$char_traits@D@std@@V?$allocator@D@2@@std@@VSlot@@@std@@@2@@std@@YAPAU?$pair@V?$basic_string@DU?$char_traits@D@std@@V?$allocator@D@2@@std@@VSlot@@@0@PAU10@00AAV?$allocator@U?$pair@V?$basic_string@DU?$char_traits@D@std@@V?$allocator@D@2@@std@@VSlot@@@std@@@0@U_Nonscalar_ptr_iterator_tag@0@U_Range_checked_iterator_tag@0@@Z 10008490 f i PlugInLib:ViewerShell.obj
 0001:00007540       ??1?$SafePtr@VApplicationServices@@@@UAE@XZ 10008540 f i PlugInLib:ViewerShell.obj
 0001:00007560       ??_E?$SafePtr@VApplicationServices@@@@UAEPAXI@Z 10008560 f i PlugInLib:ViewerShell.obj
 0001:00007560       ??_G?$SafePtr@VApplicationServices@@@@UAEPAXI@Z 10008560 f i PlugInLib:ViewerShell.obj
 0001:00007590       ??0?$vector@U?$pair@V?$basic_string@DU?$char_traits@D@std@@V?$allocator@D@2@@std@@VSlot@@@std@@V?$allocator@U?$pair@V?$basic_string@DU?$char_traits@D@std@@V?$allocator@D@2@@std@@VSlot@@@std@@@2@@std@@QAE@XZ 10008590 f i PlugInLib:ViewerShell.obj
 0001:000075a0       ?begin@?$vector@U?$pair@V?$basic_string@DU?$char_traits@D@std@@V?$allocator@D@2@@std@@VSlot@@@std@@V?$allocator@U?$pair@V?$basic_string@DU?$char_traits@D@std@@V?$allocator@D@2@@std@@VSlot@@@std@@@2@@std@@QAE?AV?$_Vector_iterator@U?$pair@V?$basic_string@DU?$char_traits@D@std@@V?$allocator@D@2@@std@@VSlot@@@std@@V?$allocator@U?$pair@V?$basic_string@DU?$char_traits@D@std@@V?$allocator@D@2@@std@@VSlot@@@std@@@2@@2@XZ 100085a0 f i PlugInLib:ViewerShell.obj
 0001:000075d0       ?end@?$vector@U?$pair@V?$basic_string@DU?$char_traits@D@std@@V?$allocator@D@2@@std@@VSlot@@@std@@V?$allocator@U?$pair@V?$basic_string@DU?$char_traits@D@std@@V?$allocator@D@2@@std@@VSlot@@@std@@@2@@std@@QAE?AV?$_Vector_iterator@U?$pair@V?$basic_string@DU?$char_traits@D@std@@V?$allocator@D@2@@std@@VSlot@@@std@@V?$allocator@U?$pair@V?$basic_string@DU?$char_traits@D@std@@V?$allocator@D@2@@std@@VSlot@@@std@@@2@@2@XZ 100085d0 f i PlugInLib:ViewerShell.obj
 0001:00007600       ??0?$SafePtr@VApplicationServices@@@@QAE@PAVApplicationServices@@@Z 10008600 f i PlugInLib:ViewerShell.obj
 0001:00007620       ?reset@?$SafePtr@VApplicationServices@@@@QAEXPAVApplicationServices@@@Z 10008620 f i PlugInLib:ViewerShell.obj
 0001:00007650       ??$fill@PAU?$pair@V?$basic_string@DU?$char_traits@D@std@@V?$allocator@D@2@@std@@VSlot@@@std@@U12@@std@@YAXPAU?$pair@V?$basic_string@DU?$char_traits@D@std@@V?$allocator@D@2@@std@@VSlot@@@0@0ABU10@@Z 10008650 f i PlugInLib:ViewerShell.obj
 0001:00007660       ??$_Uninit_fill_n@PAU?$pair@V?$basic_string@DU?$char_traits@D@std@@V?$allocator@D@2@@std@@VSlot@@@std@@IU12@V?$allocator@U?$pair@V?$basic_string@DU?$char_traits@D@std@@V?$allocator@D@2@@std@@VSlot@@@std@@@2@@std@@YAXPAU?$pair@V?$basic_string@DU?$char_traits@D@std@@V?$allocator@D@2@@std@@VSlot@@@0@IABU10@AAV?$allocator@U?$pair@V?$basic_string@DU?$char_traits@D@std@@V?$allocator@D@2@@std@@VSlot@@@std@@@0@U_Nonscalar_ptr_iterator_tag@0@U_Range_checked_iterator_tag@0@@Z 10008660 f i PlugInLib:ViewerShell.obj
 0001:00007710       ??$_Destroy_range@U?$pair@V?$basic_string@DU?$char_traits@D@std@@V?$allocator@D@2@@std@@VSlot@@@std@@V?$allocator@U?$pair@V?$basic_string@DU?$char_traits@D@std@@V?$allocator@D@2@@std@@VSlot@@@std@@@2@@std@@YAXPAU?$pair@V?$basic_string@DU?$char_traits@D@std@@V?$allocator@D@2@@std@@VSlot@@@0@0AAV?$allocator@U?$pair@V?$basic_string@DU?$char_traits@D@std@@V?$allocator@D@2@@std@@VSlot@@@std@@@0@U_Nonscalar_ptr_iterator_tag@0@@Z 10008710 f i PlugInLib:ViewerShell.obj
 0001:00007750       ??$_Move_backward_opt@PAU?$pair@V?$basic_string@DU?$char_traits@D@std@@V?$allocator@D@2@@std@@VSlot@@@std@@PAU12@Urandom_access_iterator_tag@2@U_Undefined_move_tag@2@@std@@YAPAU?$pair@V?$basic_string@DU?$char_traits@D@std@@V?$allocator@D@2@@std@@VSlot@@@0@PAU10@00Urandom_access_iterator_tag@0@U_Undefined_move_tag@0@U_Range_checked_iterator_tag@0@@Z 10008750 f i PlugInLib:ViewerShell.obj
 0001:000077a0       ??$unchecked_uninitialized_copy@PAU?$pair@V?$basic_string@DU?$char_traits@D@std@@V?$allocator@D@2@@std@@VSlot@@@std@@PAU12@V?$allocator@U?$pair@V?$basic_string@DU?$char_traits@D@std@@V?$allocator@D@2@@std@@VSlot@@@std@@@2@@stdext@@YAPAU?$pair@V?$basic_string@DU?$char_traits@D@std@@V?$allocator@D@2@@std@@VSlot@@@std@@PAU12@00AAV?$allocator@U?$pair@V?$basic_string@DU?$char_traits@D@std@@V?$allocator@D@2@@std@@VSlot@@@std@@@2@@Z 100087a0 f i PlugInLib:ViewerShell.obj
 0001:000077d0       ?reset@?$AttachmentPtr@VApplicationServices@@@@QAEXPAVApplicationServices@@@Z 100087d0 f i PlugInLib:ViewerShell.obj
 0001:000078f0       ??$unchecked_uninitialized_fill_n@PAU?$pair@V?$basic_string@DU?$char_traits@D@std@@V?$allocator@D@2@@std@@VSlot@@@std@@IU12@V?$allocator@U?$pair@V?$basic_string@DU?$char_traits@D@std@@V?$allocator@D@2@@std@@VSlot@@@std@@@2@@stdext@@YAXPAU?$pair@V?$basic_string@DU?$char_traits@D@std@@V?$allocator@D@2@@std@@VSlot@@@std@@IABU12@AAV?$allocator@U?$pair@V?$basic_string@DU?$char_traits@D@std@@V?$allocator@D@2@@std@@VSlot@@@std@@@2@@Z 100088f0 f i PlugInLib:ViewerShell.obj
 0001:00007920       ??$_Destroy_range@U?$pair@V?$basic_string@DU?$char_traits@D@std@@V?$allocator@D@2@@std@@VSlot@@@std@@V?$allocator@U?$pair@V?$basic_string@DU?$char_traits@D@std@@V?$allocator@D@2@@std@@VSlot@@@std@@@2@@std@@YAXPAU?$pair@V?$basic_string@DU?$char_traits@D@std@@V?$allocator@D@2@@std@@VSlot@@@0@0AAV?$allocator@U?$pair@V?$basic_string@DU?$char_traits@D@std@@V?$allocator@D@2@@std@@VSlot@@@std@@@0@@Z 10008920 f i PlugInLib:ViewerShell.obj
 0001:00007940       ??$_Unchecked_move_backward@PAU?$pair@V?$basic_string@DU?$char_traits@D@std@@V?$allocator@D@2@@std@@VSlot@@@std@@PAU12@@stdext@@YAPAU?$pair@V?$basic_string@DU?$char_traits@D@std@@V?$allocator@D@2@@std@@VSlot@@@std@@PAU12@00@Z 10008940 f i PlugInLib:ViewerShell.obj
 0001:00007990       ??$_Uninit_move@PAU?$pair@V?$basic_string@DU?$char_traits@D@std@@V?$allocator@D@2@@std@@VSlot@@@std@@PAU12@V?$allocator@U?$pair@V?$basic_string@DU?$char_traits@D@std@@V?$allocator@D@2@@std@@VSlot@@@std@@@2@U_Undefined_move_tag@2@@std@@YAPAU?$pair@V?$basic_string@DU?$char_traits@D@std@@V?$allocator@D@2@@std@@VSlot@@@0@PAU10@00AAV?$allocator@U?$pair@V?$basic_string@DU?$char_traits@D@std@@V?$allocator@D@2@@std@@VSlot@@@std@@@0@U_Undefined_move_tag@0@U_Range_checked_iterator_tag@0@@Z 10008990 f i PlugInLib:ViewerShell.obj
 0001:000079b0       ?_Ufill@?$vector@U?$pair@V?$basic_string@DU?$char_traits@D@std@@V?$allocator@D@2@@std@@VSlot@@@std@@V?$allocator@U?$pair@V?$basic_string@DU?$char_traits@D@std@@V?$allocator@D@2@@std@@VSlot@@@std@@@2@@std@@IAEPAU?$pair@V?$basic_string@DU?$char_traits@D@std@@V?$allocator@D@2@@std@@VSlot@@@2@PAU32@IABU32@@Z 100089b0 f i PlugInLib:ViewerShell.obj
 0001:000079f0       ?_Destroy@?$vector@U?$pair@V?$basic_string@DU?$char_traits@D@std@@V?$allocator@D@2@@std@@VSlot@@@std@@V?$allocator@U?$pair@V?$basic_string@DU?$char_traits@D@std@@V?$allocator@D@2@@std@@VSlot@@@std@@@2@@std@@IAEXPAU?$pair@V?$basic_string@DU?$char_traits@D@std@@V?$allocator@D@2@@std@@VSlot@@@2@0@Z 100089f0 f i PlugInLib:ViewerShell.obj
 0001:00007a10       ??$_Unchecked_uninitialized_move@PAU?$pair@V?$basic_string@DU?$char_traits@D@std@@V?$allocator@D@2@@std@@VSlot@@@std@@PAU12@V?$allocator@U?$pair@V?$basic_string@DU?$char_traits@D@std@@V?$allocator@D@2@@std@@VSlot@@@std@@@2@@stdext@@YAPAU?$pair@V?$basic_string@DU?$char_traits@D@std@@V?$allocator@D@2@@std@@VSlot@@@std@@PAU12@00AAV?$allocator@U?$pair@V?$basic_string@DU?$char_traits@D@std@@V?$allocator@D@2@@std@@VSlot@@@std@@@2@@Z 10008a10 f i PlugInLib:ViewerShell.obj
 0001:00007a40       ?_Tidy@?$vector@U?$pair@V?$basic_string@DU?$char_traits@D@std@@V?$allocator@D@2@@std@@VSlot@@@std@@V?$allocator@U?$pair@V?$basic_string@DU?$char_traits@D@std@@V?$allocator@D@2@@std@@VSlot@@@std@@@2@@std@@IAEXXZ 10008a40 f i PlugInLib:ViewerShell.obj
 0001:00007a80       ??$_Umove@PAU?$pair@V?$basic_string@DU?$char_traits@D@std@@V?$allocator@D@2@@std@@VSlot@@@std@@@?$vector@U?$pair@V?$basic_string@DU?$char_traits@D@std@@V?$allocator@D@2@@std@@VSlot@@@std@@V?$allocator@U?$pair@V?$basic_string@DU?$char_traits@D@std@@V?$allocator@D@2@@std@@VSlot@@@std@@@2@@std@@IAEPAU?$pair@V?$basic_string@DU?$char_traits@D@std@@V?$allocator@D@2@@std@@VSlot@@@1@PAU21@00@Z 10008a80 f i PlugInLib:ViewerShell.obj
 0001:00007ab0       ??1?$vector@U?$pair@V?$basic_string@DU?$char_traits@D@std@@V?$allocator@D@2@@std@@VSlot@@@std@@V?$allocator@U?$pair@V?$basic_string@DU?$char_traits@D@std@@V?$allocator@D@2@@std@@VSlot@@@std@@@2@@std@@QAE@XZ 10008ab0 f i PlugInLib:ViewerShell.obj
 0001:00007af0       ?_Insert_n@?$vector@U?$pair@V?$basic_string@DU?$char_traits@D@std@@V?$allocator@D@2@@std@@VSlot@@@std@@V?$allocator@U?$pair@V?$basic_string@DU?$char_traits@D@std@@V?$allocator@D@2@@std@@VSlot@@@std@@@2@@std@@IAEXV?$_Vector_iterator@U?$pair@V?$basic_string@DU?$char_traits@D@std@@V?$allocator@D@2@@std@@VSlot@@@std@@V?$allocator@U?$pair@V?$basic_string@DU?$char_traits@D@std@@V?$allocator@D@2@@std@@VSlot@@@std@@@2@@2@IABU?$pair@V?$basic_string@DU?$char_traits@D@std@@V?$allocator@D@2@@std@@VSlot@@@2@@Z 10008af0 f i PlugInLib:ViewerShell.obj
 0001:00007d90       ??0?$AttachmentPtr@VApplicationServices@@@@QAE@XZ 10008d90 f i PlugInLib:ViewerShell.obj
 0001:00007de0       ??1?$AttachmentPtr@VApplicationServices@@@@UAE@XZ 10008de0 f i PlugInLib:ViewerShell.obj
 0001:00007e80       ??_E?$AttachmentPtr@VApplicationServices@@@@UAEPAXI@Z 10008e80 f i PlugInLib:ViewerShell.obj
 0001:00007e80       ??_G?$AttachmentPtr@VApplicationServices@@@@UAEPAXI@Z 10008e80 f i PlugInLib:ViewerShell.obj
 0001:00007ea0       ?insert@?$vector@U?$pair@V?$basic_string@DU?$char_traits@D@std@@V?$allocator@D@2@@std@@VSlot@@@std@@V?$allocator@U?$pair@V?$basic_string@DU?$char_traits@D@std@@V?$allocator@D@2@@std@@VSlot@@@std@@@2@@std@@QAE?AV?$_Vector_iterator@U?$pair@V?$basic_string@DU?$char_traits@D@std@@V?$allocator@D@2@@std@@VSlot@@@std@@V?$allocator@U?$pair@V?$basic_string@DU?$char_traits@D@std@@V?$allocator@D@2@@std@@VSlot@@@std@@@2@@2@V32@ABU?$pair@V?$basic_string@DU?$char_traits@D@std@@V?$allocator@D@2@@std@@VSlot@@@2@@Z 10008ea0 f i PlugInLib:ViewerShell.obj
 0001:00007f30       ??1ViewerShell@@UAE@XZ     10008f30 f   PlugInLib:ViewerShell.obj
 0001:00007fa0       ??_EViewerShell@@W3AEPAXI@Z 10008fa0 f i PlugInLib:ViewerShell.obj
 0001:00007fb0       ??_EViewerShell@@W7AEPAXI@Z 10008fb0 f i PlugInLib:ViewerShell.obj
 0001:00007fc0       ?push_back@?$vector@U?$pair@V?$basic_string@DU?$char_traits@D@std@@V?$allocator@D@2@@std@@VSlot@@@std@@V?$allocator@U?$pair@V?$basic_string@DU?$char_traits@D@std@@V?$allocator@D@2@@std@@VSlot@@@std@@@2@@std@@QAEXABU?$pair@V?$basic_string@DU?$char_traits@D@std@@V?$allocator@D@2@@std@@VSlot@@@2@@Z 10008fc0 f i PlugInLib:ViewerShell.obj
 0001:00008050       ??_GViewerShell@@UAEPAXI@Z 10009050 f i PlugInLib:ViewerShell.obj
 0001:00008050       ??_EViewerShell@@UAEPAXI@Z 10009050 f i PlugInLib:ViewerShell.obj
 0001:00008070       ?addSignal@?$AttachmentPtr@VApplicationServices@@@@QAEXABV?$basic_string@DU?$char_traits@D@std@@V?$allocator@D@2@@std@@ABVSlot@@@Z 10009070 f i PlugInLib:ViewerShell.obj
 0001:00008150       ??0ViewerShell@@QAE@XZ     10009150 f   PlugInLib:ViewerShell.obj
 0001:00008260       ??1Executable@@MAE@XZ      10009260 f i PlugInLib:ExecutableShell.obj
 0001:00008270       ??_EExecutable@@MAEPAXI@Z  10009270 f i PlugInLib:ExecutableShell.obj
 0001:00008270       ??_GExecutable@@MAEPAXI@Z  10009270 f i PlugInLib:ExecutableShell.obj
 0001:00008290       ??0Executable@@QAE@XZ      10009290 f i PlugInLib:ExecutableShell.obj
 0001:000082a0       ?isExecutedOnStartup@ExecutableShell@@UBE_NXZ 100092a0 f   PlugInLib:ExecutableShell.obj
 0001:000082b0       ?isDestroyedAfterExecute@ExecutableShell@@UBE_NXZ 100092b0 f   PlugInLib:ExecutableShell.obj
 0001:000082c0       ?getMenuLocations@ExecutableShell@@UBEABV?$vector@V?$basic_string@DU?$char_traits@D@std@@V?$allocator@D@2@@std@@V?$allocator@V?$basic_string@DU?$char_traits@D@std@@V?$allocator@D@2@@std@@@2@@std@@XZ 100092c0 f   PlugInLib:ExecutableShell.obj
 0001:000082d0       ?setBatch@ExecutableShell@@UAE_NXZ 100092d0 f   PlugInLib:ExecutableShell.obj
 0001:000082e0       ?setInteractive@ExecutableShell@@UAE_NXZ 100092e0 f   PlugInLib:ExecutableShell.obj
 0001:000082f0       ?initialize@ExecutableShell@@UAE_NXZ 100092f0 f   PlugInLib:ExecutableShell.obj
 0001:00008300       ?abort@ExecutableShell@@UAE_NXZ 10009300 f   PlugInLib:ExecutableShell.obj
 0001:00008320       ?hasAbort@ExecutableShell@@UAE_NXZ 10009320 f   PlugInLib:ExecutableShell.obj
 0001:00008330       ?isBackground@ExecutableShell@@UBE_NXZ 10009330 f   PlugInLib:ExecutableShell.obj
 0001:00008340       ?isBatch@ExecutableShell@@QBE_NXZ 10009340 f   PlugInLib:ExecutableShell.obj
 0001:00008350       ?isAborted@ExecutableShell@@QBE_NXZ 10009350 f   PlugInLib:ExecutableShell.obj
 0001:00008360       ?hasWizardSupport@ExecutableShell@@UBE_NXZ 10009360 f   PlugInLib:ExecutableShell.obj
 0001:00008370       ?executeOnStartup@ExecutableShell@@IAEX_N@Z 10009370 f   PlugInLib:ExecutableShell.obj
 0001:00008380       ?destroyAfterExecute@ExecutableShell@@IAEX_N@Z 10009380 f   PlugInLib:ExecutableShell.obj
 0001:00008390       ?setAbortSupported@ExecutableShell@@IAEX_N@Z 10009390 f   PlugInLib:ExecutableShell.obj
 0001:000083a0       ?setBackground@ExecutableShell@@IAEX_N@Z 100093a0 f   PlugInLib:ExecutableShell.obj
 0001:000083b0       ?setWizardSupported@ExecutableShell@@IAEX_N@Z 100093b0 f   PlugInLib:ExecutableShell.obj
 0001:000083c0       ??$_Copy_opt@PAV?$basic_string@DU?$char_traits@D@std@@V?$allocator@D@2@@std@@PAV12@Uforward_iterator_tag@2@@std@@YAPAV?$basic_string@DU?$char_traits@D@std@@V?$allocator@D@2@@0@PAV10@00Uforward_iterator_tag@0@U_Nonscalar_ptr_iterator_tag@0@U_Range_checked_iterator_tag@0@@Z 100093c0 f i PlugInLib:ExecutableShell.obj
 0001:00008400       ??$_Copy_opt@PAV?$basic_string@DU?$char_traits@D@std@@V?$allocator@D@2@@std@@PAV12@@std@@YAPAV?$basic_string@DU?$char_traits@D@std@@V?$allocator@D@2@@0@PAV10@00Urandom_access_iterator_tag@0@U_Nonscalar_ptr_iterator_tag@0@U_Range_checked_iterator_tag@0@@Z 10009400 f i PlugInLib:ExecutableShell.obj
 0001:00008460       ??$unchecked_copy@PAV?$basic_string@DU?$char_traits@D@std@@V?$allocator@D@2@@std@@PAV12@@stdext@@YAPAV?$basic_string@DU?$char_traits@D@std@@V?$allocator@D@2@@std@@PAV12@00@Z 10009460 f i PlugInLib:ExecutableShell.obj
 0001:00008490       ?erase@?$vector@V?$basic_string@DU?$char_traits@D@std@@V?$allocator@D@2@@std@@V?$allocator@V?$basic_string@DU?$char_traits@D@std@@V?$allocator@D@2@@std@@@2@@std@@QAE?AV?$_Vector_iterator@V?$basic_string@DU?$char_traits@D@std@@V?$allocator@D@2@@std@@V?$allocator@V?$basic_string@DU?$char_traits@D@std@@V?$allocator@D@2@@std@@@2@@2@V32@0@Z 10009490 f i PlugInLib:ExecutableShell.obj
 0001:00008510       ?clear@?$vector@V?$basic_string@DU?$char_traits@D@std@@V?$allocator@D@2@@std@@V?$allocator@V?$basic_string@DU?$char_traits@D@std@@V?$allocator@D@2@@std@@@2@@std@@QAEXXZ 10009510 f i PlugInLib:ExecutableShell.obj
 0001:00008550       ??0ExecutableShell@@QAE@XZ 10009550 f   PlugInLib:ExecutableShell.obj
 0001:000085f0       ??_EExecutableShell@@W7AEPAXI@Z 100095f0 f i PlugInLib:ExecutableShell.obj
 0001:00008600       ??_EExecutableShell@@W3AEPAXI@Z 10009600 f i PlugInLib:ExecutableShell.obj
 0001:00008610       ??1ExecutableShell@@UAE@XZ 10009610 f   PlugInLib:ExecutableShell.obj
 0001:00008680       ?addMenuLocation@ExecutableShell@@IAEXABV?$basic_string@DU?$char_traits@D@std@@V?$allocator@D@2@@std@@@Z 10009680 f   PlugInLib:ExecutableShell.obj
 0001:00008690       ??_GExecutableShell@@UAEPAXI@Z 10009690 f i PlugInLib:ExecutableShell.obj
 0001:00008690       ??_EExecutableShell@@UAEPAXI@Z 10009690 f i PlugInLib:ExecutableShell.obj
 0001:000086b0       ?setMenuLocation@ExecutableShell@@IAEXABV?$basic_string@DU?$char_traits@D@std@@V?$allocator@D@2@@std@@@Z 100096b0 f   PlugInLib:ExecutableShell.obj
 0001:00008700       ??0out_of_range@std@@QAE@ABV?$basic_string@DU?$char_traits@D@std@@V?$allocator@D@2@@1@@Z 10009700 f i PlugInLib:PlugInShell.obj
 0001:00008720       ??1out_of_range@std@@UAE@XZ 10009720 f i PlugInLib:PlugInShell.obj
 0001:00008740       ??_Eout_of_range@std@@UAEPAXI@Z 10009740 f i PlugInLib:PlugInShell.obj
 0001:00008740       ??_Gout_of_range@std@@UAEPAXI@Z 10009740 f i PlugInLib:PlugInShell.obj
 0001:00008770       ??1SessionItem@@MAE@XZ     10009770 f i PlugInLib:PlugInShell.obj
 0001:00008780       ??_ESessionItem@@MAEPAXI@Z 10009780 f i PlugInLib:PlugInShell.obj
 0001:00008780       ??_GSessionItem@@MAEPAXI@Z 10009780 f i PlugInLib:PlugInShell.obj
 0001:000087a0       ??1SessionItemExt1@@MAE@XZ 100097a0 f i PlugInLib:PlugInShell.obj
 0001:000087b0       ??_ESessionItemExt1@@MAEPAXI@Z 100097b0 f i PlugInLib:PlugInShell.obj
 0001:000087b0       ??_GSessionItemExt1@@MAEPAXI@Z 100097b0 f i PlugInLib:PlugInShell.obj
 0001:000087d0       ??1PlugIn@@MAE@XZ          100097d0 f i PlugInLib:PlugInShell.obj
 0001:000087e0       ??0SessionItemExt1@@QAE@XZ 100097e0 f i PlugInLib:PlugInShell.obj
 0001:000087f0       ??0SessionItem@@QAE@XZ     100097f0 f i PlugInLib:PlugInShell.obj
 0001:00008800       ?serialize@PlugInShell@@UBE_NAAVSessionItemSerializer@@@Z 10009800 f   PlugInLib:PlugInShell.obj
 0001:00008810       ?deserialize@PlugInShell@@UAE_NAAVSessionItemDeserializer@@@Z 10009810 f   PlugInLib:PlugInShell.obj
 0001:00008820       ?getVersion@PlugInShell@@UBE?AV?$basic_string@DU?$char_traits@D@std@@V?$allocator@D@2@@std@@XZ 10009820 f   PlugInLib:PlugInShell.obj
 0001:00008850       ?isProduction@PlugInShell@@UBE_NXZ 10009850 f   PlugInLib:PlugInShell.obj
 0001:00008860       ?getCreator@PlugInShell@@UBE?AV?$basic_string@DU?$char_traits@D@std@@V?$allocator@D@2@@std@@XZ 10009860 f   PlugInLib:PlugInShell.obj
 0001:00008890       ?getCopyright@PlugInShell@@UBE?AV?$basic_string@DU?$char_traits@D@std@@V?$allocator@D@2@@std@@XZ 10009890 f   PlugInLib:PlugInShell.obj
 0001:000088c0       ?getDescription@PlugInShell@@UBE?AV?$basic_string@DU?$char_traits@D@std@@V?$allocator@D@2@@std@@XZ 100098c0 f   PlugInLib:PlugInShell.obj
 0001:000088f0       ?getShortDescription@PlugInShell@@UBE?AV?$basic_string@DU?$char_traits@D@std@@V?$allocator@D@2@@std@@XZ 100098f0 f   PlugInLib:PlugInShell.obj
 0001:00008920       ?getDescriptorId@PlugInShell@@UBE?AV?$basic_string@DU?$char_traits@D@std@@V?$allocator@D@2@@std@@XZ 10009920 f   PlugInLib:PlugInShell.obj
 0001:00008950       ?getType@PlugInShell@@UBE?AV?$basic_string@DU?$char_traits@D@std@@V?$allocator@D@2@@std@@XZ 10009950 f   PlugInLib:PlugInShell.obj
 0001:00008980       ?getSubtype@PlugInShell@@UBE?AV?$basic_string@DU?$char_traits@D@std@@V?$allocator@D@2@@std@@XZ 10009980 f   PlugInLib:PlugInShell.obj
 0001:000089b0       ?areMultipleInstancesAllowed@PlugInShell@@UBE_NXZ 100099b0 f   PlugInLib:PlugInShell.obj
 0001:000089c0       ?setVersion@PlugInShell@@IAEXABV?$basic_string@DU?$char_traits@D@std@@V?$allocator@D@2@@std@@@Z 100099c0 f   PlugInLib:PlugInShell.obj
 0001:000089d0       ?setProductionStatus@PlugInShell@@IAEX_N@Z 100099d0 f   PlugInLib:PlugInShell.obj
 0001:000089e0       ?setCreator@PlugInShell@@IAEXABV?$basic_string@DU?$char_traits@D@std@@V?$allocator@D@2@@std@@@Z 100099e0 f   PlugInLib:PlugInShell.obj
 0001:000089f0       ?setCopyright@PlugInShell@@IAEXABV?$basic_string@DU?$char_traits@D@std@@V?$allocator@D@2@@std@@@Z 100099f0 f   PlugInLib:PlugInShell.obj
 0001:00008a00       ?setDescription@PlugInShell@@IAEXABV?$basic_string@DU?$char_traits@D@std@@V?$allocator@D@2@@std@@@Z 10009a00 f   PlugInLib:PlugInShell.obj
 0001:00008a10       ?setShortDescription@PlugInShell@@IAEXABV?$basic_string@DU?$char_traits@D@std@@V?$allocator@D@2@@std@@@Z 10009a10 f   PlugInLib:PlugInShell.obj
 0001:00008a20       ?setDescriptorId@PlugInShell@@IAEXABV?$basic_string@DU?$char_traits@D@std@@V?$allocator@D@2@@std@@@Z 10009a20 f   PlugInLib:PlugInShell.obj
 0001:00008a30       ?setType@PlugInShell@@IAEXABV?$basic_string@DU?$char_traits@D@std@@V?$allocator@D@2@@std@@@Z 10009a30 f   PlugInLib:PlugInShell.obj
 0001:00008a40       ?setSubtype@PlugInShell@@IAEXABV?$basic_string@DU?$char_traits@D@std@@V?$allocator@D@2@@std@@@Z 10009a40 f   PlugInLib:PlugInShell.obj
 0001:00008a50       ?allowMultipleInstances@PlugInShell@@IAEX_N@Z 10009a50 f   PlugInLib:PlugInShell.obj
 0001:00008a60       ?get@?$Resource@VSettableSessionItem@@VFactoryObject@@@@QBEPBVSettableSessionItem@@XZ 10009a60 f i PlugInLib:PlugInShell.obj
 0001:00008a70       ?get@?$Resource@VSettableSessionItem@@VFactoryObject@@@@QAEPAVSettableSessionItem@@XZ 10009a70 f i PlugInLib:PlugInShell.obj
 0001:00008a80       ??C?$Resource@VSettableSessionItem@@VFactoryObject@@@@QBEPBVSettableSessionItem@@XZ 10009a80 f i PlugInLib:PlugInShell.obj
 0001:00008a90       ??C?$Resource@VSettableSessionItem@@VFactoryObject@@@@QAEPAVSettableSessionItem@@XZ 10009a90 f i PlugInLib:PlugInShell.obj
 0001:00008aa0       ??1?$pair@$$CBV?$basic_string@DU?$char_traits@D@std@@V?$allocator@D@2@@std@@V12@@std@@QAE@XZ 10009aa0 f i PlugInLib:PlugInShell.obj
 0001:00008af0       ?_Color@?$_Tree@V?$_Tmap_traits@V?$basic_string@DU?$char_traits@D@std@@V?$allocator@D@2@@std@@V12@U?$less@V?$basic_string@DU?$char_traits@D@std@@V?$allocator@D@2@@std@@@2@V?$allocator@U?$pair@$$CBV?$basic_string@DU?$char_traits@D@std@@V?$allocator@D@2@@std@@V12@@std@@@2@$0A@@std@@@std@@KAAADPAU_Node@?$_Tree_nod@V?$_Tmap_traits@V?$basic_string@DU?$char_traits@D@std@@V?$allocator@D@2@@std@@V12@U?$less@V?$basic_string@DU?$char_traits@D@std@@V?$allocator@D@2@@std@@@2@V?$allocator@U?$pair@$$CBV?$basic_string@DU?$char_traits@D@std@@V?$allocator@D@2@@std@@V12@@std@@@2@$0A@@std@@@2@@Z 10009af0 f i PlugInLib:PlugInShell.obj
 0001:00008b00       ?_Isnil@?$_Tree@V?$_Tmap_traits@V?$basic_string@DU?$char_traits@D@std@@V?$allocator@D@2@@std@@V12@U?$less@V?$basic_string@DU?$char_traits@D@std@@V?$allocator@D@2@@std@@@2@V?$allocator@U?$pair@$$CBV?$basic_string@DU?$char_traits@D@std@@V?$allocator@D@2@@std@@V12@@std@@@2@$0A@@std@@@std@@KAAADPAU_Node@?$_Tree_nod@V?$_Tmap_traits@V?$basic_string@DU?$char_traits@D@std@@V?$allocator@D@2@@std@@V12@U?$less@V?$basic_string@DU?$char_traits@D@std@@V?$allocator@D@2@@std@@@2@V?$allocator@U?$pair@$$CBV?$basic_string@DU?$char_traits@D@std@@V?$allocator@D@2@@std@@V12@@std@@@2@$0A@@std@@@2@@Z 10009b00 f i PlugInLib:PlugInShell.obj
 0001:00008b10       ?_Left@?$_Tree@V?$_Tmap_traits@V?$basic_string@DU?$char_traits@D@std@@V?$allocator@D@2@@std@@V12@U?$less@V?$basic_string@DU?$char_traits@D@std@@V?$allocator@D@2@@std@@@2@V?$allocator@U?$pair@$$CBV?$basic_string@DU?$char_traits@D@std@@V?$allocator@D@2@@std@@V12@@std@@@2@$0A@@std@@@std@@KAAAPAU_Node@?$_Tree_nod@V?$_Tmap_traits@V?$basic_string@DU?$char_traits@D@std@@V?$allocator@D@2@@std@@V12@U?$less@V?$basic_string@DU?$char_traits@D@std@@V?$allocator@D@2@@std@@@2@V?$allocator@U?$pair@$$CBV?$basic_string@DU?$char_traits@D@std@@V?$allocator@D@2@@std@@V12@@std@@@2@$0A@@std@@@2@PAU342@@Z 10009b10 f i PlugInLib:PlugInShell.obj
 0001:00008b20       ?_Parent@?$_Tree@V?$_Tmap_traits@V?$basic_string@DU?$char_traits@D@std@@V?$allocator@D@2@@std@@V12@U?$less@V?$basic_string@DU?$char_traits@D@std@@V?$allocator@D@2@@std@@@2@V?$allocator@U?$pair@$$CBV?$basic_string@DU?$char_traits@D@std@@V?$allocator@D@2@@std@@V12@@std@@@2@$0A@@std@@@std@@KAAAPAU_Node@?$_Tree_nod@V?$_Tmap_traits@V?$basic_string@DU?$char_traits@D@std@@V?$allocator@D@2@@std@@V12@U?$less@V?$basic_string@DU?$char_traits@D@std@@V?$allocator@D@2@@std@@@2@V?$allocator@U?$pair@$$CBV?$basic_string@DU?$char_traits@D@std@@V?$allocator@D@2@@std@@V12@@std@@@2@$0A@@std@@@2@PAU342@@Z 10009b20 f i PlugInLib:PlugInShell.obj
 0001:00008b30       ?_Right@?$_Tree@V?$_Tmap_traits@V?$basic_string@DU?$char_traits@D@std@@V?$allocator@D@2@@std@@V12@U?$less@V?$basic_string@DU?$char_traits@D@std@@V?$allocator@D@2@@std@@@2@V?$allocator@U?$pair@$$CBV?$basic_string@DU?$char_traits@D@std@@V?$allocator@D@2@@std@@V12@@std@@@2@$0A@@std@@@std@@KAAAPAU_Node@?$_Tree_nod@V?$_Tmap_traits@V?$basic_string@DU?$char_traits@D@std@@V?$allocator@D@2@@std@@V12@U?$less@V?$basic_string@DU?$char_traits@D@std@@V?$allocator@D@2@@std@@@2@V?$allocator@U?$pair@$$CBV?$basic_string@DU?$char_traits@D@std@@V?$allocator@D@2@@std@@V12@@std@@@2@$0A@@std@@@2@PAU342@@Z 10009b30 f i PlugInLib:PlugInShell.obj
 0001:00008b40       ?key_comp@?$_Tree@V?$_Tmap_traits@V?$basic_string@DU?$char_traits@D@std@@V?$allocator@D@2@@std@@V12@U?$less@V?$basic_string@DU?$char_traits@D@std@@V?$allocator@D@2@@std@@@2@V?$allocator@U?$pair@$$CBV?$basic_string@DU?$char_traits@D@std@@V?$allocator@D@2@@std@@V12@@std@@@2@$0A@@std@@@std@@QBE?AU?$less@V?$basic_string@DU?$char_traits@D@std@@V?$allocator@D@2@@std@@@2@XZ 10009b40 f i PlugInLib:PlugInShell.obj
 0001:00008b50       ?_Lmost@?$_Tree@V?$_Tmap_traits@V?$basic_string@DU?$char_traits@D@std@@V?$allocator@D@2@@std@@V12@U?$less@V?$basic_string@DU?$char_traits@D@std@@V?$allocator@D@2@@std@@@2@V?$allocator@U?$pair@$$CBV?$basic_string@DU?$char_traits@D@std@@V?$allocator@D@2@@std@@V12@@std@@@2@$0A@@std@@@std@@IBEAAPAU_Node@?$_Tree_nod@V?$_Tmap_traits@V?$basic_string@DU?$char_traits@D@std@@V?$allocator@D@2@@std@@V12@U?$less@V?$basic_string@DU?$char_traits@D@std@@V?$allocator@D@2@@std@@@2@V?$allocator@U?$pair@$$CBV?$basic_string@DU?$char_traits@D@std@@V?$allocator@D@2@@std@@V12@@std@@@2@$0A@@std@@@2@XZ 10009b50 f i PlugInLib:PlugInShell.obj
 0001:00008b60       ?_Max@?$_Tree@V?$_Tmap_traits@V?$basic_string@DU?$char_traits@D@std@@V?$allocator@D@2@@std@@V12@U?$less@V?$basic_string@DU?$char_traits@D@std@@V?$allocator@D@2@@std@@@2@V?$allocator@U?$pair@$$CBV?$basic_string@DU?$char_traits@D@std@@V?$allocator@D@2@@std@@V12@@std@@@2@$0A@@std@@@std@@KAPAU_Node@?$_Tree_nod@V?$_Tmap_traits@V?$basic_string@DU?$char_traits@D@std@@V?$allocator@D@2@@std@@V12@U?$less@V?$basic_string@DU?$char_traits@D@std@@V?$allocator@D@2@@std@@@2@V?$allocator@U?$pair@$$CBV?$basic_string@DU?$char_traits@D@std@@V?$allocator@D@2@@std@@V12@@std@@@2@$0A@@std@@@2@PAU342@@Z 10009b60 f i PlugInLib:PlugInShell.obj
 0001:00008b80       ?_Min@?$_Tree@V?$_Tmap_traits@V?$basic_string@DU?$char_traits@D@std@@V?$allocator@D@2@@std@@V12@U?$less@V?$basic_string@DU?$char_traits@D@std@@V?$allocator@D@2@@std@@@2@V?$allocator@U?$pair@$$CBV?$basic_string@DU?$char_traits@D@std@@V?$allocator@D@2@@std@@V12@@std@@@2@$0A@@std@@@std@@KAPAU_Node@?$_Tree_nod@V?$_Tmap_traits@V?$basic_string@DU?$char_traits@D@std@@V?$allocator@D@2@@std@@V12@U?$less@V?$basic_string@DU?$char_traits@D@std@@V?$allocator@D@2@@std@@@2@V?$allocator@U?$pair@$$CBV?$basic_string@DU?$char_traits@D@std@@V?$allocator@D@2@@std@@V12@@std@@@2@$0A@@std@@@2@PAU342@@Z 10009b80 f i PlugInLib:PlugInShell.obj
 0001:00008ba0       ?_Rmost@?$_Tree@V?$_Tmap_traits@V?$basic_string@DU?$char_traits@D@std@@V?$allocator@D@2@@std@@V12@U?$less@V?$basic_string@DU?$char_traits@D@std@@V?$allocator@D@2@@std@@@2@V?$allocator@U?$pair@$$CBV?$basic_string@DU?$char_traits@D@std@@V?$allocator@D@2@@std@@V12@@std@@@2@$0A@@std@@@std@@IBEAAPAU_Node@?$_Tree_nod@V?$_Tmap_traits@V?$basic_string@DU?$char_traits@D@std@@V?$allocator@D@2@@std@@V12@U?$less@V?$basic_string@DU?$char_traits@D@std@@V?$allocator@D@2@@std@@@2@V?$allocator@U?$pair@$$CBV?$basic_string@DU?$char_traits@D@std@@V?$allocator@D@2@@std@@V12@@std@@@2@$0A@@std@@@2@XZ 10009ba0 f i PlugInLib:PlugInShell.obj
 0001:00008bb0       ?_Root@?$_Tree@V?$_Tmap_traits@V?$basic_string@DU?$char_traits@D@std@@V?$allocator@D@2@@std@@V12@U?$less@V?$basic_string@DU?$char_traits@D@std@@V?$allocator@D@2@@std@@@2@V?$allocator@U?$pair@$$CBV?$basic_string@DU?$char_traits@D@std@@V?$allocator@D@2@@std@@V12@@std@@@2@$0A@@std@@@std@@IBEAAPAU_Node@?$_Tree_nod@V?$_Tmap_traits@V?$basic_string@DU?$char_traits@D@std@@V?$allocator@D@2@@std@@V12@U?$less@V?$basic_string@DU?$char_traits@D@std@@V?$allocator@D@2@@std@@@2@V?$allocator@U?$pair@$$CBV?$basic_string@DU?$char_traits@D@std@@V?$allocator@D@2@@std@@V12@@std@@@2@$0A@@std@@@2@XZ 10009bb0 f i PlugInLib:PlugInShell.obj
 0001:00008bc0       ?_Rrotate@?$_Tree@V?$_Tmap_traits@V?$basic_string@DU?$char_traits@D@std@@V?$allocator@D@2@@std@@V12@U?$less@V?$basic_string@DU?$char_traits@D@std@@V?$allocator@D@2@@std@@@2@V?$allocator@U?$pair@$$CBV?$basic_string@DU?$char_traits@D@std@@V?$allocator@D@2@@std@@V12@@std@@@2@$0A@@std@@@std@@IAEXPAU_Node@?$_Tree_nod@V?$_Tmap_traits@V?$basic_string@DU?$char_traits@D@std@@V?$allocator@D@2@@std@@V12@U?$less@V?$basic_string@DU?$char_traits@D@std@@V?$allocator@D@2@@std@@@2@V?$allocator@U?$pair@$$CBV?$basic_string@DU?$char_traits@D@std@@V?$allocator@D@2@@std@@V12@@std@@@2@$0A@@std@@@2@@Z 10009bc0 f i PlugInLib:PlugInShell.obj
 0001:00008c20       ??0?$allocator@U?$pair@$$CBV?$basic_string@DU?$char_traits@D@std@@V?$allocator@D@2@@std@@V12@@std@@@std@@QAE@XZ 10009c20 f i PlugInLib:PlugInShell.obj
 0001:00008c30       ??R?$less@V?$basic_string@DU?$char_traits@D@std@@V?$allocator@D@2@@std@@@std@@QBE_NABV?$basic_string@DU?$char_traits@D@std@@V?$allocator@D@2@@1@0@Z 10009c30 f i PlugInLib:PlugInShell.obj
 0001:00008c50       ?deallocate@?$allocator@U_Node@?$_Tree_nod@V?$_Tmap_traits@V?$basic_string@DU?$char_traits@D@std@@V?$allocator@D@2@@std@@V12@U?$less@V?$basic_string@DU?$char_traits@D@std@@V?$allocator@D@2@@std@@@2@V?$allocator@U?$pair@$$CBV?$basic_string@DU?$char_traits@D@std@@V?$allocator@D@2@@std@@V12@@std@@@2@$0A@@std@@@std@@@std@@QAEXPAU_Node@?$_Tree_nod@V?$_Tmap_traits@V?$basic_string@DU?$char_traits@D@std@@V?$allocator@D@2@@std@@V12@U?$less@V?$basic_string@DU?$char_traits@D@std@@V?$allocator@D@2@@std@@@2@V?$allocator@U?$pair@$$CBV?$basic_string@DU?$char_traits@D@std@@V?$allocator@D@2@@std@@V12@@std@@@2@$0A@@std@@@2@I@Z 10009c50 f i PlugInLib:PlugInShell.obj
 0001:00008c60       ??8const_iterator@?$_Tree@V?$_Tmap_traits@V?$basic_string@DU?$char_traits@D@std@@V?$allocator@D@2@@std@@V12@U?$less@V?$basic_string@DU?$char_traits@D@std@@V?$allocator@D@2@@std@@@2@V?$allocator@U?$pair@$$CBV?$basic_string@DU?$char_traits@D@std@@V?$allocator@D@2@@std@@V12@@std@@@2@$0A@@std@@@std@@QBE_NABV012@@Z 10009c60 f i PlugInLib:PlugInShell.obj
 0001:00008c90       ?_Mynode@const_iterator@?$_Tree@V?$_Tmap_traits@V?$basic_string@DU?$char_traits@D@std@@V?$allocator@D@2@@std@@V12@U?$less@V?$basic_string@DU?$char_traits@D@std@@V?$allocator@D@2@@std@@@2@V?$allocator@U?$pair@$$CBV?$basic_string@DU?$char_traits@D@std@@V?$allocator@D@2@@std@@V12@@std@@@2@$0A@@std@@@std@@QBEPAU_Node@?$_Tree_nod@V?$_Tmap_traits@V?$basic_string@DU?$char_traits@D@std@@V?$allocator@D@2@@std@@V12@U?$less@V?$basic_string@DU?$char_traits@D@std@@V?$allocator@D@2@@std@@@2@V?$allocator@U?$pair@$$CBV?$basic_string@DU?$char_traits@D@std@@V?$allocator@D@2@@std@@V12@@std@@@2@$0A@@std@@@3@XZ 10009c90 f i PlugInLib:PlugInShell.obj
 0001:00008ca0       ??0?$pair@$$CBV?$basic_string@DU?$char_traits@D@std@@V?$allocator@D@2@@std@@V12@@std@@QAE@ABV?$basic_string@DU?$char_traits@D@std@@V?$allocator@D@2@@1@0@Z 10009ca0 f i PlugInLib:PlugInShell.obj
 0001:00008d00       ?_Myval@?$_Tree@V?$_Tmap_traits@V?$basic_string@DU?$char_traits@D@std@@V?$allocator@D@2@@std@@V12@U?$less@V?$basic_string@DU?$char_traits@D@std@@V?$allocator@D@2@@std@@@2@V?$allocator@U?$pair@$$CBV?$basic_string@DU?$char_traits@D@std@@V?$allocator@D@2@@std@@V12@@std@@@2@$0A@@std@@@std@@KAAAU?$pair@$$CBV?$basic_string@DU?$char_traits@D@std@@V?$allocator@D@2@@std@@V12@@2@PAU_Node@?$_Tree_nod@V?$_Tmap_traits@V?$basic_string@DU?$char_traits@D@std@@V?$allocator@D@2@@std@@V12@U?$less@V?$basic_string@DU?$char_traits@D@std@@V?$allocator@D@2@@std@@@2@V?$allocator@U?$pair@$$CBV?$basic_string@DU?$char_traits@D@std@@V?$allocator@D@2@@std@@V12@@std@@@2@$0A@@std@@@2@@Z 10009d00 f i PlugInLib:PlugInShell.obj
 0001:00008d10       ?size@?$_Tree@V?$_Tmap_traits@V?$basic_string@DU?$char_traits@D@std@@V?$allocator@D@2@@std@@V12@U?$less@V?$basic_string@DU?$char_traits@D@std@@V?$allocator@D@2@@std@@@2@V?$allocator@U?$pair@$$CBV?$basic_string@DU?$char_traits@D@std@@V?$allocator@D@2@@std@@V12@@std@@@2@$0A@@std@@@std@@QBEIXZ 10009d10 f i PlugInLib:PlugInShell.obj
 0001:00008d20       ?_Kfn@?$_Tmap_traits@V?$basic_string@DU?$char_traits@D@std@@V?$allocator@D@2@@std@@V12@U?$less@V?$basic_string@DU?$char_traits@D@std@@V?$allocator@D@2@@std@@@2@V?$allocator@U?$pair@$$CBV?$basic_string@DU?$char_traits@D@std@@V?$allocator@D@2@@std@@V12@@std@@@2@$0A@@std@@SAABV?$basic_string@DU?$char_traits@D@std@@V?$allocator@D@2@@2@ABU?$pair@$$CBV?$basic_string@DU?$char_traits@D@std@@V?$allocator@D@2@@std@@V12@@2@@Z 10009d20 f i PlugInLib:PlugInShell.obj
 0001:00008d30       ??0?$allocator@U?$pair@$$CBV?$basic_string@DU?$char_traits@D@std@@V?$allocator@D@2@@std@@V12@@std@@@std@@QAE@ABV01@@Z 10009d30 f i PlugInLib:PlugInShell.obj
 0001:00008d40       ?_Nextnode@?$list@UContextMenuAction@@V?$allocator@UContextMenuAction@@@std@@@std@@KAAAPAU_Node@?$_List_nod@UContextMenuAction@@V?$allocator@UContextMenuAction@@@std@@@2@PAU342@@Z 10009d40 f i PlugInLib:PlugInShell.obj
 0001:00008d50       ?_Prevnode@?$list@UContextMenuAction@@V?$allocator@UContextMenuAction@@@std@@@std@@KAAAPAU_Node@?$_List_nod@UContextMenuAction@@V?$allocator@UContextMenuAction@@@std@@@2@PAU342@@Z 10009d50 f i PlugInLib:PlugInShell.obj
 0001:00008d60       ?deallocate@?$allocator@U_Node@?$_List_nod@UContextMenuAction@@V?$allocator@UContextMenuAction@@@std@@@std@@@std@@QAEXPAU_Node@?$_List_nod@UContextMenuAction@@V?$allocator@UContextMenuAction@@@std@@@2@I@Z 10009d60 f i PlugInLib:PlugInShell.obj
 0001:00008d70       ??Dconst_iterator@?$_Tree@V?$_Tmap_traits@V?$basic_string@DU?$char_traits@D@std@@V?$allocator@D@2@@std@@V12@U?$less@V?$basic_string@DU?$char_traits@D@std@@V?$allocator@D@2@@std@@@2@V?$allocator@U?$pair@$$CBV?$basic_string@DU?$char_traits@D@std@@V?$allocator@D@2@@std@@V12@@std@@@2@$0A@@std@@@std@@QBEABU?$pair@$$CBV?$basic_string@DU?$char_traits@D@std@@V?$allocator@D@2@@std@@V12@@2@XZ 10009d70 f i PlugInLib:PlugInShell.obj
 0001:00008da0       ??0?$_Bidit@U?$pair@$$CBV?$basic_string@DU?$char_traits@D@std@@V?$allocator@D@2@@std@@V12@@std@@HPBU12@ABU12@@std@@QAE@XZ 10009da0 f i PlugInLib:PlugInShell.obj
 0001:00008db0       ??0const_iterator@?$_Tree@V?$_Tmap_traits@V?$basic_string@DU?$char_traits@D@std@@V?$allocator@D@2@@std@@V12@U?$less@V?$basic_string@DU?$char_traits@D@std@@V?$allocator@D@2@@std@@@2@V?$allocator@U?$pair@$$CBV?$basic_string@DU?$char_traits@D@std@@V?$allocator@D@2@@std@@V12@@std@@@2@$0A@@std@@@std@@QAE@XZ 10009db0 f i PlugInLib:PlugInShell.obj
 0001:00008dc0       ?_Inc@const_iterator@?$_Tree@V?$_Tmap_traits@V?$basic_string@DU?$char_traits@D@std@@V?$allocator@D@2@@std@@V12@U?$less@V?$basic_string@DU?$char_traits@D@std@@V?$allocator@D@2@@std@@@2@V?$allocator@U?$pair@$$CBV?$basic_string@DU?$char_traits@D@std@@V?$allocator@D@2@@std@@V12@@std@@@2@$0A@@std@@@std@@QAEXXZ 10009dc0 f i PlugInLib:PlugInShell.obj
 0001:00008e30       ??0?$pair@Viterator@?$_Tree@V?$_Tmap_traits@V?$basic_string@DU?$char_traits@D@std@@V?$allocator@D@2@@std@@V12@U?$less@V?$basic_string@DU?$char_traits@D@std@@V?$allocator@D@2@@std@@@2@V?$allocator@U?$pair@$$CBV?$basic_string@DU?$char_traits@D@std@@V?$allocator@D@2@@std@@V12@@std@@@2@$0A@@std@@@std@@_N@std@@QAE@ABViterator@?$_Tree@V?$_Tmap_traits@V?$basic_string@DU?$char_traits@D@std@@V?$allocator@D@2@@std@@V12@U?$less@V?$basic_string@DU?$char_traits@D@std@@V?$allocator@D@2@@std@@@2@V?$allocator@U?$pair@$$CBV?$basic_string@DU?$char_traits@D@std@@V?$allocator@D@2@@std@@V12@@std@@@2@$0A@@std@@@1@AB_N@Z 10009e30 f i PlugInLib:PlugInShell.obj
 0001:00008e50       ??0?$_Tmap_traits@V?$basic_string@DU?$char_traits@D@std@@V?$allocator@D@2@@std@@V12@U?$less@V?$basic_string@DU?$char_traits@D@std@@V?$allocator@D@2@@std@@@2@V?$allocator@U?$pair@$$CBV?$basic_string@DU?$char_traits@D@std@@V?$allocator@D@2@@std@@V12@@std@@@2@$0A@@std@@QAE@U?$less@V?$basic_string@DU?$char_traits@D@std@@V?$allocator@D@2@@std@@@1@@Z 10009e50 f i PlugInLib:PlugInShell.obj
 0001:00008e60       ?max_size@?$allocator@U?$pair@$$CBV?$basic_string@DU?$char_traits@D@std@@V?$allocator@D@2@@std@@V12@@std@@@std@@QBEIXZ 10009e60 f i PlugInLib:PlugInShell.obj
 0001:00008e70       ?_Dec@const_iterator@?$_Tree@V?$_Tmap_traits@V?$basic_string@DU?$char_traits@D@std@@V?$allocator@D@2@@std@@V12@U?$less@V?$basic_string@DU?$char_traits@D@std@@V?$allocator@D@2@@std@@@2@V?$allocator@U?$pair@$$CBV?$basic_string@DU?$char_traits@D@std@@V?$allocator@D@2@@std@@V12@@std@@@2@$0A@@std@@@std@@QAEXXZ 10009e70 f i PlugInLib:PlugInShell.obj
 0001:00008f00       ??0?$pair@$$CBV?$basic_string@DU?$char_traits@D@std@@V?$allocator@D@2@@std@@V12@@std@@QAE@ABU01@@Z 10009f00 f i PlugInLib:PlugInShell.obj
 0001:00008f60       ??$swap@D@std@@YAXAAD0@Z   10009f60 f i PlugInLib:PlugInShell.obj
 0001:00008f80       ??$?0U?$pair@$$CBV?$basic_string@DU?$char_traits@D@std@@V?$allocator@D@2@@std@@V12@@std@@@?$allocator@PAU_Node@?$_Tree_nod@V?$_Tmap_traits@V?$basic_string@DU?$char_traits@D@std@@V?$allocator@D@2@@std@@V12@U?$less@V?$basic_string@DU?$char_traits@D@std@@V?$allocator@D@2@@std@@@2@V?$allocator@U?$pair@$$CBV?$basic_string@DU?$char_traits@D@std@@V?$allocator@D@2@@std@@V12@@std@@@2@$0A@@std@@@std@@@std@@QAE@ABV?$allocator@U?$pair@$$CBV?$basic_string@DU?$char_traits@D@std@@V?$allocator@D@2@@std@@V12@@std@@@1@@Z 10009f80 f i PlugInLib:PlugInShell.obj
 0001:00008f90       ??$_Destroy@PAU_Node@?$_Tree_nod@V?$_Tmap_traits@V?$basic_string@DU?$char_traits@D@std@@V?$allocator@D@2@@std@@V12@U?$less@V?$basic_string@DU?$char_traits@D@std@@V?$allocator@D@2@@std@@@2@V?$allocator@U?$pair@$$CBV?$basic_string@DU?$char_traits@D@std@@V?$allocator@D@2@@std@@V12@@std@@@2@$0A@@std@@@std@@@std@@YAXPAPAU_Node@?$_Tree_nod@V?$_Tmap_traits@V?$basic_string@DU?$char_traits@D@std@@V?$allocator@D@2@@std@@V12@U?$less@V?$basic_string@DU?$char_traits@D@std@@V?$allocator@D@2@@std@@@2@V?$allocator@U?$pair@$$CBV?$basic_string@DU?$char_traits@D@std@@V?$allocator@D@2@@std@@V12@@std@@@2@$0A@@std@@@0@@Z 10009f90 f i PlugInLib:PlugInShell.obj
 0001:00008fa0       ??$_Destroy@PAU_Node@?$_List_nod@UContextMenuAction@@V?$allocator@UContextMenuAction@@@std@@@std@@@std@@YAXPAPAU_Node@?$_List_nod@UContextMenuAction@@V?$allocator@UContextMenuAction@@@std@@@0@@Z 10009fa0 f i PlugInLib:PlugInShell.obj
 0001:00008fb0       ??$?0U?$pair@$$CBV?$basic_string@DU?$char_traits@D@std@@V?$allocator@D@2@@std@@V12@@std@@@?$allocator@U_Node@?$_Tree_nod@V?$_Tmap_traits@V?$basic_string@DU?$char_traits@D@std@@V?$allocator@D@2@@std@@V12@U?$less@V?$basic_string@DU?$char_traits@D@std@@V?$allocator@D@2@@std@@@2@V?$allocator@U?$pair@$$CBV?$basic_string@DU?$char_traits@D@std@@V?$allocator@D@2@@std@@V12@@std@@@2@$0A@@std@@@std@@@std@@QAE@ABV?$allocator@U?$pair@$$CBV?$basic_string@DU?$char_traits@D@std@@V?$allocator@D@2@@std@@V12@@std@@@1@@Z 10009fb0 f i PlugInLib:PlugInShell.obj
 0001:00008fc0       ??$_Allocate@U_Node@?$_Tree_nod@V?$_Tmap_traits@V?$basic_string@DU?$char_traits@D@std@@V?$allocator@D@2@@std@@V12@U?$less@V?$basic_string@DU?$char_traits@D@std@@V?$allocator@D@2@@std@@@2@V?$allocator@U?$pair@$$CBV?$basic_string@DU?$char_traits@D@std@@V?$allocator@D@2@@std@@V12@@std@@@2@$0A@@std@@@std@@@std@@YAPAU_Node@?$_Tree_nod@V?$_Tmap_traits@V?$basic_string@DU?$char_traits@D@std@@V?$allocator@D@2@@std@@V12@U?$less@V?$basic_string@DU?$char_traits@D@std@@V?$allocator@D@2@@std@@@2@V?$allocator@U?$pair@$$CBV?$basic_string@DU?$char_traits@D@std@@V?$allocator@D@2@@std@@V12@@std@@@2@$0A@@std@@@0@IPAU120@@Z 10009fc0 f i PlugInLib:PlugInShell.obj
 0001:00009020       ??$_Construct@PAU_Node@?$_Tree_nod@V?$_Tmap_traits@V?$basic_string@DU?$char_traits@D@std@@V?$allocator@D@2@@std@@V12@U?$less@V?$basic_string@DU?$char_traits@D@std@@V?$allocator@D@2@@std@@@2@V?$allocator@U?$pair@$$CBV?$basic_string@DU?$char_traits@D@std@@V?$allocator@D@2@@std@@V12@@std@@@2@$0A@@std@@@std@@PAU123@@std@@YAXPAPAU_Node@?$_Tree_nod@V?$_Tmap_traits@V?$basic_string@DU?$char_traits@D@std@@V?$allocator@D@2@@std@@V12@U?$less@V?$basic_string@DU?$char_traits@D@std@@V?$allocator@D@2@@std@@@2@V?$allocator@U?$pair@$$CBV?$basic_string@DU?$char_traits@D@std@@V?$allocator@D@2@@std@@V12@@std@@@2@$0A@@std@@@0@ABQAU120@@Z 1000a020 f i PlugInLib:PlugInShell.obj
 0001:00009040       ??1_Node@?$_Tree_nod@V?$_Tmap_traits@V?$basic_string@DU?$char_traits@D@std@@V?$allocator@D@2@@std@@V12@U?$less@V?$basic_string@DU?$char_traits@D@std@@V?$allocator@D@2@@std@@@2@V?$allocator@U?$pair@$$CBV?$basic_string@DU?$char_traits@D@std@@V?$allocator@D@2@@std@@V12@@std@@@2@$0A@@std@@@std@@QAE@XZ 1000a040 f i PlugInLib:PlugInShell.obj
 0001:00009050       ??1ContextMenuAction@@QAE@XZ 1000a050 f i PlugInLib:PlugInShell.obj
 0001:000090a0       ??0PlugIn@@QAE@XZ          1000a0a0 f i PlugInLib:PlugInShell.obj
 0001:000090b0       ??_GPlugIn@@MAEPAXI@Z      1000a0b0 f i PlugInLib:PlugInShell.obj
 0001:000090b0       ??_EPlugIn@@MAEPAXI@Z      1000a0b0 f i PlugInLib:PlugInShell.obj
 0001:000090d0       ?getId@PlugInShell@@UBEABV?$basic_string@DU?$char_traits@D@std@@V?$allocator@D@2@@std@@XZ 1000a0d0 f   PlugInLib:PlugInShell.obj
 0001:000090e0       ?getIcon@PlugInShell@@UBEABVQIcon@@XZ 1000a0e0 f   PlugInLib:PlugInShell.obj
 0001:000090f0       ?getName@PlugInShell@@UBEABV?$basic_string@DU?$char_traits@D@std@@V?$allocator@D@2@@std@@XZ 1000a0f0 f   PlugInLib:PlugInShell.obj
 0001:00009100       ?getDisplayName@PlugInShell@@UBEABV?$basic_string@DU?$char_traits@D@std@@V?$allocator@D@2@@std@@XZ 1000a100 f   PlugInLib:PlugInShell.obj
 0001:00009110       ?getDisplayText@PlugInShell@@UBEABV?$basic_string@DU?$char_traits@D@std@@V?$allocator@D@2@@std@@XZ 1000a110 f   PlugInLib:PlugInShell.obj
 0001:00009120       ?hasFilenameDisplay@PlugInShell@@UBE_NXZ 1000a120 f   PlugInLib:PlugInShell.obj
 0001:00009130       ?setId@PlugInShell@@UAE_NABVSessionItemId@@@Z 1000a130 f   PlugInLib:PlugInShell.obj
 0001:00009140       ?setName@PlugInShell@@IAEXABV?$basic_string@DU?$char_traits@D@std@@V?$allocator@D@2@@std@@@Z 1000a140 f   PlugInLib:PlugInShell.obj
 0001:00009150       ?setDisplayName@PlugInShell@@IAEXABV?$basic_string@DU?$char_traits@D@std@@V?$allocator@D@2@@std@@@Z 1000a150 f   PlugInLib:PlugInShell.obj
 0001:00009160       ?setDisplayText@PlugInShell@@IAEXABV?$basic_string@DU?$char_traits@D@std@@V?$allocator@D@2@@std@@@Z 1000a160 f   PlugInLib:PlugInShell.obj
 0001:00009170       ?addContextMenuAction@PlugInShell@@IAEXABUContextMenuAction@@@Z 1000a170 f   PlugInLib:PlugInShell.obj
 0001:00009180       ?setContextMenuActions@PlugInShell@@IAEXABV?$list@UContextMenuAction@@V?$allocator@UContextMenuAction@@@std@@@std@@@Z 1000a180 f   PlugInLib:PlugInShell.obj
 0001:00009190       ?setFilenameDisplay@PlugInShell@@IAEX_N@Z 1000a190 f   PlugInLib:PlugInShell.obj
 0001:000091a0       ?addPropertiesPage@PlugInShell@@IAEXABV?$basic_string@DU?$char_traits@D@std@@V?$allocator@D@2@@std@@@Z 1000a1a0 f   PlugInLib:PlugInShell.obj
 0001:000091b0       ?removePropertiesPage@PlugInShell@@IAEXABV?$basic_string@DU?$char_traits@D@std@@V?$allocator@D@2@@std@@@Z 1000a1b0 f   PlugInLib:PlugInShell.obj
 0001:000091c0       ?setPropertiesPages@PlugInShell@@IAEXABV?$vector@V?$basic_string@DU?$char_traits@D@std@@V?$allocator@D@2@@std@@V?$allocator@V?$basic_string@DU?$char_traits@D@std@@V?$allocator@D@2@@std@@@2@@std@@@Z 1000a1c0 f   PlugInLib:PlugInShell.obj
 0001:000091d0       ?isValidSessionSaveItem@PlugInShell@@UBE_NXZ 1000a1d0 f   PlugInLib:PlugInShell.obj
 0001:00009220       ?setValidSessionSaveItem@PlugInShell@@IAEX_N@Z 1000a220 f   PlugInLib:PlugInShell.obj
 0001:00009270       ??9const_iterator@?$_Tree@V?$_Tmap_traits@V?$basic_string@DU?$char_traits@D@std@@V?$allocator@D@2@@std@@V12@U?$less@V?$basic_string@DU?$char_traits@D@std@@V?$allocator@D@2@@std@@@2@V?$allocator@U?$pair@$$CBV?$basic_string@DU?$char_traits@D@std@@V?$allocator@D@2@@std@@V12@@std@@@2@$0A@@std@@@std@@QBE_NABV012@@Z 1000a270 f i PlugInLib:PlugInShell.obj
 0001:000092a0       ??0?$Resource@VSettableSessionItem@@VFactoryObject@@@@QAE@ABVArgs@FactoryAllocator@@@Z 1000a2a0 f i PlugInLib:PlugInShell.obj
 0001:00009300       ?destroyIfOwned@?$Resource@VSettableSessionItem@@VFactoryObject@@@@IAEXXZ 1000a300 f i PlugInLib:PlugInShell.obj
 0001:00009330       ?_Key@?$_Tree@V?$_Tmap_traits@V?$basic_string@DU?$char_traits@D@std@@V?$allocator@D@2@@std@@V12@U?$less@V?$basic_string@DU?$char_traits@D@std@@V?$allocator@D@2@@std@@@2@V?$allocator@U?$pair@$$CBV?$basic_string@DU?$char_traits@D@std@@V?$allocator@D@2@@std@@V12@@std@@@2@$0A@@std@@@std@@KAABV?$basic_string@DU?$char_traits@D@std@@V?$allocator@D@2@@2@PAU_Node@?$_Tree_nod@V?$_Tmap_traits@V?$basic_string@DU?$char_traits@D@std@@V?$allocator@D@2@@std@@V12@U?$less@V?$basic_string@DU?$char_traits@D@std@@V?$allocator@D@2@@std@@@2@V?$allocator@U?$pair@$$CBV?$basic_string@DU?$char_traits@D@std@@V?$allocator@D@2@@std@@V12@@std@@@2@$0A@@std@@@2@@Z 1000a330 f i PlugInLib:PlugInShell.obj
 0001:00009340       ?get_allocator@?$_Tree@V?$_Tmap_traits@V?$basic_string@DU?$char_traits@D@std@@V?$allocator@D@2@@std@@V12@U?$less@V?$basic_string@DU?$char_traits@D@std@@V?$allocator@D@2@@std@@@2@V?$allocator@U?$pair@$$CBV?$basic_string@DU?$char_traits@D@std@@V?$allocator@D@2@@std@@V12@@std@@@2@$0A@@std@@@std@@QBE?AV?$allocator@U?$pair@$$CBV?$basic_string@DU?$char_traits@D@std@@V?$allocator@D@2@@std@@V12@@std@@@2@XZ 1000a340 f i PlugInLib:PlugInShell.obj
 0001:00009350       ?_Lrotate@?$_Tree@V?$_Tmap_traits@V?$basic_string@DU?$char_traits@D@std@@V?$allocator@D@2@@std@@V12@U?$less@V?$basic_string@DU?$char_traits@D@std@@V?$allocator@D@2@@std@@@2@V?$allocator@U?$pair@$$CBV?$basic_string@DU?$char_traits@D@std@@V?$allocator@D@2@@std@@V12@@std@@@2@$0A@@std@@@std@@IAEXPAU_Node@?$_Tree_nod@V?$_Tmap_traits@V?$basic_string@DU?$char_traits@D@std@@V?$allocator@D@2@@std@@V12@U?$less@V?$basic_string@DU?$char_traits@D@std@@V?$allocator@D@2@@std@@@2@V?$allocator@U?$pair@$$CBV?$basic_string@DU?$char_traits@D@std@@V?$allocator@D@2@@std@@V12@@std@@@2@$0A@@std@@@2@@Z 1000a350 f i PlugInLib:PlugInShell.obj
 0001:000093a0       ??Diterator@?$_Tree@V?$_Tmap_traits@V?$basic_string@DU?$char_traits@D@std@@V?$allocator@D@2@@std@@V12@U?$less@V?$basic_string@DU?$char_traits@D@std@@V?$allocator@D@2@@std@@@2@V?$allocator@U?$pair@$$CBV?$basic_string@DU?$char_traits@D@std@@V?$allocator@D@2@@std@@V12@@std@@@2@$0A@@std@@@std@@QBEAAU?$pair@$$CBV?$basic_string@DU?$char_traits@D@std@@V?$allocator@D@2@@std@@V12@@2@XZ 1000a3a0 f i PlugInLib:PlugInShell.obj
 0001:000093d0       ?_Lbound@?$_Tree@V?$_Tmap_traits@V?$basic_string@DU?$char_traits@D@std@@V?$allocator@D@2@@std@@V12@U?$less@V?$basic_string@DU?$char_traits@D@std@@V?$allocator@D@2@@std@@@2@V?$allocator@U?$pair@$$CBV?$basic_string@DU?$char_traits@D@std@@V?$allocator@D@2@@std@@V12@@std@@@2@$0A@@std@@@std@@IBEPAU_Node@?$_Tree_nod@V?$_Tmap_traits@V?$basic_string@DU?$char_traits@D@std@@V?$allocator@D@2@@std@@V12@U?$less@V?$basic_string@DU?$char_traits@D@std@@V?$allocator@D@2@@std@@@2@V?$allocator@U?$pair@$$CBV?$basic_string@DU?$char_traits@D@std@@V?$allocator@D@2@@std@@V12@@std@@@2@$0A@@std@@@2@ABV?$basic_string@DU?$char_traits@D@std@@V?$allocator@D@2@@2@@Z 1000a3d0 f i PlugInLib:PlugInShell.obj
 0001:00009420       ?destroy@?$allocator@PAU_Node@?$_Tree_nod@V?$_Tmap_traits@V?$basic_string@DU?$char_traits@D@std@@V?$allocator@D@2@@std@@V12@U?$less@V?$basic_string@DU?$char_traits@D@std@@V?$allocator@D@2@@std@@@2@V?$allocator@U?$pair@$$CBV?$basic_string@DU?$char_traits@D@std@@V?$allocator@D@2@@std@@V12@@std@@@2@$0A@@std@@@std@@@std@@QAEXPAPAU_Node@?$_Tree_nod@V?$_Tmap_traits@V?$basic_string@DU?$char_traits@D@std@@V?$allocator@D@2@@std@@V12@U?$less@V?$basic_string@DU?$char_traits@D@std@@V?$allocator@D@2@@std@@@2@V?$allocator@U?$pair@$$CBV?$basic_string@DU?$char_traits@D@std@@V?$allocator@D@2@@std@@V12@@std@@@2@$0A@@std@@@2@@Z 1000a420 f i PlugInLib:PlugInShell.obj
 0001:00009430       ?destroy@?$allocator@PAU_Node@?$_List_nod@UContextMenuAction@@V?$allocator@UContextMenuAction@@@std@@@std@@@std@@QAEXPAPAU_Node@?$_List_nod@UContextMenuAction@@V?$allocator@UContextMenuAction@@@std@@@2@@Z 1000a430 f i PlugInLib:PlugInShell.obj
 0001:00009440       ??0iterator@?$_Tree@V?$_Tmap_traits@V?$basic_string@DU?$char_traits@D@std@@V?$allocator@D@2@@std@@V12@U?$less@V?$basic_string@DU?$char_traits@D@std@@V?$allocator@D@2@@std@@@2@V?$allocator@U?$pair@$$CBV?$basic_string@DU?$char_traits@D@std@@V?$allocator@D@2@@std@@V12@@std@@@2@$0A@@std@@@std@@QAE@XZ 1000a440 f i PlugInLib:PlugInShell.obj
 0001:00009450       ??0const_iterator@?$_Tree@V?$_Tmap_traits@V?$basic_string@DU?$char_traits@D@std@@V?$allocator@D@2@@std@@V12@U?$less@V?$basic_string@DU?$char_traits@D@std@@V?$allocator@D@2@@std@@@2@V?$allocator@U?$pair@$$CBV?$basic_string@DU?$char_traits@D@std@@V?$allocator@D@2@@std@@V12@@std@@@2@$0A@@std@@@std@@QAE@PAU_Node@?$_Tree_nod@V?$_Tmap_traits@V?$basic_string@DU?$char_traits@D@std@@V?$allocator@D@2@@std@@V12@U?$less@V?$basic_string@DU?$char_traits@D@std@@V?$allocator@D@2@@std@@@2@V?$allocator@U?$pair@$$CBV?$basic_string@DU?$char_traits@D@std@@V?$allocator@D@2@@std@@V12@@std@@@2@$0A@@std@@@2@PBV12@@Z 1000a450 f i PlugInLib:PlugInShell.obj
 0001:00009480       ??Econst_iterator@?$_Tree@V?$_Tmap_traits@V?$basic_string@DU?$char_traits@D@std@@V?$allocator@D@2@@std@@V12@U?$less@V?$basic_string@DU?$char_traits@D@std@@V?$allocator@D@2@@std@@@2@V?$allocator@U?$pair@$$CBV?$basic_string@DU?$char_traits@D@std@@V?$allocator@D@2@@std@@V12@@std@@@2@$0A@@std@@@std@@QAEAAV012@XZ 1000a480 f i PlugInLib:PlugInShell.obj
 0001:00009490       ?max_size@?$_Tree@V?$_Tmap_traits@V?$basic_string@DU?$char_traits@D@std@@V?$allocator@D@2@@std@@V12@U?$less@V?$basic_string@DU?$char_traits@D@std@@V?$allocator@D@2@@std@@@2@V?$allocator@U?$pair@$$CBV?$basic_string@DU?$char_traits@D@std@@V?$allocator@D@2@@std@@V12@@std@@@2@$0A@@std@@@std@@QBEIXZ 1000a490 f i PlugInLib:PlugInShell.obj
 0001:000094a0       ??0?$_Tree_nod@V?$_Tmap_traits@V?$basic_string@DU?$char_traits@D@std@@V?$allocator@D@2@@std@@V12@U?$less@V?$basic_string@DU?$char_traits@D@std@@V?$allocator@D@2@@std@@@2@V?$allocator@U?$pair@$$CBV?$basic_string@DU?$char_traits@D@std@@V?$allocator@D@2@@std@@V12@@std@@@2@$0A@@std@@@std@@IAE@ABU?$less@V?$basic_string@DU?$char_traits@D@std@@V?$allocator@D@2@@std@@@1@V?$allocator@U?$pair@$$CBV?$basic_string@DU?$char_traits@D@std@@V?$allocator@D@2@@std@@V12@@std@@@1@@Z 1000a4a0 f i PlugInLib:PlugInShell.obj
 0001:000094b0       ?allocate@?$allocator@U_Node@?$_Tree_nod@V?$_Tmap_traits@V?$basic_string@DU?$char_traits@D@std@@V?$allocator@D@2@@std@@V12@U?$less@V?$basic_string@DU?$char_traits@D@std@@V?$allocator@D@2@@std@@@2@V?$allocator@U?$pair@$$CBV?$basic_string@DU?$char_traits@D@std@@V?$allocator@D@2@@std@@V12@@std@@@2@$0A@@std@@@std@@@std@@QAEPAU_Node@?$_Tree_nod@V?$_Tmap_traits@V?$basic_string@DU?$char_traits@D@std@@V?$allocator@D@2@@std@@V12@U?$less@V?$basic_string@DU?$char_traits@D@std@@V?$allocator@D@2@@std@@@2@V?$allocator@U?$pair@$$CBV?$basic_string@DU?$char_traits@D@std@@V?$allocator@D@2@@std@@V12@@std@@@2@$0A@@std@@@2@I@Z 1000a4b0 f i PlugInLib:PlugInShell.obj
 0001:000094d0       ?construct@?$allocator@PAU_Node@?$_Tree_nod@V?$_Tmap_traits@V?$basic_string@DU?$char_traits@D@std@@V?$allocator@D@2@@std@@V12@U?$less@V?$basic_string@DU?$char_traits@D@std@@V?$allocator@D@2@@std@@@2@V?$allocator@U?$pair@$$CBV?$basic_string@DU?$char_traits@D@std@@V?$allocator@D@2@@std@@V12@@std@@@2@$0A@@std@@@std@@@std@@QAEXPAPAU_Node@?$_Tree_nod@V?$_Tmap_traits@V?$basic_string@DU?$char_traits@D@std@@V?$allocator@D@2@@std@@V12@U?$less@V?$basic_string@DU?$char_traits@D@std@@V?$allocator@D@2@@std@@@2@V?$allocator@U?$pair@$$CBV?$basic_string@DU?$char_traits@D@std@@V?$allocator@D@2@@std@@V12@@std@@@2@$0A@@std@@@2@ABQAU342@@Z 1000a4d0 f i PlugInLib:PlugInShell.obj
 0001:000094f0       ??Fconst_iterator@?$_Tree@V?$_Tmap_traits@V?$basic_string@DU?$char_traits@D@std@@V?$allocator@D@2@@std@@V12@U?$less@V?$basic_string@DU?$char_traits@D@std@@V?$allocator@D@2@@std@@@2@V?$allocator@U?$pair@$$CBV?$basic_string@DU?$char_traits@D@std@@V?$allocator@D@2@@std@@V12@@std@@@2@$0A@@std@@@std@@QAEAAV012@XZ 1000a4f0 f i PlugInLib:PlugInShell.obj
 0001:00009500       ??0_Node@?$_Tree_nod@V?$_Tmap_traits@V?$basic_string@DU?$char_traits@D@std@@V?$allocator@D@2@@std@@V12@U?$less@V?$basic_string@DU?$char_traits@D@std@@V?$allocator@D@2@@std@@@2@V?$allocator@U?$pair@$$CBV?$basic_string@DU?$char_traits@D@std@@V?$allocator@D@2@@std@@V12@@std@@@2@$0A@@std@@@std@@QAE@PAU012@00ABU?$pair@$$CBV?$basic_string@DU?$char_traits@D@std@@V?$allocator@D@2@@std@@V12@@2@D@Z 1000a500 f i PlugInLib:PlugInShell.obj
 0001:00009540       ??_G_Node@?$_Tree_nod@V?$_Tmap_traits@V?$basic_string@DU?$char_traits@D@std@@V?$allocator@D@2@@std@@V12@U?$less@V?$basic_string@DU?$char_traits@D@std@@V?$allocator@D@2@@std@@@2@V?$allocator@U?$pair@$$CBV?$basic_string@DU?$char_traits@D@std@@V?$allocator@D@2@@std@@V12@@std@@@2@$0A@@std@@@std@@QAEPAXI@Z 1000a540 f i PlugInLib:PlugInShell.obj
 0001:00009570       ??1_Node@?$_List_nod@UContextMenuAction@@V?$allocator@UContextMenuAction@@@std@@@std@@QAE@XZ 1000a570 f i PlugInLib:PlugInShell.obj
 0001:00009580       ??1?$Resource@VSettableSessionItem@@VFactoryObject@@@@UAE@XZ 1000a580 f i PlugInLib:PlugInShell.obj
 0001:00009600       ??_E?$Resource@VSettableSessionItem@@VFactoryObject@@@@UAEPAXI@Z 1000a600 f i PlugInLib:PlugInShell.obj
 0001:00009600       ??_G?$Resource@VSettableSessionItem@@VFactoryObject@@@@UAEPAXI@Z 1000a600 f i PlugInLib:PlugInShell.obj
 0001:00009620       ??0iterator@?$_Tree@V?$_Tmap_traits@V?$basic_string@DU?$char_traits@D@std@@V?$allocator@D@2@@std@@V12@U?$less@V?$basic_string@DU?$char_traits@D@std@@V?$allocator@D@2@@std@@@2@V?$allocator@U?$pair@$$CBV?$basic_string@DU?$char_traits@D@std@@V?$allocator@D@2@@std@@V12@@std@@@2@$0A@@std@@@std@@QAE@PAU_Node@?$_Tree_nod@V?$_Tmap_traits@V?$basic_string@DU?$char_traits@D@std@@V?$allocator@D@2@@std@@V12@U?$less@V?$basic_string@DU?$char_traits@D@std@@V?$allocator@D@2@@std@@@2@V?$allocator@U?$pair@$$CBV?$basic_string@DU?$char_traits@D@std@@V?$allocator@D@2@@std@@V12@@std@@@2@$0A@@std@@@2@PBV12@@Z 1000a620 f i PlugInLib:PlugInShell.obj
 0001:00009650       ??Eiterator@?$_Tree@V?$_Tmap_traits@V?$basic_string@DU?$char_traits@D@std@@V?$allocator@D@2@@std@@V12@U?$less@V?$basic_string@DU?$char_traits@D@std@@V?$allocator@D@2@@std@@@2@V?$allocator@U?$pair@$$CBV?$basic_string@DU?$char_traits@D@std@@V?$allocator@D@2@@std@@V12@@std@@@2@$0A@@std@@@std@@QAEAAV012@XZ 1000a650 f i PlugInLib:PlugInShell.obj
 0001:00009660       ?begin@?$_Tree@V?$_Tmap_traits@V?$basic_string@DU?$char_traits@D@std@@V?$allocator@D@2@@std@@V12@U?$less@V?$basic_string@DU?$char_traits@D@std@@V?$allocator@D@2@@std@@@2@V?$allocator@U?$pair@$$CBV?$basic_string@DU?$char_traits@D@std@@V?$allocator@D@2@@std@@V12@@std@@@2@$0A@@std@@@std@@QAE?AViterator@12@XZ 1000a660 f i PlugInLib:PlugInShell.obj
 0001:00009680       ?_Buynode@?$_Tree@V?$_Tmap_traits@V?$basic_string@DU?$char_traits@D@std@@V?$allocator@D@2@@std@@V12@U?$less@V?$basic_string@DU?$char_traits@D@std@@V?$allocator@D@2@@std@@@2@V?$allocator@U?$pair@$$CBV?$basic_string@DU?$char_traits@D@std@@V?$allocator@D@2@@std@@V12@@std@@@2@$0A@@std@@@std@@IAEPAU_Node@?$_Tree_nod@V?$_Tmap_traits@V?$basic_string@DU?$char_traits@D@std@@V?$allocator@D@2@@std@@V12@U?$less@V?$basic_string@DU?$char_traits@D@std@@V?$allocator@D@2@@std@@@2@V?$allocator@U?$pair@$$CBV?$basic_string@DU?$char_traits@D@std@@V?$allocator@D@2@@std@@V12@@std@@@2@$0A@@std@@@2@XZ 1000a680 f i PlugInLib:PlugInShell.obj
 0001:000096c0       ??0?$_Tree_ptr@V?$_Tmap_traits@V?$basic_string@DU?$char_traits@D@std@@V?$allocator@D@2@@std@@V12@U?$less@V?$basic_string@DU?$char_traits@D@std@@V?$allocator@D@2@@std@@@2@V?$allocator@U?$pair@$$CBV?$basic_string@DU?$char_traits@D@std@@V?$allocator@D@2@@std@@V12@@std@@@2@$0A@@std@@@std@@IAE@ABU?$less@V?$basic_string@DU?$char_traits@D@std@@V?$allocator@D@2@@std@@@1@V?$allocator@U?$pair@$$CBV?$basic_string@DU?$char_traits@D@std@@V?$allocator@D@2@@std@@V12@@std@@@1@@Z 1000a6c0 f i PlugInLib:PlugInShell.obj
 0001:000096d0       ??Fiterator@?$_Tree@V?$_Tmap_traits@V?$basic_string@DU?$char_traits@D@std@@V?$allocator@D@2@@std@@V12@U?$less@V?$basic_string@DU?$char_traits@D@std@@V?$allocator@D@2@@std@@@2@V?$allocator@U?$pair@$$CBV?$basic_string@DU?$char_traits@D@std@@V?$allocator@D@2@@std@@V12@@std@@@2@$0A@@std@@@std@@QAEAAV012@XZ 1000a6d0 f i PlugInLib:PlugInShell.obj
 0001:000096e0       ?_Buynode@?$_Tree@V?$_Tmap_traits@V?$basic_string@DU?$char_traits@D@std@@V?$allocator@D@2@@std@@V12@U?$less@V?$basic_string@DU?$char_traits@D@std@@V?$allocator@D@2@@std@@@2@V?$allocator@U?$pair@$$CBV?$basic_string@DU?$char_traits@D@std@@V?$allocator@D@2@@std@@V12@@std@@@2@$0A@@std@@@std@@IAEPAU_Node@?$_Tree_nod@V?$_Tmap_traits@V?$basic_string@DU?$char_traits@D@std@@V?$allocator@D@2@@std@@V12@U?$less@V?$basic_string@DU?$char_traits@D@std@@V?$allocator@D@2@@std@@@2@V?$allocator@U?$pair@$$CBV?$basic_string@DU?$char_traits@D@std@@V?$allocator@D@2@@std@@V12@@std@@@2@$0A@@std@@@2@PAU342@00ABU?$pair@$$CBV?$basic_string@DU?$char_traits@D@std@@V?$allocator@D@2@@std@@V12@@2@D@Z 1000a6e0 f i PlugInLib:PlugInShell.obj
 0001:00009780       ??Eiterator@?$_Tree@V?$_Tmap_traits@V?$basic_string@DU?$char_traits@D@std@@V?$allocator@D@2@@std@@V12@U?$less@V?$basic_string@DU?$char_traits@D@std@@V?$allocator@D@2@@std@@@2@V?$allocator@U?$pair@$$CBV?$basic_string@DU?$char_traits@D@std@@V?$allocator@D@2@@std@@V12@@std@@@2@$0A@@std@@@std@@QAE?AV012@H@Z 1000a780 f i PlugInLib:PlugInShell.obj
 0001:000097a0       ??$_Destroy@U_Node@?$_Tree_nod@V?$_Tmap_traits@V?$basic_string@DU?$char_traits@D@std@@V?$allocator@D@2@@std@@V12@U?$less@V?$basic_string@DU?$char_traits@D@std@@V?$allocator@D@2@@std@@@2@V?$allocator@U?$pair@$$CBV?$basic_string@DU?$char_traits@D@std@@V?$allocator@D@2@@std@@V12@@std@@@2@$0A@@std@@@std@@@std@@YAXPAU_Node@?$_Tree_nod@V?$_Tmap_traits@V?$basic_string@DU?$char_traits@D@std@@V?$allocator@D@2@@std@@V12@U?$less@V?$basic_string@DU?$char_traits@D@std@@V?$allocator@D@2@@std@@@2@V?$allocator@U?$pair@$$CBV?$basic_string@DU?$char_traits@D@std@@V?$allocator@D@2@@std@@V12@@std@@@2@$0A@@std@@@0@@Z 1000a7a0 f i PlugInLib:PlugInShell.obj
 0001:000097b0       ??_G_Node@?$_List_nod@UContextMenuAction@@V?$allocator@UContextMenuAction@@@std@@@std@@QAEPAXI@Z 1000a7b0 f i PlugInLib:PlugInShell.obj
 0001:000097e0       ??1?$FactoryResource@VSettableSessionItem@@@@UAE@XZ 1000a7e0 f i PlugInLib:PlugInShell.obj
 0001:000097f0       ??0?$FactoryResource@VSettableSessionItem@@@@QAE@XZ 1000a7f0 f i PlugInLib:PlugInShell.obj
 0001:00009860       ?end@?$_Tree@V?$_Tmap_traits@V?$basic_string@DU?$char_traits@D@std@@V?$allocator@D@2@@std@@V12@U?$less@V?$basic_string@DU?$char_traits@D@std@@V?$allocator@D@2@@std@@@2@V?$allocator@U?$pair@$$CBV?$basic_string@DU?$char_traits@D@std@@V?$allocator@D@2@@std@@V12@@std@@@2@$0A@@std@@@std@@QAE?AViterator@12@XZ 1000a860 f i PlugInLib:PlugInShell.obj
 0001:00009870       ??_E?$FactoryResource@VSettableSessionItem@@@@UAEPAXI@Z 1000a870 f i PlugInLib:PlugInShell.obj
 0001:00009870       ??_G?$FactoryResource@VSettableSessionItem@@@@UAEPAXI@Z 1000a870 f i PlugInLib:PlugInShell.obj
 0001:00009890       ?lower_bound@?$_Tree@V?$_Tmap_traits@V?$basic_string@DU?$char_traits@D@std@@V?$allocator@D@2@@std@@V12@U?$less@V?$basic_string@DU?$char_traits@D@std@@V?$allocator@D@2@@std@@@2@V?$allocator@U?$pair@$$CBV?$basic_string@DU?$char_traits@D@std@@V?$allocator@D@2@@std@@V12@@std@@@2@$0A@@std@@@std@@QAE?AViterator@12@ABV?$basic_string@DU?$char_traits@D@std@@V?$allocator@D@2@@2@@Z 1000a890 f i PlugInLib:PlugInShell.obj
 0001:000098c0       ?_Init@?$_Tree@V?$_Tmap_traits@V?$basic_string@DU?$char_traits@D@std@@V?$allocator@D@2@@std@@V12@U?$less@V?$basic_string@DU?$char_traits@D@std@@V?$allocator@D@2@@std@@@2@V?$allocator@U?$pair@$$CBV?$basic_string@DU?$char_traits@D@std@@V?$allocator@D@2@@std@@V12@@std@@@2@$0A@@std@@@std@@IAEXXZ 1000a8c0 f i PlugInLib:PlugInShell.obj
 0001:000098f0       ??0?$_Tree_val@V?$_Tmap_traits@V?$basic_string@DU?$char_traits@D@std@@V?$allocator@D@2@@std@@V12@U?$less@V?$basic_string@DU?$char_traits@D@std@@V?$allocator@D@2@@std@@@2@V?$allocator@U?$pair@$$CBV?$basic_string@DU?$char_traits@D@std@@V?$allocator@D@2@@std@@V12@@std@@@2@$0A@@std@@@std@@IAE@ABU?$less@V?$basic_string@DU?$char_traits@D@std@@V?$allocator@D@2@@std@@@1@V?$allocator@U?$pair@$$CBV?$basic_string@DU?$char_traits@D@std@@V?$allocator@D@2@@std@@V12@@std@@@1@@Z 1000a8f0 f i PlugInLib:PlugInShell.obj
 0001:00009900       ?destroy@?$allocator@U_Node@?$_Tree_nod@V?$_Tmap_traits@V?$basic_string@DU?$char_traits@D@std@@V?$allocator@D@2@@std@@V12@U?$less@V?$basic_string@DU?$char_traits@D@std@@V?$allocator@D@2@@std@@@2@V?$allocator@U?$pair@$$CBV?$basic_string@DU?$char_traits@D@std@@V?$allocator@D@2@@std@@V12@@std@@@2@$0A@@std@@@std@@@std@@QAEXPAU_Node@?$_Tree_nod@V?$_Tmap_traits@V?$basic_string@DU?$char_traits@D@std@@V?$allocator@D@2@@std@@V12@U?$less@V?$basic_string@DU?$char_traits@D@std@@V?$allocator@D@2@@std@@@2@V?$allocator@U?$pair@$$CBV?$basic_string@DU?$char_traits@D@std@@V?$allocator@D@2@@std@@V12@@std@@@2@$0A@@std@@@2@@Z 1000a900 f i PlugInLib:PlugInShell.obj
 0001:00009910       ?_Insert@?$_Tree@V?$_Tmap_traits@V?$basic_string@DU?$char_traits@D@std@@V?$allocator@D@2@@std@@V12@U?$less@V?$basic_string@DU?$char_traits@D@std@@V?$allocator@D@2@@std@@@2@V?$allocator@U?$pair@$$CBV?$basic_string@DU?$char_traits@D@std@@V?$allocator@D@2@@std@@V12@@std@@@2@$0A@@std@@@std@@IAE?AViterator@12@_NPAU_Node@?$_Tree_nod@V?$_Tmap_traits@V?$basic_string@DU?$char_traits@D@std@@V?$allocator@D@2@@std@@V12@U?$less@V?$basic_string@DU?$char_traits@D@std@@V?$allocator@D@2@@std@@@2@V?$allocator@U?$pair@$$CBV?$basic_string@DU?$char_traits@D@std@@V?$allocator@D@2@@std@@V12@@std@@@2@$0A@@std@@@2@ABU?$pair@$$CBV?$basic_string@DU?$char_traits@D@std@@V?$allocator@D@2@@std@@V12@@2@@Z 1000a910 f i PlugInLib:PlugInShell.obj
 0001:00009b10       ?_Erase@?$_Tree@V?$_Tmap_traits@V?$basic_string@DU?$char_traits@D@std@@V?$allocator@D@2@@std@@V12@U?$less@V?$basic_string@DU?$char_traits@D@std@@V?$allocator@D@2@@std@@@2@V?$allocator@U?$pair@$$CBV?$basic_string@DU?$char_traits@D@std@@V?$allocator@D@2@@std@@V12@@std@@@2@$0A@@std@@@std@@IAEXPAU_Node@?$_Tree_nod@V?$_Tmap_traits@V?$basic_string@DU?$char_traits@D@std@@V?$allocator@D@2@@std@@V12@U?$less@V?$basic_string@DU?$char_traits@D@std@@V?$allocator@D@2@@std@@@2@V?$allocator@U?$pair@$$CBV?$basic_string@DU?$char_traits@D@std@@V?$allocator@D@2@@std@@V12@@std@@@2@$0A@@std@@@2@@Z 1000ab10 f i PlugInLib:PlugInShell.obj
 0001:00009ba0       ??$_Destroy@U_Node@?$_List_nod@UContextMenuAction@@V?$allocator@UContextMenuAction@@@std@@@std@@@std@@YAXPAU_Node@?$_List_nod@UContextMenuAction@@V?$allocator@UContextMenuAction@@@std@@@0@@Z 1000aba0 f i PlugInLib:PlugInShell.obj
 0001:00009bb0       ?erase@?$_Tree@V?$_Tmap_traits@V?$basic_string@DU?$char_traits@D@std@@V?$allocator@D@2@@std@@V12@U?$less@V?$basic_string@DU?$char_traits@D@std@@V?$allocator@D@2@@std@@@2@V?$allocator@U?$pair@$$CBV?$basic_string@DU?$char_traits@D@std@@V?$allocator@D@2@@std@@V12@@std@@@2@$0A@@std@@@std@@QAE?AViterator@12@V312@@Z 1000abb0 f i PlugInLib:PlugInShell.obj
 0001:00009ea0       ??0out_of_range@std@@QAE@ABV01@@Z 1000aea0 f i PlugInLib:PlugInShell.obj
 0001:00009ec0       ?find@?$_Tree@V?$_Tmap_traits@V?$basic_string@DU?$char_traits@D@std@@V?$allocator@D@2@@std@@V12@U?$less@V?$basic_string@DU?$char_traits@D@std@@V?$allocator@D@2@@std@@@2@V?$allocator@U?$pair@$$CBV?$basic_string@DU?$char_traits@D@std@@V?$allocator@D@2@@std@@V12@@std@@@2@$0A@@std@@@std@@QAE?AViterator@12@ABV?$basic_string@DU?$char_traits@D@std@@V?$allocator@D@2@@2@@Z 1000aec0 f i PlugInLib:PlugInShell.obj
 0001:00009f30       ??0?$_Tree@V?$_Tmap_traits@V?$basic_string@DU?$char_traits@D@std@@V?$allocator@D@2@@std@@V12@U?$less@V?$basic_string@DU?$char_traits@D@std@@V?$allocator@D@2@@std@@@2@V?$allocator@U?$pair@$$CBV?$basic_string@DU?$char_traits@D@std@@V?$allocator@D@2@@std@@V12@@std@@@2@$0A@@std@@@std@@QAE@ABU?$less@V?$basic_string@DU?$char_traits@D@std@@V?$allocator@D@2@@std@@@1@ABV?$allocator@U?$pair@$$CBV?$basic_string@DU?$char_traits@D@std@@V?$allocator@D@2@@std@@V12@@std@@@1@@Z 1000af30 f i PlugInLib:PlugInShell.obj
 0001:00009f60       ?insert@?$_Tree@V?$_Tmap_traits@V?$basic_string@DU?$char_traits@D@std@@V?$allocator@D@2@@std@@V12@U?$less@V?$basic_string@DU?$char_traits@D@std@@V?$allocator@D@2@@std@@@2@V?$allocator@U?$pair@$$CBV?$basic_string@DU?$char_traits@D@std@@V?$allocator@D@2@@std@@V12@@std@@@2@$0A@@std@@@std@@QAE?AU?$pair@Viterator@?$_Tree@V?$_Tmap_traits@V?$basic_string@DU?$char_traits@D@std@@V?$allocator@D@2@@std@@V12@U?$less@V?$basic_string@DU?$char_traits@D@std@@V?$allocator@D@2@@std@@@2@V?$allocator@U?$pair@$$CBV?$basic_string@DU?$char_traits@D@std@@V?$allocator@D@2@@std@@V12@@std@@@2@$0A@@std@@@std@@_N@2@ABU?$pair@$$CBV?$basic_string@DU?$char_traits@D@std@@V?$allocator@D@2@@std@@V12@@2@@Z 1000af60 f i PlugInLib:PlugInShell.obj
 0001:0000a060       ?_Copy@?$_Tree@V?$_Tmap_traits@V?$basic_string@DU?$char_traits@D@std@@V?$allocator@D@2@@std@@V12@U?$less@V?$basic_string@DU?$char_traits@D@std@@V?$allocator@D@2@@std@@@2@V?$allocator@U?$pair@$$CBV?$basic_string@DU?$char_traits@D@std@@V?$allocator@D@2@@std@@V12@@std@@@2@$0A@@std@@@std@@IAEPAU_Node@?$_Tree_nod@V?$_Tmap_traits@V?$basic_string@DU?$char_traits@D@std@@V?$allocator@D@2@@std@@V12@U?$less@V?$basic_string@DU?$char_traits@D@std@@V?$allocator@D@2@@std@@@2@V?$allocator@U?$pair@$$CBV?$basic_string@DU?$char_traits@D@std@@V?$allocator@D@2@@std@@V12@@std@@@2@$0A@@std@@@2@PAU342@0@Z 1000b060 f i PlugInLib:PlugInShell.obj
 0001:0000a110       ?clear@?$_Tree@V?$_Tmap_traits@V?$basic_string@DU?$char_traits@D@std@@V?$allocator@D@2@@std@@V12@U?$less@V?$basic_string@DU?$char_traits@D@std@@V?$allocator@D@2@@std@@@2@V?$allocator@U?$pair@$$CBV?$basic_string@DU?$char_traits@D@std@@V?$allocator@D@2@@std@@V12@@std@@@2@$0A@@std@@@std@@QAEXXZ 1000b110 f i PlugInLib:PlugInShell.obj
 0001:0000a140       ?destroy@?$allocator@U_Node@?$_List_nod@UContextMenuAction@@V?$allocator@UContextMenuAction@@@std@@@std@@@std@@QAEXPAU_Node@?$_List_nod@UContextMenuAction@@V?$allocator@UContextMenuAction@@@std@@@2@@Z 1000b140 f i PlugInLib:PlugInShell.obj
 0001:0000a150       ?insert@?$_Tree@V?$_Tmap_traits@V?$basic_string@DU?$char_traits@D@std@@V?$allocator@D@2@@std@@V12@U?$less@V?$basic_string@DU?$char_traits@D@std@@V?$allocator@D@2@@std@@@2@V?$allocator@U?$pair@$$CBV?$basic_string@DU?$char_traits@D@std@@V?$allocator@D@2@@std@@V12@@std@@@2@$0A@@std@@@std@@QAE?AViterator@12@V312@ABU?$pair@$$CBV?$basic_string@DU?$char_traits@D@std@@V?$allocator@D@2@@std@@V12@@2@@Z 1000b150 f i PlugInLib:PlugInShell.obj
 0001:0000a360       ?_Copy@?$_Tree@V?$_Tmap_traits@V?$basic_string@DU?$char_traits@D@std@@V?$allocator@D@2@@std@@V12@U?$less@V?$basic_string@DU?$char_traits@D@std@@V?$allocator@D@2@@std@@@2@V?$allocator@U?$pair@$$CBV?$basic_string@DU?$char_traits@D@std@@V?$allocator@D@2@@std@@V12@@std@@@2@$0A@@std@@@std@@IAEXABV12@@Z 1000b360 f i PlugInLib:PlugInShell.obj
 0001:0000a3e0       ?erase@?$_Tree@V?$_Tmap_traits@V?$basic_string@DU?$char_traits@D@std@@V?$allocator@D@2@@std@@V12@U?$less@V?$basic_string@DU?$char_traits@D@std@@V?$allocator@D@2@@std@@@2@V?$allocator@U?$pair@$$CBV?$basic_string@DU?$char_traits@D@std@@V?$allocator@D@2@@std@@V12@@std@@@2@$0A@@std@@@std@@QAE?AViterator@12@V312@0@Z 1000b3e0 f i PlugInLib:PlugInShell.obj
 0001:0000a4b0       ?clear@?$list@UContextMenuAction@@V?$allocator@UContextMenuAction@@@std@@@std@@QAEXXZ 1000b4b0 f i PlugInLib:PlugInShell.obj
 0001:0000a540       ??A?$map@V?$basic_string@DU?$char_traits@D@std@@V?$allocator@D@2@@std@@V12@U?$less@V?$basic_string@DU?$char_traits@D@std@@V?$allocator@D@2@@std@@@2@V?$allocator@U?$pair@$$CBV?$basic_string@DU?$char_traits@D@std@@V?$allocator@D@2@@std@@V12@@std@@@2@@std@@QAEAAV?$basic_string@DU?$char_traits@D@std@@V?$allocator@D@2@@1@ABV21@@Z 1000b540 f i PlugInLib:PlugInShell.obj
 0001:0000a610       ?_Tidy@?$_Tree@V?$_Tmap_traits@V?$basic_string@DU?$char_traits@D@std@@V?$allocator@D@2@@std@@V12@U?$less@V?$basic_string@DU?$char_traits@D@std@@V?$allocator@D@2@@std@@@2@V?$allocator@U?$pair@$$CBV?$basic_string@DU?$char_traits@D@std@@V?$allocator@D@2@@std@@V12@@std@@@2@$0A@@std@@@std@@IAEXXZ 1000b610 f i PlugInLib:PlugInShell.obj
 0001:0000a650       ?_Tidy@?$list@UContextMenuAction@@V?$allocator@UContextMenuAction@@@std@@@std@@IAEXXZ 1000b650 f i PlugInLib:PlugInShell.obj
 0001:0000a670       ?addDependencyCopyright@PlugInShell@@IAEXABV?$basic_string@DU?$char_traits@D@std@@V?$allocator@D@2@@std@@0@Z 1000b670 f   PlugInLib:PlugInShell.obj
 0001:0000a6f0       ??0?$_Tree@V?$_Tmap_traits@V?$basic_string@DU?$char_traits@D@std@@V?$allocator@D@2@@std@@V12@U?$less@V?$basic_string@DU?$char_traits@D@std@@V?$allocator@D@2@@std@@@2@V?$allocator@U?$pair@$$CBV?$basic_string@DU?$char_traits@D@std@@V?$allocator@D@2@@std@@V12@@std@@@2@$0A@@std@@@std@@QAE@ABV01@@Z 1000b6f0 f i PlugInLib:PlugInShell.obj
 0001:0000a780       ??1?$_Tree@V?$_Tmap_traits@V?$basic_string@DU?$char_traits@D@std@@V?$allocator@D@2@@std@@V12@U?$less@V?$basic_string@DU?$char_traits@D@std@@V?$allocator@D@2@@std@@@2@V?$allocator@U?$pair@$$CBV?$basic_string@DU?$char_traits@D@std@@V?$allocator@D@2@@std@@V12@@std@@@2@$0A@@std@@@std@@QAE@XZ 1000b780 f i PlugInLib:PlugInShell.obj
 0001:0000a7c0       ??1?$list@UContextMenuAction@@V?$allocator@UContextMenuAction@@@std@@@std@@QAE@XZ 1000b7c0 f i PlugInLib:PlugInShell.obj
 0001:0000a7e0       ??1?$map@V?$basic_string@DU?$char_traits@D@std@@V?$allocator@D@2@@std@@V12@U?$less@V?$basic_string@DU?$char_traits@D@std@@V?$allocator@D@2@@std@@@2@V?$allocator@U?$pair@$$CBV?$basic_string@DU?$char_traits@D@std@@V?$allocator@D@2@@std@@V12@@std@@@2@@std@@QAE@XZ 1000b7e0 f i PlugInLib:PlugInShell.obj
 0001:0000a820       ??1PlugInShell@@UAE@XZ     1000b820 f   PlugInLib:PlugInShell.obj
 0001:0000a940       ??_EPlugInShell@@W3AEPAXI@Z 1000b940 f i PlugInLib:PlugInShell.obj
 0001:0000a950       ?getContextMenuActions@PlugInShell@@UBE?AV?$list@UContextMenuAction@@V?$allocator@UContextMenuAction@@@std@@@std@@XZ 1000b950 f   PlugInLib:PlugInShell.obj
 0001:0000a970       ?getPropertiesPages@PlugInShell@@UBE?AV?$vector@V?$basic_string@DU?$char_traits@D@std@@V?$allocator@D@2@@std@@V?$allocator@V?$basic_string@DU?$char_traits@D@std@@V?$allocator@D@2@@std@@@2@@std@@XZ 1000b970 f   PlugInLib:PlugInShell.obj
 0001:0000a990       ??0?$map@V?$basic_string@DU?$char_traits@D@std@@V?$allocator@D@2@@std@@V12@U?$less@V?$basic_string@DU?$char_traits@D@std@@V?$allocator@D@2@@std@@@2@V?$allocator@U?$pair@$$CBV?$basic_string@DU?$char_traits@D@std@@V?$allocator@D@2@@std@@V12@@std@@@2@@std@@QAE@ABV01@@Z 1000b990 f i PlugInLib:PlugInShell.obj
 0001:0000a9b0       ??0?$map@V?$basic_string@DU?$char_traits@D@std@@V?$allocator@D@2@@std@@V12@U?$less@V?$basic_string@DU?$char_traits@D@std@@V?$allocator@D@2@@std@@@2@V?$allocator@U?$pair@$$CBV?$basic_string@DU?$char_traits@D@std@@V?$allocator@D@2@@std@@V12@@std@@@2@@std@@QAE@XZ 1000b9b0 f i PlugInLib:PlugInShell.obj
 0001:0000a9e0       ??0PlugInShell@@QAE@XZ     1000b9e0 f   PlugInLib:PlugInShell.obj
 0001:0000ab00       ??_EPlugInShell@@UAEPAXI@Z 1000bb00 f i PlugInLib:PlugInShell.obj
 0001:0000ab00       ??_GPlugInShell@@UAEPAXI@Z 1000bb00 f i PlugInLib:PlugInShell.obj
 0001:0000ab20       ?getDependencyCopyright@PlugInShell@@UBE?AV?$map@V?$basic_string@DU?$char_traits@D@std@@V?$allocator@D@2@@std@@V12@U?$less@V?$basic_string@DU?$char_traits@D@std@@V?$allocator@D@2@@std@@@2@V?$allocator@U?$pair@$$CBV?$basic_string@DU?$char_traits@D@std@@V?$allocator@D@2@@std@@V12@@std@@@2@@std@@XZ 1000bb20 f   PlugInLib:PlugInShell.obj
 0001:0000ab50       ?isValid@DataAccessorImpl@@QBE_NXZ 1000bb50 f i PlugInLib:DataAccessor.obj
 0001:0000ab60       ?incrementRefCount@DataAccessorImpl@@QAEHXZ 1000bb60 f i PlugInLib:DataAccessor.obj
 0001:0000ab70       ?decrementRefCount@DataAccessorImpl@@QAEHXZ 1000bb70 f i PlugInLib:DataAccessor.obj
 0001:0000ab80       ?isValid@DataAccessor@@QBE_NXZ 1000bb80 f   PlugInLib:DataAccessor.obj
 0001:0000aba0       ?incrementRefCount@DataAccessor@@AAEXXZ 1000bba0 f   PlugInLib:DataAccessor.obj
 0001:0000abb0       ?decrementRefCount@DataAccessor@@AAEXXZ 1000bbb0 f   PlugInLib:DataAccessor.obj
 0001:0000abf0       ??0DataAccessor@@QAE@PAVDataAccessorDeleter@@PAVDataAccessorImpl@@@Z 1000bbf0 f   PlugInLib:DataAccessor.obj
 0001:0000ac10       ??0DataAccessor@@QAE@ABV0@@Z 1000bc10 f   PlugInLib:DataAccessor.obj
 0001:0000ac30       ??1DataAccessor@@QAE@XZ    1000bc30 f   PlugInLib:DataAccessor.obj
 0001:0000ac70       ??4DataAccessor@@QAEAAV0@ABV0@@Z 1000bc70 f   PlugInLib:DataAccessor.obj
 0001:0000acd0       ??0ModuleManager@@IAE@XZ   1000bcd0 f   PlugInLib:ModuleManagerCommon.obj
 0001:0000ace0       ??1ModuleManager@@IAE@XZ   1000bce0 f   PlugInLib:ModuleManagerCommon.obj
 0001:0000acf0       ?instance@ModuleManager@@SAPAV1@XZ 1000bcf0 f   PlugInLib:ModuleManagerCommon.obj
 0001:0000ad20       ?getService@ModuleManager@@QAEPAVExternal@@XZ 1000bd20 f i PlugInUtilities:Service.obj
 0001:0000ad30       ?get@?$Service@VApplicationServices@@@@QBEPAVApplicationServices@@XZ 1000bd30 f   PlugInUtilities:Service.obj
 0001:0000ad60       ?get@?$Service@VUtilityServices@@@@QBEPAVUtilityServices@@XZ 1000bd60 f   PlugInUtilities:Service.obj
 0001:0000ad90       ?get@?$Service@VModelServices@@@@QBEPAVModelServices@@XZ 1000bd90 f   PlugInUtilities:Service.obj
 0001:0000adc0       ?get@?$Service@VAnimationServices@@@@QBEPAVAnimationServices@@XZ 1000bdc0 f   PlugInUtilities:Service.obj
 0001:0000adf0       ?get@?$Service@VDesktopServices@@@@QBEPAVDesktopServices@@XZ 1000bdf0 f   PlugInUtilities:Service.obj
 0001:0000ae20       ?get@?$Service@VPlugInManagerServices@@@@QBEPAVPlugInManagerServices@@XZ 1000be20 f   PlugInUtilities:Service.obj
 0001:0000ae50       ??C?$Service@VUtilityServices@@@@QBEPAVUtilityServices@@XZ 1000be50 f i PlugInUtilities:Service.obj
 0001:0000ae80       ??0?$EnumWrapper@W4WindowTypeEnum@@@@QAE@ABW4WindowTypeEnum@@@Z 1000be80 f i PlugInUtilities:Service.obj
 0001:0000aea0       ?get@?$Service@VSessionManager@@@@QBEPAVSessionManager@@XZ 1000bea0 f   PlugInUtilities:Service.obj
 0001:0000aed0       ?get@?$Service@VConfigurationSettings@@@@QBEPAVConfigurationSettings@@XZ 1000bed0 f   PlugInUtilities:Service.obj
 0001:0000af00       ?get@?$Service@VObjectFactory@@@@QBEPAVObjectFactory@@XZ 1000bf00 f   PlugInUtilities:Service.obj
 0001:0000af30       ?get@?$Service@VDataVariantFactory@@@@QBEPAVDataVariantFactory@@XZ 1000bf30 f   PlugInUtilities:Service.obj
 0001:0000af60       ?get@?$Service@VMessageLogMgr@@@@QBEPAVMessageLogMgr@@XZ 1000bf60 f   PlugInUtilities:Service.obj
 0001:0000af90       ?get@?$Service@VSessionExplorer@@@@QBEPAVSessionExplorer@@XZ 1000bf90 f   PlugInUtilities:Service.obj
 0001:0000b080       ??$toString@_N@TypeConverter@@YAPBDXZ 1000c080 f   PlugInUtilities:TypeConverter.obj
 0001:0000b090       ??$toString@V?$vector@PA_NV?$allocator@PA_N@std@@@std@@@TypeConverter@@YAPBDXZ 1000c090 f   PlugInUtilities:TypeConverter.obj
 0001:0000b0a0       ??$toString@V?$vector@_NV?$allocator@_N@std@@@std@@@TypeConverter@@YAPBDXZ 1000c0a0 f   PlugInUtilities:TypeConverter.obj
 0001:0000b0b0       ??$toString@D@TypeConverter@@YAPBDXZ 1000c0b0 f   PlugInUtilities:TypeConverter.obj
 0001:0000b0c0       ??$toString@V?$vector@PADV?$allocator@PAD@std@@@std@@@TypeConverter@@YAPBDXZ 1000c0c0 f   PlugInUtilities:TypeConverter.obj
 0001:0000b0d0       ??$toString@V?$vector@DV?$allocator@D@std@@@std@@@TypeConverter@@YAPBDXZ 1000c0d0 f   PlugInUtilities:TypeConverter.obj
 0001:0000b0e0       ??$toString@E@TypeConverter@@YAPBDXZ 1000c0e0 f   PlugInUtilities:TypeConverter.obj
 0001:0000b0f0       ??$toString@V?$vector@PAEV?$allocator@PAE@std@@@std@@@TypeConverter@@YAPBDXZ 1000c0f0 f   PlugInUtilities:TypeConverter.obj
 0001:0000b100       ??$toString@V?$vector@EV?$allocator@E@std@@@std@@@TypeConverter@@YAPBDXZ 1000c100 f   PlugInUtilities:TypeConverter.obj
 0001:0000b110       ??$toString@C@TypeConverter@@YAPBDXZ 1000c110 f   PlugInUtilities:TypeConverter.obj
 0001:0000b120       ??$toString@V?$vector@PACV?$allocator@PAC@std@@@std@@@TypeConverter@@YAPBDXZ 1000c120 f   PlugInUtilities:TypeConverter.obj
 0001:0000b130       ??$toString@V?$vector@CV?$allocator@C@std@@@std@@@TypeConverter@@YAPBDXZ 1000c130 f   PlugInUtilities:TypeConverter.obj
 0001:0000b140       ??$toString@F@TypeConverter@@YAPBDXZ 1000c140 f   PlugInUtilities:TypeConverter.obj
 0001:0000b150       ??$toString@V?$vector@PAFV?$allocator@PAF@std@@@std@@@TypeConverter@@YAPBDXZ 1000c150 f   PlugInUtilities:TypeConverter.obj
 0001:0000b160       ??$toString@V?$vector@FV?$allocator@F@std@@@std@@@TypeConverter@@YAPBDXZ 1000c160 f   PlugInUtilities:TypeConverter.obj
 0001:0000b170       ??$toString@G@TypeConverter@@YAPBDXZ 1000c170 f   PlugInUtilities:TypeConverter.obj
 0001:0000b180       ??$toString@V?$vector@PAGV?$allocator@PAG@std@@@std@@@TypeConverter@@YAPBDXZ 1000c180 f   PlugInUtilities:TypeConverter.obj
 0001:0000b190       ??$toString@V?$vector@GV?$allocator@G@std@@@std@@@TypeConverter@@YAPBDXZ 1000c190 f   PlugInUtilities:TypeConverter.obj
 0001:0000b1a0       ??$toString@H@TypeConverter@@YAPBDXZ 1000c1a0 f   PlugInUtilities:TypeConverter.obj
 0001:0000b1b0       ??$toString@V?$vector@PAHV?$allocator@PAH@std@@@std@@@TypeConverter@@YAPBDXZ 1000c1b0 f   PlugInUtilities:TypeConverter.obj
 0001:0000b1c0       ??$toString@V?$vector@HV?$allocator@H@std@@@std@@@TypeConverter@@YAPBDXZ 1000c1c0 f   PlugInUtilities:TypeConverter.obj
 0001:0000b1d0       ??$toString@I@TypeConverter@@YAPBDXZ 1000c1d0 f   PlugInUtilities:TypeConverter.obj
 0001:0000b1e0       ??$toString@V?$vector@PAIV?$allocator@PAI@std@@@std@@@TypeConverter@@YAPBDXZ 1000c1e0 f   PlugInUtilities:TypeConverter.obj
 0001:0000b1f0       ??$toString@V?$vector@IV?$allocator@I@std@@@std@@@TypeConverter@@YAPBDXZ 1000c1f0 f   PlugInUtilities:TypeConverter.obj
 0001:0000b200       ??$toString@J@TypeConverter@@YAPBDXZ 1000c200 f   PlugInUtilities:TypeConverter.obj
 0001:0000b210       ??$toString@V?$vector@PAJV?$allocator@PAJ@std@@@std@@@TypeConverter@@YAPBDXZ 1000c210 f   PlugInUtilities:TypeConverter.obj
 0001:0000b220       ??$toString@V?$vector@JV?$allocator@J@std@@@std@@@TypeConverter@@YAPBDXZ 1000c220 f   PlugInUtilities:TypeConverter.obj
 0001:0000b230       ??$toString@K@TypeConverter@@YAPBDXZ 1000c230 f   PlugInUtilities:TypeConverter.obj
 0001:0000b240       ??$toString@V?$vector@PAKV?$allocator@PAK@std@@@std@@@TypeConverter@@YAPBDXZ 1000c240 f   PlugInUtilities:TypeConverter.obj
 0001:0000b250       ??$toString@V?$vector@KV?$allocator@K@std@@@std@@@TypeConverter@@YAPBDXZ 1000c250 f   PlugInUtilities:TypeConverter.obj
 0001:0000b260       ??$toString@_J@TypeConverter@@YAPBDXZ 1000c260 f   PlugInUtilities:TypeConverter.obj
 0001:0000b270       ??$toString@V?$vector@PA_JV?$allocator@PA_J@std@@@std@@@TypeConverter@@YAPBDXZ 1000c270 f   PlugInUtilities:TypeConverter.obj
 0001:0000b280       ??$toString@V?$vector@_JV?$allocator@_J@std@@@std@@@TypeConverter@@YAPBDXZ 1000c280 f   PlugInUtilities:TypeConverter.obj
 0001:0000b290       ??$toString@_K@TypeConverter@@YAPBDXZ 1000c290 f   PlugInUtilities:TypeConverter.obj
 0001:0000b2a0       ??$toString@V?$vector@PA_KV?$allocator@PA_K@std@@@std@@@TypeConverter@@YAPBDXZ 1000c2a0 f   PlugInUtilities:TypeConverter.obj
 0001:0000b2b0       ??$toString@V?$vector@_KV?$allocator@_K@std@@@std@@@TypeConverter@@YAPBDXZ 1000c2b0 f   PlugInUtilities:TypeConverter.obj
 0001:0000b2c0       ??$toString@M@TypeConverter@@YAPBDXZ 1000c2c0 f   PlugInUtilities:TypeConverter.obj
 0001:0000b2d0       ??$toString@V?$vector@PAMV?$allocator@PAM@std@@@std@@@TypeConverter@@YAPBDXZ 1000c2d0 f   PlugInUtilities:TypeConverter.obj
 0001:0000b2e0       ??$toString@V?$vector@MV?$allocator@M@std@@@std@@@TypeConverter@@YAPBDXZ 1000c2e0 f   PlugInUtilities:TypeConverter.obj
 0001:0000b2f0       ??$toString@N@TypeConverter@@YAPBDXZ 1000c2f0 f   PlugInUtilities:TypeConverter.obj
 0001:0000b300       ??$toString@V?$vector@PANV?$allocator@PAN@std@@@std@@@TypeConverter@@YAPBDXZ 1000c300 f   PlugInUtilities:TypeConverter.obj
 0001:0000b310       ??$toString@V?$vector@NV?$allocator@N@std@@@std@@@TypeConverter@@YAPBDXZ 1000c310 f   PlugInUtilities:TypeConverter.obj
 0001:0000b320       ??$toString@X@TypeConverter@@YAPBDXZ 1000c320 f   PlugInUtilities:TypeConverter.obj
 0001:0000b330       ??$toString@V?$vector@PAXV?$allocator@PAX@std@@@std@@@TypeConverter@@YAPBDXZ 1000c330 f   PlugInUtilities:TypeConverter.obj
 0001:0000b340       ??$toString@V?$vector@XV?$allocator@X@std@@@std@@@TypeConverter@@YAPBDXZ 1000c340 f   PlugInUtilities:TypeConverter.obj
 0001:0000b350       ??$toString@V?$basic_string@DU?$char_traits@D@std@@V?$allocator@D@2@@std@@@TypeConverter@@YAPBDXZ 1000c350 f   PlugInUtilities:TypeConverter.obj
 0001:0000b360       ??$toString@V?$vector@PAV?$basic_string@DU?$char_traits@D@std@@V?$allocator@D@2@@std@@V?$allocator@PAV?$basic_string@DU?$char_traits@D@std@@V?$allocator@D@2@@std@@@2@@std@@@TypeConverter@@YAPBDXZ 1000c360 f   PlugInUtilities:TypeConverter.obj
 0001:0000b370       ??$toString@V?$vector@V?$basic_string@DU?$char_traits@D@std@@V?$allocator@D@2@@std@@V?$allocator@V?$basic_string@DU?$char_traits@D@std@@V?$allocator@D@2@@std@@@2@@std@@@TypeConverter@@YAPBDXZ 1000c370 f   PlugInUtilities:TypeConverter.obj
 0001:0000b380       ??$toString@V?$EnumWrapper@W4AnimationCycleEnum@@@@@TypeConverter@@YAPBDXZ 1000c380 f   PlugInUtilities:TypeConverter.obj
 0001:0000b390       ??$toString@V?$vector@PAV?$EnumWrapper@W4AnimationCycleEnum@@@@V?$allocator@PAV?$EnumWrapper@W4AnimationCycleEnum@@@@@std@@@std@@@TypeConverter@@YAPBDXZ 1000c390 f   PlugInUtilities:TypeConverter.obj
 0001:0000b3a0       ??$toString@V?$vector@V?$EnumWrapper@W4AnimationCycleEnum@@@@V?$allocator@V?$EnumWrapper@W4AnimationCycleEnum@@@@@std@@@std@@@TypeConverter@@YAPBDXZ 1000c3a0 f   PlugInUtilities:TypeConverter.obj
 0001:0000b3b0       ??$toString@V?$EnumWrapper@W4AnimationStateEnum@@@@@TypeConverter@@YAPBDXZ 1000c3b0 f   PlugInUtilities:TypeConverter.obj
 0001:0000b3c0       ??$toString@V?$vector@PAV?$EnumWrapper@W4AnimationStateEnum@@@@V?$allocator@PAV?$EnumWrapper@W4AnimationStateEnum@@@@@std@@@std@@@TypeConverter@@YAPBDXZ 1000c3c0 f   PlugInUtilities:TypeConverter.obj
 0001:0000b3d0       ??$toString@V?$vector@V?$EnumWrapper@W4AnimationStateEnum@@@@V?$allocator@V?$EnumWrapper@W4AnimationStateEnum@@@@@std@@@std@@@TypeConverter@@YAPBDXZ 1000c3d0 f   PlugInUtilities:TypeConverter.obj
 0001:0000b3e0       ??$toString@V?$EnumWrapper@W4ArcRegionEnum@@@@@TypeConverter@@YAPBDXZ 1000c3e0 f   PlugInUtilities:TypeConverter.obj
 0001:0000b3f0       ??$toString@V?$vector@PAV?$EnumWrapper@W4ArcRegionEnum@@@@V?$allocator@PAV?$EnumWrapper@W4ArcRegionEnum@@@@@std@@@std@@@TypeConverter@@YAPBDXZ 1000c3f0 f   PlugInUtilities:TypeConverter.obj
 0001:0000b400       ??$toString@V?$vector@V?$EnumWrapper@W4ArcRegionEnum@@@@V?$allocator@V?$EnumWrapper@W4ArcRegionEnum@@@@@std@@@std@@@TypeConverter@@YAPBDXZ 1000c400 f   PlugInUtilities:TypeConverter.obj
 0001:0000b410       ??$toString@V?$EnumWrapper@W4ComplexComponentEnum@@@@@TypeConverter@@YAPBDXZ 1000c410 f   PlugInUtilities:TypeConverter.obj
 0001:0000b420       ??$toString@V?$vector@PAV?$EnumWrapper@W4ComplexComponentEnum@@@@V?$allocator@PAV?$EnumWrapper@W4ComplexComponentEnum@@@@@std@@@std@@@TypeConverter@@YAPBDXZ 1000c420 f   PlugInUtilities:TypeConverter.obj
 0001:0000b430       ??$toString@V?$vector@V?$EnumWrapper@W4ComplexComponentEnum@@@@V?$allocator@V?$EnumWrapper@W4ComplexComponentEnum@@@@@std@@@std@@@TypeConverter@@YAPBDXZ 1000c430 f   PlugInUtilities:TypeConverter.obj
 0001:0000b440       ??$toString@V?$EnumWrapper@W4DataOriginEnum@@@@@TypeConverter@@YAPBDXZ 1000c440 f   PlugInUtilities:TypeConverter.obj
 0001:0000b450       ??$toString@V?$vector@PAV?$EnumWrapper@W4DataOriginEnum@@@@V?$allocator@PAV?$EnumWrapper@W4DataOriginEnum@@@@@std@@@std@@@TypeConverter@@YAPBDXZ 1000c450 f   PlugInUtilities:TypeConverter.obj
 0001:0000b460       ??$toString@V?$vector@V?$EnumWrapper@W4DataOriginEnum@@@@V?$allocator@V?$EnumWrapper@W4DataOriginEnum@@@@@std@@@std@@@TypeConverter@@YAPBDXZ 1000c460 f   PlugInUtilities:TypeConverter.obj
 0001:0000b470       ??$toString@V?$EnumWrapper@W4DisplayModeEnum@@@@@TypeConverter@@YAPBDXZ 1000c470 f   PlugInUtilities:TypeConverter.obj
 0001:0000b480       ??$toString@V?$vector@PAV?$EnumWrapper@W4DisplayModeEnum@@@@V?$allocator@PAV?$EnumWrapper@W4DisplayModeEnum@@@@@std@@@std@@@TypeConverter@@YAPBDXZ 1000c480 f   PlugInUtilities:TypeConverter.obj
 0001:0000b490       ??$toString@V?$vector@V?$EnumWrapper@W4DisplayModeEnum@@@@V?$allocator@V?$EnumWrapper@W4DisplayModeEnum@@@@@std@@@std@@@TypeConverter@@YAPBDXZ 1000c490 f   PlugInUtilities:TypeConverter.obj
 0001:0000b4a0       ??$toString@V?$EnumWrapper@W4DistanceUnitsEnum@@@@@TypeConverter@@YAPBDXZ 1000c4a0 f   PlugInUtilities:TypeConverter.obj
 0001:0000b4b0       ??$toString@V?$vector@PAV?$EnumWrapper@W4DistanceUnitsEnum@@@@V?$allocator@PAV?$EnumWrapper@W4DistanceUnitsEnum@@@@@std@@@std@@@TypeConverter@@YAPBDXZ 1000c4b0 f   PlugInUtilities:TypeConverter.obj
 0001:0000b4c0       ??$toString@V?$vector@V?$EnumWrapper@W4DistanceUnitsEnum@@@@V?$allocator@V?$EnumWrapper@W4DistanceUnitsEnum@@@@@std@@@std@@@TypeConverter@@YAPBDXZ 1000c4c0 f   PlugInUtilities:TypeConverter.obj
 0001:0000b4d0       ??$toString@V?$EnumWrapper@W4DmsFormatTypeEnum@@@@@TypeConverter@@YAPBDXZ 1000c4d0 f   PlugInUtilities:TypeConverter.obj
 0001:0000b4e0       ??$toString@V?$vector@PAV?$EnumWrapper@W4DmsFormatTypeEnum@@@@V?$allocator@PAV?$EnumWrapper@W4DmsFormatTypeEnum@@@@@std@@@std@@@TypeConverter@@YAPBDXZ 1000c4e0 f   PlugInUtilities:TypeConverter.obj
 0001:0000b4f0       ??$toString@V?$vector@V?$EnumWrapper@W4DmsFormatTypeEnum@@@@V?$allocator@V?$EnumWrapper@W4DmsFormatTypeEnum@@@@@std@@@std@@@TypeConverter@@YAPBDXZ 1000c4f0 f   PlugInUtilities:TypeConverter.obj
 0001:0000b500       ??$toString@V?$EnumWrapper@W4EncodingTypeEnum@@@@@TypeConverter@@YAPBDXZ 1000c500 f   PlugInUtilities:TypeConverter.obj
 0001:0000b510       ??$toString@V?$vector@PAV?$EnumWrapper@W4EncodingTypeEnum@@@@V?$allocator@PAV?$EnumWrapper@W4EncodingTypeEnum@@@@@std@@@std@@@TypeConverter@@YAPBDXZ 1000c510 f   PlugInUtilities:TypeConverter.obj
 0001:0000b520       ??$toString@V?$vector@V?$EnumWrapper@W4EncodingTypeEnum@@@@V?$allocator@V?$EnumWrapper@W4EncodingTypeEnum@@@@@std@@@std@@@TypeConverter@@YAPBDXZ 1000c520 f   PlugInUtilities:TypeConverter.obj
 0001:0000b530       ??$toString@V?$EnumWrapper@W4EndianTypeEnum@@@@@TypeConverter@@YAPBDXZ 1000c530 f   PlugInUtilities:TypeConverter.obj
 0001:0000b540       ??$toString@V?$vector@PAV?$EnumWrapper@W4EndianTypeEnum@@@@V?$allocator@PAV?$EnumWrapper@W4EndianTypeEnum@@@@@std@@@std@@@TypeConverter@@YAPBDXZ 1000c540 f   PlugInUtilities:TypeConverter.obj
 0001:0000b550       ??$toString@V?$vector@V?$EnumWrapper@W4EndianTypeEnum@@@@V?$allocator@V?$EnumWrapper@W4EndianTypeEnum@@@@@std@@@std@@@TypeConverter@@YAPBDXZ 1000c550 f   PlugInUtilities:TypeConverter.obj
 0001:0000b560       ??$toString@V?$EnumWrapper@W4FillStyleEnum@@@@@TypeConverter@@YAPBDXZ 1000c560 f   PlugInUtilities:TypeConverter.obj
 0001:0000b570       ??$toString@V?$vector@PAV?$EnumWrapper@W4FillStyleEnum@@@@V?$allocator@PAV?$EnumWrapper@W4FillStyleEnum@@@@@std@@@std@@@TypeConverter@@YAPBDXZ 1000c570 f   PlugInUtilities:TypeConverter.obj
 0001:0000b580       ??$toString@V?$vector@V?$EnumWrapper@W4FillStyleEnum@@@@V?$allocator@V?$EnumWrapper@W4FillStyleEnum@@@@@std@@@std@@@TypeConverter@@YAPBDXZ 1000c580 f   PlugInUtilities:TypeConverter.obj
 0001:0000b590       ??$toString@V?$EnumWrapper@W4InsetZoomModeEnum@@@@@TypeConverter@@YAPBDXZ 1000c590 f   PlugInUtilities:TypeConverter.obj
 0001:0000b5a0       ??$toString@V?$vector@PAV?$EnumWrapper@W4InsetZoomModeEnum@@@@V?$allocator@PAV?$EnumWrapper@W4InsetZoomModeEnum@@@@@std@@@std@@@TypeConverter@@YAPBDXZ 1000c5a0 f   PlugInUtilities:TypeConverter.obj
 0001:0000b5b0       ??$toString@V?$vector@V?$EnumWrapper@W4InsetZoomModeEnum@@@@V?$allocator@V?$EnumWrapper@W4InsetZoomModeEnum@@@@@std@@@std@@@TypeConverter@@YAPBDXZ 1000c5b0 f   PlugInUtilities:TypeConverter.obj
 0001:0000b5c0       ??$toString@V?$EnumWrapper@W4InterleaveFormatTypeEnum@@@@@TypeConverter@@YAPBDXZ 1000c5c0 f   PlugInUtilities:TypeConverter.obj
 0001:0000b5d0       ??$toString@V?$vector@PAV?$EnumWrapper@W4InterleaveFormatTypeEnum@@@@V?$allocator@PAV?$EnumWrapper@W4InterleaveFormatTypeEnum@@@@@std@@@std@@@TypeConverter@@YAPBDXZ 1000c5d0 f   PlugInUtilities:TypeConverter.obj
 0001:0000b5e0       ??$toString@V?$vector@V?$EnumWrapper@W4InterleaveFormatTypeEnum@@@@V?$allocator@V?$EnumWrapper@W4InterleaveFormatTypeEnum@@@@@std@@@std@@@TypeConverter@@YAPBDXZ 1000c5e0 f   PlugInUtilities:TypeConverter.obj
 0001:0000b5f0       ??$toString@V?$EnumWrapper@W4GcpSymbolEnum@@@@@TypeConverter@@YAPBDXZ 1000c5f0 f   PlugInUtilities:TypeConverter.obj
 0001:0000b600       ??$toString@V?$vector@PAV?$EnumWrapper@W4GcpSymbolEnum@@@@V?$allocator@PAV?$EnumWrapper@W4GcpSymbolEnum@@@@@std@@@std@@@TypeConverter@@YAPBDXZ 1000c600 f   PlugInUtilities:TypeConverter.obj
 0001:0000b610       ??$toString@V?$vector@V?$EnumWrapper@W4GcpSymbolEnum@@@@V?$allocator@V?$EnumWrapper@W4GcpSymbolEnum@@@@@std@@@std@@@TypeConverter@@YAPBDXZ 1000c610 f   PlugInUtilities:TypeConverter.obj
 0001:0000b620       ??$toString@V?$EnumWrapper@W4GeocoordTypeEnum@@@@@TypeConverter@@YAPBDXZ 1000c620 f   PlugInUtilities:TypeConverter.obj
 0001:0000b630       ??$toString@V?$vector@PAV?$EnumWrapper@W4GeocoordTypeEnum@@@@V?$allocator@PAV?$EnumWrapper@W4GeocoordTypeEnum@@@@@std@@@std@@@TypeConverter@@YAPBDXZ 1000c630 f   PlugInUtilities:TypeConverter.obj
 0001:0000b640       ??$toString@V?$vector@V?$EnumWrapper@W4GeocoordTypeEnum@@@@V?$allocator@V?$EnumWrapper@W4GeocoordTypeEnum@@@@@std@@@std@@@TypeConverter@@YAPBDXZ 1000c640 f   PlugInUtilities:TypeConverter.obj
 0001:0000b650       ??$toString@V?$EnumWrapper@W4GraphicObjectTypeEnum@@@@@TypeConverter@@YAPBDXZ 1000c650 f   PlugInUtilities:TypeConverter.obj
 0001:0000b660       ??$toString@V?$vector@PAV?$EnumWrapper@W4GraphicObjectTypeEnum@@@@V?$allocator@PAV?$EnumWrapper@W4GraphicObjectTypeEnum@@@@@std@@@std@@@TypeConverter@@YAPBDXZ 1000c660 f   PlugInUtilities:TypeConverter.obj
 0001:0000b670       ??$toString@V?$vector@V?$EnumWrapper@W4GraphicObjectTypeEnum@@@@V?$allocator@V?$EnumWrapper@W4GraphicObjectTypeEnum@@@@@std@@@std@@@TypeConverter@@YAPBDXZ 1000c670 f   PlugInUtilities:TypeConverter.obj
 0001:0000b680       ??$toString@V?$EnumWrapper@W4LatLonStyleEnum@@@@@TypeConverter@@YAPBDXZ 1000c680 f   PlugInUtilities:TypeConverter.obj
 0001:0000b690       ??$toString@V?$vector@PAV?$EnumWrapper@W4LatLonStyleEnum@@@@V?$allocator@PAV?$EnumWrapper@W4LatLonStyleEnum@@@@@std@@@std@@@TypeConverter@@YAPBDXZ 1000c690 f   PlugInUtilities:TypeConverter.obj
 0001:0000b6a0       ??$toString@V?$vector@V?$EnumWrapper@W4LatLonStyleEnum@@@@V?$allocator@V?$EnumWrapper@W4LatLonStyleEnum@@@@@std@@@std@@@TypeConverter@@YAPBDXZ 1000c6a0 f   PlugInUtilities:TypeConverter.obj
 0001:0000b6b0       ??$toString@V?$EnumWrapper@W4LayerTypeEnum@@@@@TypeConverter@@YAPBDXZ 1000c6b0 f   PlugInUtilities:TypeConverter.obj
 0001:0000b6c0       ??$toString@V?$vector@PAV?$EnumWrapper@W4LayerTypeEnum@@@@V?$allocator@PAV?$EnumWrapper@W4LayerTypeEnum@@@@@std@@@std@@@TypeConverter@@YAPBDXZ 1000c6c0 f   PlugInUtilities:TypeConverter.obj
 0001:0000b6d0       ??$toString@V?$vector@V?$EnumWrapper@W4LayerTypeEnum@@@@V?$allocator@V?$EnumWrapper@W4LayerTypeEnum@@@@@std@@@std@@@TypeConverter@@YAPBDXZ 1000c6d0 f   PlugInUtilities:TypeConverter.obj
 0001:0000b6e0       ??$toString@V?$EnumWrapper@W4LineStyleEnum@@@@@TypeConverter@@YAPBDXZ 1000c6e0 f   PlugInUtilities:TypeConverter.obj
 0001:0000b6f0       ??$toString@V?$vector@PAV?$EnumWrapper@W4LineStyleEnum@@@@V?$allocator@PAV?$EnumWrapper@W4LineStyleEnum@@@@@std@@@std@@@TypeConverter@@YAPBDXZ 1000c6f0 f   PlugInUtilities:TypeConverter.obj
 0001:0000b700       ??$toString@V?$vector@V?$EnumWrapper@W4LineStyleEnum@@@@V?$allocator@V?$EnumWrapper@W4LineStyleEnum@@@@@std@@@std@@@TypeConverter@@YAPBDXZ 1000c700 f   PlugInUtilities:TypeConverter.obj
 0001:0000b710       ??$toString@V?$EnumWrapper@W4PanLimitTypeEnum@@@@@TypeConverter@@YAPBDXZ 1000c710 f   PlugInUtilities:TypeConverter.obj
 0001:0000b720       ??$toString@V?$vector@PAV?$EnumWrapper@W4PanLimitTypeEnum@@@@V?$allocator@PAV?$EnumWrapper@W4PanLimitTypeEnum@@@@@std@@@std@@@TypeConverter@@YAPBDXZ 1000c720 f   PlugInUtilities:TypeConverter.obj
 0001:0000b730       ??$toString@V?$vector@V?$EnumWrapper@W4PanLimitTypeEnum@@@@V?$allocator@V?$EnumWrapper@W4PanLimitTypeEnum@@@@@std@@@std@@@TypeConverter@@YAPBDXZ 1000c730 f   PlugInUtilities:TypeConverter.obj
 0001:0000b740       ??$toString@V?$EnumWrapper@W4PassAreaEnum@@@@@TypeConverter@@YAPBDXZ 1000c740 f   PlugInUtilities:TypeConverter.obj
 0001:0000b750       ??$toString@V?$vector@PAV?$EnumWrapper@W4PassAreaEnum@@@@V?$allocator@PAV?$EnumWrapper@W4PassAreaEnum@@@@@std@@@std@@@TypeConverter@@YAPBDXZ 1000c750 f   PlugInUtilities:TypeConverter.obj
 0001:0000b760       ??$toString@V?$vector@V?$EnumWrapper@W4PassAreaEnum@@@@V?$allocator@V?$EnumWrapper@W4PassAreaEnum@@@@@std@@@std@@@TypeConverter@@YAPBDXZ 1000c760 f   PlugInUtilities:TypeConverter.obj
 0001:0000b770       ??$toString@V?$EnumWrapper@W4PlotObjectTypeEnum@@@@@TypeConverter@@YAPBDXZ 1000c770 f   PlugInUtilities:TypeConverter.obj
 0001:0000b780       ??$toString@V?$vector@PAV?$EnumWrapper@W4PlotObjectTypeEnum@@@@V?$allocator@PAV?$EnumWrapper@W4PlotObjectTypeEnum@@@@@std@@@std@@@TypeConverter@@YAPBDXZ 1000c780 f   PlugInUtilities:TypeConverter.obj
 0001:0000b790       ??$toString@V?$vector@V?$EnumWrapper@W4PlotObjectTypeEnum@@@@V?$allocator@V?$EnumWrapper@W4PlotObjectTypeEnum@@@@@std@@@std@@@TypeConverter@@YAPBDXZ 1000c790 f   PlugInUtilities:TypeConverter.obj
 0001:0000b7a0       ??$toString@V?$EnumWrapper@W4PointSymbolTypeEnum@Point@@@@@TypeConverter@@YAPBDXZ 1000c7a0 f   PlugInUtilities:TypeConverter.obj
 0001:0000b7b0       ??$toString@V?$vector@PAV?$EnumWrapper@W4PointSymbolTypeEnum@Point@@@@V?$allocator@PAV?$EnumWrapper@W4PointSymbolTypeEnum@Point@@@@@std@@@std@@@TypeConverter@@YAPBDXZ 1000c7b0 f   PlugInUtilities:TypeConverter.obj
 0001:0000b7c0       ??$toString@V?$vector@V?$EnumWrapper@W4PointSymbolTypeEnum@Point@@@@V?$allocator@V?$EnumWrapper@W4PointSymbolTypeEnum@Point@@@@@std@@@std@@@TypeConverter@@YAPBDXZ 1000c7c0 f   PlugInUtilities:TypeConverter.obj
 0001:0000b7d0       ??$toString@V?$EnumWrapper@W4PositionTypeEnum@@@@@TypeConverter@@YAPBDXZ 1000c7d0 f   PlugInUtilities:TypeConverter.obj
 0001:0000b7e0       ??$toString@V?$vector@PAV?$EnumWrapper@W4PositionTypeEnum@@@@V?$allocator@PAV?$EnumWrapper@W4PositionTypeEnum@@@@@std@@@std@@@TypeConverter@@YAPBDXZ 1000c7e0 f   PlugInUtilities:TypeConverter.obj
 0001:0000b7f0       ??$toString@V?$vector@V?$EnumWrapper@W4PositionTypeEnum@@@@V?$allocator@V?$EnumWrapper@W4PositionTypeEnum@@@@@std@@@std@@@TypeConverter@@YAPBDXZ 1000c7f0 f   PlugInUtilities:TypeConverter.obj
 0001:0000b800       ??$toString@V?$EnumWrapper@W4ProcessingLocationEnum@@@@@TypeConverter@@YAPBDXZ 1000c800 f   PlugInUtilities:TypeConverter.obj
 0001:0000b810       ??$toString@V?$vector@PAV?$EnumWrapper@W4ProcessingLocationEnum@@@@V?$allocator@PAV?$EnumWrapper@W4ProcessingLocationEnum@@@@@std@@@std@@@TypeConverter@@YAPBDXZ 1000c810 f   PlugInUtilities:TypeConverter.obj
 0001:0000b820       ??$toString@V?$vector@V?$EnumWrapper@W4ProcessingLocationEnum@@@@V?$allocator@V?$EnumWrapper@W4ProcessingLocationEnum@@@@@std@@@std@@@TypeConverter@@YAPBDXZ 1000c820 f   PlugInUtilities:TypeConverter.obj
 0001:0000b830       ??$toString@V?$EnumWrapper@W4SessionSaveTypeEnum@@@@@TypeConverter@@YAPBDXZ 1000c830 f   PlugInUtilities:TypeConverter.obj
 0001:0000b840       ??$toString@V?$vector@PAV?$EnumWrapper@W4SessionSaveTypeEnum@@@@V?$allocator@PAV?$EnumWrapper@W4SessionSaveTypeEnum@@@@@std@@@std@@@TypeConverter@@YAPBDXZ 1000c840 f   PlugInUtilities:TypeConverter.obj
 0001:0000b850       ??$toString@V?$vector@V?$EnumWrapper@W4SessionSaveTypeEnum@@@@V?$allocator@V?$EnumWrapper@W4SessionSaveTypeEnum@@@@@std@@@std@@@TypeConverter@@YAPBDXZ 1000c850 f   PlugInUtilities:TypeConverter.obj
 0001:0000b860       ??$toString@V?$EnumWrapper@W4RasterChannelTypeEnum@@@@@TypeConverter@@YAPBDXZ 1000c860 f   PlugInUtilities:TypeConverter.obj
 0001:0000b870       ??$toString@V?$vector@PAV?$EnumWrapper@W4RasterChannelTypeEnum@@@@V?$allocator@PAV?$EnumWrapper@W4RasterChannelTypeEnum@@@@@std@@@std@@@TypeConverter@@YAPBDXZ 1000c870 f   PlugInUtilities:TypeConverter.obj
 0001:0000b880       ??$toString@V?$vector@V?$EnumWrapper@W4RasterChannelTypeEnum@@@@V?$allocator@V?$EnumWrapper@W4RasterChannelTypeEnum@@@@@std@@@std@@@TypeConverter@@YAPBDXZ 1000c880 f   PlugInUtilities:TypeConverter.obj
 0001:0000b890       ??$toString@V?$EnumWrapper@W4ReleaseTypeEnum@@@@@TypeConverter@@YAPBDXZ 1000c890 f   PlugInUtilities:TypeConverter.obj
 0001:0000b8a0       ??$toString@V?$vector@PAV?$EnumWrapper@W4ReleaseTypeEnum@@@@V?$allocator@PAV?$EnumWrapper@W4ReleaseTypeEnum@@@@@std@@@std@@@TypeConverter@@YAPBDXZ 1000c8a0 f   PlugInUtilities:TypeConverter.obj
 0001:0000b8b0       ??$toString@V?$vector@V?$EnumWrapper@W4ReleaseTypeEnum@@@@V?$allocator@V?$EnumWrapper@W4ReleaseTypeEnum@@@@@std@@@std@@@TypeConverter@@YAPBDXZ 1000c8b0 f   PlugInUtilities:TypeConverter.obj
 0001:0000b8c0       ??$toString@V?$EnumWrapper@W4StretchTypeEnum@@@@@TypeConverter@@YAPBDXZ 1000c8c0 f   PlugInUtilities:TypeConverter.obj
 0001:0000b8d0       ??$toString@V?$vector@PAV?$EnumWrapper@W4StretchTypeEnum@@@@V?$allocator@PAV?$EnumWrapper@W4StretchTypeEnum@@@@@std@@@std@@@TypeConverter@@YAPBDXZ 1000c8d0 f   PlugInUtilities:TypeConverter.obj
 0001:0000b8e0       ??$toString@V?$vector@V?$EnumWrapper@W4StretchTypeEnum@@@@V?$allocator@V?$EnumWrapper@W4StretchTypeEnum@@@@@std@@@std@@@TypeConverter@@YAPBDXZ 1000c8e0 f   PlugInUtilities:TypeConverter.obj
 0001:0000b8f0       ??$toString@V?$EnumWrapper@W4SymbolTypeEnum@@@@@TypeConverter@@YAPBDXZ 1000c8f0 f   PlugInUtilities:TypeConverter.obj
 0001:0000b900       ??$toString@V?$vector@PAV?$EnumWrapper@W4SymbolTypeEnum@@@@V?$allocator@PAV?$EnumWrapper@W4SymbolTypeEnum@@@@@std@@@std@@@TypeConverter@@YAPBDXZ 1000c900 f   PlugInUtilities:TypeConverter.obj
 0001:0000b910       ??$toString@V?$vector@V?$EnumWrapper@W4SymbolTypeEnum@@@@V?$allocator@V?$EnumWrapper@W4SymbolTypeEnum@@@@@std@@@std@@@TypeConverter@@YAPBDXZ 1000c910 f   PlugInUtilities:TypeConverter.obj
 0001:0000b920       ??$toString@V?$EnumWrapper@W4RegionUnitsEnum@@@@@TypeConverter@@YAPBDXZ 1000c920 f   PlugInUtilities:TypeConverter.obj
 0001:0000b930       ??$toString@V?$vector@PAV?$EnumWrapper@W4RegionUnitsEnum@@@@V?$allocator@PAV?$EnumWrapper@W4RegionUnitsEnum@@@@@std@@@std@@@TypeConverter@@YAPBDXZ 1000c930 f   PlugInUtilities:TypeConverter.obj
 0001:0000b940       ??$toString@V?$vector@V?$EnumWrapper@W4RegionUnitsEnum@@@@V?$allocator@V?$EnumWrapper@W4RegionUnitsEnum@@@@@std@@@std@@@TypeConverter@@YAPBDXZ 1000c940 f   PlugInUtilities:TypeConverter.obj
 0001:0000b950       ??$toString@V?$EnumWrapper@W4UnitSystemEnum@@@@@TypeConverter@@YAPBDXZ 1000c950 f   PlugInUtilities:TypeConverter.obj
 0001:0000b960       ??$toString@V?$vector@PAV?$EnumWrapper@W4UnitSystemEnum@@@@V?$allocator@PAV?$EnumWrapper@W4UnitSystemEnum@@@@@std@@@std@@@TypeConverter@@YAPBDXZ 1000c960 f   PlugInUtilities:TypeConverter.obj
 0001:0000b970       ??$toString@V?$vector@V?$EnumWrapper@W4UnitSystemEnum@@@@V?$allocator@V?$EnumWrapper@W4UnitSystemEnum@@@@@std@@@std@@@TypeConverter@@YAPBDXZ 1000c970 f   PlugInUtilities:TypeConverter.obj
 0001:0000b980       ??$toString@V?$EnumWrapper@W4UnitTypeEnum@@@@@TypeConverter@@YAPBDXZ 1000c980 f   PlugInUtilities:TypeConverter.obj
 0001:0000b990       ??$toString@V?$vector@PAV?$EnumWrapper@W4UnitTypeEnum@@@@V?$allocator@PAV?$EnumWrapper@W4UnitTypeEnum@@@@@std@@@std@@@TypeConverter@@YAPBDXZ 1000c990 f   PlugInUtilities:TypeConverter.obj
 0001:0000b9a0       ??$toString@V?$vector@V?$EnumWrapper@W4UnitTypeEnum@@@@V?$allocator@V?$EnumWrapper@W4UnitTypeEnum@@@@@std@@@std@@@TypeConverter@@YAPBDXZ 1000c9a0 f   PlugInUtilities:TypeConverter.obj
 0001:0000b9b0       ??$toString@V?$EnumWrapper@W4WindowSizeTypeEnum@@@@@TypeConverter@@YAPBDXZ 1000c9b0 f   PlugInUtilities:TypeConverter.obj
 0001:0000b9c0       ??$toString@V?$vector@PAV?$EnumWrapper@W4WindowSizeTypeEnum@@@@V?$allocator@PAV?$EnumWrapper@W4WindowSizeTypeEnum@@@@@std@@@std@@@TypeConverter@@YAPBDXZ 1000c9c0 f   PlugInUtilities:TypeConverter.obj
 0001:0000b9d0       ??$toString@V?$vector@V?$EnumWrapper@W4WindowSizeTypeEnum@@@@V?$allocator@V?$EnumWrapper@W4WindowSizeTypeEnum@@@@@std@@@std@@@TypeConverter@@YAPBDXZ 1000c9d0 f   PlugInUtilities:TypeConverter.obj
 0001:0000b9e0       ??$toString@V?$EnumWrapper@W4WindowTypeEnum@@@@@TypeConverter@@YAPBDXZ 1000c9e0 f   PlugInUtilities:TypeConverter.obj
 0001:0000b9f0       ??$toString@V?$vector@PAV?$EnumWrapper@W4WindowTypeEnum@@@@V?$allocator@PAV?$EnumWrapper@W4WindowTypeEnum@@@@@std@@@std@@@TypeConverter@@YAPBDXZ 1000c9f0 f   PlugInUtilities:TypeConverter.obj
 0001:0000ba00       ??$toString@V?$vector@V?$EnumWrapper@W4WindowTypeEnum@@@@V?$allocator@V?$EnumWrapper@W4WindowTypeEnum@@@@@std@@@std@@@TypeConverter@@YAPBDXZ 1000ca00 f   PlugInUtilities:TypeConverter.obj
 0001:0000ba10       ??$toString@VAebInstallTransaction@@@TypeConverter@@YAPBDXZ 1000ca10 f   PlugInUtilities:TypeConverter.obj
 0001:0000ba20       ??$toString@V?$vector@PAVAebInstallTransaction@@V?$allocator@PAVAebInstallTransaction@@@std@@@std@@@TypeConverter@@YAPBDXZ 1000ca20 f   PlugInUtilities:TypeConverter.obj
 0001:0000ba30       ??$toString@V?$vector@VAebInstallTransaction@@V?$allocator@VAebInstallTransaction@@@std@@@std@@@TypeConverter@@YAPBDXZ 1000ca30 f   PlugInUtilities:TypeConverter.obj
 0001:0000ba40       ??$toString@PAVAebInstallTransaction@@@TypeConverter@@YAPBDXZ 1000ca40 f   PlugInUtilities:TypeConverter.obj
 0001:0000ba50       ??$toString@VApplicationWindow@@@TypeConverter@@YAPBDXZ 1000ca50 f   PlugInUtilities:TypeConverter.obj
 0001:0000ba60       ??$toString@V?$vector@PAVApplicationWindow@@V?$allocator@PAVApplicationWindow@@@std@@@std@@@TypeConverter@@YAPBDXZ 1000ca60 f   PlugInUtilities:TypeConverter.obj
 0001:0000ba70       ??$toString@V?$vector@VApplicationWindow@@V?$allocator@VApplicationWindow@@@std@@@std@@@TypeConverter@@YAPBDXZ 1000ca70 f   PlugInUtilities:TypeConverter.obj
 0001:0000ba80       ??$toString@PAVApplicationWindow@@@TypeConverter@@YAPBDXZ 1000ca80 f   PlugInUtilities:TypeConverter.obj
 0001:0000ba90       ??$toString@VAnimation@@@TypeConverter@@YAPBDXZ 1000ca90 f   PlugInUtilities:TypeConverter.obj
 0001:0000baa0       ??$toString@V?$vector@PAVAnimation@@V?$allocator@PAVAnimation@@@std@@@std@@@TypeConverter@@YAPBDXZ 1000caa0 f   PlugInUtilities:TypeConverter.obj
 0001:0000bab0       ??$toString@V?$vector@VAnimation@@V?$allocator@VAnimation@@@std@@@std@@@TypeConverter@@YAPBDXZ 1000cab0 f   PlugInUtilities:TypeConverter.obj
 0001:0000bac0       ??$toString@PAVAnimation@@@TypeConverter@@YAPBDXZ 1000cac0 f   PlugInUtilities:TypeConverter.obj
 0001:0000bad0       ??$toString@VAnimationController@@@TypeConverter@@YAPBDXZ 1000cad0 f   PlugInUtilities:TypeConverter.obj
 0001:0000bae0       ??$toString@V?$vector@PAVAnimationController@@V?$allocator@PAVAnimationController@@@std@@@std@@@TypeConverter@@YAPBDXZ 1000cae0 f   PlugInUtilities:TypeConverter.obj
 0001:0000baf0       ??$toString@V?$vector@VAnimationController@@V?$allocator@VAnimationController@@@std@@@std@@@TypeConverter@@YAPBDXZ 1000caf0 f   PlugInUtilities:TypeConverter.obj
 0001:0000bb00       ??$toString@PAVAnimationController@@@TypeConverter@@YAPBDXZ 1000cb00 f   PlugInUtilities:TypeConverter.obj
 0001:0000bb10       ??$toString@VAnnotationElement@@@TypeConverter@@YAPBDXZ 1000cb10 f   PlugInUtilities:TypeConverter.obj
 0001:0000bb20       ??$toString@V?$vector@PAVAnnotationElement@@V?$allocator@PAVAnnotationElement@@@std@@@std@@@TypeConverter@@YAPBDXZ 1000cb20 f   PlugInUtilities:TypeConverter.obj
 0001:0000bb30       ??$toString@V?$vector@VAnnotationElement@@V?$allocator@VAnnotationElement@@@std@@@std@@@TypeConverter@@YAPBDXZ 1000cb30 f   PlugInUtilities:TypeConverter.obj
 0001:0000bb40       ??$toString@PAVAnnotationElement@@@TypeConverter@@YAPBDXZ 1000cb40 f   PlugInUtilities:TypeConverter.obj
 0001:0000bb50       ??$toString@VAnnotationLayer@@@TypeConverter@@YAPBDXZ 1000cb50 f   PlugInUtilities:TypeConverter.obj
 0001:0000bb60       ??$toString@V?$vector@PAVAnnotationLayer@@V?$allocator@PAVAnnotationLayer@@@std@@@std@@@TypeConverter@@YAPBDXZ 1000cb60 f   PlugInUtilities:TypeConverter.obj
 0001:0000bb70       ??$toString@V?$vector@VAnnotationLayer@@V?$allocator@VAnnotationLayer@@@std@@@std@@@TypeConverter@@YAPBDXZ 1000cb70 f   PlugInUtilities:TypeConverter.obj
 0001:0000bb80       ??$toString@PAVAnnotationLayer@@@TypeConverter@@YAPBDXZ 1000cb80 f   PlugInUtilities:TypeConverter.obj
 0001:0000bb90       ??$toString@VAny@@@TypeConverter@@YAPBDXZ 1000cb90 f   PlugInUtilities:TypeConverter.obj
 0001:0000bba0       ??$toString@V?$vector@PAVAny@@V?$allocator@PAVAny@@@std@@@std@@@TypeConverter@@YAPBDXZ 1000cba0 f   PlugInUtilities:TypeConverter.obj
 0001:0000bbb0       ??$toString@V?$vector@VAny@@V?$allocator@VAny@@@std@@@std@@@TypeConverter@@YAPBDXZ 1000cbb0 f   PlugInUtilities:TypeConverter.obj
 0001:0000bbc0       ??$toString@PAVAny@@@TypeConverter@@YAPBDXZ 1000cbc0 f   PlugInUtilities:TypeConverter.obj
 0001:0000bbd0       ??$toString@VAoiElement@@@TypeConverter@@YAPBDXZ 1000cbd0 f   PlugInUtilities:TypeConverter.obj
 0001:0000bbe0       ??$toString@V?$vector@PAVAoiElement@@V?$allocator@PAVAoiElement@@@std@@@std@@@TypeConverter@@YAPBDXZ 1000cbe0 f   PlugInUtilities:TypeConverter.obj
 0001:0000bbf0       ??$toString@V?$vector@VAoiElement@@V?$allocator@VAoiElement@@@std@@@std@@@TypeConverter@@YAPBDXZ 1000cbf0 f   PlugInUtilities:TypeConverter.obj
 0001:0000bc00       ??$toString@PAVAoiElement@@@TypeConverter@@YAPBDXZ 1000cc00 f   PlugInUtilities:TypeConverter.obj
 0001:0000bc10       ??$toString@VAoiLayer@@@TypeConverter@@YAPBDXZ 1000cc10 f   PlugInUtilities:TypeConverter.obj
 0001:0000bc20       ??$toString@V?$vector@PAVAoiLayer@@V?$allocator@PAVAoiLayer@@@std@@@std@@@TypeConverter@@YAPBDXZ 1000cc20 f   PlugInUtilities:TypeConverter.obj
 0001:0000bc30       ??$toString@V?$vector@VAoiLayer@@V?$allocator@VAoiLayer@@@std@@@std@@@TypeConverter@@YAPBDXZ 1000cc30 f   PlugInUtilities:TypeConverter.obj
 0001:0000bc40       ??$toString@PAVAoiLayer@@@TypeConverter@@YAPBDXZ 1000cc40 f   PlugInUtilities:TypeConverter.obj
 0001:0000bc50       ??$toString@VBitMask@@@TypeConverter@@YAPBDXZ 1000cc50 f   PlugInUtilities:TypeConverter.obj
 0001:0000bc60       ??$toString@V?$vector@PAVBitMask@@V?$allocator@PAVBitMask@@@std@@@std@@@TypeConverter@@YAPBDXZ 1000cc60 f   PlugInUtilities:TypeConverter.obj
 0001:0000bc70       ??$toString@V?$vector@VBitMask@@V?$allocator@VBitMask@@@std@@@std@@@TypeConverter@@YAPBDXZ 1000cc70 f   PlugInUtilities:TypeConverter.obj
 0001:0000bc80       ??$toString@PAVBitMask@@@TypeConverter@@YAPBDXZ 1000cc80 f   PlugInUtilities:TypeConverter.obj
 0001:0000bc90       ??$toString@VCartesianPlot@@@TypeConverter@@YAPBDXZ 1000cc90 f   PlugInUtilities:TypeConverter.obj
 0001:0000bca0       ??$toString@V?$vector@PAVCartesianPlot@@V?$allocator@PAVCartesianPlot@@@std@@@std@@@TypeConverter@@YAPBDXZ 1000cca0 f   PlugInUtilities:TypeConverter.obj
 0001:0000bcb0       ??$toString@V?$vector@VCartesianPlot@@V?$allocator@VCartesianPlot@@@std@@@std@@@TypeConverter@@YAPBDXZ 1000ccb0 f   PlugInUtilities:TypeConverter.obj
 0001:0000bcc0       ??$toString@PAVCartesianPlot@@@TypeConverter@@YAPBDXZ 1000ccc0 f   PlugInUtilities:TypeConverter.obj
 0001:0000bcd0       ??$toString@VClassification@@@TypeConverter@@YAPBDXZ 1000ccd0 f   PlugInUtilities:TypeConverter.obj
 0001:0000bce0       ??$toString@V?$vector@PAVClassification@@V?$allocator@PAVClassification@@@std@@@std@@@TypeConverter@@YAPBDXZ 1000cce0 f   PlugInUtilities:TypeConverter.obj
 0001:0000bcf0       ??$toString@V?$vector@VClassification@@V?$allocator@VClassification@@@std@@@std@@@TypeConverter@@YAPBDXZ 1000ccf0 f   PlugInUtilities:TypeConverter.obj
 0001:0000bd00       ??$toString@PAVClassification@@@TypeConverter@@YAPBDXZ 1000cd00 f   PlugInUtilities:TypeConverter.obj
 0001:0000bd10       ??$toString@VClassificationLayer@@@TypeConverter@@YAPBDXZ 1000cd10 f   PlugInUtilities:TypeConverter.obj
 0001:0000bd20       ??$toString@V?$vector@PAVClassificationLayer@@V?$allocator@PAVClassificationLayer@@@std@@@std@@@TypeConverter@@YAPBDXZ 1000cd20 f   PlugInUtilities:TypeConverter.obj
 0001:0000bd30       ??$toString@V?$vector@VClassificationLayer@@V?$allocator@VClassificationLayer@@@std@@@std@@@TypeConverter@@YAPBDXZ 1000cd30 f   PlugInUtilities:TypeConverter.obj
 0001:0000bd40       ??$toString@PAVClassificationLayer@@@TypeConverter@@YAPBDXZ 1000cd40 f   PlugInUtilities:TypeConverter.obj
 0001:0000bd50       ??$toString@VColorType@@@TypeConverter@@YAPBDXZ 1000cd50 f   PlugInUtilities:TypeConverter.obj
 0001:0000bd60       ??$toString@V?$vector@PAVColorType@@V?$allocator@PAVColorType@@@std@@@std@@@TypeConverter@@YAPBDXZ 1000cd60 f   PlugInUtilities:TypeConverter.obj
 0001:0000bd70       ??$toString@V?$vector@VColorType@@V?$allocator@VColorType@@@std@@@std@@@TypeConverter@@YAPBDXZ 1000cd70 f   PlugInUtilities:TypeConverter.obj
 0001:0000bd80       ??$toString@PAVColorType@@@TypeConverter@@YAPBDXZ 1000cd80 f   PlugInUtilities:TypeConverter.obj
 0001:0000bd90       ??$toString@VDataDescriptor@@@TypeConverter@@YAPBDXZ 1000cd90 f   PlugInUtilities:TypeConverter.obj
 0001:0000bda0       ??$toString@V?$vector@PAVDataDescriptor@@V?$allocator@PAVDataDescriptor@@@std@@@std@@@TypeConverter@@YAPBDXZ 1000cda0 f   PlugInUtilities:TypeConverter.obj
 0001:0000bdb0       ??$toString@V?$vector@VDataDescriptor@@V?$allocator@VDataDescriptor@@@std@@@std@@@TypeConverter@@YAPBDXZ 1000cdb0 f   PlugInUtilities:TypeConverter.obj
 0001:0000bdc0       ??$toString@PAVDataDescriptor@@@TypeConverter@@YAPBDXZ 1000cdc0 f   PlugInUtilities:TypeConverter.obj
 0001:0000bdd0       ??$toString@VDataElement@@@TypeConverter@@YAPBDXZ 1000cdd0 f   PlugInUtilities:TypeConverter.obj
 0001:0000bde0       ??$toString@V?$vector@PAVDataElement@@V?$allocator@PAVDataElement@@@std@@@std@@@TypeConverter@@YAPBDXZ 1000cde0 f   PlugInUtilities:TypeConverter.obj
 0001:0000bdf0       ??$toString@V?$vector@VDataElement@@V?$allocator@VDataElement@@@std@@@std@@@TypeConverter@@YAPBDXZ 1000cdf0 f   PlugInUtilities:TypeConverter.obj
 0001:0000be00       ??$toString@PAVDataElement@@@TypeConverter@@YAPBDXZ 1000ce00 f   PlugInUtilities:TypeConverter.obj
 0001:0000be10       ??$toString@VDataElementGroup@@@TypeConverter@@YAPBDXZ 1000ce10 f   PlugInUtilities:TypeConverter.obj
 0001:0000be20       ??$toString@V?$vector@PAVDataElementGroup@@V?$allocator@PAVDataElementGroup@@@std@@@std@@@TypeConverter@@YAPBDXZ 1000ce20 f   PlugInUtilities:TypeConverter.obj
 0001:0000be30       ??$toString@V?$vector@VDataElementGroup@@V?$allocator@VDataElementGroup@@@std@@@std@@@TypeConverter@@YAPBDXZ 1000ce30 f   PlugInUtilities:TypeConverter.obj
 0001:0000be40       ??$toString@PAVDataElementGroup@@@TypeConverter@@YAPBDXZ 1000ce40 f   PlugInUtilities:TypeConverter.obj
 0001:0000be50       ??$toString@VDataRequest@@@TypeConverter@@YAPBDXZ 1000ce50 f   PlugInUtilities:TypeConverter.obj
 0001:0000be60       ??$toString@V?$vector@PAVDataRequest@@V?$allocator@PAVDataRequest@@@std@@@std@@@TypeConverter@@YAPBDXZ 1000ce60 f   PlugInUtilities:TypeConverter.obj
 0001:0000be70       ??$toString@V?$vector@VDataRequest@@V?$allocator@VDataRequest@@@std@@@std@@@TypeConverter@@YAPBDXZ 1000ce70 f   PlugInUtilities:TypeConverter.obj
 0001:0000be80       ??$toString@PAVDataRequest@@@TypeConverter@@YAPBDXZ 1000ce80 f   PlugInUtilities:TypeConverter.obj
 0001:0000be90       ??$toString@VDataVariantAnyData@@@TypeConverter@@YAPBDXZ 1000ce90 f   PlugInUtilities:TypeConverter.obj
 0001:0000bea0       ??$toString@V?$vector@PAVDataVariantAnyData@@V?$allocator@PAVDataVariantAnyData@@@std@@@std@@@TypeConverter@@YAPBDXZ 1000cea0 f   PlugInUtilities:TypeConverter.obj
 0001:0000beb0       ??$toString@V?$vector@VDataVariantAnyData@@V?$allocator@VDataVariantAnyData@@@std@@@std@@@TypeConverter@@YAPBDXZ 1000ceb0 f   PlugInUtilities:TypeConverter.obj
 0001:0000bec0       ??$toString@PAVDataVariantAnyData@@@TypeConverter@@YAPBDXZ 1000cec0 f   PlugInUtilities:TypeConverter.obj
 0001:0000bed0       ??$toString@VDateTime@@@TypeConverter@@YAPBDXZ 1000ced0 f   PlugInUtilities:TypeConverter.obj
 0001:0000bee0       ??$toString@V?$vector@PAVDateTime@@V?$allocator@PAVDateTime@@@std@@@std@@@TypeConverter@@YAPBDXZ 1000cee0 f   PlugInUtilities:TypeConverter.obj
 0001:0000bef0       ??$toString@V?$vector@VDateTime@@V?$allocator@VDateTime@@@std@@@std@@@TypeConverter@@YAPBDXZ 1000cef0 f   PlugInUtilities:TypeConverter.obj
 0001:0000bf00       ??$toString@PAVDateTime@@@TypeConverter@@YAPBDXZ 1000cf00 f   PlugInUtilities:TypeConverter.obj
 0001:0000bf10       ??$toString@VDimensionDescriptor@@@TypeConverter@@YAPBDXZ 1000cf10 f   PlugInUtilities:TypeConverter.obj
 0001:0000bf20       ??$toString@V?$vector@PAVDimensionDescriptor@@V?$allocator@PAVDimensionDescriptor@@@std@@@std@@@TypeConverter@@YAPBDXZ 1000cf20 f   PlugInUtilities:TypeConverter.obj
 0001:0000bf30       ??$toString@V?$vector@VDimensionDescriptor@@V?$allocator@VDimensionDescriptor@@@std@@@std@@@TypeConverter@@YAPBDXZ 1000cf30 f   PlugInUtilities:TypeConverter.obj
 0001:0000bf40       ??$toString@PAVDimensionDescriptor@@@TypeConverter@@YAPBDXZ 1000cf40 f   PlugInUtilities:TypeConverter.obj
 0001:0000bf50       ??$toString@VDynamicObject@@@TypeConverter@@YAPBDXZ 1000cf50 f   PlugInUtilities:TypeConverter.obj
 0001:0000bf60       ??$toString@V?$vector@PAVDynamicObject@@V?$allocator@PAVDynamicObject@@@std@@@std@@@TypeConverter@@YAPBDXZ 1000cf60 f   PlugInUtilities:TypeConverter.obj
 0001:0000bf70       ??$toString@V?$vector@VDynamicObject@@V?$allocator@VDynamicObject@@@std@@@std@@@TypeConverter@@YAPBDXZ 1000cf70 f   PlugInUtilities:TypeConverter.obj
 0001:0000bf80       ??$toString@PAVDynamicObject@@@TypeConverter@@YAPBDXZ 1000cf80 f   PlugInUtilities:TypeConverter.obj
 0001:0000bf90       ??$toString@VExecutableAgent@@@TypeConverter@@YAPBDXZ 1000cf90 f   PlugInUtilities:TypeConverter.obj
 0001:0000bfa0       ??$toString@V?$vector@PAVExecutableAgent@@V?$allocator@PAVExecutableAgent@@@std@@@std@@@TypeConverter@@YAPBDXZ 1000cfa0 f   PlugInUtilities:TypeConverter.obj
 0001:0000bfb0       ??$toString@V?$vector@VExecutableAgent@@V?$allocator@VExecutableAgent@@@std@@@std@@@TypeConverter@@YAPBDXZ 1000cfb0 f   PlugInUtilities:TypeConverter.obj
 0001:0000bfc0       ??$toString@PAVExecutableAgent@@@TypeConverter@@YAPBDXZ 1000cfc0 f   PlugInUtilities:TypeConverter.obj
 0001:0000bfd0       ??$toString@VExportAgent@@@TypeConverter@@YAPBDXZ 1000cfd0 f   PlugInUtilities:TypeConverter.obj
 0001:0000bfe0       ??$toString@V?$vector@PAVExportAgent@@V?$allocator@PAVExportAgent@@@std@@@std@@@TypeConverter@@YAPBDXZ 1000cfe0 f   PlugInUtilities:TypeConverter.obj
 0001:0000bff0       ??$toString@V?$vector@VExportAgent@@V?$allocator@VExportAgent@@@std@@@std@@@TypeConverter@@YAPBDXZ 1000cff0 f   PlugInUtilities:TypeConverter.obj
 0001:0000c000       ??$toString@PAVExportAgent@@@TypeConverter@@YAPBDXZ 1000d000 f   PlugInUtilities:TypeConverter.obj
 0001:0000c010       ??$toString@VFileDescriptor@@@TypeConverter@@YAPBDXZ 1000d010 f   PlugInUtilities:TypeConverter.obj
 0001:0000c020       ??$toString@V?$vector@PAVFileDescriptor@@V?$allocator@PAVFileDescriptor@@@std@@@std@@@TypeConverter@@YAPBDXZ 1000d020 f   PlugInUtilities:TypeConverter.obj
 0001:0000c030       ??$toString@V?$vector@VFileDescriptor@@V?$allocator@VFileDescriptor@@@std@@@std@@@TypeConverter@@YAPBDXZ 1000d030 f   PlugInUtilities:TypeConverter.obj
 0001:0000c040       ??$toString@PAVFileDescriptor@@@TypeConverter@@YAPBDXZ 1000d040 f   PlugInUtilities:TypeConverter.obj
 0001:0000c050       ??$toString@VFileFinder@@@TypeConverter@@YAPBDXZ 1000d050 f   PlugInUtilities:TypeConverter.obj
 0001:0000c060       ??$toString@V?$vector@PAVFileFinder@@V?$allocator@PAVFileFinder@@@std@@@std@@@TypeConverter@@YAPBDXZ 1000d060 f   PlugInUtilities:TypeConverter.obj
 0001:0000c070       ??$toString@V?$vector@VFileFinder@@V?$allocator@VFileFinder@@@std@@@std@@@TypeConverter@@YAPBDXZ 1000d070 f   PlugInUtilities:TypeConverter.obj
 0001:0000c080       ??$toString@PAVFileFinder@@@TypeConverter@@YAPBDXZ 1000d080 f   PlugInUtilities:TypeConverter.obj
 0001:0000c090       ??$toString@VFilename@@@TypeConverter@@YAPBDXZ 1000d090 f   PlugInUtilities:TypeConverter.obj
 0001:0000c0a0       ??$toString@V?$vector@PAVFilename@@V?$allocator@PAVFilename@@@std@@@std@@@TypeConverter@@YAPBDXZ 1000d0a0 f   PlugInUtilities:TypeConverter.obj
 0001:0000c0b0       ??$toString@V?$vector@VFilename@@V?$allocator@VFilename@@@std@@@std@@@TypeConverter@@YAPBDXZ 1000d0b0 f   PlugInUtilities:TypeConverter.obj
 0001:0000c0c0       ??$toString@PAVFilename@@@TypeConverter@@YAPBDXZ 1000d0c0 f   PlugInUtilities:TypeConverter.obj
 0001:0000c0d0       ??$toString@VFloatComplex@@@TypeConverter@@YAPBDXZ 1000d0d0 f   PlugInUtilities:TypeConverter.obj
 0001:0000c0e0       ??$toString@V?$vector@PAVFloatComplex@@V?$allocator@PAVFloatComplex@@@std@@@std@@@TypeConverter@@YAPBDXZ 1000d0e0 f   PlugInUtilities:TypeConverter.obj
 0001:0000c0f0       ??$toString@V?$vector@VFloatComplex@@V?$allocator@VFloatComplex@@@std@@@std@@@TypeConverter@@YAPBDXZ 1000d0f0 f   PlugInUtilities:TypeConverter.obj
 0001:0000c100       ??$toString@PAVFloatComplex@@@TypeConverter@@YAPBDXZ 1000d100 f   PlugInUtilities:TypeConverter.obj
 0001:0000c110       ??$toString@VFont@@@TypeConverter@@YAPBDXZ 1000d110 f   PlugInUtilities:TypeConverter.obj
 0001:0000c120       ??$toString@V?$vector@PAVFont@@V?$allocator@PAVFont@@@std@@@std@@@TypeConverter@@YAPBDXZ 1000d120 f   PlugInUtilities:TypeConverter.obj
 0001:0000c130       ??$toString@V?$vector@VFont@@V?$allocator@VFont@@@std@@@std@@@TypeConverter@@YAPBDXZ 1000d130 f   PlugInUtilities:TypeConverter.obj
 0001:0000c140       ??$toString@PAVFont@@@TypeConverter@@YAPBDXZ 1000d140 f   PlugInUtilities:TypeConverter.obj
 0001:0000c150       ??$toString@VGcpLayer@@@TypeConverter@@YAPBDXZ 1000d150 f   PlugInUtilities:TypeConverter.obj
 0001:0000c160       ??$toString@V?$vector@PAVGcpLayer@@V?$allocator@PAVGcpLayer@@@std@@@std@@@TypeConverter@@YAPBDXZ 1000d160 f   PlugInUtilities:TypeConverter.obj
 0001:0000c170       ??$toString@V?$vector@VGcpLayer@@V?$allocator@VGcpLayer@@@std@@@std@@@TypeConverter@@YAPBDXZ 1000d170 f   PlugInUtilities:TypeConverter.obj
 0001:0000c180       ??$toString@PAVGcpLayer@@@TypeConverter@@YAPBDXZ 1000d180 f   PlugInUtilities:TypeConverter.obj
 0001:0000c190       ??$toString@VGcpList@@@TypeConverter@@YAPBDXZ 1000d190 f   PlugInUtilities:TypeConverter.obj
 0001:0000c1a0       ??$toString@V?$vector@PAVGcpList@@V?$allocator@PAVGcpList@@@std@@@std@@@TypeConverter@@YAPBDXZ 1000d1a0 f   PlugInUtilities:TypeConverter.obj
 0001:0000c1b0       ??$toString@V?$vector@VGcpList@@V?$allocator@VGcpList@@@std@@@std@@@TypeConverter@@YAPBDXZ 1000d1b0 f   PlugInUtilities:TypeConverter.obj
 0001:0000c1c0       ??$toString@PAVGcpList@@@TypeConverter@@YAPBDXZ 1000d1c0 f   PlugInUtilities:TypeConverter.obj
 0001:0000c1d0       ??$toString@VGraphicElement@@@TypeConverter@@YAPBDXZ 1000d1d0 f   PlugInUtilities:TypeConverter.obj
 0001:0000c1e0       ??$toString@V?$vector@PAVGraphicElement@@V?$allocator@PAVGraphicElement@@@std@@@std@@@TypeConverter@@YAPBDXZ 1000d1e0 f   PlugInUtilities:TypeConverter.obj
 0001:0000c1f0       ??$toString@V?$vector@VGraphicElement@@V?$allocator@VGraphicElement@@@std@@@std@@@TypeConverter@@YAPBDXZ 1000d1f0 f   PlugInUtilities:TypeConverter.obj
 0001:0000c200       ??$toString@PAVGraphicElement@@@TypeConverter@@YAPBDXZ 1000d200 f   PlugInUtilities:TypeConverter.obj
 0001:0000c210       ??$toString@VGraphicLayer@@@TypeConverter@@YAPBDXZ 1000d210 f   PlugInUtilities:TypeConverter.obj
 0001:0000c220       ??$toString@V?$vector@PAVGraphicLayer@@V?$allocator@PAVGraphicLayer@@@std@@@std@@@TypeConverter@@YAPBDXZ 1000d220 f   PlugInUtilities:TypeConverter.obj
 0001:0000c230       ??$toString@V?$vector@VGraphicLayer@@V?$allocator@VGraphicLayer@@@std@@@std@@@TypeConverter@@YAPBDXZ 1000d230 f   PlugInUtilities:TypeConverter.obj
 0001:0000c240       ??$toString@PAVGraphicLayer@@@TypeConverter@@YAPBDXZ 1000d240 f   PlugInUtilities:TypeConverter.obj
 0001:0000c250       ??$toString@VHistogramPlot@@@TypeConverter@@YAPBDXZ 1000d250 f   PlugInUtilities:TypeConverter.obj
 0001:0000c260       ??$toString@V?$vector@PAVHistogramPlot@@V?$allocator@PAVHistogramPlot@@@std@@@std@@@TypeConverter@@YAPBDXZ 1000d260 f   PlugInUtilities:TypeConverter.obj
 0001:0000c270       ??$toString@V?$vector@VHistogramPlot@@V?$allocator@VHistogramPlot@@@std@@@std@@@TypeConverter@@YAPBDXZ 1000d270 f   PlugInUtilities:TypeConverter.obj
 0001:0000c280       ??$toString@PAVHistogramPlot@@@TypeConverter@@YAPBDXZ 1000d280 f   PlugInUtilities:TypeConverter.obj
 0001:0000c290       ??$toString@VImportAgent@@@TypeConverter@@YAPBDXZ 1000d290 f   PlugInUtilities:TypeConverter.obj
 0001:0000c2a0       ??$toString@V?$vector@PAVImportAgent@@V?$allocator@PAVImportAgent@@@std@@@std@@@TypeConverter@@YAPBDXZ 1000d2a0 f   PlugInUtilities:TypeConverter.obj
 0001:0000c2b0       ??$toString@V?$vector@VImportAgent@@V?$allocator@VImportAgent@@@std@@@std@@@TypeConverter@@YAPBDXZ 1000d2b0 f   PlugInUtilities:TypeConverter.obj
 0001:0000c2c0       ??$toString@PAVImportAgent@@@TypeConverter@@YAPBDXZ 1000d2c0 f   PlugInUtilities:TypeConverter.obj
 0001:0000c2d0       ??$toString@VIntegerComplex@@@TypeConverter@@YAPBDXZ 1000d2d0 f   PlugInUtilities:TypeConverter.obj
 0001:0000c2e0       ??$toString@V?$vector@PAVIntegerComplex@@V?$allocator@PAVIntegerComplex@@@std@@@std@@@TypeConverter@@YAPBDXZ 1000d2e0 f   PlugInUtilities:TypeConverter.obj
 0001:0000c2f0       ??$toString@V?$vector@VIntegerComplex@@V?$allocator@VIntegerComplex@@@std@@@std@@@TypeConverter@@YAPBDXZ 1000d2f0 f   PlugInUtilities:TypeConverter.obj
 0001:0000c300       ??$toString@PAVIntegerComplex@@@TypeConverter@@YAPBDXZ 1000d300 f   PlugInUtilities:TypeConverter.obj
 0001:0000c310       ??$toString@VInt64@@@TypeConverter@@YAPBDXZ 1000d310 f   PlugInUtilities:TypeConverter.obj
 0001:0000c320       ??$toString@V?$vector@PAVInt64@@V?$allocator@PAVInt64@@@std@@@std@@@TypeConverter@@YAPBDXZ 1000d320 f   PlugInUtilities:TypeConverter.obj
 0001:0000c330       ??$toString@V?$vector@VInt64@@V?$allocator@VInt64@@@std@@@std@@@TypeConverter@@YAPBDXZ 1000d330 f   PlugInUtilities:TypeConverter.obj
 0001:0000c340       ??$toString@VLatLonLayer@@@TypeConverter@@YAPBDXZ 1000d340 f   PlugInUtilities:TypeConverter.obj
 0001:0000c350       ??$toString@V?$vector@PAVLatLonLayer@@V?$allocator@PAVLatLonLayer@@@std@@@std@@@TypeConverter@@YAPBDXZ 1000d350 f   PlugInUtilities:TypeConverter.obj
 0001:0000c360       ??$toString@V?$vector@VLatLonLayer@@V?$allocator@VLatLonLayer@@@std@@@std@@@TypeConverter@@YAPBDXZ 1000d360 f   PlugInUtilities:TypeConverter.obj
 0001:0000c370       ??$toString@PAVLatLonLayer@@@TypeConverter@@YAPBDXZ 1000d370 f   PlugInUtilities:TypeConverter.obj
 0001:0000c380       ??$toString@VLayer@@@TypeConverter@@YAPBDXZ 1000d380 f   PlugInUtilities:TypeConverter.obj
 0001:0000c390       ??$toString@V?$vector@PAVLayer@@V?$allocator@PAVLayer@@@std@@@std@@@TypeConverter@@YAPBDXZ 1000d390 f   PlugInUtilities:TypeConverter.obj
 0001:0000c3a0       ??$toString@V?$vector@VLayer@@V?$allocator@VLayer@@@std@@@std@@@TypeConverter@@YAPBDXZ 1000d3a0 f   PlugInUtilities:TypeConverter.obj
 0001:0000c3b0       ??$toString@PAVLayer@@@TypeConverter@@YAPBDXZ 1000d3b0 f   PlugInUtilities:TypeConverter.obj
 0001:0000c3c0       ??$toString@V?$Location@N$01@Opticks@@@TypeConverter@@YAPBDXZ 1000d3c0 f   PlugInUtilities:TypeConverter.obj
 0001:0000c3d0       ??$toString@V?$vector@PAV?$Location@N$01@Opticks@@V?$allocator@PAV?$Location@N$01@Opticks@@@std@@@std@@@TypeConverter@@YAPBDXZ 1000d3d0 f   PlugInUtilities:TypeConverter.obj
 0001:0000c3e0       ??$toString@V?$vector@V?$Location@N$01@Opticks@@V?$allocator@V?$Location@N$01@Opticks@@@std@@@std@@@TypeConverter@@YAPBDXZ 1000d3e0 f   PlugInUtilities:TypeConverter.obj
 0001:0000c3f0       ??$toString@VMeasurementLayer@@@TypeConverter@@YAPBDXZ 1000d3f0 f   PlugInUtilities:TypeConverter.obj
 0001:0000c400       ??$toString@V?$vector@PAVMeasurementLayer@@V?$allocator@PAVMeasurementLayer@@@std@@@std@@@TypeConverter@@YAPBDXZ 1000d400 f   PlugInUtilities:TypeConverter.obj
 0001:0000c410       ??$toString@V?$vector@VMeasurementLayer@@V?$allocator@VMeasurementLayer@@@std@@@std@@@TypeConverter@@YAPBDXZ 1000d410 f   PlugInUtilities:TypeConverter.obj
 0001:0000c420       ??$toString@PAVMeasurementLayer@@@TypeConverter@@YAPBDXZ 1000d420 f   PlugInUtilities:TypeConverter.obj
 0001:0000c430       ??$toString@VOrthographicView@@@TypeConverter@@YAPBDXZ 1000d430 f   PlugInUtilities:TypeConverter.obj
 0001:0000c440       ??$toString@V?$vector@PAVOrthographicView@@V?$allocator@PAVOrthographicView@@@std@@@std@@@TypeConverter@@YAPBDXZ 1000d440 f   PlugInUtilities:TypeConverter.obj
 0001:0000c450       ??$toString@V?$vector@VOrthographicView@@V?$allocator@VOrthographicView@@@std@@@std@@@TypeConverter@@YAPBDXZ 1000d450 f   PlugInUtilities:TypeConverter.obj
 0001:0000c460       ??$toString@PAVOrthographicView@@@TypeConverter@@YAPBDXZ 1000d460 f   PlugInUtilities:TypeConverter.obj
 0001:0000c470       ??$toString@VPerspectiveView@@@TypeConverter@@YAPBDXZ 1000d470 f   PlugInUtilities:TypeConverter.obj
 0001:0000c480       ??$toString@V?$vector@PAVPerspectiveView@@V?$allocator@PAVPerspectiveView@@@std@@@std@@@TypeConverter@@YAPBDXZ 1000d480 f   PlugInUtilities:TypeConverter.obj
 0001:0000c490       ??$toString@V?$vector@VPerspectiveView@@V?$allocator@VPerspectiveView@@@std@@@std@@@TypeConverter@@YAPBDXZ 1000d490 f   PlugInUtilities:TypeConverter.obj
 0001:0000c4a0       ??$toString@PAVPerspectiveView@@@TypeConverter@@YAPBDXZ 1000d4a0 f   PlugInUtilities:TypeConverter.obj
 0001:0000c4b0       ??$toString@V?$Location@H$01@Opticks@@@TypeConverter@@YAPBDXZ 1000d4b0 f   PlugInUtilities:TypeConverter.obj
 0001:0000c4c0       ??$toString@V?$vector@PAV?$Location@H$01@Opticks@@V?$allocator@PAV?$Location@H$01@Opticks@@@std@@@std@@@TypeConverter@@YAPBDXZ 1000d4c0 f   PlugInUtilities:TypeConverter.obj
 0001:0000c4d0       ??$toString@V?$vector@V?$Location@H$01@Opticks@@V?$allocator@V?$Location@H$01@Opticks@@@std@@@std@@@TypeConverter@@YAPBDXZ 1000d4d0 f   PlugInUtilities:TypeConverter.obj
 0001:0000c4e0       ??$toString@VPlotView@@@TypeConverter@@YAPBDXZ 1000d4e0 f   PlugInUtilities:TypeConverter.obj
 0001:0000c4f0       ??$toString@V?$vector@PAVPlotView@@V?$allocator@PAVPlotView@@@std@@@std@@@TypeConverter@@YAPBDXZ 1000d4f0 f   PlugInUtilities:TypeConverter.obj
 0001:0000c500       ??$toString@V?$vector@VPlotView@@V?$allocator@VPlotView@@@std@@@std@@@TypeConverter@@YAPBDXZ 1000d500 f   PlugInUtilities:TypeConverter.obj
 0001:0000c510       ??$toString@PAVPlotView@@@TypeConverter@@YAPBDXZ 1000d510 f   PlugInUtilities:TypeConverter.obj
 0001:0000c520       ??$toString@VPlotWidget@@@TypeConverter@@YAPBDXZ 1000d520 f   PlugInUtilities:TypeConverter.obj
 0001:0000c530       ??$toString@V?$vector@PAVPlotWidget@@V?$allocator@PAVPlotWidget@@@std@@@std@@@TypeConverter@@YAPBDXZ 1000d530 f   PlugInUtilities:TypeConverter.obj
 0001:0000c540       ??$toString@V?$vector@VPlotWidget@@V?$allocator@VPlotWidget@@@std@@@std@@@TypeConverter@@YAPBDXZ 1000d540 f   PlugInUtilities:TypeConverter.obj
 0001:0000c550       ??$toString@PAVPlotWidget@@@TypeConverter@@YAPBDXZ 1000d550 f   PlugInUtilities:TypeConverter.obj
 0001:0000c560       ??$toString@VPlotWindow@@@TypeConverter@@YAPBDXZ 1000d560 f   PlugInUtilities:TypeConverter.obj
 0001:0000c570       ??$toString@V?$vector@PAVPlotWindow@@V?$allocator@PAVPlotWindow@@@std@@@std@@@TypeConverter@@YAPBDXZ 1000d570 f   PlugInUtilities:TypeConverter.obj
 0001:0000c580       ??$toString@V?$vector@VPlotWindow@@V?$allocator@VPlotWindow@@@std@@@std@@@TypeConverter@@YAPBDXZ 1000d580 f   PlugInUtilities:TypeConverter.obj
 0001:0000c590       ??$toString@PAVPlotWindow@@@TypeConverter@@YAPBDXZ 1000d590 f   PlugInUtilities:TypeConverter.obj
 0001:0000c5a0       ??$toString@VPolarPlot@@@TypeConverter@@YAPBDXZ 1000d5a0 f   PlugInUtilities:TypeConverter.obj
 0001:0000c5b0       ??$toString@V?$vector@PAVPolarPlot@@V?$allocator@PAVPolarPlot@@@std@@@std@@@TypeConverter@@YAPBDXZ 1000d5b0 f   PlugInUtilities:TypeConverter.obj
 0001:0000c5c0       ??$toString@V?$vector@VPolarPlot@@V?$allocator@VPolarPlot@@@std@@@std@@@TypeConverter@@YAPBDXZ 1000d5c0 f   PlugInUtilities:TypeConverter.obj
 0001:0000c5d0       ??$toString@PAVPolarPlot@@@TypeConverter@@YAPBDXZ 1000d5d0 f   PlugInUtilities:TypeConverter.obj
 0001:0000c5e0       ??$toString@VProductView@@@TypeConverter@@YAPBDXZ 1000d5e0 f   PlugInUtilities:TypeConverter.obj
 0001:0000c5f0       ??$toString@V?$vector@PAVProductView@@V?$allocator@PAVProductView@@@std@@@std@@@TypeConverter@@YAPBDXZ 1000d5f0 f   PlugInUtilities:TypeConverter.obj
 0001:0000c600       ??$toString@V?$vector@VProductView@@V?$allocator@VProductView@@@std@@@std@@@TypeConverter@@YAPBDXZ 1000d600 f   PlugInUtilities:TypeConverter.obj
 0001:0000c610       ??$toString@PAVProductView@@@TypeConverter@@YAPBDXZ 1000d610 f   PlugInUtilities:TypeConverter.obj
 0001:0000c620       ??$toString@VProductWindow@@@TypeConverter@@YAPBDXZ 1000d620 f   PlugInUtilities:TypeConverter.obj
 0001:0000c630       ??$toString@V?$vector@PAVProductWindow@@V?$allocator@PAVProductWindow@@@std@@@std@@@TypeConverter@@YAPBDXZ 1000d630 f   PlugInUtilities:TypeConverter.obj
 0001:0000c640       ??$toString@V?$vector@VProductWindow@@V?$allocator@VProductWindow@@@std@@@std@@@TypeConverter@@YAPBDXZ 1000d640 f   PlugInUtilities:TypeConverter.obj
 0001:0000c650       ??$toString@PAVProductWindow@@@TypeConverter@@YAPBDXZ 1000d650 f   PlugInUtilities:TypeConverter.obj
 0001:0000c660       ??$toString@VProgress@@@TypeConverter@@YAPBDXZ 1000d660 f   PlugInUtilities:TypeConverter.obj
 0001:0000c670       ??$toString@V?$vector@PAVProgress@@V?$allocator@PAVProgress@@@std@@@std@@@TypeConverter@@YAPBDXZ 1000d670 f   PlugInUtilities:TypeConverter.obj
 0001:0000c680       ??$toString@V?$vector@VProgress@@V?$allocator@VProgress@@@std@@@std@@@TypeConverter@@YAPBDXZ 1000d680 f   PlugInUtilities:TypeConverter.obj
 0001:0000c690       ??$toString@PAVProgress@@@TypeConverter@@YAPBDXZ 1000d690 f   PlugInUtilities:TypeConverter.obj
 0001:0000c6a0       ??$toString@VPseudocolorLayer@@@TypeConverter@@YAPBDXZ 1000d6a0 f   PlugInUtilities:TypeConverter.obj
 0001:0000c6b0       ??$toString@V?$vector@PAVPseudocolorLayer@@V?$allocator@PAVPseudocolorLayer@@@std@@@std@@@TypeConverter@@YAPBDXZ 1000d6b0 f   PlugInUtilities:TypeConverter.obj
 0001:0000c6c0       ??$toString@V?$vector@VPseudocolorLayer@@V?$allocator@VPseudocolorLayer@@@std@@@std@@@TypeConverter@@YAPBDXZ 1000d6c0 f   PlugInUtilities:TypeConverter.obj
 0001:0000c6d0       ??$toString@PAVPseudocolorLayer@@@TypeConverter@@YAPBDXZ 1000d6d0 f   PlugInUtilities:TypeConverter.obj
 0001:0000c6e0       ??$toString@VRasterDataDescriptor@@@TypeConverter@@YAPBDXZ 1000d6e0 f   PlugInUtilities:TypeConverter.obj
 0001:0000c6f0       ??$toString@V?$vector@PAVRasterDataDescriptor@@V?$allocator@PAVRasterDataDescriptor@@@std@@@std@@@TypeConverter@@YAPBDXZ 1000d6f0 f   PlugInUtilities:TypeConverter.obj
 0001:0000c700       ??$toString@V?$vector@VRasterDataDescriptor@@V?$allocator@VRasterDataDescriptor@@@std@@@std@@@TypeConverter@@YAPBDXZ 1000d700 f   PlugInUtilities:TypeConverter.obj
 0001:0000c710       ??$toString@PAVRasterDataDescriptor@@@TypeConverter@@YAPBDXZ 1000d710 f   PlugInUtilities:TypeConverter.obj
 0001:0000c720       ??$toString@VRasterElement@@@TypeConverter@@YAPBDXZ 1000d720 f   PlugInUtilities:TypeConverter.obj
 0001:0000c730       ??$toString@V?$vector@PAVRasterElement@@V?$allocator@PAVRasterElement@@@std@@@std@@@TypeConverter@@YAPBDXZ 1000d730 f   PlugInUtilities:TypeConverter.obj
 0001:0000c740       ??$toString@V?$vector@VRasterElement@@V?$allocator@VRasterElement@@@std@@@std@@@TypeConverter@@YAPBDXZ 1000d740 f   PlugInUtilities:TypeConverter.obj
 0001:0000c750       ??$toString@PAVRasterElement@@@TypeConverter@@YAPBDXZ 1000d750 f   PlugInUtilities:TypeConverter.obj
 0001:0000c760       ??$toString@VRasterFileDescriptor@@@TypeConverter@@YAPBDXZ 1000d760 f   PlugInUtilities:TypeConverter.obj
 0001:0000c770       ??$toString@V?$vector@PAVRasterFileDescriptor@@V?$allocator@PAVRasterFileDescriptor@@@std@@@std@@@TypeConverter@@YAPBDXZ 1000d770 f   PlugInUtilities:TypeConverter.obj
 0001:0000c780       ??$toString@V?$vector@VRasterFileDescriptor@@V?$allocator@VRasterFileDescriptor@@@std@@@std@@@TypeConverter@@YAPBDXZ 1000d780 f   PlugInUtilities:TypeConverter.obj
 0001:0000c790       ??$toString@PAVRasterFileDescriptor@@@TypeConverter@@YAPBDXZ 1000d790 f   PlugInUtilities:TypeConverter.obj
 0001:0000c7a0       ??$toString@VRasterLayer@@@TypeConverter@@YAPBDXZ 1000d7a0 f   PlugInUtilities:TypeConverter.obj
 0001:0000c7b0       ??$toString@V?$vector@PAVRasterLayer@@V?$allocator@PAVRasterLayer@@@std@@@std@@@TypeConverter@@YAPBDXZ 1000d7b0 f   PlugInUtilities:TypeConverter.obj
 0001:0000c7c0       ??$toString@V?$vector@VRasterLayer@@V?$allocator@VRasterLayer@@@std@@@std@@@TypeConverter@@YAPBDXZ 1000d7c0 f   PlugInUtilities:TypeConverter.obj
 0001:0000c7d0       ??$toString@PAVRasterLayer@@@TypeConverter@@YAPBDXZ 1000d7d0 f   PlugInUtilities:TypeConverter.obj
 0001:0000c7e0       ??$toString@VSessionItem@@@TypeConverter@@YAPBDXZ 1000d7e0 f   PlugInUtilities:TypeConverter.obj
 0001:0000c7f0       ??$toString@V?$vector@PAVSessionItem@@V?$allocator@PAVSessionItem@@@std@@@std@@@TypeConverter@@YAPBDXZ 1000d7f0 f   PlugInUtilities:TypeConverter.obj
 0001:0000c800       ??$toString@V?$vector@VSessionItem@@V?$allocator@VSessionItem@@@std@@@std@@@TypeConverter@@YAPBDXZ 1000d800 f   PlugInUtilities:TypeConverter.obj
 0001:0000c810       ??$toString@PAVSessionItem@@@TypeConverter@@YAPBDXZ 1000d810 f   PlugInUtilities:TypeConverter.obj
 0001:0000c820       ??$toString@VSettableSessionItem@@@TypeConverter@@YAPBDXZ 1000d820 f   PlugInUtilities:TypeConverter.obj
 0001:0000c830       ??$toString@V?$vector@PAVSettableSessionItem@@V?$allocator@PAVSettableSessionItem@@@std@@@std@@@TypeConverter@@YAPBDXZ 1000d830 f   PlugInUtilities:TypeConverter.obj
 0001:0000c840       ??$toString@V?$vector@VSettableSessionItem@@V?$allocator@VSettableSessionItem@@@std@@@std@@@TypeConverter@@YAPBDXZ 1000d840 f   PlugInUtilities:TypeConverter.obj
 0001:0000c850       ??$toString@PAVSettableSessionItem@@@TypeConverter@@YAPBDXZ 1000d850 f   PlugInUtilities:TypeConverter.obj
 0001:0000c860       ??$toString@VSignature@@@TypeConverter@@YAPBDXZ 1000d860 f   PlugInUtilities:TypeConverter.obj
 0001:0000c870       ??$toString@V?$vector@PAVSignature@@V?$allocator@PAVSignature@@@std@@@std@@@TypeConverter@@YAPBDXZ 1000d870 f   PlugInUtilities:TypeConverter.obj
 0001:0000c880       ??$toString@V?$vector@VSignature@@V?$allocator@VSignature@@@std@@@std@@@TypeConverter@@YAPBDXZ 1000d880 f   PlugInUtilities:TypeConverter.obj
 0001:0000c890       ??$toString@PAVSignature@@@TypeConverter@@YAPBDXZ 1000d890 f   PlugInUtilities:TypeConverter.obj
 0001:0000c8a0       ??$toString@VSignatureLibrary@@@TypeConverter@@YAPBDXZ 1000d8a0 f   PlugInUtilities:TypeConverter.obj
 0001:0000c8b0       ??$toString@V?$vector@PAVSignatureLibrary@@V?$allocator@PAVSignatureLibrary@@@std@@@std@@@TypeConverter@@YAPBDXZ 1000d8b0 f   PlugInUtilities:TypeConverter.obj
 0001:0000c8c0       ??$toString@V?$vector@VSignatureLibrary@@V?$allocator@VSignatureLibrary@@@std@@@std@@@TypeConverter@@YAPBDXZ 1000d8c0 f   PlugInUtilities:TypeConverter.obj
 0001:0000c8d0       ??$toString@PAVSignatureLibrary@@@TypeConverter@@YAPBDXZ 1000d8d0 f   PlugInUtilities:TypeConverter.obj
 0001:0000c8e0       ??$toString@VSignaturePlot@@@TypeConverter@@YAPBDXZ 1000d8e0 f   PlugInUtilities:TypeConverter.obj
 0001:0000c8f0       ??$toString@V?$vector@PAVSignaturePlot@@V?$allocator@PAVSignaturePlot@@@std@@@std@@@TypeConverter@@YAPBDXZ 1000d8f0 f   PlugInUtilities:TypeConverter.obj
 0001:0000c900       ??$toString@V?$vector@VSignaturePlot@@V?$allocator@VSignaturePlot@@@std@@@std@@@TypeConverter@@YAPBDXZ 1000d900 f   PlugInUtilities:TypeConverter.obj
 0001:0000c910       ??$toString@PAVSignaturePlot@@@TypeConverter@@YAPBDXZ 1000d910 f   PlugInUtilities:TypeConverter.obj
 0001:0000c920       ??$toString@VSignatureSet@@@TypeConverter@@YAPBDXZ 1000d920 f   PlugInUtilities:TypeConverter.obj
 0001:0000c930       ??$toString@V?$vector@PAVSignatureSet@@V?$allocator@PAVSignatureSet@@@std@@@std@@@TypeConverter@@YAPBDXZ 1000d930 f   PlugInUtilities:TypeConverter.obj
 0001:0000c940       ??$toString@V?$vector@VSignatureSet@@V?$allocator@VSignatureSet@@@std@@@std@@@TypeConverter@@YAPBDXZ 1000d940 f   PlugInUtilities:TypeConverter.obj
 0001:0000c950       ??$toString@PAVSignatureSet@@@TypeConverter@@YAPBDXZ 1000d950 f   PlugInUtilities:TypeConverter.obj
 0001:0000c960       ??$toString@VSpatialDataView@@@TypeConverter@@YAPBDXZ 1000d960 f   PlugInUtilities:TypeConverter.obj
 0001:0000c970       ??$toString@V?$vector@PAVSpatialDataView@@V?$allocator@PAVSpatialDataView@@@std@@@std@@@TypeConverter@@YAPBDXZ 1000d970 f   PlugInUtilities:TypeConverter.obj
 0001:0000c980       ??$toString@V?$vector@VSpatialDataView@@V?$allocator@VSpatialDataView@@@std@@@std@@@TypeConverter@@YAPBDXZ 1000d980 f   PlugInUtilities:TypeConverter.obj
 0001:0000c990       ??$toString@PAVSpatialDataView@@@TypeConverter@@YAPBDXZ 1000d990 f   PlugInUtilities:TypeConverter.obj
 0001:0000c9a0       ??$toString@VSpatialDataWindow@@@TypeConverter@@YAPBDXZ 1000d9a0 f   PlugInUtilities:TypeConverter.obj
 0001:0000c9b0       ??$toString@V?$vector@PAVSpatialDataWindow@@V?$allocator@PAVSpatialDataWindow@@@std@@@std@@@TypeConverter@@YAPBDXZ 1000d9b0 f   PlugInUtilities:TypeConverter.obj
 0001:0000c9c0       ??$toString@V?$vector@VSpatialDataWindow@@V?$allocator@VSpatialDataWindow@@@std@@@std@@@TypeConverter@@YAPBDXZ 1000d9c0 f   PlugInUtilities:TypeConverter.obj
 0001:0000c9d0       ??$toString@PAVSpatialDataWindow@@@TypeConverter@@YAPBDXZ 1000d9d0 f   PlugInUtilities:TypeConverter.obj
 0001:0000c9e0       ??$toString@VThresholdLayer@@@TypeConverter@@YAPBDXZ 1000d9e0 f   PlugInUtilities:TypeConverter.obj
 0001:0000c9f0       ??$toString@V?$vector@PAVThresholdLayer@@V?$allocator@PAVThresholdLayer@@@std@@@std@@@TypeConverter@@YAPBDXZ 1000d9f0 f   PlugInUtilities:TypeConverter.obj
 0001:0000ca00       ??$toString@V?$vector@VThresholdLayer@@V?$allocator@VThresholdLayer@@@std@@@std@@@TypeConverter@@YAPBDXZ 1000da00 f   PlugInUtilities:TypeConverter.obj
 0001:0000ca10       ??$toString@PAVThresholdLayer@@@TypeConverter@@YAPBDXZ 1000da10 f   PlugInUtilities:TypeConverter.obj
 0001:0000ca20       ??$toString@VTiePointLayer@@@TypeConverter@@YAPBDXZ 1000da20 f   PlugInUtilities:TypeConverter.obj
 0001:0000ca30       ??$toString@V?$vector@PAVTiePointLayer@@V?$allocator@PAVTiePointLayer@@@std@@@std@@@TypeConverter@@YAPBDXZ 1000da30 f   PlugInUtilities:TypeConverter.obj
 0001:0000ca40       ??$toString@V?$vector@VTiePointLayer@@V?$allocator@VTiePointLayer@@@std@@@std@@@TypeConverter@@YAPBDXZ 1000da40 f   PlugInUtilities:TypeConverter.obj
 0001:0000ca50       ??$toString@PAVTiePointLayer@@@TypeConverter@@YAPBDXZ 1000da50 f   PlugInUtilities:TypeConverter.obj
 0001:0000ca60       ??$toString@VTiePointList@@@TypeConverter@@YAPBDXZ 1000da60 f   PlugInUtilities:TypeConverter.obj
 0001:0000ca70       ??$toString@V?$vector@PAVTiePointList@@V?$allocator@PAVTiePointList@@@std@@@std@@@TypeConverter@@YAPBDXZ 1000da70 f   PlugInUtilities:TypeConverter.obj
 0001:0000ca80       ??$toString@V?$vector@VTiePointList@@V?$allocator@VTiePointList@@@std@@@std@@@TypeConverter@@YAPBDXZ 1000da80 f   PlugInUtilities:TypeConverter.obj
 0001:0000ca90       ??$toString@PAVTiePointList@@@TypeConverter@@YAPBDXZ 1000da90 f   PlugInUtilities:TypeConverter.obj
 0001:0000caa0       ??$toString@VUInt64@@@TypeConverter@@YAPBDXZ 1000daa0 f   PlugInUtilities:TypeConverter.obj
 0001:0000cab0       ??$toString@V?$vector@PAVUInt64@@V?$allocator@PAVUInt64@@@std@@@std@@@TypeConverter@@YAPBDXZ 1000dab0 f   PlugInUtilities:TypeConverter.obj
 0001:0000cac0       ??$toString@V?$vector@VUInt64@@V?$allocator@VUInt64@@@std@@@std@@@TypeConverter@@YAPBDXZ 1000dac0 f   PlugInUtilities:TypeConverter.obj
 0001:0000cad0       ??$toString@VUnits@@@TypeConverter@@YAPBDXZ 1000dad0 f   PlugInUtilities:TypeConverter.obj
 0001:0000cae0       ??$toString@V?$vector@PAVUnits@@V?$allocator@PAVUnits@@@std@@@std@@@TypeConverter@@YAPBDXZ 1000dae0 f   PlugInUtilities:TypeConverter.obj
 0001:0000caf0       ??$toString@V?$vector@VUnits@@V?$allocator@VUnits@@@std@@@std@@@TypeConverter@@YAPBDXZ 1000daf0 f   PlugInUtilities:TypeConverter.obj
 0001:0000cb00       ??$toString@PAVUnits@@@TypeConverter@@YAPBDXZ 1000db00 f   PlugInUtilities:TypeConverter.obj
 0001:0000cb10       ??$toString@VView@@@TypeConverter@@YAPBDXZ 1000db10 f   PlugInUtilities:TypeConverter.obj
 0001:0000cb20       ??$toString@V?$vector@PAVView@@V?$allocator@PAVView@@@std@@@std@@@TypeConverter@@YAPBDXZ 1000db20 f   PlugInUtilities:TypeConverter.obj
 0001:0000cb30       ??$toString@V?$vector@VView@@V?$allocator@VView@@@std@@@std@@@TypeConverter@@YAPBDXZ 1000db30 f   PlugInUtilities:TypeConverter.obj
 0001:0000cb40       ??$toString@PAVView@@@TypeConverter@@YAPBDXZ 1000db40 f   PlugInUtilities:TypeConverter.obj
 0001:0000cb50       ??$toString@VWindow@@@TypeConverter@@YAPBDXZ 1000db50 f   PlugInUtilities:TypeConverter.obj
 0001:0000cb60       ??$toString@V?$vector@PAVWindow@@V?$allocator@PAVWindow@@@std@@@std@@@TypeConverter@@YAPBDXZ 1000db60 f   PlugInUtilities:TypeConverter.obj
 0001:0000cb70       ??$toString@V?$vector@VWindow@@V?$allocator@VWindow@@@std@@@std@@@TypeConverter@@YAPBDXZ 1000db70 f   PlugInUtilities:TypeConverter.obj
 0001:0000cb80       ??$toString@PAVWindow@@@TypeConverter@@YAPBDXZ 1000db80 f   PlugInUtilities:TypeConverter.obj
 0001:0000cb90       ??$toString@VWizardObject@@@TypeConverter@@YAPBDXZ 1000db90 f   PlugInUtilities:TypeConverter.obj
 0001:0000cba0       ??$toString@V?$vector@PAVWizardObject@@V?$allocator@PAVWizardObject@@@std@@@std@@@TypeConverter@@YAPBDXZ 1000dba0 f   PlugInUtilities:TypeConverter.obj
 0001:0000cbb0       ??$toString@V?$vector@VWizardObject@@V?$allocator@VWizardObject@@@std@@@std@@@TypeConverter@@YAPBDXZ 1000dbb0 f   PlugInUtilities:TypeConverter.obj
 0001:0000cbc0       ??$toString@PAVWizardObject@@@TypeConverter@@YAPBDXZ 1000dbc0 f   PlugInUtilities:TypeConverter.obj
 0001:0000cbd0       ??$toString@VWorkspaceWindow@@@TypeConverter@@YAPBDXZ 1000dbd0 f   PlugInUtilities:TypeConverter.obj
 0001:0000cbe0       ??$toString@V?$vector@PAVWorkspaceWindow@@V?$allocator@PAVWorkspaceWindow@@@std@@@std@@@TypeConverter@@YAPBDXZ 1000dbe0 f   PlugInUtilities:TypeConverter.obj
 0001:0000cbf0       ??$toString@V?$vector@VWorkspaceWindow@@V?$allocator@VWorkspaceWindow@@@std@@@std@@@TypeConverter@@YAPBDXZ 1000dbf0 f   PlugInUtilities:TypeConverter.obj
 0001:0000cc00       ??$toString@PAVWorkspaceWindow@@@TypeConverter@@YAPBDXZ 1000dc00 f   PlugInUtilities:TypeConverter.obj
 0001:0000cc10       ?LogVerificationErrorProc@@YAXPBD0I0@Z 1000dc10 f   PlugInUtilities:AppVerify.obj
 0001:0000d086       ??0?$basic_string@DU?$char_traits@D@std@@V?$allocator@D@2@@std@@QAE@ABV01@@Z 1000e086 f   msvcprt:MSVCP80.dll
 0001:0000d08c       ??1?$basic_string@DU?$char_traits@D@std@@V?$allocator@D@2@@std@@QAE@XZ 1000e08c f   msvcprt:MSVCP80.dll
 0001:0000d092       ??0?$basic_string@DU?$char_traits@D@std@@V?$allocator@D@2@@std@@QAE@PBD@Z 1000e092 f   msvcprt:MSVCP80.dll
 0001:0000d098       ?_Lock@_Mutex@std@@QAEXXZ  1000e098 f   msvcprt:MSVCP80.dll
 0001:0000d09e       ?_Unlock@_Mutex@std@@QAEXXZ 1000e09e f   msvcprt:MSVCP80.dll
 0001:0000d0a4       ??4?$basic_string@DU?$char_traits@D@std@@V?$allocator@D@2@@std@@QAEAAV01@ABV01@@Z 1000e0a4 f   msvcprt:MSVCP80.dll
 0001:0000d0aa       ?swap@?$basic_string@DU?$char_traits@D@std@@V?$allocator@D@2@@std@@QAEXAAV12@@Z 1000e0aa f   msvcprt:MSVCP80.dll
 0001:0000d0b0       ??0?$basic_string@DU?$char_traits@D@std@@V?$allocator@D@2@@std@@QAE@XZ 1000e0b0 f   msvcprt:MSVCP80.dll
 0001:0000d0b6       ?flush@?$basic_ostream@DU?$char_traits@D@std@@@std@@QAEAAV12@XZ 1000e0b6 f   msvcprt:MSVCP80.dll
 0001:0000d0bc       ?_Osfx@?$basic_ostream@DU?$char_traits@D@std@@@std@@QAEXXZ 1000e0bc f   msvcprt:MSVCP80.dll
 0001:0000d0c2       ?uncaught_exception@std@@YA_NXZ 1000e0c2 f   msvcprt:MSVCP80.dll
 0001:0000d0c8       ?setstate@?$basic_ios@DU?$char_traits@D@std@@@std@@QAEXH_N@Z 1000e0c8 f   msvcprt:MSVCP80.dll
 0001:0000d0ce       ?sputn@?$basic_streambuf@DU?$char_traits@D@std@@@std@@QAEHPBDH@Z 1000e0ce f   msvcprt:MSVCP80.dll
 0001:0000d0d4       ?sputc@?$basic_streambuf@DU?$char_traits@D@std@@@std@@QAEHD@Z 1000e0d4 f   msvcprt:MSVCP80.dll
 0001:0000d0da       ??_D?$basic_ofstream@DU?$char_traits@D@std@@@std@@QAEXXZ 1000e0da f   msvcprt:MSVCP80.dll
 0001:0000d0e0       ?close@?$basic_ofstream@DU?$char_traits@D@std@@@std@@QAEXXZ 1000e0e0 f   msvcprt:MSVCP80.dll
 0001:0000d0e6       ??6?$basic_ostream@DU?$char_traits@D@std@@@std@@QAEAAV01@G@Z 1000e0e6 f   msvcprt:MSVCP80.dll
 0001:0000d0ec       ??0?$basic_ofstream@DU?$char_traits@D@std@@@std@@QAE@PBDHH@Z 1000e0ec f   msvcprt:MSVCP80.dll
 0001:0000d0f2       ??6?$basic_ostream@DU?$char_traits@D@std@@@std@@QAEAAV01@F@Z 1000e0f2 f   msvcprt:MSVCP80.dll
 0001:0000d0f8       ??6?$basic_ostream@DU?$char_traits@D@std@@@std@@QAEAAV01@I@Z 1000e0f8 f   msvcprt:MSVCP80.dll
 0001:0000d0fe       ??6?$basic_ostream@DU?$char_traits@D@std@@@std@@QAEAAV01@H@Z 1000e0fe f   msvcprt:MSVCP80.dll
 0001:0000d104       ??6?$basic_ostream@DU?$char_traits@D@std@@@std@@QAEAAV01@M@Z 1000e104 f   msvcprt:MSVCP80.dll
 0001:0000d10a       ??6?$basic_ostream@DU?$char_traits@D@std@@@std@@QAEAAV01@N@Z 1000e10a f   msvcprt:MSVCP80.dll
 0001:0000d110       ??$?MDU?$char_traits@D@std@@V?$allocator@D@1@@std@@YA_NABV?$basic_string@DU?$char_traits@D@std@@V?$allocator@D@2@@0@0@Z 1000e110 f   msvcprt:MSVCP80.dll
 0001:0000d116       ?begin@?$basic_string@DU?$char_traits@D@std@@V?$allocator@D@2@@std@@QAE?AV?$_String_iterator@DU?$char_traits@D@std@@V?$allocator@D@2@@2@XZ 1000e116 f   msvcprt:MSVCP80.dll
 0001:0000d11c       ?end@?$basic_string@DU?$char_traits@D@std@@V?$allocator@D@2@@std@@QAE?AV?$_String_iterator@DU?$char_traits@D@std@@V?$allocator@D@2@@2@XZ 1000e11c f   msvcprt:MSVCP80.dll
 0001:0000d122       ??_D?$basic_stringstream@DU?$char_traits@D@std@@V?$allocator@D@2@@std@@QAEXXZ 1000e122 f   msvcprt:MSVCP80.dll
 0001:0000d128       ?str@?$basic_stringstream@DU?$char_traits@D@std@@V?$allocator@D@2@@std@@QBE?AV?$basic_string@DU?$char_traits@D@std@@V?$allocator@D@2@@2@XZ 1000e128 f   msvcprt:MSVCP80.dll
 0001:0000d12e       ??0?$basic_stringstream@DU?$char_traits@D@std@@V?$allocator@D@2@@std@@QAE@H@Z 1000e12e f   msvcprt:MSVCP80.dll
 0001:0000d134       ??$?HDU?$char_traits@D@std@@V?$allocator@D@1@@std@@YA?AV?$basic_string@DU?$char_traits@D@std@@V?$allocator@D@2@@0@ABV10@0@Z 1000e134 f   msvcprt:MSVCP80.dll
 0001:0000d13a       ??$?HDU?$char_traits@D@std@@V?$allocator@D@1@@std@@YA?AV?$basic_string@DU?$char_traits@D@std@@V?$allocator@D@2@@0@ABV10@PBD@Z 1000e13a f   msvcprt:MSVCP80.dll
 0001:0000d140       ??0exception@std@@QAE@ABQBD@Z 1000e140 f   MSVCRT:MSVCR80.dll
 0001:0000d146       ??0type_info@@AAE@ABV0@@Z  1000e146 f   MSVCRT:ti_inst.obj
 0001:0000d151       ??_Etype_info@@UAEPAXI@Z   1000e151 f i MSVCRT:ti_inst.obj
 0001:0000d19a       ??4type_info@@AAEAAV0@ABV0@@Z 1000e19a f   MSVCRT:ti_inst.obj
 0001:0000d1a0       ?what@exception@std@@UBEPBDXZ 1000e1a0 f   MSVCRT:MSVCR80.dll
 0001:0000d1a6       ??1exception@std@@UAE@XZ   1000e1a6 f   MSVCRT:MSVCR80.dll
 0001:0000d1ac       ??3@YAXPAX@Z               1000e1ac f   MSVCRT:MSVCR80.dll
 0001:0000d1b2       ??0exception@std@@QAE@XZ   1000e1b2 f   MSVCRT:MSVCR80.dll
 0001:0000d1b8       ___CxxFrameHandler3        1000e1b8 f   MSVCRT:MSVCR80.dll
 0001:0000d1be       __CxxThrowException@8      1000e1be f   MSVCRT:MSVCR80.dll
 0001:0000d1c4       ??0exception@std@@QAE@ABV01@@Z 1000e1c4 f   MSVCRT:MSVCR80.dll
 0001:0000d1ca       __purecall                 1000e1ca f   MSVCRT:MSVCR80.dll
 0001:0000d1d0       __invalid_parameter_noinfo 1000e1d0 f   MSVCRT:MSVCR80.dll
 0001:0000d1d6       ___RTDynamicCast           1000e1d6 f   MSVCRT:MSVCR80.dll
 0001:0000d1dc       ??2@YAPAXI@Z               1000e1dc f   MSVCRT:MSVCR80.dll
 0001:0000d1e2       _sprintf                   1000e1e2 f   MSVCRT:MSVCR80.dll
 0001:0000d1f0       __onexit                   1000e1f0 f   MSVCRT:atonexit.obj
 0001:0000d295       _atexit                    1000e295 f   MSVCRT:atonexit.obj
 0001:0000d2a7       _NtCurrentTeb              1000e2a7 f i MSVCRT:crtdll.obj
 0001:0000d2fb       __CRT_INIT@12              1000e2fb f   MSVCRT:crtdll.obj
 0001:0000d5d4       __DllMainCRTStartup@12     1000e5d4 f   MSVCRT:crtdll.obj
 0001:0000d5f6       ??8type_info@@QBE_NABV0@@Z 1000e5f6 f   MSVCRT:MSVCR80.dll
 0001:0000d5fc       _getenv                    1000e5fc f   MSVCRT:MSVCR80.dll
 0001:0000d614       ?__ArrayUnwind@@YGXPAXIHP6EX0@Z@Z 1000e614 f   MSVCRT:ehvecdtr.obj
 0001:0000d672       ??_M@YGXPAXIHP6EX0@Z@Z     1000e672 f   MSVCRT:ehvecdtr.obj
 0001:0000d6d6       __unlock                   1000e6d6 f   MSVCRT:MSVCR80.dll
 0001:0000d6dc       ___dllonexit               1000e6dc f   MSVCRT:MSVCR80.dll
 0001:0000d6e2       __encode_pointer           1000e6e2 f   MSVCRT:MSVCR80.dll
 0001:0000d6e8       __lock                     1000e6e8 f   MSVCRT:MSVCR80.dll
 0001:0000d6ee       __decode_pointer           1000e6ee f   MSVCRT:MSVCR80.dll
 0001:0000d6f4       __SEH_prolog4              1000e6f4 f   MSVCRT:sehprolg4.obj
 0001:0000d739       __SEH_epilog4              1000e739 f   MSVCRT:sehprolg4.obj
 0001:0000d74d       __except_handler4          1000e74d f   MSVCRT:chandler4gs.obj
 0001:0000d770       ___clean_type_info_names   1000e770 f   MSVCRT:tncleanup.obj
 0001:0000d77c       __RTC_Initialize           1000e77c f   MSVCRT:initsect.obj
 0001:0000d7a0       __RTC_Terminate            1000e7a0 f   MSVCRT:initsect.obj
 0001:0000d7c4       __malloc_crt               1000e7c4 f   MSVCRT:MSVCR80.dll
 0001:0000d7ca       _free                      1000e7ca f   MSVCRT:MSVCR80.dll
 0001:0000d7d0       __encoded_null             1000e7d0 f   MSVCRT:MSVCR80.dll
 0001:0000d7e0       __ValidateImageBase        1000e7e0 f   MSVCRT:pesect.obj
 0001:0000d810       __FindPESection            1000e810 f   MSVCRT:pesect.obj
 0001:0000d860       __IsNonwritableInCurrentImage 1000e860 f   MSVCRT:pesect.obj
 0001:0000d91c       __initterm                 1000e91c f   MSVCRT:MSVCR80.dll
 0001:0000d922       __initterm_e               1000e922 f   MSVCRT:MSVCR80.dll
 0001:0000d928       __amsg_exit                1000e928 f   MSVCRT:MSVCR80.dll
 0001:0000d92e       ___CppXcptFilter           1000e92e f   MSVCRT:MSVCR80.dll
 0001:0000d934       _DllMain@12                1000e934 f   MSVCRT:dllmain.obj
 0001:0000d954       ___security_init_cookie    1000e954 f   MSVCRT:gs_support.obj
 0001:0000d9e8       ?terminate@@YAXXZ          1000e9e8 f   MSVCRT:MSVCR80.dll
 0001:0000d9ee       ?_type_info_dtor_internal_method@type_info@@QAEXXZ 1000e9ee f   MSVCRT:MSVCR80.dll
 0001:0000d9ee       ??1type_info@@UAE@XZ       1000e9ee f   MSVCRT:MSVCR80.dll
 0001:0000d9f4       @__security_check_cookie@4 1000e9f4 f   MSVCRT:secchk.obj
 0001:0000da04       __except_handler4_common   1000ea04 f   MSVCRT:MSVCR80.dll
 0001:0000da0a       ___clean_type_info_names_internal 1000ea0a f   MSVCRT:MSVCR80.dll
 0001:0000da10       ___report_gsfailure        1000ea10 f   MSVCRT:gs_report.obj
 0001:0000db14       __crt_debugger_hook        1000eb14 f   MSVCRT:MSVCR80.dll
 0001:0000db1a       ?hide@QWidget@@QAEXXZ      1000eb1a f   QtGui4:QtGui4.dll
 0001:0000db20       _InterlockedExchange@8     1000eb20 f   kernel32:KERNEL32.dll
 0001:0000db26       _Sleep@4                   1000eb26 f   kernel32:KERNEL32.dll
 0001:0000db2c       _InterlockedCompareExchange@12 1000eb2c f   kernel32:KERNEL32.dll
 0001:0000db32       _DisableThreadLibraryCalls@4 1000eb32 f   kernel32:KERNEL32.dll
 0001:0000db38       _QueryPerformanceCounter@4 1000eb38 f   kernel32:KERNEL32.dll
 0001:0000db3e       _GetTickCount@0            1000eb3e f   kernel32:KERNEL32.dll
 0001:0000db44       _GetCurrentThreadId@0      1000eb44 f   kernel32:KERNEL32.dll
 0001:0000db4a       _GetCurrentProcessId@0     1000eb4a f   kernel32:KERNEL32.dll
 0001:0000db50       _GetSystemTimeAsFileTime@4 1000eb50 f   kernel32:KERNEL32.dll
 0001:0000db56       _TerminateProcess@8        1000eb56 f   kernel32:KERNEL32.dll
 0001:0000db5c       _GetCurrentProcess@0       1000eb5c f   kernel32:KERNEL32.dll
 0001:0000db62       _UnhandledExceptionFilter@4 1000eb62 f   kernel32:KERNEL32.dll
 0001:0000db68       _SetUnhandledExceptionFilter@4 1000eb68 f   kernel32:KERNEL32.dll
 0001:0000db6e       _IsDebuggerPresent@0       1000eb6e f   kernel32:KERNEL32.dll
 0001:0000ed50       ??__FsignalName@?1??signalDeleted@Subject@@SAABV?$basic_string@DU?$char_traits@D@std@@V?$allocator@D@2@@std@@XZ@YAXXZ 1000fd50 f i PlugInLib:ViewerShell.obj
 0001:0000ed60       ??__FsignalName@?1??signalSessionClosed@ApplicationServices@@SAABV?$basic_string@DU?$char_traits@D@std@@V?$allocator@D@2@@std@@XZ@YAXXZ 1000fd60 f i PlugInLib:ViewerShell.obj
 0002:00000000       __imp__IsDebuggerPresent@0 10010000     kernel32:KERNEL32.dll
 0002:00000004       __imp__SetUnhandledExceptionFilter@4 10010004     kernel32:KERNEL32.dll
 0002:00000008       __imp__UnhandledExceptionFilter@4 10010008     kernel32:KERNEL32.dll
 0002:0000000c       __imp__GetCurrentProcess@0 1001000c     kernel32:KERNEL32.dll
 0002:00000010       __imp__TerminateProcess@8  10010010     kernel32:KERNEL32.dll
 0002:00000014       __imp__GetSystemTimeAsFileTime@4 10010014     kernel32:KERNEL32.dll
 0002:00000018       __imp__GetCurrentProcessId@0 10010018     kernel32:KERNEL32.dll
 0002:0000001c       __imp__GetCurrentThreadId@0 1001001c     kernel32:KERNEL32.dll
 0002:00000020       __imp__GetTickCount@0      10010020     kernel32:KERNEL32.dll
 0002:00000024       __imp__QueryPerformanceCounter@4 10010024     kernel32:KERNEL32.dll
 0002:00000028       __imp__DisableThreadLibraryCalls@4 10010028     kernel32:KERNEL32.dll
 0002:0000002c       __imp__InterlockedCompareExchange@12 1001002c     kernel32:KERNEL32.dll
 0002:00000030       __imp__Sleep@4             10010030     kernel32:KERNEL32.dll
 0002:00000034       __imp__InterlockedExchange@8 10010034     kernel32:KERNEL32.dll
 0002:00000038       \177KERNEL32_NULL_THUNK_DATA 10010038     kernel32:KERNEL32.dll
 0002:0000003c       __imp_??$?HDU?$char_traits@D@std@@V?$allocator@D@1@@std@@YA?AV?$basic_string@DU?$char_traits@D@std@@V?$allocator@D@2@@0@ABV10@PBD@Z 1001003c     msvcprt:MSVCP80.dll
 0002:00000040       __imp_??$?HDU?$char_traits@D@std@@V?$allocator@D@1@@std@@YA?AV?$basic_string@DU?$char_traits@D@std@@V?$allocator@D@2@@0@ABV10@0@Z 10010040     msvcprt:MSVCP80.dll
 0002:00000044       __imp_??0?$basic_stringstream@DU?$char_traits@D@std@@V?$allocator@D@2@@std@@QAE@H@Z 10010044     msvcprt:MSVCP80.dll
 0002:00000048       __imp_?str@?$basic_stringstream@DU?$char_traits@D@std@@V?$allocator@D@2@@std@@QBE?AV?$basic_string@DU?$char_traits@D@std@@V?$allocator@D@2@@2@XZ 10010048     msvcprt:MSVCP80.dll
 0002:0000004c       __imp_??0?$basic_string@DU?$char_traits@D@std@@V?$allocator@D@2@@std@@QAE@ABV01@@Z 1001004c     msvcprt:MSVCP80.dll
 0002:00000050       __imp_??1?$basic_string@DU?$char_traits@D@std@@V?$allocator@D@2@@std@@QAE@XZ 10010050     msvcprt:MSVCP80.dll
 0002:00000054       __imp_??0?$basic_string@DU?$char_traits@D@std@@V?$allocator@D@2@@std@@QAE@PBD@Z 10010054     msvcprt:MSVCP80.dll
 0002:00000058       __imp_?_Lock@_Mutex@std@@QAEXXZ 10010058     msvcprt:MSVCP80.dll
 0002:0000005c       __imp_?_Unlock@_Mutex@std@@QAEXXZ 1001005c     msvcprt:MSVCP80.dll
 0002:00000060       __imp_??4?$basic_string@DU?$char_traits@D@std@@V?$allocator@D@2@@std@@QAEAAV01@ABV01@@Z 10010060     msvcprt:MSVCP80.dll
 0002:00000064       __imp_?swap@?$basic_string@DU?$char_traits@D@std@@V?$allocator@D@2@@std@@QAEXAAV12@@Z 10010064     msvcprt:MSVCP80.dll
 0002:00000068       __imp_??0?$basic_string@DU?$char_traits@D@std@@V?$allocator@D@2@@std@@QAE@XZ 10010068     msvcprt:MSVCP80.dll
 0002:0000006c       __imp_?flush@?$basic_ostream@DU?$char_traits@D@std@@@std@@QAEAAV12@XZ 1001006c     msvcprt:MSVCP80.dll
 0002:00000070       __imp_?_Osfx@?$basic_ostream@DU?$char_traits@D@std@@@std@@QAEXXZ 10010070     msvcprt:MSVCP80.dll
 0002:00000074       __imp_?uncaught_exception@std@@YA_NXZ 10010074     msvcprt:MSVCP80.dll
 0002:00000078       __imp_?setstate@?$basic_ios@DU?$char_traits@D@std@@@std@@QAEXH_N@Z 10010078     msvcprt:MSVCP80.dll
 0002:0000007c       __imp_?sputn@?$basic_streambuf@DU?$char_traits@D@std@@@std@@QAEHPBDH@Z 1001007c     msvcprt:MSVCP80.dll
 0002:00000080       __imp_?sputc@?$basic_streambuf@DU?$char_traits@D@std@@@std@@QAEHD@Z 10010080     msvcprt:MSVCP80.dll
 0002:00000084       __imp_??_D?$basic_ofstream@DU?$char_traits@D@std@@@std@@QAEXXZ 10010084     msvcprt:MSVCP80.dll
 0002:00000088       __imp_?close@?$basic_ofstream@DU?$char_traits@D@std@@@std@@QAEXXZ 10010088     msvcprt:MSVCP80.dll
 0002:0000008c       __imp_??6?$basic_ostream@DU?$char_traits@D@std@@@std@@QAEAAV01@G@Z 1001008c     msvcprt:MSVCP80.dll
 0002:00000090       __imp_??0?$basic_ofstream@DU?$char_traits@D@std@@@std@@QAE@PBDHH@Z 10010090     msvcprt:MSVCP80.dll
 0002:00000094       __imp_??6?$basic_ostream@DU?$char_traits@D@std@@@std@@QAEAAV01@F@Z 10010094     msvcprt:MSVCP80.dll
 0002:00000098       __imp_??6?$basic_ostream@DU?$char_traits@D@std@@@std@@QAEAAV01@I@Z 10010098     msvcprt:MSVCP80.dll
 0002:0000009c       __imp_??6?$basic_ostream@DU?$char_traits@D@std@@@std@@QAEAAV01@H@Z 1001009c     msvcprt:MSVCP80.dll
 0002:000000a0       __imp_??6?$basic_ostream@DU?$char_traits@D@std@@@std@@QAEAAV01@M@Z 100100a0     msvcprt:MSVCP80.dll
 0002:000000a4       __imp_??6?$basic_ostream@DU?$char_traits@D@std@@@std@@QAEAAV01@N@Z 100100a4     msvcprt:MSVCP80.dll
 0002:000000a8       __imp_??$?MDU?$char_traits@D@std@@V?$allocator@D@1@@std@@YA_NABV?$basic_string@DU?$char_traits@D@std@@V?$allocator@D@2@@0@0@Z 100100a8     msvcprt:MSVCP80.dll
 0002:000000ac       __imp_?begin@?$basic_string@DU?$char_traits@D@std@@V?$allocator@D@2@@std@@QAE?AV?$_String_iterator@DU?$char_traits@D@std@@V?$allocator@D@2@@2@XZ 100100ac     msvcprt:MSVCP80.dll
 0002:000000b0       __imp_?end@?$basic_string@DU?$char_traits@D@std@@V?$allocator@D@2@@std@@QAE?AV?$_String_iterator@DU?$char_traits@D@std@@V?$allocator@D@2@@2@XZ 100100b0     msvcprt:MSVCP80.dll
 0002:000000b4       __imp_??_D?$basic_stringstream@DU?$char_traits@D@std@@V?$allocator@D@2@@std@@QAEXXZ 100100b4     msvcprt:MSVCP80.dll
 0002:000000b8       \177MSVCP80_NULL_THUNK_DATA 100100b8     msvcprt:MSVCP80.dll
 0002:000000bc       __imp____clean_type_info_names_internal 100100bc     MSVCRT:MSVCR80.dll
 0002:000000c0       __imp___crt_debugger_hook  100100c0     MSVCRT:MSVCR80.dll
 0002:000000c4       __imp___except_handler4_common 100100c4     MSVCRT:MSVCR80.dll
 0002:000000c8       __imp_?_type_info_dtor_internal_method@type_info@@QAEXXZ 100100c8     MSVCRT:MSVCR80.dll
 0002:000000cc       __imp_??0exception@std@@QAE@ABQBD@Z 100100cc     MSVCRT:MSVCR80.dll
 0002:000000d0       __imp_?what@exception@std@@UBEPBDXZ 100100d0     MSVCRT:MSVCR80.dll
 0002:000000d4       __imp_??1exception@std@@UAE@XZ 100100d4     MSVCRT:MSVCR80.dll
 0002:000000d8       __imp_??3@YAXPAX@Z         100100d8     MSVCRT:MSVCR80.dll
 0002:000000dc       __imp_??0exception@std@@QAE@XZ 100100dc     MSVCRT:MSVCR80.dll
 0002:000000e0       __imp____CxxFrameHandler3  100100e0     MSVCRT:MSVCR80.dll
 0002:000000e4       __imp___CxxThrowException@8 100100e4     MSVCRT:MSVCR80.dll
 0002:000000e8       __imp_??0exception@std@@QAE@ABV01@@Z 100100e8     MSVCRT:MSVCR80.dll
 0002:000000ec       __imp___purecall           100100ec     MSVCRT:MSVCR80.dll
 0002:000000f0       __imp___invalid_parameter_noinfo 100100f0     MSVCRT:MSVCR80.dll
 0002:000000f4       __imp____RTDynamicCast     100100f4     MSVCRT:MSVCR80.dll
 0002:000000f8       __imp_??2@YAPAXI@Z         100100f8     MSVCRT:MSVCR80.dll
 0002:000000fc       __imp__sprintf             100100fc     MSVCRT:MSVCR80.dll
 0002:00000100       __imp_??8type_info@@QBE_NABV0@@Z 10010100     MSVCRT:MSVCR80.dll
 0002:00000104       __imp__getenv              10010104     MSVCRT:MSVCR80.dll
 0002:00000108       __imp___unlock             10010108     MSVCRT:MSVCR80.dll
 0002:0000010c       __imp____dllonexit         1001010c     MSVCRT:MSVCR80.dll
 0002:00000110       __imp___encode_pointer     10010110     MSVCRT:MSVCR80.dll
 0002:00000114       __imp___lock               10010114     MSVCRT:MSVCR80.dll
 0002:00000118       __imp___onexit             10010118     MSVCRT:MSVCR80.dll
 0002:0000011c       __imp___decode_pointer     1001011c     MSVCRT:MSVCR80.dll
 0002:00000120       __imp___malloc_crt         10010120     MSVCRT:MSVCR80.dll
 0002:00000124       __imp__free                10010124     MSVCRT:MSVCR80.dll
 0002:00000128       __imp___encoded_null       10010128     MSVCRT:MSVCR80.dll
 0002:0000012c       __imp___initterm           1001012c     MSVCRT:MSVCR80.dll
 0002:00000130       __imp___initterm_e         10010130     MSVCRT:MSVCR80.dll
 0002:00000134       __imp___amsg_exit          10010134     MSVCRT:MSVCR80.dll
 0002:00000138       __imp___adjust_fdiv        10010138     MSVCRT:MSVCR80.dll
 0002:0000013c       __imp____CppXcptFilter     1001013c     MSVCRT:MSVCR80.dll
 0002:00000140       __imp_?terminate@@YAXXZ    10010140     MSVCRT:MSVCR80.dll
 0002:00000144       \177MSVCR80_NULL_THUNK_DATA 10010144     MSVCRT:MSVCR80.dll
 0002:00000148       __imp_??1QString@@QAE@XZ   10010148     QtCore4:QtCore4.dll
 0002:0000014c       __imp_??0QObject@@QAE@PAV0@@Z 1001014c     QtCore4:QtCore4.dll
 0002:00000150       __imp_?staticMetaObject@QObject@@2UQMetaObject@@B 10010150     QtCore4:QtCore4.dll
 0002:00000154       __imp_?event@QObject@@UAE_NPAVQEvent@@@Z 10010154     QtCore4:QtCore4.dll
 0002:00000158       __imp_?qt_metacall@QObject@@UAEHW4Call@QMetaObject@@HPAPAX@Z 10010158     QtCore4:QtCore4.dll
 0002:0000015c       __imp_?qt_metacast@QObject@@UAEPAXPBD@Z 1001015c     QtCore4:QtCore4.dll
 0002:00000160       __imp_?fromAscii_helper@QString@@CAPAUData@1@PBDH@Z 10010160     QtCore4:QtCore4.dll
 0002:00000164       __imp_?shared_null@QString@@0UData@1@A 10010164     QtCore4:QtCore4.dll
 0002:00000168       __imp_?free@QString@@CAXPAUData@1@@Z 10010168     QtCore4:QtCore4.dll
 0002:0000016c       __imp_??1QObject@@UAE@XZ   1001016c     QtCore4:QtCore4.dll
 0002:00000170       __imp_?disconnectNotify@QObject@@MAEXPBD@Z 10010170     QtCore4:QtCore4.dll
 0002:00000174       __imp_?connectNotify@QObject@@MAEXPBD@Z 10010174     QtCore4:QtCore4.dll
 0002:00000178       __imp_?customEvent@QObject@@MAEXPAVQEvent@@@Z 10010178     QtCore4:QtCore4.dll
 0002:0000017c       __imp_?childEvent@QObject@@MAEXPAVQChildEvent@@@Z 1001017c     QtCore4:QtCore4.dll
 0002:00000180       __imp_?timerEvent@QObject@@MAEXPAVQTimerEvent@@@Z 10010180     QtCore4:QtCore4.dll
 0002:00000184       __imp_?eventFilter@QObject@@UAE_NPAV1@PAVQEvent@@@Z 10010184     QtCore4:QtCore4.dll
 0002:00000188       \177QtCore4_NULL_THUNK_DATA 10010188     QtCore4:QtCore4.dll
 0002:0000018c       __imp_?critical@QMessageBox@@SAHPAVQWidget@@ABVQString@@1111HH@Z 1001018c     QtGui4:QtGui4.dll
 0002:00000190       __imp_?hide@QWidget@@QAEXXZ 10010190     QtGui4:QtGui4.dll
 0002:00000194       \177QtGui4_NULL_THUNK_DATA 10010194     QtGui4:QtGui4.dll
 0002:00000198       ___xc_a                    10010198     MSVCRT:cinitexe.obj
 0002:000001a4       ___xc_z                    100101a4     MSVCRT:cinitexe.obj
 0002:000001a8       ___xi_a                    100101a8     MSVCRT:cinitexe.obj
 0002:000001b0       ___xi_z                    100101b0     MSVCRT:cinitexe.obj
 0002:000001dc       ??_C@_0P@GHFPNOJB@bad?5allocation?$AA@ 100101dc     DataMerge.obj
 0002:000001ec       ?collate@?$_Locbase@H@std@@2HB 100101ec     DataMerge.obj
 0002:000001f0       ?ctype@?$_Locbase@H@std@@2HB 100101f0     DataMerge.obj
 0002:000001f4       ?monetary@?$_Locbase@H@std@@2HB 100101f4     DataMerge.obj
 0002:000001f8       ?numeric@?$_Locbase@H@std@@2HB 100101f8     DataMerge.obj
 0002:000001fc       ?time@?$_Locbase@H@std@@2HB 100101fc     DataMerge.obj
 0002:00000200       ?messages@?$_Locbase@H@std@@2HB 10010200     DataMerge.obj
 0002:00000204       ?all@?$_Locbase@H@std@@2HB 10010204     DataMerge.obj
 0002:00000208       ?none@?$_Locbase@H@std@@2HB 10010208     DataMerge.obj
 0002:0000020c       ?skipws@?$_Iosb@H@std@@2W4_Fmtflags@12@B 1001020c     DataMerge.obj
 0002:00000210       ?unitbuf@?$_Iosb@H@std@@2W4_Fmtflags@12@B 10010210     DataMerge.obj
 0002:00000214       ?uppercase@?$_Iosb@H@std@@2W4_Fmtflags@12@B 10010214     DataMerge.obj
 0002:00000218       ?showbase@?$_Iosb@H@std@@2W4_Fmtflags@12@B 10010218     DataMerge.obj
 0002:0000021c       ?showpoint@?$_Iosb@H@std@@2W4_Fmtflags@12@B 1001021c     DataMerge.obj
 0002:00000220       ?showpos@?$_Iosb@H@std@@2W4_Fmtflags@12@B 10010220     DataMerge.obj
 0002:00000224       ?left@?$_Iosb@H@std@@2W4_Fmtflags@12@B 10010224     DataMerge.obj
 0002:00000228       ?right@?$_Iosb@H@std@@2W4_Fmtflags@12@B 10010228     DataMerge.obj
 0002:0000022c       ?internal@?$_Iosb@H@std@@2W4_Fmtflags@12@B 1001022c     DataMerge.obj
 0002:00000230       ?dec@?$_Iosb@H@std@@2W4_Fmtflags@12@B 10010230     DataMerge.obj
 0002:00000234       ?oct@?$_Iosb@H@std@@2W4_Fmtflags@12@B 10010234     DataMerge.obj
 0002:00000238       ?hex@?$_Iosb@H@std@@2W4_Fmtflags@12@B 10010238     DataMerge.obj
 0002:0000023c       ?scientific@?$_Iosb@H@std@@2W4_Fmtflags@12@B 1001023c     DataMerge.obj
 0002:00000240       ?fixed@?$_Iosb@H@std@@2W4_Fmtflags@12@B 10010240     DataMerge.obj
 0002:00000244       ?boolalpha@?$_Iosb@H@std@@2W4_Fmtflags@12@B 10010244     DataMerge.obj
 0002:00000248       ?_Stdio@?$_Iosb@H@std@@2W4_Fmtflags@12@B 10010248     DataMerge.obj
 0002:0000024c       ?adjustfield@?$_Iosb@H@std@@2W4_Fmtflags@12@B 1001024c     DataMerge.obj
 0002:00000250       ?basefield@?$_Iosb@H@std@@2W4_Fmtflags@12@B 10010250     DataMerge.obj
 0002:00000254       ?floatfield@?$_Iosb@H@std@@2W4_Fmtflags@12@B 10010254     DataMerge.obj
 0002:00000258       ?goodbit@?$_Iosb@H@std@@2W4_Iostate@12@B 10010258     DataMerge.obj
 0002:0000025c       ?eofbit@?$_Iosb@H@std@@2W4_Iostate@12@B 1001025c     DataMerge.obj
 0002:00000260       ?failbit@?$_Iosb@H@std@@2W4_Iostate@12@B 10010260     DataMerge.obj
 0002:00000264       ?badbit@?$_Iosb@H@std@@2W4_Iostate@12@B 10010264     DataMerge.obj
 0002:00000268       ?_Hardfail@?$_Iosb@H@std@@2W4_Iostate@12@B 10010268     DataMerge.obj
 0002:0000026c       ?in@?$_Iosb@H@std@@2W4_Openmode@12@B 1001026c     DataMerge.obj
 0002:00000270       ?out@?$_Iosb@H@std@@2W4_Openmode@12@B 10010270     DataMerge.obj
 0002:00000274       ?ate@?$_Iosb@H@std@@2W4_Openmode@12@B 10010274     DataMerge.obj
 0002:00000278       ?app@?$_Iosb@H@std@@2W4_Openmode@12@B 10010278     DataMerge.obj
 0002:0000027c       ?trunc@?$_Iosb@H@std@@2W4_Openmode@12@B 1001027c     DataMerge.obj
 0002:00000280       ?_Nocreate@?$_Iosb@H@std@@2W4_Openmode@12@B 10010280     DataMerge.obj
 0002:00000284       ?_Noreplace@?$_Iosb@H@std@@2W4_Openmode@12@B 10010284     DataMerge.obj
 0002:00000288       ?binary@?$_Iosb@H@std@@2W4_Openmode@12@B 10010288     DataMerge.obj
 0002:0000028c       ?beg@?$_Iosb@H@std@@2W4_Seekdir@12@B 1001028c     DataMerge.obj
 0002:00000290       ?cur@?$_Iosb@H@std@@2W4_Seekdir@12@B 10010290     DataMerge.obj
 0002:00000294       ?end@?$_Iosb@H@std@@2W4_Seekdir@12@B 10010294     DataMerge.obj
 0002:0000029c       ??_7bad_alloc@std@@6B@     1001029c     DataMerge.obj
 0002:000002a8       ??_7logic_error@std@@6B@   100102a8     DataMerge.obj
 0002:000002b4       ??_7length_error@std@@6B@  100102b4     DataMerge.obj
 0002:000002bc       ??_C@_0DM@FIOOOCLL@DataAccessor?5back?9pointer?5to?5dat@ 100102bc     DataMerge.obj
 0002:000002fc       ??_7PlugInFactory@@6B@     100102fc     DataMerge.obj
 0002:00000304       ??_C@_0CH@FKIDNGLE@?$HL1AA900B7?909FE?94d7b?9A8D4?925DEEDE@ 10010304     DataMerge.obj
 0002:0000032c       ??_C@_0CI@DILHPJE@?$FLSpectral?5Data?5Merge?$FN?1SpectralDa@ 1001032c     DataMerge.obj
 0002:00000358       ??_C@_0EE@MHPLEIOL@Merge?5one?9band?5spectral?5data?5int@ 10010358     DataMerge.obj
 0002:0000039c       ??_C@_0BE@LJCNKBLN@Spectral?5Data?5Merge?$AA@ 1001039c     DataMerge.obj
 0002:000003b0       ??_C@_0DI@BNLMKDHI@Copyright?5?$CIC?$CJ?52008?0?5Ball?5Aerospa@ 100103b0     DataMerge.obj
 0002:000003e8       ??_C@_06OANMLBJC@Sample?$AA@ 100103e8     DataMerge.obj
 0002:000003f4       ??_7DataMerge@@6BSessionItemExt1@@@ 100103f4     DataMerge.obj
 0002:00000404       ??_7DataMerge@@6BPlugIn@@@ 10010404     DataMerge.obj
 0002:00000464       ??_7DataMerge@@6BViewerShell@@@ 10010464     DataMerge.obj
 0002:000004a4       ??_7DataMerge@@6BQObject@@@ 100104a4     DataMerge.obj
 0002:000004d0       ??_C@_0BC@ICGJBBHK@Opticks?5Community?$AA@ 100104d0     DataMerge.obj
 0002:000004e4       ??_C@_0BD@OLBABOEK@vector?$DMT?$DO?5too?5long?$AA@ 100104e4     DataMerge.obj
 0002:000004fc       ??_7?$Resource@VStep@@VMessageObject@@@@6B@ 100104fc     DataMerge.obj
 0002:00000504       ??_7?$Resource@VDataRequest@@VFactoryObject@@@@6B@ 10010504     DataMerge.obj
 0002:00000508       ??_C@_01CLKCMJKC@?5?$AA@   10010508     DataMerge.obj
 0002:0000050c       ??_C@_0O@JINNKCJN@D?3?2data?$CFd?4txt?$AA@ 1001050c     DataMerge.obj
 0002:00000520       ??_7StepResource@@6B@      10010520     DataMerge.obj
 0002:00000528       ??_7?$FactoryResource@VDataRequest@@@@6B@ 10010528     DataMerge.obj
 0002:0000052c       ??_C@_0BI@HLJKOGKA@Pixel?5Aspect?5Ratio?5Test?$AA@ 1001052c     DataMerge.obj
 0002:00000544       ??_C@_0BO@DBAFGKCP@No?5RasterElement?5input?5found?$CB?$AA@ 10010544     DataMerge.obj
 0002:00000564       ??_C@_02GIPFHKNO@OK?$AA@   10010564     DataMerge.obj
 0002:00000568       ??_C@_0O@NOOCEGCF@RasterElement?$AA@ 10010568     DataMerge.obj
 0002:00000578       ??_C@_0BM@BKGGGGFL@Pixel?5Aspect?5Ratio?5Started?4?$AA@ 10010578     DataMerge.obj
 0002:00000594       ??_C@_03CGOPKBCD@app?$AA@  10010594     DataMerge.obj
 0002:00000598       ??_C@_0CF@MNMEDDIH@5E4BCD48?9E662?9408b?993AF?9F9127CE5@ 10010598     DataMerge.obj
 0002:000005bd       ??_C@_00CNPNBAHC@?$AA@     100105bd     DataMerge.obj
 0002:000005c4       ??_7BasicPlugInFactory@@6B@ 100105c4     DataMerge.obj
 0002:000005d0       ??_7DataMergePlugInFactory@SpectralDataMerge@@6B@ 100105d0     DataMerge.obj
 0002:000005d8       ??_C@_09LDNHLGFA@DataMerge?$AA@ 100105d8     DataMerge.obj
 0002:000005e4       ??_C@_0CD@LKFILPEI@SpectralDataMergeInstantiatePlug@ 100105e4     ModuleManager.obj
 0002:00000608       ??_C@_0BC@PNFDIAAA@SpectralDataMerge?$AA@ 10010608     ModuleManager.obj
 0002:00000684       ??_C@_0M@JLCADHDP@ViewerShell?$AA@ 10010684     moc_DataMerge.obj
 0002:00000694       ??_7SlotWrapper@Slot@@6B@  10010694     PlugInLib:ViewerShell.obj
 0002:000006b0       ??_7PlugInCallback@@6B@    100106b0     PlugInLib:ViewerShell.obj
 0002:000006c4       ??_C@_06PJECNADJ@Viewer?$AA@ 100106c4     PlugInLib:ViewerShell.obj
 0002:000006d0       ??_7?$SlotValue@VViewerShell@@@Slot@@6B@ 100106d0     PlugInLib:ViewerShell.obj
 0002:000006ec       ??_7?$SlotValue@V?$SafePtr@VApplicationServices@@@@@Slot@@6B@ 100106ec     PlugInLib:ViewerShell.obj
 0002:00000704       ??_C@_0BB@JLIMABD@Subject?3?3Deleted?$AA@ 10010704     PlugInLib:ViewerShell.obj
 0002:00000718       ??_C@_0CD@NKDKNGIP@ApplicationServices?3?3SessionClos@ 10010718     PlugInLib:ViewerShell.obj
 0002:00000740       ??_7ViewerCallback@@6B@    10010740     PlugInLib:ViewerShell.obj
 0002:00000754       ??_C@_0BI@COLNOGJN@pT?5?$CB?$DN?50?5?$CG?$CG?5pMethod?5?$CB?$DN?50?$AA@ 10010754     PlugInLib:ViewerShell.obj
 0002:0000076c       ??_C@_0DN@JAJKOECL@C?3?2Opticks?2Rollup?2Opticks?2Code?2A@ 1001076c     PlugInLib:ViewerShell.obj
 0002:000007b0       ??_7?$SafePtr@VApplicationServices@@@@6B@ 100107b0     PlugInLib:ViewerShell.obj
 0002:000007b8       ??_7?$AttachmentPtr@VApplicationServices@@@@6B@ 100107b8     PlugInLib:ViewerShell.obj
 0002:000007c0       ??_7ViewerShell@@6BSessionItemExt1@@@ 100107c0     PlugInLib:ViewerShell.obj
 0002:000007cc       ??_7ViewerShell@@6BPlugIn@@@ 100107cc     PlugInLib:ViewerShell.obj
 0002:0000082c       ??_7ViewerShell@@6B@       1001082c     PlugInLib:ViewerShell.obj
 0002:0000086c       ??_7Executable@@6B@        1001086c     PlugInLib:ExecutableShell.obj
 0002:000008a8       ??_7ExecutableShell@@6BSessionItemExt1@@@ 100108a8     PlugInLib:ExecutableShell.obj
 0002:000008b4       ??_7ExecutableShell@@6BPlugIn@@@ 100108b4     PlugInLib:ExecutableShell.obj
 0002:00000914       ??_7ExecutableShell@@6B@   10010914     PlugInLib:ExecutableShell.obj
 0002:00000950       ??_7out_of_range@std@@6B@  10010950     PlugInLib:PlugInShell.obj
 0002:0000095c       ??_7SessionItem@@6B@       1001095c     PlugInLib:PlugInShell.obj
 0002:0000098c       ??_7SessionItemExt1@@6B@   1001098c     PlugInLib:PlugInShell.obj
 0002:0000099c       ??_7PlugIn@@6B@            1001099c     PlugInLib:PlugInShell.obj
 0002:000009f8       ??_C@_0P@JLMCDHHI@pItemExt1?5?$CB?$DN?50?$AA@ 100109f8     PlugInLib:PlugInShell.obj
 0002:00000a08       ??_C@_0BC@EMCJJKHH@?4?2PlugInShell?4cpp?$AA@ 10010a08     PlugInLib:PlugInShell.obj
 0002:00000a20       ??_7?$Resource@VSettableSessionItem@@VFactoryObject@@@@6B@ 10010a20     PlugInLib:PlugInShell.obj
 0002:00000a28       ??_7?$FactoryResource@VSettableSessionItem@@@@6B@ 10010a28     PlugInLib:PlugInShell.obj
 0002:00000a2c       ??_C@_0BE@JONHPENG@map?1set?$DMT?$DO?5too?5long?$AA@ 10010a2c     PlugInLib:PlugInShell.obj
 0002:00000a40       ??_C@_0BM@PAPJHAGI@invalid?5map?1set?$DMT?$DO?5iterator?$AA@ 10010a40     PlugInLib:PlugInShell.obj
 0002:00000a60       ??_7PlugInShell@@6BSessionItemExt1@@@ 10010a60     PlugInLib:PlugInShell.obj
 0002:00000a6c       ??_7PlugInShell@@6BPlugIn@@@ 10010a6c     PlugInLib:PlugInShell.obj
 0002:00000ac8       ??_C@_05ILABNDBH@4?43?43?$AA@ 10010ac8     PlugInLib:PlugInShell.obj
 0002:00000ad0       ??_C@_0BF@CBGMDFFH@ApplicationServices2?$AA@ 10010ad0     PlugInUtilities:Service.obj
 0002:00000ae8       ??_C@_0BB@FJJDPHAA@UtilityServices2?$AA@ 10010ae8     PlugInUtilities:Service.obj
 0002:00000afc       ??_C@_0P@IDKJDNID@ModelServices2?$AA@ 10010afc     PlugInUtilities:Service.obj
 0002:00000b0c       ??_C@_0BD@NJOLPMIK@AnimationServices2?$AA@ 10010b0c     PlugInUtilities:Service.obj
 0002:00000b20       ??_C@_0BB@DCGHPDHL@DesktopServices2?$AA@ 10010b20     PlugInUtilities:Service.obj
 0002:00000b34       ??_C@_0BH@EIOKNJIO@PlugInManagerServices2?$AA@ 10010b34     PlugInUtilities:Service.obj
 0002:00000b50       ??_C@_0FK@BOFLLCAH@Attempting?5to?5use?5SessionExplore@ 10010b50     PlugInUtilities:Service.obj
 0002:00000bac       ??_C@_0BB@ICFKALOH@Session?5Explorer?$AA@ 10010bac     PlugInUtilities:Service.obj
 0002:00000bc0       ??_C@_04DDKJGDCM@bool?$AA@ 10010bc0     PlugInUtilities:TypeConverter.obj
 0002:00000bc8       ??_C@_0N@FDIAEDPI@vector?$DMbool?$DO?$AA@ 10010bc8     PlugInUtilities:TypeConverter.obj
 0002:00000bd8       ??_C@_04ENMBGAPA@char?$AA@ 10010bd8     PlugInUtilities:TypeConverter.obj
 0002:00000be0       ??_C@_0N@NMJLLFAE@vector?$DMchar?$DO?$AA@ 10010be0     PlugInUtilities:TypeConverter.obj
 0002:00000bf0       ??_C@_0O@PPAIJIHF@unsigned?5char?$AA@ 10010bf0     PlugInUtilities:TypeConverter.obj
 0002:00000c00       ??_C@_0BG@IPHPNPDM@vector?$DMunsigned?5char?$DO?$AA@ 10010c00     PlugInUtilities:TypeConverter.obj
 0002:00000c18       ??_C@_0M@MPLPCMBL@signed?5char?$AA@ 10010c18     PlugInUtilities:TypeConverter.obj
 0002:00000c24       ??_C@_0BE@FHIKMJEO@vector?$DMsigned?5char?$DO?$AA@ 10010c24     PlugInUtilities:TypeConverter.obj
 0002:00000c38       ??_C@_05BFKKPKCG@short?$AA@ 10010c38     PlugInUtilities:TypeConverter.obj
 0002:00000c40       ??_C@_0O@ODJHGOGI@vector?$DMshort?$DO?$AA@ 10010c40     PlugInUtilities:TypeConverter.obj
 0002:00000c50       ??_C@_0P@IIMKEEHB@unsigned?5short?$AA@ 10010c50     PlugInUtilities:TypeConverter.obj
 0002:00000c60       ??_C@_0BH@MLMGDCJM@vector?$DMunsigned?5short?$DO?$AA@ 10010c60     PlugInUtilities:TypeConverter.obj
 0002:00000c78       ??_C@_03JBIPMCLC@int?$AA@  10010c78     PlugInUtilities:TypeConverter.obj
 0002:00000c7c       ??_C@_0M@KFCDPAGK@vector?$DMint?$DO?$AA@ 10010c7c     PlugInUtilities:TypeConverter.obj
 0002:00000c88       ??_C@_0N@OFHMGPAL@unsigned?5int?$AA@ 10010c88     PlugInUtilities:TypeConverter.obj
 0002:00000c98       ??_C@_0BF@PCNKPIJI@vector?$DMunsigned?5int?$DO?$AA@ 10010c98     PlugInUtilities:TypeConverter.obj
 0002:00000cb0       ??_C@_04GOKPGOLB@long?$AA@ 10010cb0     PlugInUtilities:TypeConverter.obj
 0002:00000cb8       ??_C@_0N@NNGDKKAM@vector?$DMlong?$DO?$AA@ 10010cb8     PlugInUtilities:TypeConverter.obj
 0002:00000cc8       ??_C@_0O@NMGGJGDE@unsigned?5long?$AA@ 10010cc8     PlugInUtilities:TypeConverter.obj
 0002:00000cd8       ??_C@_0BG@IOIHMADE@vector?$DMunsigned?5long?$DO?$AA@ 10010cd8     PlugInUtilities:TypeConverter.obj
 0002:00000cf0       ??_C@_07GDNIBEMG@int64_t?$AA@ 10010cf0     PlugInUtilities:TypeConverter.obj
 0002:00000cf8       ??_C@_0BA@MAOLBMJP@vector?$DMint64_t?$DO?$AA@ 10010cf8     PlugInUtilities:TypeConverter.obj
 0002:00000d08       ??_C@_08FKMHFJJL@uint64_t?$AA@ 10010d08     PlugInUtilities:TypeConverter.obj
 0002:00000d14       ??_C@_0BB@OPLNPMNG@vector?$DMuint64_t?$DO?$AA@ 10010d14     PlugInUtilities:TypeConverter.obj
 0002:00000d28       ??_C@_05KNFBNCOH@float?$AA@ 10010d28     PlugInUtilities:TypeConverter.obj
 0002:00000d30       ??_C@_0O@PEMGHGG@vector?$DMfloat?$DO?$AA@ 10010d30     PlugInUtilities:TypeConverter.obj
 0002:00000d40       ??_C@_06BNJCAIGJ@double?$AA@ 10010d40     PlugInUtilities:TypeConverter.obj
 0002:00000d48       ??_C@_0P@IGHPGLJL@vector?$DMdouble?$DO?$AA@ 10010d48     PlugInUtilities:TypeConverter.obj
 0002:00000d58       ??_C@_04GKJNKENE@void?$AA@ 10010d58     PlugInUtilities:TypeConverter.obj
 0002:00000d60       ??_C@_0N@OALPANBB@vector?$DMvoid?$DO?$AA@ 10010d60     PlugInUtilities:TypeConverter.obj
 0002:00000d70       ??_C@_06ICGJLFIM@string?$AA@ 10010d70     PlugInUtilities:TypeConverter.obj
 0002:00000d78       ??_C@_0P@FGIAIGNB@vector?$DMstring?$DO?$AA@ 10010d78     PlugInUtilities:TypeConverter.obj
 0002:00000d88       ??_C@_0P@GCFBOKAJ@AnimationCycle?$AA@ 10010d88     PlugInUtilities:TypeConverter.obj
 0002:00000d98       ??_C@_0BH@JFPCFADM@vector?$DMAnimationCycle?$DO?$AA@ 10010d98     PlugInUtilities:TypeConverter.obj
 0002:00000db0       ??_C@_0P@CBCLBGGA@AnimationState?$AA@ 10010db0     PlugInUtilities:TypeConverter.obj
 0002:00000dc0       ??_C@_0BH@KBNPPDDM@vector?$DMAnimationState?$DO?$AA@ 10010dc0     PlugInUtilities:TypeConverter.obj
 0002:00000dd8       ??_C@_09NEIGAIIL@ArcRegion?$AA@ 10010dd8     PlugInUtilities:TypeConverter.obj
 0002:00000de4       ??_C@_0BC@PKNDCFBM@vector?$DMArcRegion?$DO?$AA@ 10010de4     PlugInUtilities:TypeConverter.obj
 0002:00000df8       ??_C@_0BB@DAPCCLPD@ComplexComponent?$AA@ 10010df8     PlugInUtilities:TypeConverter.obj
 0002:00000e0c       ??_C@_0BJ@NKABDJHC@vector?$DMComplexComponent?$DO?$AA@ 10010e0c     PlugInUtilities:TypeConverter.obj
 0002:00000e28       ??_C@_0L@HMALMJG@DataOrigin?$AA@ 10010e28     PlugInUtilities:TypeConverter.obj
 0002:00000e34       ??_C@_0BD@LEAMLHHE@vector?$DMDataOrigin?$DO?$AA@ 10010e34     PlugInUtilities:TypeConverter.obj
 0002:00000e48       ??_C@_0M@GDNBMJPD@DisplayMode?$AA@ 10010e48     PlugInUtilities:TypeConverter.obj
 0002:00000e54       ??_C@_0BE@PJPHMNOB@vector?$DMDisplayMode?$DO?$AA@ 10010e54     PlugInUtilities:TypeConverter.obj
 0002:00000e68       ??_C@_0O@KEPDKPCL@DistanceUnits?$AA@ 10010e68     PlugInUtilities:TypeConverter.obj
 0002:00000e78       ??_C@_0BG@DPHFIPI@vector?$DMDistanceUnits?$DO?$AA@ 10010e78     PlugInUtilities:TypeConverter.obj
 0002:00000e90       ??_C@_0O@MNFNLMLH@DmsFormatType?$AA@ 10010e90     PlugInUtilities:TypeConverter.obj
 0002:00000ea0       ??_C@_0BG@PKCHCJIE@vector?$DMDmsFormatType?$DO?$AA@ 10010ea0     PlugInUtilities:TypeConverter.obj
 0002:00000eb8       ??_C@_0N@OPBMJJNK@EncodingType?$AA@ 10010eb8     PlugInUtilities:TypeConverter.obj
 0002:00000ec8       ??_C@_0BF@DAEHKCM@vector?$DMEncodingType?$DO?$AA@ 10010ec8     PlugInUtilities:TypeConverter.obj
 0002:00000ee0       ??_C@_0L@LKICPMJB@EndianType?$AA@ 10010ee0     PlugInUtilities:TypeConverter.obj
 0002:00000eec       ??_C@_0BD@CKNFGAJH@vector?$DMEndianType?$DO?$AA@ 10010eec     PlugInUtilities:TypeConverter.obj
 0002:00000f00       ??_C@_09HNHLDKBC@FillStyle?$AA@ 10010f00     PlugInUtilities:TypeConverter.obj
 0002:00000f0c       ??_C@_0BC@HDKJPDMO@vector?$DMFillStyle?$DO?$AA@ 10010f0c     PlugInUtilities:TypeConverter.obj
 0002:00000f20       ??_C@_0O@LBKMKDP@InsetZoomMode?$AA@ 10010f20     PlugInUtilities:TypeConverter.obj
 0002:00000f30       ??_C@_0BG@BJICGFOA@vector?$DMInsetZoomMode?$DO?$AA@ 10010f30     PlugInUtilities:TypeConverter.obj
 0002:00000f48       ??_C@_0BF@BBDOMFLI@InterleaveFormatType?$AA@ 10010f48     PlugInUtilities:TypeConverter.obj
 0002:00000f60       ??_C@_0BN@DOCOFHKH@vector?$DMInterleaveFormatType?$DO?$AA@ 10010f60     PlugInUtilities:TypeConverter.obj
 0002:00000f80       ??_C@_09ONPDCMEA@GcpSymbol?$AA@ 10010f80     PlugInUtilities:TypeConverter.obj
 0002:00000f8c       ??_C@_0BC@PGFMELAA@vector?$DMGcpSymbol?$DO?$AA@ 10010f8c     PlugInUtilities:TypeConverter.obj
 0002:00000fa0       ??_C@_0N@IMCEOJJI@GeocoordType?$AA@ 10010fa0     PlugInUtilities:TypeConverter.obj
 0002:00000fb0       ??_C@_0BF@JLLFGCOA@vector?$DMGeocoordType?$DO?$AA@ 10010fb0     PlugInUtilities:TypeConverter.obj
 0002:00000fc8       ??_C@_0BC@PHECNJGI@GraphicObjectType?$AA@ 10010fc8     PlugInUtilities:TypeConverter.obj
 0002:00000fdc       ??_C@_0BK@BFCBCLB@vector?$DMGraphicObjectType?$DO?$AA@ 10010fdc     PlugInUtilities:TypeConverter.obj
 0002:00000ff8       ??_C@_0M@PMGHKEKB@LatLonStyle?$AA@ 10010ff8     PlugInUtilities:TypeConverter.obj
 0002:00001004       ??_C@_0BE@HMANELFE@vector?$DMLatLonStyle?$DO?$AA@ 10011004     PlugInUtilities:TypeConverter.obj
 0002:00001018       ??_C@_09GIEPNBNM@LayerType?$AA@ 10011018     PlugInUtilities:TypeConverter.obj
 0002:00001024       ??_C@_0BC@PGACIJC@vector?$DMLayerType?$DO?$AA@ 10011024     PlugInUtilities:TypeConverter.obj
 0002:00001038       ??_C@_09LNOEOIHF@LineStyle?$AA@ 10011038     PlugInUtilities:TypeConverter.obj
 0002:00001044       ??_C@_0BC@KALPJIOH@vector?$DMLineStyle?$DO?$AA@ 10011044     PlugInUtilities:TypeConverter.obj
 0002:00001058       ??_C@_0N@GOLOEBKA@PanLimitType?$AA@ 10011058     PlugInUtilities:TypeConverter.obj
 0002:00001068       ??_C@_0BF@LDFFEANG@vector?$DMPanLimitType?$DO?$AA@ 10011068     PlugInUtilities:TypeConverter.obj
 0002:00001080       ??_C@_08LBIMPFBI@PassArea?$AA@ 10011080     PlugInUtilities:TypeConverter.obj
 0002:0000108c       ??_C@_0BB@JLOHGFOA@vector?$DMPassArea?$DO?$AA@ 1001108c     PlugInUtilities:TypeConverter.obj
 0002:000010a0       ??_C@_0P@HCIEEHEP@PlotObjectType?$AA@ 100110a0     PlugInUtilities:TypeConverter.obj
 0002:000010b0       ??_C@_0BH@KFNGBDE@vector?$DMPlotObjectType?$DO?$AA@ 100110b0     PlugInUtilities:TypeConverter.obj
 0002:000010c8       ??_C@_0BH@GNIBEJED@Point?3?3PointSymbolType?$AA@ 100110c8     PlugInUtilities:TypeConverter.obj
 0002:000010e0       ??_C@_0BP@BGGBEEMC@vector?$DMPoint?3?3PointSymbolType?$DO?$AA@ 100110e0     PlugInUtilities:TypeConverter.obj
 0002:00001100       ??_C@_0N@FDMBGMPN@PositionType?$AA@ 10011100     PlugInUtilities:TypeConverter.obj
 0002:00001110       ??_C@_0BF@KGLCBCLC@vector?$DMPositionType?$DO?$AA@ 10011110     PlugInUtilities:TypeConverter.obj
 0002:00001128       ??_C@_0BD@MMBGDGPE@ProcessingLocation?$AA@ 10011128     PlugInUtilities:TypeConverter.obj
 0002:0000113c       ??_C@_0BL@DLGAFOEB@vector?$DMProcessingLocation?$DO?$AA@ 1001113c     PlugInUtilities:TypeConverter.obj
 0002:00001158       ??_C@_0BA@LMGFGCOF@SessionSaveType?$AA@ 10011158     PlugInUtilities:TypeConverter.obj
 0002:00001168       ??_C@_0BI@BALPMNL@vector?$DMSessionSaveType?$DO?$AA@ 10011168     PlugInUtilities:TypeConverter.obj
 0002:00001180       ??_C@_0BC@KGGNDDOL@RasterChannelType?$AA@ 10011180     PlugInUtilities:TypeConverter.obj
 0002:00001194       ??_C@_0BK@HFLCOPMB@vector?$DMRasterChannelType?$DO?$AA@ 10011194     PlugInUtilities:TypeConverter.obj
 0002:000011b0       ??_C@_0M@KGOBGCLJ@ReleaseType?$AA@ 100111b0     PlugInUtilities:TypeConverter.obj
 0002:000011bc       ??_C@_0BE@GPDLFFME@vector?$DMReleaseType?$DO?$AA@ 100111bc     PlugInUtilities:TypeConverter.obj
 0002:000011d0       ??_C@_0M@IEEADENJ@StretchType?$AA@ 100111d0     PlugInUtilities:TypeConverter.obj
 0002:000011dc       ??_C@_0BE@CCKLJFMK@vector?$DMStretchType?$DO?$AA@ 100111dc     PlugInUtilities:TypeConverter.obj
 0002:000011f0       ??_C@_0L@NFINBIND@SymbolType?$AA@ 100111f0     PlugInUtilities:TypeConverter.obj
 0002:000011fc       ??_C@_0BD@LCGIEPMP@vector?$DMSymbolType?$DO?$AA@ 100111fc     PlugInUtilities:TypeConverter.obj
 0002:00001210       ??_C@_0M@PNFGIHI@RegionUnits?$AA@ 10011210     PlugInUtilities:TypeConverter.obj
 0002:0000121c       ??_C@_0BE@IDPBJDOI@vector?$DMRegionUnits?$DO?$AA@ 1001121c     PlugInUtilities:TypeConverter.obj
 0002:00001230       ??_C@_0L@HABFLNPF@UnitSystem?$AA@ 10011230     PlugInUtilities:TypeConverter.obj
 0002:0000123c       ??_C@_0BD@GAMAFCJH@vector?$DMUnitSystem?$DO?$AA@ 1001123c     PlugInUtilities:TypeConverter.obj
 0002:00001250       ??_C@_08PNBAGKKP@UnitType?$AA@ 10011250     PlugInUtilities:TypeConverter.obj
 0002:0000125c       ??_C@_0BB@MOKONPFA@vector?$DMUnitType?$DO?$AA@ 1001125c     PlugInUtilities:TypeConverter.obj
 0002:00001270       ??_C@_0P@BEECLMNP@WindowSizeType?$AA@ 10011270     PlugInUtilities:TypeConverter.obj
 0002:00001280       ??_C@_0BH@PKDEDEIL@vector?$DMWindowSizeType?$DO?$AA@ 10011280     PlugInUtilities:TypeConverter.obj
 0002:00001298       ??_C@_0L@NEAJCNKD@WindowType?$AA@ 10011298     PlugInUtilities:TypeConverter.obj
 0002:000012a4       ??_C@_0BD@OCGMLKMG@vector?$DMWindowType?$DO?$AA@ 100112a4     PlugInUtilities:TypeConverter.obj
 0002:000012b8       ??_C@_0BG@FJEAGFDH@AebInstallTransaction?$AA@ 100112b8     PlugInUtilities:TypeConverter.obj
 0002:000012d0       ??_C@_0BO@FIEKCNCA@vector?$DMAebInstallTransaction?$DO?$AA@ 100112d0     PlugInUtilities:TypeConverter.obj
 0002:000012f0       ??_C@_0BC@OOPDAAI@ApplicationWindow?$AA@ 100112f0     PlugInUtilities:TypeConverter.obj
 0002:00001304       ??_C@_0BK@EMBJNOAA@vector?$DMApplicationWindow?$DO?$AA@ 10011304     PlugInUtilities:TypeConverter.obj
 0002:00001320       ??_C@_09ONEINPNJ@Animation?$AA@ 10011320     PlugInUtilities:TypeConverter.obj
 0002:0000132c       ??_C@_0BC@HPIPNLBD@vector?$DMAnimation?$DO?$AA@ 1001132c     PlugInUtilities:TypeConverter.obj
 0002:00001340       ??_C@_0BE@NPDKGNGO@AnimationController?$AA@ 10011340     PlugInUtilities:TypeConverter.obj
 0002:00001354       ??_C@_0BM@HLGPMJLL@vector?$DMAnimationController?$DO?$AA@ 10011354     PlugInUtilities:TypeConverter.obj
 0002:00001370       ??_C@_0BC@HJKDBGGF@AnnotationElement?$AA@ 10011370     PlugInUtilities:TypeConverter.obj
 0002:00001384       ??_C@_0BK@HPGNIPMD@vector?$DMAnnotationElement?$DO?$AA@ 10011384     PlugInUtilities:TypeConverter.obj
 0002:000013a0       ??_C@_0BA@KAAGFGBH@AnnotationLayer?$AA@ 100113a0     PlugInUtilities:TypeConverter.obj
 0002:000013b0       ??_C@_0BI@FCKEAMNP@vector?$DMAnnotationLayer?$DO?$AA@ 100113b0     PlugInUtilities:TypeConverter.obj
 0002:000013c8       ??_C@_03EBKHDLCO@Any?$AA@  100113c8     PlugInUtilities:TypeConverter.obj
 0002:000013cc       ??_C@_0M@FMEKAHPM@vector?$DMAny?$DO?$AA@ 100113cc     PlugInUtilities:TypeConverter.obj
 0002:000013d8       ??_C@_0L@ECIAHKNK@AoiElement?$AA@ 100113d8     PlugInUtilities:TypeConverter.obj
 0002:000013e4       ??_C@_0BD@MLCDPKAJ@vector?$DMAoiElement?$DO?$AA@ 100113e4     PlugInUtilities:TypeConverter.obj
 0002:000013f8       ??_C@_08FOBACOHH@AoiLayer?$AA@ 100113f8     PlugInUtilities:TypeConverter.obj
 0002:00001404       ??_C@_0BB@EGAFIFPC@vector?$DMAoiLayer?$DO?$AA@ 10011404     PlugInUtilities:TypeConverter.obj
 0002:00001418       ??_C@_07IMLPMLBM@BitMask?$AA@ 10011418     PlugInUtilities:TypeConverter.obj
 0002:00001420       ??_C@_0BA@KGACEAIK@vector?$DMBitMask?$DO?$AA@ 10011420     PlugInUtilities:TypeConverter.obj
 0002:00001430       ??_C@_0O@CJDDHMID@CartesianPlot?$AA@ 10011430     PlugInUtilities:TypeConverter.obj
 0002:00001440       ??_C@_0BG@NLHHLDPB@vector?$DMCartesianPlot?$DO?$AA@ 10011440     PlugInUtilities:TypeConverter.obj
 0002:00001458       ??_C@_0P@PEKDEFAE@Classification?$AA@ 10011458     PlugInUtilities:TypeConverter.obj
 0002:00001468       ??_C@_0BH@OLNFNOCO@vector?$DMClassification?$DO?$AA@ 10011468     PlugInUtilities:TypeConverter.obj
 0002:00001480       ??_C@_0BE@GLEOKAAM@ClassificationLayer?$AA@ 10011480     PlugInUtilities:TypeConverter.obj
 0002:00001494       ??_C@_0BM@NIGHLNAC@vector?$DMClassificationLayer?$DO?$AA@ 10011494     PlugInUtilities:TypeConverter.obj
 0002:000014b0       ??_C@_09MBKNDBMC@ColorType?$AA@ 100114b0     PlugInUtilities:TypeConverter.obj
 0002:000014bc       ??_C@_0BC@PFMGPHBB@vector?$DMColorType?$DO?$AA@ 100114bc     PlugInUtilities:TypeConverter.obj
 0002:000014d0       ??_C@_0P@GBNHJIMA@DataDescriptor?$AA@ 100114d0     PlugInUtilities:TypeConverter.obj
 0002:000014e0       ??_C@_0BH@HHEJKMFK@vector?$DMDataDescriptor?$DO?$AA@ 100114e0     PlugInUtilities:TypeConverter.obj
 0002:000014f8       ??_C@_0M@IDLNNGAG@DataElement?$AA@ 100114f8     PlugInUtilities:TypeConverter.obj
 0002:00001504       ??_C@_0BE@DEMAKHGN@vector?$DMDataElement?$DO?$AA@ 10011504     PlugInUtilities:TypeConverter.obj
 0002:00001518       ??_C@_0BB@NOFIAIEN@DataElementGroup?$AA@ 10011518     PlugInUtilities:TypeConverter.obj
 0002:0000152c       ??_C@_0BJ@PGDGANNK@vector?$DMDataElementGroup?$DO?$AA@ 1001152c     PlugInUtilities:TypeConverter.obj
 0002:00001548       ??_C@_0M@LMHCAHAK@DataRequest?$AA@ 10011548     PlugInUtilities:TypeConverter.obj
 0002:00001554       ??_C@_0BE@DNEJCEJH@vector?$DMDataRequest?$DO?$AA@ 10011554     PlugInUtilities:TypeConverter.obj
 0002:00001568       ??_C@_0BD@DLCGCPCN@DataVariantAnyData?$AA@ 10011568     PlugInUtilities:TypeConverter.obj
 0002:0000157c       ??_C@_0BL@MEJIAECI@vector?$DMDataVariantAnyData?$DO?$AA@ 1001157c     PlugInUtilities:TypeConverter.obj
 0002:00001598       ??_C@_08BFOPGFLN@DateTime?$AA@ 10011598     PlugInUtilities:TypeConverter.obj
 0002:000015a4       ??_C@_0BB@DNPPFBBH@vector?$DMDateTime?$DO?$AA@ 100115a4     PlugInUtilities:TypeConverter.obj
 0002:000015b8       ??_C@_0BE@LIEGLNOE@DimensionDescriptor?$AA@ 100115b8     PlugInUtilities:TypeConverter.obj
 0002:000015cc       ??_C@_0BM@HGGFNPFF@vector?$DMDimensionDescriptor?$DO?$AA@ 100115cc     PlugInUtilities:TypeConverter.obj
 0002:000015e8       ??_C@_0O@LIHDGLKA@DynamicObject?$AA@ 100115e8     PlugInUtilities:TypeConverter.obj
 0002:000015f8       ??_C@_0BG@HJIBICJE@vector?$DMDynamicObject?$DO?$AA@ 100115f8     PlugInUtilities:TypeConverter.obj
 0002:00001610       ??_C@_0BA@DPGNDGIL@ExecutableAgent?$AA@ 10011610     PlugInUtilities:TypeConverter.obj
 0002:00001620       ??_C@_0BI@KLICLINA@vector?$DMExecutableAgent?$DO?$AA@ 10011620     PlugInUtilities:TypeConverter.obj
 0002:00001638       ??_C@_0M@BDOMMID@ExportAgent?$AA@ 10011638     PlugInUtilities:TypeConverter.obj
 0002:00001644       ??_C@_0BE@KJJAFDNI@vector?$DMExportAgent?$DO?$AA@ 10011644     PlugInUtilities:TypeConverter.obj
 0002:00001658       ??_C@_0P@BHAKHJKP@FileDescriptor?$AA@ 10011658     PlugInUtilities:TypeConverter.obj
 0002:00001668       ??_C@_0BH@KKDCANHC@vector?$DMFileDescriptor?$DO?$AA@ 10011668     PlugInUtilities:TypeConverter.obj
 0002:00001680       ??_C@_0L@GMFIMLHM@FileFinder?$AA@ 10011680     PlugInUtilities:TypeConverter.obj
 0002:0000168c       ??_C@_0BD@PELICEGF@vector?$DMFileFinder?$DO?$AA@ 1001168c     PlugInUtilities:TypeConverter.obj
 0002:000016a0       ??_C@_08JCOIAMOP@Filename?$AA@ 100116a0     PlugInUtilities:TypeConverter.obj
 0002:000016ac       ??_C@_0BB@LIBNGGKG@vector?$DMFilename?$DO?$AA@ 100116ac     PlugInUtilities:TypeConverter.obj
 0002:000016c0       ??_C@_0N@NPKDPOCM@FloatComplex?$AA@ 100116c0     PlugInUtilities:TypeConverter.obj
 0002:000016d0       ??_C@_0BF@FHOKJCGC@vector?$DMFloatComplex?$DO?$AA@ 100116d0     PlugInUtilities:TypeConverter.obj
 0002:000016e8       ??_C@_04IEDBBIIG@Font?$AA@ 100116e8     PlugInUtilities:TypeConverter.obj
 0002:000016f0       ??_C@_0N@GFDEJBHF@vector?$DMFont?$DO?$AA@ 100116f0     PlugInUtilities:TypeConverter.obj
 0002:00001700       ??_C@_08IIODJLKP@GcpLayer?$AA@ 10011700     PlugInUtilities:TypeConverter.obj
 0002:0000170c       ??_C@_0BB@MONLCMKB@vector?$DMGcpLayer?$DO?$AA@ 1001170c     PlugInUtilities:TypeConverter.obj
 0002:00001720       ??_C@_07MODANHOB@GcpList?$AA@ 10011720     PlugInUtilities:TypeConverter.obj
 0002:00001728       ??_C@_0BA@GFEMEBDH@vector?$DMGcpList?$DO?$AA@ 10011728     PlugInUtilities:TypeConverter.obj
 0002:00001738       ??_C@_0P@DGOBACPK@GraphicElement?$AA@ 10011738     PlugInUtilities:TypeConverter.obj
 0002:00001748       ??_C@_0BH@LBBCEDHC@vector?$DMGraphicElement?$DO?$AA@ 10011748     PlugInUtilities:TypeConverter.obj
 0002:00001760       ??_C@_0N@JELMFKJC@GraphicLayer?$AA@ 10011760     PlugInUtilities:TypeConverter.obj
 0002:00001770       ??_C@_0BF@HLHIBDEN@vector?$DMGraphicLayer?$DO?$AA@ 10011770     PlugInUtilities:TypeConverter.obj
 0002:00001788       ??_C@_0O@OGOGAEAL@HistogramPlot?$AA@ 10011788     PlugInUtilities:TypeConverter.obj
 0002:00001798       ??_C@_0BG@DINLGNJL@vector?$DMHistogramPlot?$DO?$AA@ 10011798     PlugInUtilities:TypeConverter.obj
 0002:000017b0       ??_C@_0M@NLJFOJIL@ImportAgent?$AA@ 100117b0     PlugInUtilities:TypeConverter.obj
 0002:000017bc       ??_C@_0BE@KHJBHAMP@vector?$DMImportAgent?$DO?$AA@ 100117bc     PlugInUtilities:TypeConverter.obj
 0002:000017d0       ??_C@_0P@MGHFFHLC@IntegerComplex?$AA@ 100117d0     PlugInUtilities:TypeConverter.obj
 0002:000017e0       ??_C@_0BH@MJOFBOIF@vector?$DMIntegerComplex?$DO?$AA@ 100117e0     PlugInUtilities:TypeConverter.obj
 0002:000017f8       ??_C@_05DPPJJBMK@Int64?$AA@ 100117f8     PlugInUtilities:TypeConverter.obj
 0002:00001800       ??_C@_0O@EKABJDFA@vector?$DMInt64?$DO?$AA@ 10011800     PlugInUtilities:TypeConverter.obj
 0002:00001810       ??_C@_0M@KMLFLDAE@LatLonLayer?$AA@ 10011810     PlugInUtilities:TypeConverter.obj
 0002:0000181c       ??_C@_0BE@NKOBMOCE@vector?$DMLatLonLayer?$DO?$AA@ 1001181c     PlugInUtilities:TypeConverter.obj
 0002:00001830       ??_C@_05NHNHDHBP@Layer?$AA@ 10011830     PlugInUtilities:TypeConverter.obj
 0002:00001838       ??_C@_0O@LMFAJLKN@vector?$DMLayer?$DO?$AA@ 10011838     PlugInUtilities:TypeConverter.obj
 0002:00001848       ??_C@_0N@MAFNPHOD@LocationType?$AA@ 10011848     PlugInUtilities:TypeConverter.obj
 0002:00001858       ??_C@_0BF@FMCOLDEK@vector?$DMLocationType?$DO?$AA@ 10011858     PlugInUtilities:TypeConverter.obj
 0002:00001870       ??_C@_0BB@GPFDBOPP@MeasurementLayer?$AA@ 10011870     PlugInUtilities:TypeConverter.obj
 0002:00001884       ??_C@_0BJ@NDOINEGM@vector?$DMMeasurementLayer?$DO?$AA@ 10011884     PlugInUtilities:TypeConverter.obj
 0002:000018a0       ??_C@_0BB@JHGIIGFI@OrthographicView?$AA@ 100118a0     PlugInUtilities:TypeConverter.obj
 0002:000018b4       ??_C@_0BJ@JLKCNJLP@vector?$DMOrthographicView?$DO?$AA@ 100118b4     PlugInUtilities:TypeConverter.obj
 0002:000018d0       ??_C@_0BA@PDPHNCFA@PerspectiveView?$AA@ 100118d0     PlugInUtilities:TypeConverter.obj
 0002:000018e0       ??_C@_0BI@LKEPCJGI@vector?$DMPerspectiveView?$DO?$AA@ 100118e0     PlugInUtilities:TypeConverter.obj
 0002:000018f8       ??_C@_0BH@GPLFFOBB@Opticks?3?3PixelLocation?$AA@ 100118f8     PlugInUtilities:TypeConverter.obj
 0002:00001910       ??_C@_0BP@JDAGEAAN@vector?$DMOpticks?3?3PixelLocation?$DO?$AA@ 10011910     PlugInUtilities:TypeConverter.obj
 0002:00001930       ??_C@_08NOLCAIBA@PlotView?$AA@ 10011930     PlugInUtilities:TypeConverter.obj
 0002:0000193c       ??_C@_0BB@JFFDNDCP@vector?$DMPlotView?$DO?$AA@ 1001193c     PlugInUtilities:TypeConverter.obj
 0002:00001950       ??_C@_0L@IKFIIEHD@PlotWidget?$AA@ 10011950     PlugInUtilities:TypeConverter.obj
 0002:0000195c       ??_C@_0BD@GEOBDJLL@vector?$DMPlotWidget?$DO?$AA@ 1001195c     PlugInUtilities:TypeConverter.obj
 0002:00001970       ??_C@_0L@PEOHOFCJ@PlotWindow?$AA@ 10011970     PlugInUtilities:TypeConverter.obj
 0002:0000197c       ??_C@_0BD@OPCBDODA@vector?$DMPlotWindow?$DO?$AA@ 1001197c     PlugInUtilities:TypeConverter.obj
 0002:00001990       ??_C@_09ILOPLGEE@PolarPlot?$AA@ 10011990     PlugInUtilities:TypeConverter.obj
 0002:0000199c       ??_C@_0BC@PBFHJDID@vector?$DMPolarPlot?$DO?$AA@ 1001199c     PlugInUtilities:TypeConverter.obj
 0002:000019b0       ??_C@_0M@CODOOFLI@ProductView?$AA@ 100119b0     PlugInUtilities:TypeConverter.obj
 0002:000019bc       ??_C@_0BE@BILELKNF@vector?$DMProductView?$DO?$AA@ 100119bc     PlugInUtilities:TypeConverter.obj
 0002:000019d0       ??_C@_0O@EMICLNIB@ProductWindow?$AA@ 100119d0     PlugInUtilities:TypeConverter.obj
 0002:000019e0       ??_C@_0BG@DFBMGDBM@vector?$DMProductWindow?$DO?$AA@ 100119e0     PlugInUtilities:TypeConverter.obj
 0002:000019f8       ??_C@_08DAJBHHIG@Progress?$AA@ 100119f8     PlugInUtilities:TypeConverter.obj
 0002:00001a04       ??_C@_0BB@IMNBMGCB@vector?$DMProgress?$DO?$AA@ 10011a04     PlugInUtilities:TypeConverter.obj
 0002:00001a18       ??_C@_0BB@LJALFHPD@PseudocolorLayer?$AA@ 10011a18     PlugInUtilities:TypeConverter.obj
 0002:00001a2c       ??_C@_0BJ@NKIIMAAO@vector?$DMPseudocolorLayer?$DO?$AA@ 10011a2c     PlugInUtilities:TypeConverter.obj
 0002:00001a48       ??_C@_0BF@CAHHICLO@RasterDataDescriptor?$AA@ 10011a48     PlugInUtilities:TypeConverter.obj
 0002:00001a60       ??_C@_0BN@NHHMLLNF@vector?$DMRasterDataDescriptor?$DO?$AA@ 10011a60     PlugInUtilities:TypeConverter.obj
 0002:00001a80       ??_C@_0BG@OEDFGEBG@vector?$DMRasterElement?$DO?$AA@ 10011a80     PlugInUtilities:TypeConverter.obj
 0002:00001a98       ??_C@_0BF@FGKKGDNB@RasterFileDescriptor?$AA@ 10011a98     PlugInUtilities:TypeConverter.obj
 0002:00001ab0       ??_C@_0BN@KAHBKPN@vector?$DMRasterFileDescriptor?$DO?$AA@ 10011ab0     PlugInUtilities:TypeConverter.obj
 0002:00001ad0       ??_C@_0M@PBHBOCH@RasterLayer?$AA@ 10011ad0     PlugInUtilities:TypeConverter.obj
 0002:00001adc       ??_C@_0BE@HICFBNPL@vector?$DMRasterLayer?$DO?$AA@ 10011adc     PlugInUtilities:TypeConverter.obj
 0002:00001af0       ??_C@_0M@JFEJLCPJ@SessionItem?$AA@ 10011af0     PlugInUtilities:TypeConverter.obj
 0002:00001afc       ??_C@_0BE@BJNELMIE@vector?$DMSessionItem?$DO?$AA@ 10011afc     PlugInUtilities:TypeConverter.obj
 0002:00001b10       ??_C@_0BE@NDMBILLL@SettableSessionItem?$AA@ 10011b10     PlugInUtilities:TypeConverter.obj
 0002:00001b24       ??_C@_0BM@INNKBEAG@vector?$DMSettableSessionItem?$DO?$AA@ 10011b24     PlugInUtilities:TypeConverter.obj
 0002:00001b40       ??_C@_09GDNFOKKF@Signature?$AA@ 10011b40     PlugInUtilities:TypeConverter.obj
 0002:00001b4c       ??_C@_0BC@CGLCHLDB@vector?$DMSignature?$DO?$AA@ 10011b4c     PlugInUtilities:TypeConverter.obj
 0002:00001b60       ??_C@_0BB@EGOKEBGE@SignatureLibrary?$AA@ 10011b60     PlugInUtilities:TypeConverter.obj
 0002:00001b74       ??_C@_0BJ@LEBMCHPP@vector?$DMSignatureLibrary?$DO?$AA@ 10011b74     PlugInUtilities:TypeConverter.obj
 0002:00001b90       ??_C@_0O@LHAPAKGG@SignaturePlot?$AA@ 10011b90     PlugInUtilities:TypeConverter.obj
 0002:00001ba0       ??_C@_0BG@LIJJJHA@vector?$DMSignaturePlot?$DO?$AA@ 10011ba0     PlugInUtilities:TypeConverter.obj
 0002:00001bb8       ??_C@_0N@FBGMLHKA@SignatureSet?$AA@ 10011bb8     PlugInUtilities:TypeConverter.obj
 0002:00001bc8       ??_C@_0BF@LDGKJCCA@vector?$DMSignatureSet?$DO?$AA@ 10011bc8     PlugInUtilities:TypeConverter.obj
 0002:00001be0       ??_C@_0BA@OLMDCPLD@SpatialDataView?$AA@ 10011be0     PlugInUtilities:TypeConverter.obj
 0002:00001bf0       ??_C@_0BI@IDFEKOFH@vector?$DMSpatialDataView?$DO?$AA@ 10011bf0     PlugInUtilities:TypeConverter.obj
 0002:00001c08       ??_C@_0BC@NEMHIKBJ@SpatialDataWindow?$AA@ 10011c08     PlugInUtilities:TypeConverter.obj
 0002:00001c1c       ??_C@_0BK@CGHDNGEI@vector?$DMSpatialDataWindow?$DO?$AA@ 10011c1c     PlugInUtilities:TypeConverter.obj
 0002:00001c38       ??_C@_0P@LOGJLEMD@ThresholdLayer?$AA@ 10011c38     PlugInUtilities:TypeConverter.obj
 0002:00001c48       ??_C@_0BH@OOJPEDMM@vector?$DMThresholdLayer?$DO?$AA@ 10011c48     PlugInUtilities:TypeConverter.obj
 0002:00001c60       ??_C@_0O@MFEKJDME@TiePointLayer?$AA@ 10011c60     PlugInUtilities:TypeConverter.obj
 0002:00001c70       ??_C@_0BG@DDCDBOCN@vector?$DMTiePointLayer?$DO?$AA@ 10011c70     PlugInUtilities:TypeConverter.obj
 0002:00001c88       ??_C@_0N@NFFJOEIB@TiePointList?$AA@ 10011c88     PlugInUtilities:TypeConverter.obj
 0002:00001c98       ??_C@_0BF@PPIHLHCN@vector?$DMTiePointList?$DO?$AA@ 10011c98     PlugInUtilities:TypeConverter.obj
 0002:00001cb0       ??_C@_06GCLKCJAH@UInt64?$AA@ 10011cb0     PlugInUtilities:TypeConverter.obj
 0002:00001cb8       ??_C@_0P@CMAKAPOF@vector?$DMUInt64?$DO?$AA@ 10011cb8     PlugInUtilities:TypeConverter.obj
 0002:00001cc8       ??_C@_05CFLIFMAE@Units?$AA@ 10011cc8     PlugInUtilities:TypeConverter.obj
 0002:00001cd0       ??_C@_0O@DGMHDNCK@vector?$DMUnits?$DO?$AA@ 10011cd0     PlugInUtilities:TypeConverter.obj
 0002:00001ce0       ??_C@_04OGMCGMPK@View?$AA@ 10011ce0     PlugInUtilities:TypeConverter.obj
 0002:00001ce8       ??_C@_0N@DMOFFPBG@vector?$DMView?$DO?$AA@ 10011ce8     PlugInUtilities:TypeConverter.obj
 0002:00001cf8       ??_C@_06BKKJGDHO@Window?$AA@ 10011cf8     PlugInUtilities:TypeConverter.obj
 0002:00001d00       ??_C@_0P@FKLNFDH@vector?$DMWindow?$DO?$AA@ 10011d00     PlugInUtilities:TypeConverter.obj
 0002:00001d10       ??_C@_0N@LABCPEHB@WizardObject?$AA@ 10011d10     PlugInUtilities:TypeConverter.obj
 0002:00001d20       ??_C@_0BF@ECFPAOCB@vector?$DMWizardObject?$DO?$AA@ 10011d20     PlugInUtilities:TypeConverter.obj
 0002:00001d38       ??_C@_0BA@MEGFCOCI@WorkspaceWindow?$AA@ 10011d38     PlugInUtilities:TypeConverter.obj
 0002:00001d48       ??_C@_0BI@OEKGECJK@vector?$DMWorkspaceWindow?$DO?$AA@ 10011d48     PlugInUtilities:TypeConverter.obj
 0002:00001d60       ??_C@_0CF@PMFPIMGN@?5Error?3?5Verification?5Failed?6?6Ver@ 10011d60     PlugInUtilities:AppVerify.obj
 0002:00001d88       ??_C@_0M@DDKFKEBA@?$CJ?6?5?5?5File?3?5?$AA@ 10011d88     PlugInUtilities:AppVerify.obj
 0002:00001d94       ??_C@_0L@HINPDONE@?6?5?5?5Line?3?5?$AA@ 10011d94     PlugInUtilities:AppVerify.obj
 0002:00001da0       ??_C@_0BE@FEIDNADG@OPTICKS_SHOW_VERIFY?$AA@ 10011da0     PlugInUtilities:AppVerify.obj
 0002:00001db4       ??_C@_04LIDDHMOL@Line?$AA@ 10011db4     PlugInUtilities:AppVerify.obj
 0002:00001dbc       ??_C@_04PBAHLACE@File?$AA@ 10011dbc     PlugInUtilities:AppVerify.obj
 0002:00001dc4       ??_C@_06NDEBMOO@Verify?$AA@ 10011dc4     PlugInUtilities:AppVerify.obj
 0002:00001dcc       ??_C@_07BEIHKDLJ@Message?$AA@ 10011dcc     PlugInUtilities:AppVerify.obj
 0002:00001dd4       ??_C@_07OLJKCMAO@Opticks?$AA@ 10011dd4     PlugInUtilities:AppVerify.obj
 0002:00001ddc       ??_C@_09CMNEPOJL@Internal?5?$AA@ 10011ddc     PlugInUtilities:AppVerify.obj
 0002:00001de8       ??_C@_06OOBNMOBD@?5Error?$AA@ 10011de8     PlugInUtilities:AppVerify.obj
 0002:00001df0       ??_C@_0CF@GHKIFMDF@94B15D95?94EBC?94ccd?99045?92F89D91C@ 10011df0     PlugInUtilities:AppVerify.obj
 0002:00001e1c       ??_7type_info@@6B@         10011e1c     MSVCRT:ti_inst.obj
 0002:00001e20       __pDefaultRawDllMain       10011e20     MSVCRT:crtdll.obj
 0002:00001e20       __pRawDllMain              10011e20     MSVCRT:crtdll.obj
 0002:00001e24       ?ProcessDetach@NativeDll@<CrtImplementationDetails>@@0IB 10011e24     MSVCRT:tncleanup.obj
 0002:00001e28       ?ProcessAttach@NativeDll@<CrtImplementationDetails>@@0IB 10011e28     MSVCRT:tncleanup.obj
 0002:00001e2c       ?ThreadAttach@NativeDll@<CrtImplementationDetails>@@0IB 10011e2c     MSVCRT:tncleanup.obj
 0002:00001e30       ?ThreadDetach@NativeDll@<CrtImplementationDetails>@@0IB 10011e30     MSVCRT:tncleanup.obj
 0002:00001e34       ?ProcessVerifier@NativeDll@<CrtImplementationDetails>@@0IB 10011e34     MSVCRT:tncleanup.obj
 0002:00001e40       __load_config_used         10011e40     MSVCRT:loadcfg.obj
 0002:00001ee0       ??_R4bad_alloc@std@@6B@    10011ee0     DataMerge.obj
 0002:00001ef4       ??_R3bad_alloc@std@@8      10011ef4     DataMerge.obj
 0002:00001f04       ??_R2bad_alloc@std@@8      10011f04     DataMerge.obj
 0002:00001f10       ??_R1A@?0A@EA@bad_alloc@std@@8 10011f10     DataMerge.obj
 0002:00001f2c       ??_R1A@?0A@EA@exception@std@@8 10011f2c     DataMerge.obj
 0002:00001f48       ??_R3exception@std@@8      10011f48     DataMerge.obj
 0002:00001f58       ??_R2exception@std@@8      10011f58     DataMerge.obj
 0002:00001f60       ??_R4logic_error@std@@6B@  10011f60     DataMerge.obj
 0002:00001f74       ??_R3logic_error@std@@8    10011f74     DataMerge.obj
 0002:00001f84       ??_R2logic_error@std@@8    10011f84     DataMerge.obj
 0002:00001f90       ??_R1A@?0A@EA@logic_error@std@@8 10011f90     DataMerge.obj
 0002:00001fac       ??_R4length_error@std@@6B@ 10011fac     DataMerge.obj
 0002:00001fc0       ??_R3length_error@std@@8   10011fc0     DataMerge.obj
 0002:00001fd0       ??_R2length_error@std@@8   10011fd0     DataMerge.obj
 0002:00001fe0       ??_R1A@?0A@EA@length_error@std@@8 10011fe0     DataMerge.obj
 0002:00001ffc       ??_R4PlugInFactory@@6B@    10011ffc     DataMerge.obj
 0002:00002010       ??_R3PlugInFactory@@8      10012010     DataMerge.obj
 0002:00002020       ??_R2PlugInFactory@@8      10012020     DataMerge.obj
 0002:00002028       ??_R1A@?0A@EA@PlugInFactory@@8 10012028     DataMerge.obj
 0002:00002044       ??_R4DataMerge@@6BQObject@@@ 10012044     DataMerge.obj
 0002:00002058       ??_R3DataMerge@@8          10012058     DataMerge.obj
 0002:00002068       ??_R2DataMerge@@8          10012068     DataMerge.obj
 0002:00002090       ??_R1A@?0A@EA@DataMerge@@8 10012090     DataMerge.obj
 0002:000020ac       ??_R1A@?0A@EA@QObject@@8   100120ac     DataMerge.obj
 0002:000020c8       ??_R3QObject@@8            100120c8     DataMerge.obj
 0002:000020d8       ??_R2QObject@@8            100120d8     DataMerge.obj
 0002:000020e0       ??_R17?0A@EA@ViewerShell@@8 100120e0     DataMerge.obj
 0002:000020fc       ??_R3ViewerShell@@8        100120fc     DataMerge.obj
 0002:0000210c       ??_R2ViewerShell@@8        1001210c     DataMerge.obj
 0002:0000212c       ??_R1A@?0A@EA@ViewerShell@@8 1001212c     DataMerge.obj
 0002:00002148       ??_R1A@?0A@EA@ExecutableShell@@8 10012148     DataMerge.obj
 0002:00002164       ??_R3ExecutableShell@@8    10012164     DataMerge.obj
 0002:00002174       ??_R2ExecutableShell@@8    10012174     DataMerge.obj
 0002:00002190       ??_R1A@?0A@EA@Executable@@8 10012190     DataMerge.obj
 0002:000021ac       ??_R3Executable@@8         100121ac     DataMerge.obj
 0002:000021bc       ??_R2Executable@@8         100121bc     DataMerge.obj
 0002:000021c4       ??_R13?0A@EA@PlugInShell@@8 100121c4     DataMerge.obj
 0002:000021e0       ??_R3PlugInShell@@8        100121e0     DataMerge.obj
 0002:000021f0       ??_R2PlugInShell@@8        100121f0     DataMerge.obj
 0002:00002204       ??_R1A@?0A@EA@PlugInShell@@8 10012204     DataMerge.obj
 0002:00002220       ??_R1A@?0A@EA@PlugIn@@8    10012220     DataMerge.obj
 0002:0000223c       ??_R3PlugIn@@8             1001223c     DataMerge.obj
 0002:0000224c       ??_R2PlugIn@@8             1001224c     DataMerge.obj
 0002:00002258       ??_R1A@?0A@EA@SessionItem@@8 10012258     DataMerge.obj
 0002:00002274       ??_R3SessionItem@@8        10012274     DataMerge.obj
 0002:00002284       ??_R2SessionItem@@8        10012284     DataMerge.obj
 0002:0000228c       ??_R13?0A@EA@SessionItemExt1@@8 1001228c     DataMerge.obj
 0002:000022a8       ??_R3SessionItemExt1@@8    100122a8     DataMerge.obj
 0002:000022b8       ??_R2SessionItemExt1@@8    100122b8     DataMerge.obj
 0002:000022c0       ??_R1A@?0A@EA@SessionItemExt1@@8 100122c0     DataMerge.obj
 0002:000022dc       ??_R13?0A@EA@PlugIn@@8     100122dc     DataMerge.obj
 0002:000022f8       ??_R13?0A@EA@SessionItem@@8 100122f8     DataMerge.obj
 0002:00002314       ??_R17?0A@EA@SessionItemExt1@@8 10012314     DataMerge.obj
 0002:00002330       ??_R17?0A@EA@ExecutableShell@@8 10012330     DataMerge.obj
 0002:0000234c       ??_R17?0A@EA@Executable@@8 1001234c     DataMerge.obj
 0002:00002368       ??_R1M@?0A@EA@PlugInShell@@8 10012368     DataMerge.obj
 0002:00002384       ??_R1M@?0A@EA@PlugIn@@8    10012384     DataMerge.obj
 0002:000023a0       ??_R1M@?0A@EA@SessionItem@@8 100123a0     DataMerge.obj
 0002:000023bc       ??_R1BA@?0A@EA@SessionItemExt1@@8 100123bc     DataMerge.obj
 0002:000023d8       ??_R4DataMerge@@6BViewerShell@@@ 100123d8     DataMerge.obj
 0002:000023ec       ??_R4DataMerge@@6BPlugIn@@@ 100123ec     DataMerge.obj
 0002:00002400       ??_R4DataMerge@@6BSessionItemExt1@@@ 10012400     DataMerge.obj
 0002:00002414       ??_R4?$Resource@VStep@@VMessageObject@@@@6B@ 10012414     DataMerge.obj
 0002:00002428       ??_R3?$Resource@VStep@@VMessageObject@@@@8 10012428     DataMerge.obj
 0002:00002438       ??_R2?$Resource@VStep@@VMessageObject@@@@8 10012438     DataMerge.obj
 0002:00002440       ??_R1A@?0A@EA@?$Resource@VStep@@VMessageObject@@@@8 10012440     DataMerge.obj
 0002:0000245c       ??_R4?$Resource@VDataRequest@@VFactoryObject@@@@6B@ 1001245c     DataMerge.obj
 0002:00002470       ??_R3?$Resource@VDataRequest@@VFactoryObject@@@@8 10012470     DataMerge.obj
 0002:00002480       ??_R2?$Resource@VDataRequest@@VFactoryObject@@@@8 10012480     DataMerge.obj
 0002:00002488       ??_R1A@?0A@EA@?$Resource@VDataRequest@@VFactoryObject@@@@8 10012488     DataMerge.obj
 0002:000024a4       ??_R4StepResource@@6B@     100124a4     DataMerge.obj
 0002:000024b8       ??_R3StepResource@@8       100124b8     DataMerge.obj
 0002:000024c8       ??_R2StepResource@@8       100124c8     DataMerge.obj
 0002:000024d4       ??_R1A@?0A@EA@StepResource@@8 100124d4     DataMerge.obj
 0002:000024f0       ??_R4?$FactoryResource@VDataRequest@@@@6B@ 100124f0     DataMerge.obj
 0002:00002504       ??_R3?$FactoryResource@VDataRequest@@@@8 10012504     DataMerge.obj
 0002:00002514       ??_R2?$FactoryResource@VDataRequest@@@@8 10012514     DataMerge.obj
 0002:00002520       ??_R1A@?0A@EA@?$FactoryResource@VDataRequest@@@@8 10012520     DataMerge.obj
 0002:0000253c       ??_R4BasicPlugInFactory@@6B@ 1001253c     DataMerge.obj
 0002:00002550       ??_R3BasicPlugInFactory@@8 10012550     DataMerge.obj
 0002:00002560       ??_R2BasicPlugInFactory@@8 10012560     DataMerge.obj
 0002:0000256c       ??_R1A@?0A@EA@BasicPlugInFactory@@8 1001256c     DataMerge.obj
 0002:00002588       ??_R4DataMergePlugInFactory@SpectralDataMerge@@6B@ 10012588     DataMerge.obj
 0002:0000259c       ??_R3DataMergePlugInFactory@SpectralDataMerge@@8 1001259c     DataMerge.obj
 0002:000025ac       ??_R2DataMergePlugInFactory@SpectralDataMerge@@8 100125ac     DataMerge.obj
 0002:000025bc       ??_R1A@?0A@EA@DataMergePlugInFactory@SpectralDataMerge@@8 100125bc     DataMerge.obj
 0002:000025d8       ??_R4SlotWrapper@Slot@@6B@ 100125d8     PlugInLib:ViewerShell.obj
 0002:000025ec       ??_R3SlotWrapper@Slot@@8   100125ec     PlugInLib:ViewerShell.obj
 0002:000025fc       ??_R2SlotWrapper@Slot@@8   100125fc     PlugInLib:ViewerShell.obj
 0002:00002604       ??_R1A@?0A@EA@SlotWrapper@Slot@@8 10012604     PlugInLib:ViewerShell.obj
 0002:00002620       ??_R4PlugInCallback@@6B@   10012620     PlugInLib:ViewerShell.obj
 0002:00002634       ??_R3PlugInCallback@@8     10012634     PlugInLib:ViewerShell.obj
 0002:00002644       ??_R2PlugInCallback@@8     10012644     PlugInLib:ViewerShell.obj
 0002:0000264c       ??_R1A@?0A@EA@PlugInCallback@@8 1001264c     PlugInLib:ViewerShell.obj
 0002:00002668       ??_R4?$SlotValue@VViewerShell@@@Slot@@6B@ 10012668     PlugInLib:ViewerShell.obj
 0002:0000267c       ??_R3?$SlotValue@VViewerShell@@@Slot@@8 1001267c     PlugInLib:ViewerShell.obj
 0002:0000268c       ??_R2?$SlotValue@VViewerShell@@@Slot@@8 1001268c     PlugInLib:ViewerShell.obj
 0002:00002698       ??_R1A@?0A@EA@?$SlotValue@VViewerShell@@@Slot@@8 10012698     PlugInLib:ViewerShell.obj
 0002:000026b4       ??_R4?$SlotValue@V?$SafePtr@VApplicationServices@@@@@Slot@@6B@ 100126b4     PlugInLib:ViewerShell.obj
 0002:000026c8       ??_R3?$SlotValue@V?$SafePtr@VApplicationServices@@@@@Slot@@8 100126c8     PlugInLib:ViewerShell.obj
 0002:000026d8       ??_R2?$SlotValue@V?$SafePtr@VApplicationServices@@@@@Slot@@8 100126d8     PlugInLib:ViewerShell.obj
 0002:000026e4       ??_R1A@?0A@EA@?$SlotValue@V?$SafePtr@VApplicationServices@@@@@Slot@@8 100126e4     PlugInLib:ViewerShell.obj
 0002:00002700       ??_R4ViewerCallback@@6B@   10012700     PlugInLib:ViewerShell.obj
 0002:00002714       ??_R3ViewerCallback@@8     10012714     PlugInLib:ViewerShell.obj
 0002:00002724       ??_R2ViewerCallback@@8     10012724     PlugInLib:ViewerShell.obj
 0002:00002730       ??_R1A@?0A@EA@ViewerCallback@@8 10012730     PlugInLib:ViewerShell.obj
 0002:0000274c       ??_R4?$SafePtr@VApplicationServices@@@@6B@ 1001274c     PlugInLib:ViewerShell.obj
 0002:00002760       ??_R3?$SafePtr@VApplicationServices@@@@8 10012760     PlugInLib:ViewerShell.obj
 0002:00002770       ??_R2?$SafePtr@VApplicationServices@@@@8 10012770     PlugInLib:ViewerShell.obj
 0002:00002778       ??_R1A@?0A@EA@?$SafePtr@VApplicationServices@@@@8 10012778     PlugInLib:ViewerShell.obj
 0002:00002794       ??_R4?$AttachmentPtr@VApplicationServices@@@@6B@ 10012794     PlugInLib:ViewerShell.obj
 0002:000027a8       ??_R3?$AttachmentPtr@VApplicationServices@@@@8 100127a8     PlugInLib:ViewerShell.obj
 0002:000027b8       ??_R2?$AttachmentPtr@VApplicationServices@@@@8 100127b8     PlugInLib:ViewerShell.obj
 0002:000027c4       ??_R1A@?0A@EA@?$AttachmentPtr@VApplicationServices@@@@8 100127c4     PlugInLib:ViewerShell.obj
 0002:000027e0       ??_R4ViewerShell@@6B@      100127e0     PlugInLib:ViewerShell.obj
 0002:000027f4       ??_R4ViewerShell@@6BPlugIn@@@ 100127f4     PlugInLib:ViewerShell.obj
 0002:00002808       ??_R4ViewerShell@@6BSessionItemExt1@@@ 10012808     PlugInLib:ViewerShell.obj
 0002:0000281c       ??_R4Executable@@6B@       1001281c     PlugInLib:ExecutableShell.obj
 0002:00002830       ??_R4ExecutableShell@@6B@  10012830     PlugInLib:ExecutableShell.obj
 0002:00002844       ??_R4ExecutableShell@@6BPlugIn@@@ 10012844     PlugInLib:ExecutableShell.obj
 0002:00002858       ??_R4ExecutableShell@@6BSessionItemExt1@@@ 10012858     PlugInLib:ExecutableShell.obj
 0002:0000286c       ??_R4out_of_range@std@@6B@ 1001286c     PlugInLib:PlugInShell.obj
 0002:00002880       ??_R3out_of_range@std@@8   10012880     PlugInLib:PlugInShell.obj
 0002:00002890       ??_R2out_of_range@std@@8   10012890     PlugInLib:PlugInShell.obj
 0002:000028a0       ??_R1A@?0A@EA@out_of_range@std@@8 100128a0     PlugInLib:PlugInShell.obj
 0002:000028bc       ??_R4SessionItem@@6B@      100128bc     PlugInLib:PlugInShell.obj
 0002:000028d0       ??_R4SessionItemExt1@@6B@  100128d0     PlugInLib:PlugInShell.obj
 0002:000028e4       ??_R4PlugIn@@6B@           100128e4     PlugInLib:PlugInShell.obj
 0002:000028f8       ??_R4?$Resource@VSettableSessionItem@@VFactoryObject@@@@6B@ 100128f8     PlugInLib:PlugInShell.obj
 0002:0000290c       ??_R3?$Resource@VSettableSessionItem@@VFactoryObject@@@@8 1001290c     PlugInLib:PlugInShell.obj
 0002:0000291c       ??_R2?$Resource@VSettableSessionItem@@VFactoryObject@@@@8 1001291c     PlugInLib:PlugInShell.obj
 0002:00002924       ??_R1A@?0A@EA@?$Resource@VSettableSessionItem@@VFactoryObject@@@@8 10012924     PlugInLib:PlugInShell.obj
 0002:00002940       ??_R4?$FactoryResource@VSettableSessionItem@@@@6B@ 10012940     PlugInLib:PlugInShell.obj
 0002:00002954       ??_R3?$FactoryResource@VSettableSessionItem@@@@8 10012954     PlugInLib:PlugInShell.obj
 0002:00002964       ??_R2?$FactoryResource@VSettableSessionItem@@@@8 10012964     PlugInLib:PlugInShell.obj
 0002:00002970       ??_R1A@?0A@EA@?$FactoryResource@VSettableSessionItem@@@@8 10012970     PlugInLib:PlugInShell.obj
 0002:0000298c       ??_R4PlugInShell@@6BPlugIn@@@ 1001298c     PlugInLib:PlugInShell.obj
 0002:000029a0       ??_R4PlugInShell@@6BSessionItemExt1@@@ 100129a0     PlugInLib:PlugInShell.obj
 0002:000029b4       ??_R4type_info@@6B@        100129b4     MSVCRT:ti_inst.obj
 0002:000029c8       ??_R3type_info@@8          100129c8     MSVCRT:ti_inst.obj
 0002:000029d8       ??_R2type_info@@8          100129d8     MSVCRT:ti_inst.obj
 0002:000029e0       ??_R1A@?0A@EA@type_info@@8 100129e0     MSVCRT:ti_inst.obj
 0002:00002a00       ___safe_se_handler_table   10012a00     <linker-defined>
 0002:00002b94       ___rtc_iaa                 10012b94     MSVCRT:initsect.obj
 0002:00002b98       ___rtc_izz                 10012b98     MSVCRT:initsect.obj
 0002:00002b9c       ___rtc_taa                 10012b9c     MSVCRT:initsect.obj
 0002:00002ba0       ___rtc_tzz                 10012ba0     MSVCRT:initsect.obj
 0002:00002bd4       __TI2?AVlogic_error@std@@  10012bd4     DataMerge.obj
 0002:00002c10       __CTA2?AVlogic_error@std@@ 10012c10     DataMerge.obj
 0002:00002c1c       __CT??_R0?AVlogic_error@std@@@8??0logic_error@std@@QAE@ABV01@@Z40 10012c1c     DataMerge.obj
 0002:00002c38       __CT??_R0?AVexception@std@@@8??0exception@std@@QAE@ABV01@@Z12 10012c38     DataMerge.obj
 0002:00002da0       __TI3?AVlength_error@std@@ 10012da0     DataMerge.obj
 0002:00002de4       __CTA3?AVlength_error@std@@ 10012de4     DataMerge.obj
 0002:00002df4       __CT??_R0?AVlength_error@std@@@8??0length_error@std@@QAE@ABV01@@Z40 10012df4     DataMerge.obj
 0002:00002e10       __TI2?AVbad_alloc@std@@    10012e10     DataMerge.obj
 0002:00002e20       __CTA2?AVbad_alloc@std@@   10012e20     DataMerge.obj
 0002:00002e2c       __CT??_R0?AVbad_alloc@std@@@8??0bad_alloc@std@@QAE@ABV01@@Z12 10012e2c     DataMerge.obj
 0002:000042a0       __TI3?AVout_of_range@std@@ 100142a0     PlugInLib:PlugInShell.obj
 0002:000042ec       __CTA3?AVout_of_range@std@@ 100142ec     PlugInLib:PlugInShell.obj
 0002:000042fc       __CT??_R0?AVout_of_range@std@@@8??0out_of_range@std@@QAE@ABV01@@Z40 100142fc     PlugInLib:PlugInShell.obj
 0002:0000469c       __IMPORT_DESCRIPTOR_QtCore4 1001469c     QtCore4:QtCore4.dll
 0002:000046b0       __IMPORT_DESCRIPTOR_QtGui4 100146b0     QtGui4:QtGui4.dll
 0002:000046c4       __IMPORT_DESCRIPTOR_MSVCP80 100146c4     msvcprt:MSVCP80.dll
 0002:000046d8       __IMPORT_DESCRIPTOR_MSVCR80 100146d8     MSVCRT:MSVCR80.dll
 0002:000046ec       __IMPORT_DESCRIPTOR_KERNEL32 100146ec     kernel32:KERNEL32.dll
 0002:00004700       __NULL_IMPORT_DESCRIPTOR   10014700     QtCore4:QtCore4.dll
 0003:00000004       ??_R0?AVbad_alloc@std@@@8  10016004     DataMerge.obj
 0003:00000020       ??_R0?AVexception@std@@@8  10016020     DataMerge.obj
 0003:0000003c       ??_R0?AVlogic_error@std@@@8 1001603c     DataMerge.obj
 0003:0000005c       ??_R0?AVlength_error@std@@@8 1001605c     DataMerge.obj
 0003:0000007c       ??_R0?AVPlugInFactory@@@8  1001607c     DataMerge.obj
 0003:00000098       ??_R0?AVDataMerge@@@8      10016098     DataMerge.obj
 0003:000000b0       ??_R0?AVQObject@@@8        100160b0     DataMerge.obj
 0003:000000c8       ??_R0?AVViewerShell@@@8    100160c8     DataMerge.obj
 0003:000000e4       ??_R0?AVExecutableShell@@@8 100160e4     DataMerge.obj
 0003:00000104       ??_R0?AVExecutable@@@8     10016104     DataMerge.obj
 0003:00000120       ??_R0?AVPlugInShell@@@8    10016120     DataMerge.obj
 0003:0000013c       ??_R0?AVPlugIn@@@8         1001613c     DataMerge.obj
 0003:00000154       ??_R0?AVSessionItem@@@8    10016154     DataMerge.obj
 0003:00000170       ??_R0?AVSessionItemExt1@@@8 10016170     DataMerge.obj
 0003:00000190       ??_R0?AVAnyData@@@8        10016190     DataMerge.obj
 0003:000001a8       ??_R0?AVAny@@@8            100161a8     DataMerge.obj
 0003:000001bc       ??_R0?AVDataElement@@@8    100161bc     DataMerge.obj
 0003:000001d8       ??_R0?AVRasterElement@@@8  100161d8     DataMerge.obj
 0003:000001f4       ??_R0?AV?$Resource@VStep@@VMessageObject@@@@@8 100161f4     DataMerge.obj
 0003:00000228       ??_R0?AV?$Resource@VDataRequest@@VFactoryObject@@@@@8 10016228     DataMerge.obj
 0003:00000260       ??_R0?AVStepResource@@@8   10016260     DataMerge.obj
 0003:0000027c       ??_R0?AV?$FactoryResource@VDataRequest@@@@@8 1001627c     DataMerge.obj
 0003:000002ac       ??_R0?AVBasicPlugInFactory@@@8 100162ac     DataMerge.obj
 0003:000002d0       ??_R0?AVDataMergePlugInFactory@SpectralDataMerge@@@8 100162d0     DataMerge.obj
 0003:0000030c       _SpectralDataMergeDescriptor 1001630c     ModuleManager.obj
 0003:00000320       ?staticMetaObject@DataMerge@@2UQMetaObject@@B 10016320     moc_DataMerge.obj
 0003:00000334       ??_R0?AVSlotWrapper@Slot@@@8 10016334     PlugInLib:ViewerShell.obj
 0003:00000354       ??_R0?AVPlugInCallback@@@8 10016354     PlugInLib:ViewerShell.obj
 0003:00000374       ??_R0?AV?$SlotValue@VViewerShell@@@Slot@@@8 10016374     PlugInLib:ViewerShell.obj
 0003:000003a4       ??_R0?AVObserver@@@8       100163a4     PlugInLib:ViewerShell.obj
 0003:000003c0       ??_R0?AV?$SlotValue@V?$SafePtr@VApplicationServices@@@@@Slot@@@8 100163c0     PlugInLib:ViewerShell.obj
 0003:00000404       ??_R0?AV?$SafePtr@VApplicationServices@@@@@8 10016404     PlugInLib:ViewerShell.obj
 0003:00000434       ??_R0?AVViewerCallback@@@8 10016434     PlugInLib:ViewerShell.obj
 0003:00000454       ??_R0?AV?$AttachmentPtr@VApplicationServices@@@@@8 10016454     PlugInLib:ViewerShell.obj
 0003:00000494       ??_R0?AVout_of_range@std@@@8 10016494     PlugInLib:PlugInShell.obj
 0003:000004b4       ??_R0?AVSettableSessionItem@@@8 100164b4     PlugInLib:PlugInShell.obj
 0003:000004d8       ??_R0?AVSettableSessionItemExt1@@@8 100164d8     PlugInLib:PlugInShell.obj
 0003:00000500       ??_R0?AV?$Resource@VSettableSessionItem@@VFactoryObject@@@@@8 10016500     PlugInLib:PlugInShell.obj
 0003:00000540       ??_R0?AV?$FactoryResource@VSettableSessionItem@@@@@8 10016540     PlugInLib:PlugInShell.obj
 0003:00000584       ??_R0?AVWindow@@@8         10016584     PlugInUtilities:Service.obj
 0003:0000059c       ??_R0?AVSessionExplorer@@@8 1001659c     PlugInUtilities:Service.obj
 0003:000005c4       ??_R0?AVtype_info@@@8      100165c4     MSVCRT:ti_inst.obj
 0003:000005e0       ___native_dllmain_reason   100165e0     MSVCRT:natstart.obj
 0003:000005e4       ___native_vcclrit_reason   100165e4     MSVCRT:natstart.obj
 0003:000005e8       ___security_cookie         100165e8     MSVCRT:gs_cookie.obj
 0003:000005ec       ___security_cookie_complement 100165ec     MSVCRT:gs_cookie.obj
 0003:00000604       ?mspName@ModuleManager@@0PBDB 10016604     ModuleManager.obj
 0003:00000608       ?mspVersion@ModuleManager@@0PBDB 10016608     ModuleManager.obj
 0003:0000060c       ?mspDescription@ModuleManager@@0PBDB 1001660c     ModuleManager.obj
 0003:00000610       ?mspValidationKey@ModuleManager@@0PBDB 10016610     ModuleManager.obj
 0003:00000614       ?mspUniqueId@ModuleManager@@0PBDB 10016614     ModuleManager.obj
 0003:00000630       ?signalName@?1??signalDeleted@Subject@@SAABV?$basic_string@DU?$char_traits@D@std@@V?$allocator@D@2@@std@@XZ@4V34@A 10016630     PlugInLib:ViewerShell.obj
 0003:0000064c       ??_B?1??signalDeleted@Subject@@SAABV?$basic_string@DU?$char_traits@D@std@@V?$allocator@D@2@@std@@XZ@51 1001664c     PlugInLib:ViewerShell.obj
 0003:00000650       ?signalName@?1??signalSessionClosed@ApplicationServices@@SAABV?$basic_string@DU?$char_traits@D@std@@V?$allocator@D@2@@std@@XZ@4V34@A 10016650     PlugInLib:ViewerShell.obj
 0003:0000066c       ??_B?1??signalSessionClosed@ApplicationServices@@SAABV?$basic_string@DU?$char_traits@D@std@@V?$allocator@D@2@@std@@XZ@51 1001666c     PlugInLib:ViewerShell.obj
 0003:00000670       ?mspSingleton@ModuleManager@@0PAV1@A 10016670     PlugInLib:ModuleManagerCommon.obj
 0003:00000678       __forceCRTManifest         10016678     MSVCRT:crtmanifest.obj
 0003:0000067c       ?__type_info_root_node@@3U__type_info_node@@A 1001667c     MSVCRT:tncleanup.obj
 0003:000009ac       __adjust_fdiv              100169ac     <common>
 0003:000009b0       ___native_startup_state    100169b0     <common>
 0003:000009b4       ___native_startup_lock     100169b4     <common>
 0003:000009b8       ___dyn_tls_init_callback   100169b8     <common>
 0003:000009bc       ___onexitend               100169bc     <common>
 0003:000009c0       ___onexitbegin             100169c0     <common>

 entry point at        0001:0000d5d4

 Static symbols

 0001:fffff000       __unwindfunclet$??0logic_error@std@@QAE@ABV?$basic_string@DU?$char_traits@D@std@@V?$allocator@D@2@@1@@Z$0 10000000 f   PlugInLib:ExecutableShell.obj
 0001:fffff000       __unwindfunclet$??0logic_error@std@@QAE@ABV?$basic_string@DU?$char_traits@D@std@@V?$allocator@D@2@@1@@Z$0 10000000 f   ModuleManager.obj
 0001:fffff000       __unwindfunclet$?_Xlen@?$vector@V?$basic_string@DU?$char_traits@D@std@@V?$allocator@D@2@@std@@V?$allocator@V?$basic_string@DU?$char_traits@D@std@@V?$allocator@D@2@@std@@@2@@std@@KAXXZ$0 10000000 f   PlugInLib:ExecutableShell.obj
 0001:fffff000       __unwindfunclet$??0logic_error@std@@QAE@ABV01@@Z$0 10000000 f   PlugInLib:ExecutableShell.obj
 0001:fffff000       __unwindfunclet$??$_Construct@V?$basic_string@DU?$char_traits@D@std@@V?$allocator@D@2@@std@@V12@@std@@YAXPAV?$basic_string@DU?$char_traits@D@std@@V?$allocator@D@2@@0@ABV10@@Z$0 10000000 f   PlugInLib:ExecutableShell.obj
 0001:fffff000       __unwindfunclet$?construct@?$allocator@V?$basic_string@DU?$char_traits@D@std@@V?$allocator@D@2@@std@@@std@@QAEXPAV?$basic_string@DU?$char_traits@D@std@@V?$allocator@D@2@@2@ABV32@@Z$0 10000000 f   PlugInLib:ExecutableShell.obj
 0001:fffff000       __unwindfunclet$??0logic_error@std@@QAE@ABV01@@Z$0 10000000 f   ModuleManager.obj
 0001:fffff000       __unwindfunclet$??$_Uninit_move@PAV?$basic_string@DU?$char_traits@D@std@@V?$allocator@D@2@@std@@PAV12@V?$allocator@V?$basic_string@DU?$char_traits@D@std@@V?$allocator@D@2@@std@@@2@@std@@YAPAV?$basic_string@DU?$char_traits@D@std@@V?$allocator@D@2@@0@PAV10@00AAV?$allocator@V?$basic_string@DU?$char_traits@D@std@@V?$allocator@D@2@@std@@@0@U_Swap_move_tag@0@U_Range_checked_iterator_tag@0@@Z$2 10000000 f   PlugInLib:ExecutableShell.obj
 0001:fffff000       __unwindfunclet$??0logic_error@std@@QAE@ABV01@@Z$0 10000000 f   PlugInUtilities:Service.obj
 0001:fffff000       __unwindfunclet$??$_Uninit_fill_n@PAV?$basic_string@DU?$char_traits@D@std@@V?$allocator@D@2@@std@@IV12@V?$allocator@V?$basic_string@DU?$char_traits@D@std@@V?$allocator@D@2@@std@@@2@@std@@YAXPAV?$basic_string@DU?$char_traits@D@std@@V?$allocator@D@2@@0@IABV10@AAV?$allocator@V?$basic_string@DU?$char_traits@D@std@@V?$allocator@D@2@@std@@@0@U_Nonscalar_ptr_iterator_tag@0@U_Range_checked_iterator_tag@0@@Z$2 10000000 f   PlugInLib:ExecutableShell.obj
 0001:fffff000       __unwindfunclet$??0logic_error@std@@QAE@ABV?$basic_string@DU?$char_traits@D@std@@V?$allocator@D@2@@1@@Z$0 10000000 f   PlugInUtilities:Service.obj
 0001:fffff000       __unwindfunclet$?_Insert_n@?$vector@V?$basic_string@DU?$char_traits@D@std@@V?$allocator@D@2@@std@@V?$allocator@V?$basic_string@DU?$char_traits@D@std@@V?$allocator@D@2@@std@@@2@@std@@IAEXV?$_Vector_iterator@V?$basic_string@DU?$char_traits@D@std@@V?$allocator@D@2@@std@@V?$allocator@V?$basic_string@DU?$char_traits@D@std@@V?$allocator@D@2@@std@@@2@@2@IABV?$basic_string@DU?$char_traits@D@std@@V?$allocator@D@2@@2@@Z$4 10000000 f   PlugInLib:ExecutableShell.obj
 0001:fffff000       __unwindfunclet$??0logic_error@std@@QAE@ABV?$basic_string@DU?$char_traits@D@std@@V?$allocator@D@2@@1@@Z$0 10000000 f   PlugInLib:PlugInShell.obj
 0001:fffff000       __unwindfunclet$??$?6U?$char_traits@D@std@@@std@@YAAAV?$basic_ostream@DU?$char_traits@D@std@@@0@AAV10@PBD@Z$2 10000000 f   PlugInUtilities:AppVerify.obj
 0001:fffff000       __unwindfunclet$?obtainResource@FactoryObject@@QBEPAXABVArgs@FactoryAllocator@@@Z$0 10000000 f   PlugInLib:PlugInShell.obj
 0001:fffff000       __unwindfunclet$?releaseResource@FactoryObject@@QBEXABVArgs@FactoryAllocator@@PAX@Z$0 10000000 f   PlugInLib:PlugInShell.obj
 0001:fffff000       __unwindfunclet$??0logic_error@std@@QAE@ABV01@@Z$0 10000000 f   PlugInLib:PlugInShell.obj
 0001:fffff000       __unwindfunclet$??1sentry@?$basic_ostream@DU?$char_traits@D@std@@@std@@QAE@XZ$0 10000000 f   PlugInUtilities:AppVerify.obj
 0001:fffff000       __unwindfunclet$??0logic_error@std@@QAE@ABV?$basic_string@DU?$char_traits@D@std@@V?$allocator@D@2@@1@@Z$0 10000000 f   PlugInLib:ViewerShell.obj
 0001:fffff000       __unwindfunclet$??0logic_error@std@@QAE@ABV01@@Z$0 10000000 f   PlugInLib:ViewerShell.obj
 0001:fffff000       __unwindfunclet$??0sentry@?$basic_ostream@DU?$char_traits@D@std@@@std@@QAE@AAV12@@Z$0 10000000 f   PlugInUtilities:AppVerify.obj
 0001:fffff008       __unwindfunclet$??$?6U?$char_traits@D@std@@@std@@YAAAV?$basic_ostream@DU?$char_traits@D@std@@@0@AAV10@PBD@Z$3 10000008 f   PlugInUtilities:AppVerify.obj
 0001:fffff008       __ehhandler$??0sentry@?$basic_ostream@DU?$char_traits@D@std@@@std@@QAE@AAV12@@Z 10000008 f   PlugInUtilities:AppVerify.obj
 0001:fffff008       __ehhandler$??1sentry@?$basic_ostream@DU?$char_traits@D@std@@@std@@QAE@XZ 10000008 f   PlugInUtilities:AppVerify.obj
 0001:fffff009       __unwindfunclet$?_Xlen@?$vector@V?$basic_string@DU?$char_traits@D@std@@V?$allocator@D@2@@std@@V?$allocator@V?$basic_string@DU?$char_traits@D@std@@V?$allocator@D@2@@std@@@2@@std@@KAXXZ$2 10000009 f   PlugInLib:ExecutableShell.obj
 0001:fffff009       __ehhandler$??0logic_error@std@@QAE@ABV01@@Z 10000009 f   PlugInLib:ViewerShell.obj
 0001:fffff009       __ehhandler$??0logic_error@std@@QAE@ABV?$basic_string@DU?$char_traits@D@std@@V?$allocator@D@2@@1@@Z 10000009 f   PlugInLib:ExecutableShell.obj
 0001:fffff009       __ehhandler$??0logic_error@std@@QAE@ABV?$basic_string@DU?$char_traits@D@std@@V?$allocator@D@2@@1@@Z 10000009 f   PlugInLib:ViewerShell.obj
 0001:fffff009       __unwindfunclet$??$_Uninit_move@PAV?$basic_string@DU?$char_traits@D@std@@V?$allocator@D@2@@std@@PAV12@V?$allocator@V?$basic_string@DU?$char_traits@D@std@@V?$allocator@D@2@@std@@@2@@std@@YAPAV?$basic_string@DU?$char_traits@D@std@@V?$allocator@D@2@@0@PAV10@00AAV?$allocator@V?$basic_string@DU?$char_traits@D@std@@V?$allocator@D@2@@std@@@0@U_Swap_move_tag@0@U_Range_checked_iterator_tag@0@@Z$3 10000009 f   PlugInLib:ExecutableShell.obj
 0001:fffff009       __ehhandler$??0logic_error@std@@QAE@ABV01@@Z 10000009 f   PlugInLib:ExecutableShell.obj
 0001:fffff009       __ehhandler$?_Insert_n@?$vector@V?$basic_string@DU?$char_traits@D@std@@V?$allocator@D@2@@std@@V?$allocator@V?$basic_string@DU?$char_traits@D@std@@V?$allocator@D@2@@std@@@2@@std@@IAEXV?$_Vector_iterator@V?$basic_string@DU?$char_traits@D@std@@V?$allocator@D@2@@std@@V?$allocator@V?$basic_string@DU?$char_traits@D@std@@V?$allocator@D@2@@std@@@2@@2@IABV?$basic_string@DU?$char_traits@D@std@@V?$allocator@D@2@@2@@Z 10000009 f   PlugInLib:ExecutableShell.obj
 0001:fffff009       __ehhandler$??0logic_error@std@@QAE@ABV01@@Z 10000009 f   PlugInLib:PlugInShell.obj
 0001:fffff009       __ehhandler$??0logic_error@std@@QAE@ABV01@@Z 10000009 f   PlugInUtilities:Service.obj
 0001:fffff009       __ehhandler$??0logic_error@std@@QAE@ABV?$basic_string@DU?$char_traits@D@std@@V?$allocator@D@2@@1@@Z 10000009 f   PlugInLib:PlugInShell.obj
 0001:fffff009       __ehhandler$?releaseResource@FactoryObject@@QBEXABVArgs@FactoryAllocator@@PAX@Z 10000009 f   PlugInLib:PlugInShell.obj
 0001:fffff009       __ehhandler$??0logic_error@std@@QAE@ABV?$basic_string@DU?$char_traits@D@std@@V?$allocator@D@2@@1@@Z 10000009 f   ModuleManager.obj
 0001:fffff009       __ehhandler$?obtainResource@FactoryObject@@QBEPAXABVArgs@FactoryAllocator@@@Z 10000009 f   PlugInLib:PlugInShell.obj
 0001:fffff009       __ehhandler$??0logic_error@std@@QAE@ABV?$basic_string@DU?$char_traits@D@std@@V?$allocator@D@2@@1@@Z 10000009 f   PlugInUtilities:Service.obj
 0001:fffff009       __ehhandler$??0logic_error@std@@QAE@ABV01@@Z 10000009 f   ModuleManager.obj
 0001:fffff010       __ehhandler$??$?6U?$char_traits@D@std@@@std@@YAAAV?$basic_ostream@DU?$char_traits@D@std@@@0@AAV10@PBD@Z 10000010 f   PlugInUtilities:AppVerify.obj
 0001:fffff011       __ehhandler$??$_Construct@V?$basic_string@DU?$char_traits@D@std@@V?$allocator@D@2@@std@@V12@@std@@YAXPAV?$basic_string@DU?$char_traits@D@std@@V?$allocator@D@2@@0@ABV10@@Z 10000011 f   PlugInLib:ExecutableShell.obj
 0001:fffff011       __ehhandler$??$_Uninit_fill_n@PAV?$basic_string@DU?$char_traits@D@std@@V?$allocator@D@2@@std@@IV12@V?$allocator@V?$basic_string@DU?$char_traits@D@std@@V?$allocator@D@2@@std@@@2@@std@@YAXPAV?$basic_string@DU?$char_traits@D@std@@V?$allocator@D@2@@0@IABV10@AAV?$allocator@V?$basic_string@DU?$char_traits@D@std@@V?$allocator@D@2@@std@@@0@U_Nonscalar_ptr_iterator_tag@0@U_Range_checked_iterator_tag@0@@Z 10000011 f   PlugInLib:ExecutableShell.obj
 0001:fffff011       __ehhandler$?construct@?$allocator@V?$basic_string@DU?$char_traits@D@std@@V?$allocator@D@2@@std@@@std@@QAEXPAV?$basic_string@DU?$char_traits@D@std@@V?$allocator@D@2@@2@ABV32@@Z 10000011 f   PlugInLib:ExecutableShell.obj
 0001:fffff012       __ehhandler$?_Xlen@?$vector@V?$basic_string@DU?$char_traits@D@std@@V?$allocator@D@2@@std@@V?$allocator@V?$basic_string@DU?$char_traits@D@std@@V?$allocator@D@2@@std@@@2@@std@@KAXXZ 10000012 f   PlugInLib:ExecutableShell.obj
 0001:fffff01a       __ehhandler$??$_Uninit_move@PAV?$basic_string@DU?$char_traits@D@std@@V?$allocator@D@2@@std@@PAV12@V?$allocator@V?$basic_string@DU?$char_traits@D@std@@V?$allocator@D@2@@std@@@2@@std@@YAPAV?$basic_string@DU?$char_traits@D@std@@V?$allocator@D@2@@0@PAV10@00AAV?$allocator@V?$basic_string@DU?$char_traits@D@std@@V?$allocator@D@2@@std@@@0@U_Swap_move_tag@0@U_Range_checked_iterator_tag@0@@Z 1000001a f   PlugInLib:ExecutableShell.obj
 0001:fffff05c       __catch$??$_Uninit_fill_n@PAV?$basic_string@DU?$char_traits@D@std@@V?$allocator@D@2@@std@@IV12@V?$allocator@V?$basic_string@DU?$char_traits@D@std@@V?$allocator@D@2@@std@@@2@@std@@YAXPAV?$basic_string@DU?$char_traits@D@std@@V?$allocator@D@2@@0@IABV10@AAV?$allocator@V?$basic_string@DU?$char_traits@D@std@@V?$allocator@D@2@@std@@@0@U_Nonscalar_ptr_iterator_tag@0@U_Range_checked_iterator_tag@0@@Z$0 1000005c f   PlugInLib:ExecutableShell.obj
 0001:fffff076       __catch$??$_Uninit_move@PAV?$basic_string@DU?$char_traits@D@std@@V?$allocator@D@2@@std@@PAV12@V?$allocator@V?$basic_string@DU?$char_traits@D@std@@V?$allocator@D@2@@std@@@2@@std@@YAPAV?$basic_string@DU?$char_traits@D@std@@V?$allocator@D@2@@0@PAV10@00AAV?$allocator@V?$basic_string@DU?$char_traits@D@std@@V?$allocator@D@2@@std@@@0@U_Swap_move_tag@0@U_Range_checked_iterator_tag@0@@Z$0 10000076 f   PlugInLib:ExecutableShell.obj
 0001:fffff195       __catch$??$?6U?$char_traits@D@std@@@std@@YAAAV?$basic_ostream@DU?$char_traits@D@std@@@0@AAV10@PBD@Z$0 10000195 f   PlugInUtilities:AppVerify.obj
 0001:fffff1d0       __catch$?_Insert_n@?$vector@V?$basic_string@DU?$char_traits@D@std@@V?$allocator@D@2@@std@@V?$allocator@V?$basic_string@DU?$char_traits@D@std@@V?$allocator@D@2@@std@@@2@@std@@IAEXV?$_Vector_iterator@V?$basic_string@DU?$char_traits@D@std@@V?$allocator@D@2@@std@@V?$allocator@V?$basic_string@DU?$char_traits@D@std@@V?$allocator@D@2@@std@@@2@@2@IABV?$basic_string@DU?$char_traits@D@std@@V?$allocator@D@2@@2@@Z$0 100001d0 f   PlugInLib:ExecutableShell.obj
 0001:fffff28a       __catch$?_Insert_n@?$vector@V?$basic_string@DU?$char_traits@D@std@@V?$allocator@D@2@@std@@V?$allocator@V?$basic_string@DU?$char_traits@D@std@@V?$allocator@D@2@@std@@@2@@std@@IAEXV?$_Vector_iterator@V?$basic_string@DU?$char_traits@D@std@@V?$allocator@D@2@@std@@V?$allocator@V?$basic_string@DU?$char_traits@D@std@@V?$allocator@D@2@@std@@@2@@2@IABV?$basic_string@DU?$char_traits@D@std@@V?$allocator@D@2@@2@@Z$2 1000028a f   PlugInLib:ExecutableShell.obj
 0001:00001695       __catch$??$?6U?$char_traits@D@std@@@std@@YAAAV?$basic_ostream@DU?$char_traits@D@std@@@0@AAV10@PBD@Z$0 10002695 f i DataMerge.obj
 0001:00001818       __catch$??$?6U?$char_traits@D@std@@@std@@YAAAV?$basic_ostream@DU?$char_traits@D@std@@@0@AAV10@D@Z$0 10002818 f i DataMerge.obj
 0001:000024c6       __catch$??$_Uninit_move@PAV?$basic_string@DU?$char_traits@D@std@@V?$allocator@D@2@@std@@PAV12@V?$allocator@V?$basic_string@DU?$char_traits@D@std@@V?$allocator@D@2@@std@@@2@@std@@YAPAV?$basic_string@DU?$char_traits@D@std@@V?$allocator@D@2@@0@PAV10@00AAV?$allocator@V?$basic_string@DU?$char_traits@D@std@@V?$allocator@D@2@@std@@@0@U_Swap_move_tag@0@U_Range_checked_iterator_tag@0@@Z$0 100034c6 f i DataMerge.obj
 0001:00002b6c       __catch$??$_Uninit_fill_n@PAV?$basic_string@DU?$char_traits@D@std@@V?$allocator@D@2@@std@@IV12@V?$allocator@V?$basic_string@DU?$char_traits@D@std@@V?$allocator@D@2@@std@@@2@@std@@YAXPAV?$basic_string@DU?$char_traits@D@std@@V?$allocator@D@2@@0@IABV10@AAV?$allocator@V?$basic_string@DU?$char_traits@D@std@@V?$allocator@D@2@@std@@@0@U_Nonscalar_ptr_iterator_tag@0@U_Range_checked_iterator_tag@0@@Z$0 10003b6c f i DataMerge.obj
 0001:00003550       __catch$?_Insert_n@?$vector@V?$basic_string@DU?$char_traits@D@std@@V?$allocator@D@2@@std@@V?$allocator@V?$basic_string@DU?$char_traits@D@std@@V?$allocator@D@2@@std@@@2@@std@@IAEXV?$_Vector_iterator@V?$basic_string@DU?$char_traits@D@std@@V?$allocator@D@2@@std@@V?$allocator@V?$basic_string@DU?$char_traits@D@std@@V?$allocator@D@2@@std@@@2@@2@IABV?$basic_string@DU?$char_traits@D@std@@V?$allocator@D@2@@2@@Z$0 10004550 f i DataMerge.obj
 0001:0000360a       __catch$?_Insert_n@?$vector@V?$basic_string@DU?$char_traits@D@std@@V?$allocator@D@2@@std@@V?$allocator@V?$basic_string@DU?$char_traits@D@std@@V?$allocator@D@2@@std@@@2@@std@@IAEXV?$_Vector_iterator@V?$basic_string@DU?$char_traits@D@std@@V?$allocator@D@2@@std@@V?$allocator@V?$basic_string@DU?$char_traits@D@std@@V?$allocator@D@2@@std@@@2@@2@IABV?$basic_string@DU?$char_traits@D@std@@V?$allocator@D@2@@2@@Z$2 1000460a f i DataMerge.obj
 0001:00003a0a       __catch$??$_Uninit_copy@PBV?$basic_string@DU?$char_traits@D@std@@V?$allocator@D@2@@std@@PAV12@V?$allocator@V?$basic_string@DU?$char_traits@D@std@@V?$allocator@D@2@@std@@@2@@std@@YAPAV?$basic_string@DU?$char_traits@D@std@@V?$allocator@D@2@@0@PBV10@0PAV10@AAV?$allocator@V?$basic_string@DU?$char_traits@D@std@@V?$allocator@D@2@@std@@@0@U_Nonscalar_ptr_iterator_tag@0@U_Range_checked_iterator_tag@0@@Z$0 10004a0a f i DataMerge.obj
 0001:00003b50       __catch$??0?$vector@V?$basic_string@DU?$char_traits@D@std@@V?$allocator@D@2@@std@@V?$allocator@V?$basic_string@DU?$char_traits@D@std@@V?$allocator@D@2@@std@@@2@@std@@QAE@ABV01@@Z$0 10004b50 f i DataMerge.obj
 0001:00004800       __catch$??$_Uninit_copy@PAU?$pair@V?$basic_string@DU?$char_traits@D@std@@V?$allocator@D@2@@std@@PAVPlugInFactory@@@std@@PAU12@V?$allocator@U?$pair@V?$basic_string@DU?$char_traits@D@std@@V?$allocator@D@2@@std@@PAVPlugInFactory@@@std@@@2@@std@@YAPAU?$pair@V?$basic_string@DU?$char_traits@D@std@@V?$allocator@D@2@@std@@PAVPlugInFactory@@@0@PAU10@00AAV?$allocator@U?$pair@V?$basic_string@DU?$char_traits@D@std@@V?$allocator@D@2@@std@@PAVPlugInFactory@@@std@@@0@U_Nonscalar_ptr_iterator_tag@0@U_Range_checked_iterator_tag@0@@Z$0 10005800 f i ModuleManager.obj
 0001:00004995       __catch$??$_Uninit_fill_n@PAU?$pair@V?$basic_string@DU?$char_traits@D@std@@V?$allocator@D@2@@std@@PAVPlugInFactory@@@std@@IU12@V?$allocator@U?$pair@V?$basic_string@DU?$char_traits@D@std@@V?$allocator@D@2@@std@@PAVPlugInFactory@@@std@@@2@@std@@YAXPAU?$pair@V?$basic_string@DU?$char_traits@D@std@@V?$allocator@D@2@@std@@PAVPlugInFactory@@@0@IABU10@AAV?$allocator@U?$pair@V?$basic_string@DU?$char_traits@D@std@@V?$allocator@D@2@@std@@PAVPlugInFactory@@@std@@@0@U_Nonscalar_ptr_iterator_tag@0@U_Range_checked_iterator_tag@0@@Z$0 10005995 f i ModuleManager.obj
 0001:00005a63       __catch$?_Insert_n@?$vector@U?$pair@V?$basic_string@DU?$char_traits@D@std@@V?$allocator@D@2@@std@@PAVPlugInFactory@@@std@@V?$allocator@U?$pair@V?$basic_string@DU?$char_traits@D@std@@V?$allocator@D@2@@std@@PAVPlugInFactory@@@std@@@2@@std@@IAEXV?$_Vector_iterator@U?$pair@V?$basic_string@DU?$char_traits@D@std@@V?$allocator@D@2@@std@@PAVPlugInFactory@@@std@@V?$allocator@U?$pair@V?$basic_string@DU?$char_traits@D@std@@V?$allocator@D@2@@std@@PAVPlugInFactory@@@std@@@2@@2@IABU?$pair@V?$basic_string@DU?$char_traits@D@std@@V?$allocator@D@2@@std@@PAVPlugInFactory@@@2@@Z$0 10006a63 f i ModuleManager.obj
 0001:00005aec       __catch$?_Insert_n@?$vector@U?$pair@V?$basic_string@DU?$char_traits@D@std@@V?$allocator@D@2@@std@@PAVPlugInFactory@@@std@@V?$allocator@U?$pair@V?$basic_string@DU?$char_traits@D@std@@V?$allocator@D@2@@std@@PAVPlugInFactory@@@std@@@2@@std@@IAEXV?$_Vector_iterator@U?$pair@V?$basic_string@DU?$char_traits@D@std@@V?$allocator@D@2@@std@@PAVPlugInFactory@@@std@@V?$allocator@U?$pair@V?$basic_string@DU?$char_traits@D@std@@V?$allocator@D@2@@std@@PAVPlugInFactory@@@std@@@2@@2@IABU?$pair@V?$basic_string@DU?$char_traits@D@std@@V?$allocator@D@2@@std@@PAVPlugInFactory@@@2@@Z$2 10006aec f i ModuleManager.obj
 0001:00007502       __catch$??$_Uninit_copy@PAU?$pair@V?$basic_string@DU?$char_traits@D@std@@V?$allocator@D@2@@std@@VSlot@@@std@@PAU12@V?$allocator@U?$pair@V?$basic_string@DU?$char_traits@D@std@@V?$allocator@D@2@@std@@VSlot@@@std@@@2@@std@@YAPAU?$pair@V?$basic_string@DU?$char_traits@D@std@@V?$allocator@D@2@@std@@VSlot@@@0@PAU10@00AAV?$allocator@U?$pair@V?$basic_string@DU?$char_traits@D@std@@V?$allocator@D@2@@std@@VSlot@@@std@@@0@U_Nonscalar_ptr_iterator_tag@0@U_Range_checked_iterator_tag@0@@Z$0 10008502 f i PlugInLib:ViewerShell.obj
 0001:000076d7       __catch$??$_Uninit_fill_n@PAU?$pair@V?$basic_string@DU?$char_traits@D@std@@V?$allocator@D@2@@std@@VSlot@@@std@@IU12@V?$allocator@U?$pair@V?$basic_string@DU?$char_traits@D@std@@V?$allocator@D@2@@std@@VSlot@@@std@@@2@@std@@YAXPAU?$pair@V?$basic_string@DU?$char_traits@D@std@@V?$allocator@D@2@@std@@VSlot@@@0@IABU10@AAV?$allocator@U?$pair@V?$basic_string@DU?$char_traits@D@std@@V?$allocator@D@2@@std@@VSlot@@@std@@@0@U_Nonscalar_ptr_iterator_tag@0@U_Range_checked_iterator_tag@0@@Z$0 100086d7 f i PlugInLib:ViewerShell.obj
 0001:00007c6f       __catch$?_Insert_n@?$vector@U?$pair@V?$basic_string@DU?$char_traits@D@std@@V?$allocator@D@2@@std@@VSlot@@@std@@V?$allocator@U?$pair@V?$basic_string@DU?$char_traits@D@std@@V?$allocator@D@2@@std@@VSlot@@@std@@@2@@std@@IAEXV?$_Vector_iterator@U?$pair@V?$basic_string@DU?$char_traits@D@std@@V?$allocator@D@2@@std@@VSlot@@@std@@V?$allocator@U?$pair@V?$basic_string@DU?$char_traits@D@std@@V?$allocator@D@2@@std@@VSlot@@@std@@@2@@2@IABU?$pair@V?$basic_string@DU?$char_traits@D@std@@V?$allocator@D@2@@std@@VSlot@@@2@@Z$0 10008c6f f i PlugInLib:ViewerShell.obj
 0001:00007cf8       __catch$?_Insert_n@?$vector@U?$pair@V?$basic_string@DU?$char_traits@D@std@@V?$allocator@D@2@@std@@VSlot@@@std@@V?$allocator@U?$pair@V?$basic_string@DU?$char_traits@D@std@@V?$allocator@D@2@@std@@VSlot@@@std@@@2@@std@@IAEXV?$_Vector_iterator@U?$pair@V?$basic_string@DU?$char_traits@D@std@@V?$allocator@D@2@@std@@VSlot@@@std@@V?$allocator@U?$pair@V?$basic_string@DU?$char_traits@D@std@@V?$allocator@D@2@@std@@VSlot@@@std@@@2@@2@IABU?$pair@V?$basic_string@DU?$char_traits@D@std@@V?$allocator@D@2@@std@@VSlot@@@2@@Z$2 10008cf8 f i PlugInLib:ViewerShell.obj
 0001:0000975e       __catch$?_Buynode@?$_Tree@V?$_Tmap_traits@V?$basic_string@DU?$char_traits@D@std@@V?$allocator@D@2@@std@@V12@U?$less@V?$basic_string@DU?$char_traits@D@std@@V?$allocator@D@2@@std@@@2@V?$allocator@U?$pair@$$CBV?$basic_string@DU?$char_traits@D@std@@V?$allocator@D@2@@std@@V12@@std@@@2@$0A@@std@@@std@@IAEPAU_Node@?$_Tree_nod@V?$_Tmap_traits@V?$basic_string@DU?$char_traits@D@std@@V?$allocator@D@2@@std@@V12@U?$less@V?$basic_string@DU?$char_traits@D@std@@V?$allocator@D@2@@std@@@2@V?$allocator@U?$pair@$$CBV?$basic_string@DU?$char_traits@D@std@@V?$allocator@D@2@@std@@V12@@std@@@2@$0A@@std@@@2@PAU342@00ABU?$pair@$$CBV?$basic_string@DU?$char_traits@D@std@@V?$allocator@D@2@@std@@V12@@2@D@Z$0 1000a75e f i PlugInLib:PlugInShell.obj
 0001:0000a0f2       __catch$?_Copy@?$_Tree@V?$_Tmap_traits@V?$basic_string@DU?$char_traits@D@std@@V?$allocator@D@2@@std@@V12@U?$less@V?$basic_string@DU?$char_traits@D@std@@V?$allocator@D@2@@std@@@2@V?$allocator@U?$pair@$$CBV?$basic_string@DU?$char_traits@D@std@@V?$allocator@D@2@@std@@V12@@std@@@2@$0A@@std@@@std@@IAEPAU_Node@?$_Tree_nod@V?$_Tmap_traits@V?$basic_string@DU?$char_traits@D@std@@V?$allocator@D@2@@std@@V12@U?$less@V?$basic_string@DU?$char_traits@D@std@@V?$allocator@D@2@@std@@@2@V?$allocator@U?$pair@$$CBV?$basic_string@DU?$char_traits@D@std@@V?$allocator@D@2@@std@@V12@@std@@@2@$0A@@std@@@2@PAU342@0@Z$0 1000b0f2 f i PlugInLib:PlugInShell.obj
 0001:0000a761       __catch$??0?$_Tree@V?$_Tmap_traits@V?$basic_string@DU?$char_traits@D@std@@V?$allocator@D@2@@std@@V12@U?$less@V?$basic_string@DU?$char_traits@D@std@@V?$allocator@D@2@@std@@@2@V?$allocator@U?$pair@$$CBV?$basic_string@DU?$char_traits@D@std@@V?$allocator@D@2@@std@@V12@@std@@@2@$0A@@std@@@std@@QAE@ABV01@@Z$0 1000b761 f i PlugInLib:PlugInShell.obj
 0001:0000d2ae       _pre_c_init                1000e2ae f   MSVCRT:crtdll.obj
 0001:0000d4be       ___DllMainCRTStartup       1000e4be f   MSVCRT:crtdll.obj
 0001:0000d602       ?ArrayUnwindFilter@@YAHPAU_EXCEPTION_POINTERS@@@Z 1000e602 f   MSVCRT:ehvecdtr.obj
 0001:0000db80       __unwindfunclet$??0logic_error@std@@QAE@ABV?$basic_string@DU?$char_traits@D@std@@V?$allocator@D@2@@1@@Z$0 1000eb80 f   DataMerge.obj
 0001:0000db89       __ehhandler$??0logic_error@std@@QAE@ABV?$basic_string@DU?$char_traits@D@std@@V?$allocator@D@2@@1@@Z 1000eb89 f   DataMerge.obj
 0001:0000dba0       __unwindfunclet$?updateIfNeeded@DataAccessorImpl@@AAEXXZ$0 1000eba0 f   DataMerge.obj
 0001:0000dba9       __ehhandler$?updateIfNeeded@DataAccessorImpl@@AAEXXZ 1000eba9 f   DataMerge.obj
 0001:0000dbc0       __unwindfunclet$??0logic_error@std@@QAE@ABV01@@Z$0 1000ebc0 f   DataMerge.obj
 0001:0000dbc9       __ehhandler$??0logic_error@std@@QAE@ABV01@@Z 1000ebc9 f   DataMerge.obj
 0001:0000dbe0       __unwindfunclet$??1Args@MessageObject@@QAE@XZ$0 1000ebe0 f   DataMerge.obj
 0001:0000dbe9       __unwindfunclet$??1Args@MessageObject@@QAE@XZ$1 1000ebe9 f   DataMerge.obj
 0001:0000dbf5       __unwindfunclet$??1Args@MessageObject@@QAE@XZ$2 1000ebf5 f   DataMerge.obj
 0001:0000dc01       __unwindfunclet$??1Args@MessageObject@@QAE@XZ$3 1000ec01 f   DataMerge.obj
 0001:0000dc0d       __ehhandler$??1Args@MessageObject@@QAE@XZ 1000ec0d f   DataMerge.obj
 0001:0000dc20       __unwindfunclet$??0DataMerge@@QAE@XZ$0 1000ec20 f   DataMerge.obj
 0001:0000dc29       __unwindfunclet$??0DataMerge@@QAE@XZ$1 1000ec29 f   DataMerge.obj
 0001:0000dc34       __unwindfunclet$??0DataMerge@@QAE@XZ$2 1000ec34 f   DataMerge.obj
 0001:0000dc3d       __unwindfunclet$??0DataMerge@@QAE@XZ$3 1000ec3d f   DataMerge.obj
 0001:0000dc46       __unwindfunclet$??0DataMerge@@QAE@XZ$4 1000ec46 f   DataMerge.obj
 0001:0000dc4f       __unwindfunclet$??0DataMerge@@QAE@XZ$5 1000ec4f f   DataMerge.obj
 0001:0000dc58       __unwindfunclet$??0DataMerge@@QAE@XZ$6 1000ec58 f   DataMerge.obj
 0001:0000dc61       __unwindfunclet$??0DataMerge@@QAE@XZ$7 1000ec61 f   DataMerge.obj
 0001:0000dc6a       __unwindfunclet$??0DataMerge@@QAE@XZ$8 1000ec6a f   DataMerge.obj
 0001:0000dc73       __ehhandler$??0DataMerge@@QAE@XZ 1000ec73 f   DataMerge.obj
 0001:0000dc80       __unwindfunclet$??1DataMerge@@UAE@XZ$0 1000ec80 f   DataMerge.obj
 0001:0000dc89       __ehhandler$??1DataMerge@@UAE@XZ 1000ec89 f   DataMerge.obj
 0001:0000dca0       __unwindfunclet$??0Args@MessageObject@@QAE@ABU01@@Z$0 1000eca0 f   DataMerge.obj
 0001:0000dca9       __unwindfunclet$??0Args@MessageObject@@QAE@ABU01@@Z$1 1000eca9 f   DataMerge.obj
 0001:0000dcb5       __unwindfunclet$??0Args@MessageObject@@QAE@ABU01@@Z$2 1000ecb5 f   DataMerge.obj
 0001:0000dcc1       __unwindfunclet$??0Args@MessageObject@@QAE@ABU01@@Z$3 1000ecc1 f   DataMerge.obj
 0001:0000dccd       __ehhandler$??0Args@MessageObject@@QAE@ABU01@@Z 1000eccd f   DataMerge.obj
 0001:0000dce0       __unwindfunclet$?_Xlen@?$vector@V?$basic_string@DU?$char_traits@D@std@@V?$allocator@D@2@@std@@V?$allocator@V?$basic_string@DU?$char_traits@D@std@@V?$allocator@D@2@@std@@@2@@std@@KAXXZ$0 1000ece0 f   DataMerge.obj
 0001:0000dce9       __unwindfunclet$?_Xlen@?$vector@V?$basic_string@DU?$char_traits@D@std@@V?$allocator@D@2@@std@@V?$allocator@V?$basic_string@DU?$char_traits@D@std@@V?$allocator@D@2@@std@@@2@@std@@KAXXZ$2 1000ece9 f   DataMerge.obj
 0001:0000dcf2       __ehhandler$?_Xlen@?$vector@V?$basic_string@DU?$char_traits@D@std@@V?$allocator@D@2@@std@@V?$allocator@V?$basic_string@DU?$char_traits@D@std@@V?$allocator@D@2@@std@@@2@@std@@KAXXZ 1000ecf2 f   DataMerge.obj
 0001:0000dd00       __unwindfunclet$??$_Construct@V?$basic_string@DU?$char_traits@D@std@@V?$allocator@D@2@@std@@V12@@std@@YAXPAV?$basic_string@DU?$char_traits@D@std@@V?$allocator@D@2@@0@ABV10@@Z$0 1000ed00 f   DataMerge.obj
 0001:0000dd11       __ehhandler$??$_Construct@V?$basic_string@DU?$char_traits@D@std@@V?$allocator@D@2@@std@@V12@@std@@YAXPAV?$basic_string@DU?$char_traits@D@std@@V?$allocator@D@2@@0@ABV10@@Z 1000ed11 f   DataMerge.obj
 0001:0000dd20       __unwindfunclet$?obtainResource@FactoryObject@@QBEPAXABVArgs@FactoryAllocator@@@Z$0 1000ed20 f   DataMerge.obj
 0001:0000dd29       __ehhandler$?obtainResource@FactoryObject@@QBEPAXABVArgs@FactoryAllocator@@@Z 1000ed29 f   DataMerge.obj
 0001:0000dd40       __unwindfunclet$?releaseResource@FactoryObject@@QBEXABVArgs@FactoryAllocator@@PAX@Z$0 1000ed40 f   DataMerge.obj
 0001:0000dd49       __ehhandler$?releaseResource@FactoryObject@@QBEXABVArgs@FactoryAllocator@@PAX@Z 1000ed49 f   DataMerge.obj
 0001:0000dd60       __unwindfunclet$??0Args@MessageObject@@QAE@V?$basic_string@DU?$char_traits@D@std@@V?$allocator@D@2@@std@@0000_N@Z$0 1000ed60 f   DataMerge.obj
 0001:0000dd69       __unwindfunclet$??0Args@MessageObject@@QAE@V?$basic_string@DU?$char_traits@D@std@@V?$allocator@D@2@@std@@0000_N@Z$1 1000ed69 f   DataMerge.obj
 0001:0000dd72       __unwindfunclet$??0Args@MessageObject@@QAE@V?$basic_string@DU?$char_traits@D@std@@V?$allocator@D@2@@std@@0000_N@Z$2 1000ed72 f   DataMerge.obj
 0001:0000dd7b       __unwindfunclet$??0Args@MessageObject@@QAE@V?$basic_string@DU?$char_traits@D@std@@V?$allocator@D@2@@std@@0000_N@Z$3 1000ed7b f   DataMerge.obj
 0001:0000dd84       __unwindfunclet$??0Args@MessageObject@@QAE@V?$basic_string@DU?$char_traits@D@std@@V?$allocator@D@2@@std@@0000_N@Z$4 1000ed84 f   DataMerge.obj
 0001:0000dd8d       __unwindfunclet$??0Args@MessageObject@@QAE@V?$basic_string@DU?$char_traits@D@std@@V?$allocator@D@2@@std@@0000_N@Z$5 1000ed8d f   DataMerge.obj
 0001:0000dd96       __unwindfunclet$??0Args@MessageObject@@QAE@V?$basic_string@DU?$char_traits@D@std@@V?$allocator@D@2@@std@@0000_N@Z$6 1000ed96 f   DataMerge.obj
 0001:0000dda2       __unwindfunclet$??0Args@MessageObject@@QAE@V?$basic_string@DU?$char_traits@D@std@@V?$allocator@D@2@@std@@0000_N@Z$7 1000eda2 f   DataMerge.obj
 0001:0000ddae       __unwindfunclet$??0Args@MessageObject@@QAE@V?$basic_string@DU?$char_traits@D@std@@V?$allocator@D@2@@std@@0000_N@Z$8 1000edae f   DataMerge.obj
 0001:0000ddba       __unwindfunclet$??0Args@MessageObject@@QAE@V?$basic_string@DU?$char_traits@D@std@@V?$allocator@D@2@@std@@0000_N@Z$9 1000edba f   DataMerge.obj
 0001:0000ddc6       __unwindfunclet$??0Args@MessageObject@@QAE@V?$basic_string@DU?$char_traits@D@std@@V?$allocator@D@2@@std@@0000_N@Z$10 1000edc6 f   DataMerge.obj
 0001:0000ddcf       __ehhandler$??0Args@MessageObject@@QAE@V?$basic_string@DU?$char_traits@D@std@@V?$allocator@D@2@@std@@0000_N@Z 1000edcf f   DataMerge.obj
 0001:0000dde0       __unwindfunclet$??0?$Resource@VStep@@VMessageObject@@@@QAE@ABUArgs@MessageObject@@@Z$0 1000ede0 f   DataMerge.obj
 0001:0000ddeb       __ehhandler$??0?$Resource@VStep@@VMessageObject@@@@QAE@ABUArgs@MessageObject@@@Z 1000edeb f   DataMerge.obj
 0001:0000de00       __unwindfunclet$??0?$Resource@VDataRequest@@VFactoryObject@@@@QAE@ABVArgs@FactoryAllocator@@@Z$0 1000ee00 f   DataMerge.obj
 0001:0000de0b       __ehhandler$??0?$Resource@VDataRequest@@VFactoryObject@@@@QAE@ABVArgs@FactoryAllocator@@@Z 1000ee0b f   DataMerge.obj
 0001:0000de20       __unwindfunclet$??0sentry@?$basic_ostream@DU?$char_traits@D@std@@@std@@QAE@AAV12@@Z$0 1000ee20 f   DataMerge.obj
 0001:0000de28       __ehhandler$??0sentry@?$basic_ostream@DU?$char_traits@D@std@@@std@@QAE@AAV12@@Z 1000ee28 f   DataMerge.obj
 0001:0000de40       __unwindfunclet$??1sentry@?$basic_ostream@DU?$char_traits@D@std@@@std@@QAE@XZ$0 1000ee40 f   DataMerge.obj
 0001:0000de48       __ehhandler$??1sentry@?$basic_ostream@DU?$char_traits@D@std@@@std@@QAE@XZ 1000ee48 f   DataMerge.obj
 0001:0000de60       __unwindfunclet$??$?6U?$char_traits@D@std@@@std@@YAAAV?$basic_ostream@DU?$char_traits@D@std@@@0@AAV10@PBD@Z$2 1000ee60 f   DataMerge.obj
 0001:0000de68       __unwindfunclet$??$?6U?$char_traits@D@std@@@std@@YAAAV?$basic_ostream@DU?$char_traits@D@std@@@0@AAV10@PBD@Z$3 1000ee68 f   DataMerge.obj
 0001:0000de70       __ehhandler$??$?6U?$char_traits@D@std@@@std@@YAAAV?$basic_ostream@DU?$char_traits@D@std@@@0@AAV10@PBD@Z 1000ee70 f   DataMerge.obj
 0001:0000de80       __unwindfunclet$?construct@?$allocator@V?$basic_string@DU?$char_traits@D@std@@V?$allocator@D@2@@std@@@std@@QAEXPAV?$basic_string@DU?$char_traits@D@std@@V?$allocator@D@2@@2@ABV32@@Z$0 1000ee80 f   DataMerge.obj
 0001:0000de91       __ehhandler$?construct@?$allocator@V?$basic_string@DU?$char_traits@D@std@@V?$allocator@D@2@@std@@@std@@QAEXPAV?$basic_string@DU?$char_traits@D@std@@V?$allocator@D@2@@2@ABV32@@Z 1000ee91 f   DataMerge.obj
 0001:0000dea0       __unwindfunclet$??$?6U?$char_traits@D@std@@@std@@YAAAV?$basic_ostream@DU?$char_traits@D@std@@@0@AAV10@D@Z$2 1000eea0 f   DataMerge.obj
 0001:0000dea8       __unwindfunclet$??$?6U?$char_traits@D@std@@@std@@YAAAV?$basic_ostream@DU?$char_traits@D@std@@@0@AAV10@D@Z$3 1000eea8 f   DataMerge.obj
 0001:0000deb0       __ehhandler$??$?6U?$char_traits@D@std@@@std@@YAAAV?$basic_ostream@DU?$char_traits@D@std@@@0@AAV10@D@Z 1000eeb0 f   DataMerge.obj
 0001:0000dec0       __unwindfunclet$??1?$Resource@VDataRequest@@VFactoryObject@@@@UAE@XZ$0 1000eec0 f   DataMerge.obj
 0001:0000decb       __ehhandler$??1?$Resource@VDataRequest@@VFactoryObject@@@@UAE@XZ 1000eecb f   DataMerge.obj
 0001:0000dee0       __unwindfunclet$??1?$Resource@VStep@@VMessageObject@@@@UAE@XZ$0 1000eee0 f   DataMerge.obj
 0001:0000deeb       __ehhandler$??1?$Resource@VStep@@VMessageObject@@@@UAE@XZ 1000eeeb f   DataMerge.obj
 0001:0000df00       __unwindfunclet$??$mergeElement@G@?A0x41753d5a@@YAXPAGHHVDataAccessor@@H@Z$0 1000ef00 f   DataMerge.obj
 0001:0000df08       __unwindfunclet$??$mergeElement@G@?A0x41753d5a@@YAXPAGHHVDataAccessor@@H@Z$1 1000ef08 f   DataMerge.obj
 0001:0000df14       __ehhandler$??$mergeElement@G@?A0x41753d5a@@YAXPAGHHVDataAccessor@@H@Z 1000ef14 f   DataMerge.obj
 0001:0000df20       __unwindfunclet$??$mergeElement@F@?A0x41753d5a@@YAXPAFHHVDataAccessor@@H@Z$0 1000ef20 f   DataMerge.obj
 0001:0000df28       __unwindfunclet$??$mergeElement@F@?A0x41753d5a@@YAXPAFHHVDataAccessor@@H@Z$1 1000ef28 f   DataMerge.obj
 0001:0000df34       __ehhandler$??$mergeElement@F@?A0x41753d5a@@YAXPAFHHVDataAccessor@@H@Z 1000ef34 f   DataMerge.obj
 0001:0000df40       __unwindfunclet$??$mergeElement@I@?A0x41753d5a@@YAXPAIHHVDataAccessor@@H@Z$0 1000ef40 f   DataMerge.obj
 0001:0000df48       __unwindfunclet$??$mergeElement@I@?A0x41753d5a@@YAXPAIHHVDataAccessor@@H@Z$1 1000ef48 f   DataMerge.obj
 0001:0000df54       __ehhandler$??$mergeElement@I@?A0x41753d5a@@YAXPAIHHVDataAccessor@@H@Z 1000ef54 f   DataMerge.obj
 0001:0000df60       __unwindfunclet$??$mergeElement@H@?A0x41753d5a@@YAXPAHHHVDataAccessor@@H@Z$0 1000ef60 f   DataMerge.obj
 0001:0000df68       __unwindfunclet$??$mergeElement@H@?A0x41753d5a@@YAXPAHHHVDataAccessor@@H@Z$1 1000ef68 f   DataMerge.obj
 0001:0000df74       __ehhandler$??$mergeElement@H@?A0x41753d5a@@YAXPAHHHVDataAccessor@@H@Z 1000ef74 f   DataMerge.obj
 0001:0000df80       __unwindfunclet$??$mergeElement@M@?A0x41753d5a@@YAXPAMHHVDataAccessor@@H@Z$0 1000ef80 f   DataMerge.obj
 0001:0000df88       __unwindfunclet$??$mergeElement@M@?A0x41753d5a@@YAXPAMHHVDataAccessor@@H@Z$1 1000ef88 f   DataMerge.obj
 0001:0000df94       __ehhandler$??$mergeElement@M@?A0x41753d5a@@YAXPAMHHVDataAccessor@@H@Z 1000ef94 f   DataMerge.obj
 0001:0000dfa0       __unwindfunclet$??$mergeElement@N@?A0x41753d5a@@YAXPANHHVDataAccessor@@H@Z$0 1000efa0 f   DataMerge.obj
 0001:0000dfa8       __unwindfunclet$??$mergeElement@N@?A0x41753d5a@@YAXPANHHVDataAccessor@@H@Z$1 1000efa8 f   DataMerge.obj
 0001:0000dfb4       __ehhandler$??$mergeElement@N@?A0x41753d5a@@YAXPANHHVDataAccessor@@H@Z 1000efb4 f   DataMerge.obj
 0001:0000dfc0       __unwindfunclet$??$_Uninit_move@PAV?$basic_string@DU?$char_traits@D@std@@V?$allocator@D@2@@std@@PAV12@V?$allocator@V?$basic_string@DU?$char_traits@D@std@@V?$allocator@D@2@@std@@@2@@std@@YAPAV?$basic_string@DU?$char_traits@D@std@@V?$allocator@D@2@@0@PAV10@00AAV?$allocator@V?$basic_string@DU?$char_traits@D@std@@V?$allocator@D@2@@std@@@0@U_Swap_move_tag@0@U_Range_checked_iterator_tag@0@@Z$2 1000efc0 f   DataMerge.obj
 0001:0000dfc9       __unwindfunclet$??$_Uninit_move@PAV?$basic_string@DU?$char_traits@D@std@@V?$allocator@D@2@@std@@PAV12@V?$allocator@V?$basic_string@DU?$char_traits@D@std@@V?$allocator@D@2@@std@@@2@@std@@YAPAV?$basic_string@DU?$char_traits@D@std@@V?$allocator@D@2@@0@PAV10@00AAV?$allocator@V?$basic_string@DU?$char_traits@D@std@@V?$allocator@D@2@@std@@@0@U_Swap_move_tag@0@U_Range_checked_iterator_tag@0@@Z$3 1000efc9 f   DataMerge.obj
 0001:0000dfda       __ehhandler$??$_Uninit_move@PAV?$basic_string@DU?$char_traits@D@std@@V?$allocator@D@2@@std@@PAV12@V?$allocator@V?$basic_string@DU?$char_traits@D@std@@V?$allocator@D@2@@std@@@2@@std@@YAPAV?$basic_string@DU?$char_traits@D@std@@V?$allocator@D@2@@0@PAV10@00AAV?$allocator@V?$basic_string@DU?$char_traits@D@std@@V?$allocator@D@2@@std@@@0@U_Swap_move_tag@0@U_Range_checked_iterator_tag@0@@Z 1000efda f   DataMerge.obj
 0001:0000dff0       __unwindfunclet$??0StepResource@@QAE@V?$basic_string@DU?$char_traits@D@std@@V?$allocator@D@2@@std@@0000@Z$0 1000eff0 f   DataMerge.obj
 0001:0000dff9       __unwindfunclet$??0StepResource@@QAE@V?$basic_string@DU?$char_traits@D@std@@V?$allocator@D@2@@std@@0000@Z$1 1000eff9 f   DataMerge.obj
 0001:0000e002       __unwindfunclet$??0StepResource@@QAE@V?$basic_string@DU?$char_traits@D@std@@V?$allocator@D@2@@std@@0000@Z$2 1000f002 f   DataMerge.obj
 0001:0000e00b       __unwindfunclet$??0StepResource@@QAE@V?$basic_string@DU?$char_traits@D@std@@V?$allocator@D@2@@std@@0000@Z$3 1000f00b f   DataMerge.obj
 0001:0000e014       __unwindfunclet$??0StepResource@@QAE@V?$basic_string@DU?$char_traits@D@std@@V?$allocator@D@2@@std@@0000@Z$4 1000f014 f   DataMerge.obj
 0001:0000e01d       __unwindfunclet$??0StepResource@@QAE@V?$basic_string@DU?$char_traits@D@std@@V?$allocator@D@2@@std@@0000@Z$5 1000f01d f   DataMerge.obj
 0001:0000e029       __unwindfunclet$??0StepResource@@QAE@V?$basic_string@DU?$char_traits@D@std@@V?$allocator@D@2@@std@@0000@Z$6 1000f029 f   DataMerge.obj
 0001:0000e035       __unwindfunclet$??0StepResource@@QAE@V?$basic_string@DU?$char_traits@D@std@@V?$allocator@D@2@@std@@0000@Z$7 1000f035 f   DataMerge.obj
 0001:0000e041       __unwindfunclet$??0StepResource@@QAE@V?$basic_string@DU?$char_traits@D@std@@V?$allocator@D@2@@std@@0000@Z$8 1000f041 f   DataMerge.obj
 0001:0000e04d       __unwindfunclet$??0StepResource@@QAE@V?$basic_string@DU?$char_traits@D@std@@V?$allocator@D@2@@std@@0000@Z$10 1000f04d f   DataMerge.obj
 0001:0000e058       __unwindfunclet$??0StepResource@@QAE@V?$basic_string@DU?$char_traits@D@std@@V?$allocator@D@2@@std@@0000@Z$11 1000f058 f   DataMerge.obj
 0001:0000e063       __ehhandler$??0StepResource@@QAE@V?$basic_string@DU?$char_traits@D@std@@V?$allocator@D@2@@std@@0000@Z 1000f063 f   DataMerge.obj
 0001:0000e070       __unwindfunclet$??0?$FactoryResource@VDataRequest@@@@QAE@XZ$0 1000f070 f   DataMerge.obj
 0001:0000e078       __unwindfunclet$??0?$FactoryResource@VDataRequest@@@@QAE@XZ$1 1000f078 f   DataMerge.obj
 0001:0000e080       __ehhandler$??0?$FactoryResource@VDataRequest@@@@QAE@XZ 1000f080 f   DataMerge.obj
 0001:0000e090       __unwindfunclet$??$mergeElement@E@?A0x41753d5a@@YAXPAEHHVDataAccessor@@H@Z$0 1000f090 f   DataMerge.obj
 0001:0000e098       __unwindfunclet$??$mergeElement@E@?A0x41753d5a@@YAXPAEHHVDataAccessor@@H@Z$1 1000f098 f   DataMerge.obj
 0001:0000e0a4       __ehhandler$??$mergeElement@E@?A0x41753d5a@@YAXPAEHHVDataAccessor@@H@Z 1000f0a4 f   DataMerge.obj
 0001:0000e0b0       __unwindfunclet$??$mergeElement@C@?A0x41753d5a@@YAXPACHHVDataAccessor@@H@Z$0 1000f0b0 f   DataMerge.obj
 0001:0000e0b8       __unwindfunclet$??$mergeElement@C@?A0x41753d5a@@YAXPACHHVDataAccessor@@H@Z$1 1000f0b8 f   DataMerge.obj
 0001:0000e0c4       __ehhandler$??$mergeElement@C@?A0x41753d5a@@YAXPACHHVDataAccessor@@H@Z 1000f0c4 f   DataMerge.obj
 0001:0000e0d0       __unwindfunclet$??$_Uninit_fill_n@PAV?$basic_string@DU?$char_traits@D@std@@V?$allocator@D@2@@std@@IV12@V?$allocator@V?$basic_string@DU?$char_traits@D@std@@V?$allocator@D@2@@std@@@2@@std@@YAXPAV?$basic_string@DU?$char_traits@D@std@@V?$allocator@D@2@@0@IABV10@AAV?$allocator@V?$basic_string@DU?$char_traits@D@std@@V?$allocator@D@2@@std@@@0@U_Nonscalar_ptr_iterator_tag@0@U_Range_checked_iterator_tag@0@@Z$2 1000f0d0 f   DataMerge.obj
 0001:0000e0e1       __ehhandler$??$_Uninit_fill_n@PAV?$basic_string@DU?$char_traits@D@std@@V?$allocator@D@2@@std@@IV12@V?$allocator@V?$basic_string@DU?$char_traits@D@std@@V?$allocator@D@2@@std@@@2@@std@@YAXPAV?$basic_string@DU?$char_traits@D@std@@V?$allocator@D@2@@0@IABV10@AAV?$allocator@V?$basic_string@DU?$char_traits@D@std@@V?$allocator@D@2@@std@@@0@U_Nonscalar_ptr_iterator_tag@0@U_Range_checked_iterator_tag@0@@Z 1000f0e1 f   DataMerge.obj
 0001:0000e0f0       __unwindfunclet$?showGui@DataMerge@@AAE_NXZ$0 1000f0f0 f   DataMerge.obj
 0001:0000e0fc       __unwindfunclet$?showGui@DataMerge@@AAE_NXZ$1 1000f0fc f   DataMerge.obj
 0001:0000e108       __unwindfunclet$?showGui@DataMerge@@AAE_NXZ$2 1000f108 f   DataMerge.obj
 0001:0000e114       __unwindfunclet$?showGui@DataMerge@@AAE_NXZ$3 1000f114 f   DataMerge.obj
 0001:0000e120       __unwindfunclet$?showGui@DataMerge@@AAE_NXZ$5 1000f120 f   DataMerge.obj
 0001:0000e12b       __unwindfunclet$?showGui@DataMerge@@AAE_NXZ$6 1000f12b f   DataMerge.obj
 0001:0000e137       __unwindfunclet$?showGui@DataMerge@@AAE_NXZ$7 1000f137 f   DataMerge.obj
 0001:0000e142       __unwindfunclet$?showGui@DataMerge@@AAE_NXZ$8 1000f142 f   DataMerge.obj
 0001:0000e14e       __unwindfunclet$?showGui@DataMerge@@AAE_NXZ$9 1000f14e f   DataMerge.obj
 0001:0000e15a       __unwindfunclet$?showGui@DataMerge@@AAE_NXZ$10 1000f15a f   DataMerge.obj
 0001:0000e166       __unwindfunclet$?showGui@DataMerge@@AAE_NXZ$11 1000f166 f   DataMerge.obj
 0001:0000e172       __unwindfunclet$?showGui@DataMerge@@AAE_NXZ$12 1000f172 f   DataMerge.obj
 0001:0000e17e       __unwindfunclet$?showGui@DataMerge@@AAE_NXZ$13 1000f17e f   DataMerge.obj
 0001:0000e18a       __unwindfunclet$?showGui@DataMerge@@AAE_NXZ$14 1000f18a f   DataMerge.obj
 0001:0000e195       __unwindfunclet$?showGui@DataMerge@@AAE_NXZ$15 1000f195 f   DataMerge.obj
 0001:0000e1a0       __unwindfunclet$?showGui@DataMerge@@AAE_NXZ$27 1000f1a0 f   DataMerge.obj
 0001:0000e1ab       __ehhandler$?showGui@DataMerge@@AAE_NXZ 1000f1ab f   DataMerge.obj
 0001:0000e1c0       __unwindfunclet$?_Insert_n@?$vector@V?$basic_string@DU?$char_traits@D@std@@V?$allocator@D@2@@std@@V?$allocator@V?$basic_string@DU?$char_traits@D@std@@V?$allocator@D@2@@std@@@2@@std@@IAEXV?$_Vector_iterator@V?$basic_string@DU?$char_traits@D@std@@V?$allocator@D@2@@std@@V?$allocator@V?$basic_string@DU?$char_traits@D@std@@V?$allocator@D@2@@std@@@2@@2@IABV?$basic_string@DU?$char_traits@D@std@@V?$allocator@D@2@@2@@Z$4 1000f1c0 f   DataMerge.obj
 0001:0000e1c9       __ehhandler$?_Insert_n@?$vector@V?$basic_string@DU?$char_traits@D@std@@V?$allocator@D@2@@std@@V?$allocator@V?$basic_string@DU?$char_traits@D@std@@V?$allocator@D@2@@std@@@2@@std@@IAEXV?$_Vector_iterator@V?$basic_string@DU?$char_traits@D@std@@V?$allocator@D@2@@std@@V?$allocator@V?$basic_string@DU?$char_traits@D@std@@V?$allocator@D@2@@std@@@2@@2@IABV?$basic_string@DU?$char_traits@D@std@@V?$allocator@D@2@@2@@Z 1000f1c9 f   DataMerge.obj
 0001:0000e1e0       __unwindfunclet$?addPlugInName@BasicPlugInFactory@@AAEXV?$basic_string@DU?$char_traits@D@std@@V?$allocator@D@2@@std@@@Z$0 1000f1e0 f   DataMerge.obj
 0001:0000e1e9       __ehhandler$?addPlugInName@BasicPlugInFactory@@AAEXV?$basic_string@DU?$char_traits@D@std@@V?$allocator@D@2@@std@@@Z 1000f1e9 f   DataMerge.obj
 0001:0000e200       __unwindfunclet$??0BasicPlugInFactory@@QAE@ABV?$basic_string@DU?$char_traits@D@std@@V?$allocator@D@2@@std@@@Z$0 1000f200 f   DataMerge.obj
 0001:0000e20b       __unwindfunclet$??0BasicPlugInFactory@@QAE@ABV?$basic_string@DU?$char_traits@D@std@@V?$allocator@D@2@@std@@@Z$2 1000f20b f   DataMerge.obj
 0001:0000e214       __ehhandler$??0BasicPlugInFactory@@QAE@ABV?$basic_string@DU?$char_traits@D@std@@V?$allocator@D@2@@std@@@Z 1000f214 f   DataMerge.obj
 0001:0000e220       __unwindfunclet$??$_Uninit_copy@PBV?$basic_string@DU?$char_traits@D@std@@V?$allocator@D@2@@std@@PAV12@V?$allocator@V?$basic_string@DU?$char_traits@D@std@@V?$allocator@D@2@@std@@@2@@std@@YAPAV?$basic_string@DU?$char_traits@D@std@@V?$allocator@D@2@@0@PBV10@0PAV10@AAV?$allocator@V?$basic_string@DU?$char_traits@D@std@@V?$allocator@D@2@@std@@@0@U_Nonscalar_ptr_iterator_tag@0@U_Range_checked_iterator_tag@0@@Z$2 1000f220 f   DataMerge.obj
 0001:0000e231       __ehhandler$??$_Uninit_copy@PBV?$basic_string@DU?$char_traits@D@std@@V?$allocator@D@2@@std@@PAV12@V?$allocator@V?$basic_string@DU?$char_traits@D@std@@V?$allocator@D@2@@std@@@2@@std@@YAPAV?$basic_string@DU?$char_traits@D@std@@V?$allocator@D@2@@0@PBV10@0PAV10@AAV?$allocator@V?$basic_string@DU?$char_traits@D@std@@V?$allocator@D@2@@std@@@0@U_Nonscalar_ptr_iterator_tag@0@U_Range_checked_iterator_tag@0@@Z 1000f231 f   DataMerge.obj
 0001:0000e240       __ehhandler$??0?$vector@V?$basic_string@DU?$char_traits@D@std@@V?$allocator@D@2@@std@@V?$allocator@V?$basic_string@DU?$char_traits@D@std@@V?$allocator@D@2@@std@@@2@@std@@QAE@ABV01@@Z 1000f240 f   DataMerge.obj
 0001:0000e250       __unwindfunclet$??0DataMergePlugInFactory@SpectralDataMerge@@QAE@ABV?$basic_string@DU?$char_traits@D@std@@V?$allocator@D@2@@std@@@Z$0 1000f250 f   DataMerge.obj
 0001:0000e258       __ehhandler$??0DataMergePlugInFactory@SpectralDataMerge@@QAE@ABV?$basic_string@DU?$char_traits@D@std@@V?$allocator@D@2@@std@@@Z 1000f258 f   DataMerge.obj
 0001:0000e270       __unwindfunclet$?createPlugIn@DataMergePlugInFactory@SpectralDataMerge@@UAEPAVPlugIn@@ABV?$basic_string@DU?$char_traits@D@std@@V?$allocator@D@2@@std@@@Z$0 1000f270 f   DataMerge.obj
 0001:0000e27b       __ehhandler$?createPlugIn@DataMergePlugInFactory@SpectralDataMerge@@UAEPAVPlugIn@@ABV?$basic_string@DU?$char_traits@D@std@@V?$allocator@D@2@@std@@@Z 1000f27b f   DataMerge.obj
 0001:0000e290       __unwindfunclet$??__EDataMergepluginFactory@SpectralDataMerge@@YAXXZ$0 1000f290 f   DataMerge.obj
 0001:0000e299       __unwindfunclet$??__EDataMergepluginFactory@SpectralDataMerge@@YAXXZ$1 1000f299 f   DataMerge.obj
 0001:0000e2a3       __ehhandler$??__EDataMergepluginFactory@SpectralDataMerge@@YAXXZ 1000f2a3 f   DataMerge.obj
 0001:0000e2b0       __unwindfunclet$?_Xlen@?$vector@U?$pair@V?$basic_string@DU?$char_traits@D@std@@V?$allocator@D@2@@std@@PAVPlugInFactory@@@std@@V?$allocator@U?$pair@V?$basic_string@DU?$char_traits@D@std@@V?$allocator@D@2@@std@@PAVPlugInFactory@@@std@@@2@@std@@KAXXZ$0 1000f2b0 f   ModuleManager.obj
 0001:0000e2b9       __unwindfunclet$?_Xlen@?$vector@U?$pair@V?$basic_string@DU?$char_traits@D@std@@V?$allocator@D@2@@std@@PAVPlugInFactory@@@std@@V?$allocator@U?$pair@V?$basic_string@DU?$char_traits@D@std@@V?$allocator@D@2@@std@@PAVPlugInFactory@@@std@@@2@@std@@KAXXZ$2 1000f2b9 f   ModuleManager.obj
 0001:0000e2c2       __ehhandler$?_Xlen@?$vector@U?$pair@V?$basic_string@DU?$char_traits@D@std@@V?$allocator@D@2@@std@@PAVPlugInFactory@@@std@@V?$allocator@U?$pair@V?$basic_string@DU?$char_traits@D@std@@V?$allocator@D@2@@std@@PAVPlugInFactory@@@std@@@2@@std@@KAXXZ 1000f2c2 f   ModuleManager.obj
 0001:0000e2d0       __unwindfunclet$??$_Construct@U?$pair@V?$basic_string@DU?$char_traits@D@std@@V?$allocator@D@2@@std@@PAVPlugInFactory@@@std@@U12@@std@@YAXPAU?$pair@V?$basic_string@DU?$char_traits@D@std@@V?$allocator@D@2@@std@@PAVPlugInFactory@@@0@ABU10@@Z$0 1000f2d0 f   ModuleManager.obj
 0001:0000e2e1       __ehhandler$??$_Construct@U?$pair@V?$basic_string@DU?$char_traits@D@std@@V?$allocator@D@2@@std@@PAVPlugInFactory@@@std@@U12@@std@@YAXPAU?$pair@V?$basic_string@DU?$char_traits@D@std@@V?$allocator@D@2@@std@@PAVPlugInFactory@@@0@ABU10@@Z 1000f2e1 f   ModuleManager.obj
 0001:0000e2f0       __unwindfunclet$??$_Rotate@PAU?$pair@V?$basic_string@DU?$char_traits@D@std@@V?$allocator@D@2@@std@@PAVPlugInFactory@@@std@@HU12@@std@@YAXPAU?$pair@V?$basic_string@DU?$char_traits@D@std@@V?$allocator@D@2@@std@@PAVPlugInFactory@@@0@00PAH0@Z$0 1000f2f0 f   ModuleManager.obj
 0001:0000e2f8       __ehhandler$??$_Rotate@PAU?$pair@V?$basic_string@DU?$char_traits@D@std@@V?$allocator@D@2@@std@@PAVPlugInFactory@@@std@@HU12@@std@@YAXPAU?$pair@V?$basic_string@DU?$char_traits@D@std@@V?$allocator@D@2@@std@@PAVPlugInFactory@@@0@00PAH0@Z 1000f2f8 f   ModuleManager.obj
 0001:0000e310       __unwindfunclet$??$make_pair@V?$basic_string@DU?$char_traits@D@std@@V?$allocator@D@2@@std@@PAVPlugInFactory@@@std@@YA?AU?$pair@V?$basic_string@DU?$char_traits@D@std@@V?$allocator@D@2@@std@@PAVPlugInFactory@@@0@V?$basic_string@DU?$char_traits@D@std@@V?$allocator@D@2@@0@PAVPlugInFactory@@@Z$0 1000f310 f   ModuleManager.obj
 0001:0000e319       __unwindfunclet$??$make_pair@V?$basic_string@DU?$char_traits@D@std@@V?$allocator@D@2@@std@@PAVPlugInFactory@@@std@@YA?AU?$pair@V?$basic_string@DU?$char_traits@D@std@@V?$allocator@D@2@@std@@PAVPlugInFactory@@@0@V?$basic_string@DU?$char_traits@D@std@@V?$allocator@D@2@@0@PAVPlugInFactory@@@Z$1 1000f319 f   ModuleManager.obj
 0001:0000e332       __ehhandler$??$make_pair@V?$basic_string@DU?$char_traits@D@std@@V?$allocator@D@2@@std@@PAVPlugInFactory@@@std@@YA?AU?$pair@V?$basic_string@DU?$char_traits@D@std@@V?$allocator@D@2@@std@@PAVPlugInFactory@@@0@V?$basic_string@DU?$char_traits@D@std@@V?$allocator@D@2@@0@PAVPlugInFactory@@@Z 1000f332 f   ModuleManager.obj
 0001:0000e340       __unwindfunclet$??$_Uninit_copy@PAU?$pair@V?$basic_string@DU?$char_traits@D@std@@V?$allocator@D@2@@std@@PAVPlugInFactory@@@std@@PAU12@V?$allocator@U?$pair@V?$basic_string@DU?$char_traits@D@std@@V?$allocator@D@2@@std@@PAVPlugInFactory@@@std@@@2@@std@@YAPAU?$pair@V?$basic_string@DU?$char_traits@D@std@@V?$allocator@D@2@@std@@PAVPlugInFactory@@@0@PAU10@00AAV?$allocator@U?$pair@V?$basic_string@DU?$char_traits@D@std@@V?$allocator@D@2@@std@@PAVPlugInFactory@@@std@@@0@U_Nonscalar_ptr_iterator_tag@0@U_Range_checked_iterator_tag@0@@Z$2 1000f340 f   ModuleManager.obj
 0001:0000e351       __ehhandler$??$_Uninit_copy@PAU?$pair@V?$basic_string@DU?$char_traits@D@std@@V?$allocator@D@2@@std@@PAVPlugInFactory@@@std@@PAU12@V?$allocator@U?$pair@V?$basic_string@DU?$char_traits@D@std@@V?$allocator@D@2@@std@@PAVPlugInFactory@@@std@@@2@@std@@YAPAU?$pair@V?$basic_string@DU?$char_traits@D@std@@V?$allocator@D@2@@std@@PAVPlugInFactory@@@0@PAU10@00AAV?$allocator@U?$pair@V?$basic_string@DU?$char_traits@D@std@@V?$allocator@D@2@@std@@PAVPlugInFactory@@@std@@@0@U_Nonscalar_ptr_iterator_tag@0@U_Range_checked_iterator_tag@0@@Z 1000f351 f   ModuleManager.obj
 0001:0000e360       __unwindfunclet$??$_Uninit_fill_n@PAU?$pair@V?$basic_string@DU?$char_traits@D@std@@V?$allocator@D@2@@std@@PAVPlugInFactory@@@std@@IU12@V?$allocator@U?$pair@V?$basic_string@DU?$char_traits@D@std@@V?$allocator@D@2@@std@@PAVPlugInFactory@@@std@@@2@@std@@YAXPAU?$pair@V?$basic_string@DU?$char_traits@D@std@@V?$allocator@D@2@@std@@PAVPlugInFactory@@@0@IABU10@AAV?$allocator@U?$pair@V?$basic_string@DU?$char_traits@D@std@@V?$allocator@D@2@@std@@PAVPlugInFactory@@@std@@@0@U_Nonscalar_ptr_iterator_tag@0@U_Range_checked_iterator_tag@0@@Z$2 1000f360 f   ModuleManager.obj
 0001:0000e371       __ehhandler$??$_Uninit_fill_n@PAU?$pair@V?$basic_string@DU?$char_traits@D@std@@V?$allocator@D@2@@std@@PAVPlugInFactory@@@std@@IU12@V?$allocator@U?$pair@V?$basic_string@DU?$char_traits@D@std@@V?$allocator@D@2@@std@@PAVPlugInFactory@@@std@@@2@@std@@YAXPAU?$pair@V?$basic_string@DU?$char_traits@D@std@@V?$allocator@D@2@@std@@PAVPlugInFactory@@@0@IABU10@AAV?$allocator@U?$pair@V?$basic_string@DU?$char_traits@D@std@@V?$allocator@D@2@@std@@PAVPlugInFactory@@@std@@@0@U_Nonscalar_ptr_iterator_tag@0@U_Range_checked_iterator_tag@0@@Z 1000f371 f   ModuleManager.obj
 0001:0000e380       __unwindfunclet$??RFactoryPtrComparator@@QAE_NU?$pair@V?$basic_string@DU?$char_traits@D@std@@V?$allocator@D@2@@std@@PAVPlugInFactory@@@std@@0@Z$0 1000f380 f   ModuleManager.obj
 0001:0000e388       __unwindfunclet$??RFactoryPtrComparator@@QAE_NU?$pair@V?$basic_string@DU?$char_traits@D@std@@V?$allocator@D@2@@std@@PAVPlugInFactory@@@std@@0@Z$1 1000f388 f   ModuleManager.obj
 0001:0000e390       __ehhandler$??RFactoryPtrComparator@@QAE_NU?$pair@V?$basic_string@DU?$char_traits@D@std@@V?$allocator@D@2@@std@@PAVPlugInFactory@@@std@@0@Z 1000f390 f   ModuleManager.obj
 0001:0000e3a0       __unwindfunclet$??$_Insertion_sort@PAU?$pair@V?$basic_string@DU?$char_traits@D@std@@V?$allocator@D@2@@std@@PAVPlugInFactory@@@std@@UFactoryPtrComparator@@@std@@YAXPAU?$pair@V?$basic_string@DU?$char_traits@D@std@@V?$allocator@D@2@@std@@PAVPlugInFactory@@@0@0UFactoryPtrComparator@@@Z$0 1000f3a0 f   ModuleManager.obj
 0001:0000e3a8       __unwindfunclet$??$_Insertion_sort@PAU?$pair@V?$basic_string@DU?$char_traits@D@std@@V?$allocator@D@2@@std@@PAVPlugInFactory@@@std@@UFactoryPtrComparator@@@std@@YAXPAU?$pair@V?$basic_string@DU?$char_traits@D@std@@V?$allocator@D@2@@std@@PAVPlugInFactory@@@0@0UFactoryPtrComparator@@@Z$2 1000f3a8 f   ModuleManager.obj
 0001:0000e3b0       __ehhandler$??$_Insertion_sort@PAU?$pair@V?$basic_string@DU?$char_traits@D@std@@V?$allocator@D@2@@std@@PAVPlugInFactory@@@std@@UFactoryPtrComparator@@@std@@YAXPAU?$pair@V?$basic_string@DU?$char_traits@D@std@@V?$allocator@D@2@@std@@PAVPlugInFactory@@@0@0UFactoryPtrComparator@@@Z 1000f3b0 f   ModuleManager.obj
 0001:0000e3c0       __unwindfunclet$??$_Med3@PAU?$pair@V?$basic_string@DU?$char_traits@D@std@@V?$allocator@D@2@@std@@PAVPlugInFactory@@@std@@UFactoryPtrComparator@@@std@@YAXPAU?$pair@V?$basic_string@DU?$char_traits@D@std@@V?$allocator@D@2@@std@@PAVPlugInFactory@@@0@00UFactoryPtrComparator@@@Z$0 1000f3c0 f   ModuleManager.obj
 0001:0000e3c8       __unwindfunclet$??$_Med3@PAU?$pair@V?$basic_string@DU?$char_traits@D@std@@V?$allocator@D@2@@std@@PAVPlugInFactory@@@std@@UFactoryPtrComparator@@@std@@YAXPAU?$pair@V?$basic_string@DU?$char_traits@D@std@@V?$allocator@D@2@@std@@PAVPlugInFactory@@@0@00UFactoryPtrComparator@@@Z$2 1000f3c8 f   ModuleManager.obj
 0001:0000e3d0       __unwindfunclet$??$_Med3@PAU?$pair@V?$basic_string@DU?$char_traits@D@std@@V?$allocator@D@2@@std@@PAVPlugInFactory@@@std@@UFactoryPtrComparator@@@std@@YAXPAU?$pair@V?$basic_string@DU?$char_traits@D@std@@V?$allocator@D@2@@std@@PAVPlugInFactory@@@0@00UFactoryPtrComparator@@@Z$4 1000f3d0 f   ModuleManager.obj
 0001:0000e3d8       __ehhandler$??$_Med3@PAU?$pair@V?$basic_string@DU?$char_traits@D@std@@V?$allocator@D@2@@std@@PAVPlugInFactory@@@std@@UFactoryPtrComparator@@@std@@YAXPAU?$pair@V?$basic_string@DU?$char_traits@D@std@@V?$allocator@D@2@@std@@PAVPlugInFactory@@@0@00UFactoryPtrComparator@@@Z 1000f3d8 f   ModuleManager.obj
 0001:0000e3f0       __unwindfunclet$??$_Push_heap@PAU?$pair@V?$basic_string@DU?$char_traits@D@std@@V?$allocator@D@2@@std@@PAVPlugInFactory@@@std@@HU12@UFactoryPtrComparator@@@std@@YAXPAU?$pair@V?$basic_string@DU?$char_traits@D@std@@V?$allocator@D@2@@std@@PAVPlugInFactory@@@0@HHU10@UFactoryPtrComparator@@@Z$0 1000f3f0 f   ModuleManager.obj
 0001:0000e3f8       __unwindfunclet$??$_Push_heap@PAU?$pair@V?$basic_string@DU?$char_traits@D@std@@V?$allocator@D@2@@std@@PAVPlugInFactory@@@std@@HU12@UFactoryPtrComparator@@@std@@YAXPAU?$pair@V?$basic_string@DU?$char_traits@D@std@@V?$allocator@D@2@@std@@PAVPlugInFactory@@@0@HHU10@UFactoryPtrComparator@@@Z$1 1000f3f8 f   ModuleManager.obj
 0001:0000e400       __ehhandler$??$_Push_heap@PAU?$pair@V?$basic_string@DU?$char_traits@D@std@@V?$allocator@D@2@@std@@PAVPlugInFactory@@@std@@HU12@UFactoryPtrComparator@@@std@@YAXPAU?$pair@V?$basic_string@DU?$char_traits@D@std@@V?$allocator@D@2@@std@@PAVPlugInFactory@@@0@HHU10@UFactoryPtrComparator@@@Z 1000f400 f   ModuleManager.obj
 0001:0000e410       __unwindfunclet$??$_Adjust_heap@PAU?$pair@V?$basic_string@DU?$char_traits@D@std@@V?$allocator@D@2@@std@@PAVPlugInFactory@@@std@@HU12@UFactoryPtrComparator@@@std@@YAXPAU?$pair@V?$basic_string@DU?$char_traits@D@std@@V?$allocator@D@2@@std@@PAVPlugInFactory@@@0@HHU10@UFactoryPtrComparator@@@Z$0 1000f410 f   ModuleManager.obj
 0001:0000e418       __unwindfunclet$??$_Adjust_heap@PAU?$pair@V?$basic_string@DU?$char_traits@D@std@@V?$allocator@D@2@@std@@PAVPlugInFactory@@@std@@HU12@UFactoryPtrComparator@@@std@@YAXPAU?$pair@V?$basic_string@DU?$char_traits@D@std@@V?$allocator@D@2@@std@@PAVPlugInFactory@@@0@HHU10@UFactoryPtrComparator@@@Z$1 1000f418 f   ModuleManager.obj
 0001:0000e420       __ehhandler$??$_Adjust_heap@PAU?$pair@V?$basic_string@DU?$char_traits@D@std@@V?$allocator@D@2@@std@@PAVPlugInFactory@@@std@@HU12@UFactoryPtrComparator@@@std@@YAXPAU?$pair@V?$basic_string@DU?$char_traits@D@std@@V?$allocator@D@2@@std@@PAVPlugInFactory@@@0@HHU10@UFactoryPtrComparator@@@Z 1000f420 f   ModuleManager.obj
 0001:0000e430       __unwindfunclet$??$_Pop_heap@PAU?$pair@V?$basic_string@DU?$char_traits@D@std@@V?$allocator@D@2@@std@@PAVPlugInFactory@@@std@@HU12@UFactoryPtrComparator@@@std@@YAXPAU?$pair@V?$basic_string@DU?$char_traits@D@std@@V?$allocator@D@2@@std@@PAVPlugInFactory@@@0@00U10@UFactoryPtrComparator@@PAH@Z$0 1000f430 f   ModuleManager.obj
 0001:0000e438       __ehhandler$??$_Pop_heap@PAU?$pair@V?$basic_string@DU?$char_traits@D@std@@V?$allocator@D@2@@std@@PAVPlugInFactory@@@std@@HU12@UFactoryPtrComparator@@@std@@YAXPAU?$pair@V?$basic_string@DU?$char_traits@D@std@@V?$allocator@D@2@@std@@PAVPlugInFactory@@@0@00U10@UFactoryPtrComparator@@PAH@Z 1000f438 f   ModuleManager.obj
 0001:0000e450       __unwindfunclet$??$_Unguarded_partition@PAU?$pair@V?$basic_string@DU?$char_traits@D@std@@V?$allocator@D@2@@std@@PAVPlugInFactory@@@std@@UFactoryPtrComparator@@@std@@YA?AU?$pair@PAU?$pair@V?$basic_string@DU?$char_traits@D@std@@V?$allocator@D@2@@std@@PAVPlugInFactory@@@std@@PAU12@@0@PAU?$pair@V?$basic_string@DU?$char_traits@D@std@@V?$allocator@D@2@@std@@PAVPlugInFactory@@@0@0UFactoryPtrComparator@@@Z$0 1000f450 f   ModuleManager.obj
 0001:0000e458       __unwindfunclet$??$_Unguarded_partition@PAU?$pair@V?$basic_string@DU?$char_traits@D@std@@V?$allocator@D@2@@std@@PAVPlugInFactory@@@std@@UFactoryPtrComparator@@@std@@YA?AU?$pair@PAU?$pair@V?$basic_string@DU?$char_traits@D@std@@V?$allocator@D@2@@std@@PAVPlugInFactory@@@std@@PAU12@@0@PAU?$pair@V?$basic_string@DU?$char_traits@D@std@@V?$allocator@D@2@@std@@PAVPlugInFactory@@@0@0UFactoryPtrComparator@@@Z$2 1000f458 f   ModuleManager.obj
 0001:0000e460       __unwindfunclet$??$_Unguarded_partition@PAU?$pair@V?$basic_string@DU?$char_traits@D@std@@V?$allocator@D@2@@std@@PAVPlugInFactory@@@std@@UFactoryPtrComparator@@@std@@YA?AU?$pair@PAU?$pair@V?$basic_string@DU?$char_traits@D@std@@V?$allocator@D@2@@std@@PAVPlugInFactory@@@std@@PAU12@@0@PAU?$pair@V?$basic_string@DU?$char_traits@D@std@@V?$allocator@D@2@@std@@PAVPlugInFactory@@@0@0UFactoryPtrComparator@@@Z$4 1000f460 f   ModuleManager.obj
 0001:0000e468       __unwindfunclet$??$_Unguarded_partition@PAU?$pair@V?$basic_string@DU?$char_traits@D@std@@V?$allocator@D@2@@std@@PAVPlugInFactory@@@std@@UFactoryPtrComparator@@@std@@YA?AU?$pair@PAU?$pair@V?$basic_string@DU?$char_traits@D@std@@V?$allocator@D@2@@std@@PAVPlugInFactory@@@std@@PAU12@@0@PAU?$pair@V?$basic_string@DU?$char_traits@D@std@@V?$allocator@D@2@@std@@PAVPlugInFactory@@@0@0UFactoryPtrComparator@@@Z$6 1000f468 f   ModuleManager.obj
 0001:0000e470       __unwindfunclet$??$_Unguarded_partition@PAU?$pair@V?$basic_string@DU?$char_traits@D@std@@V?$allocator@D@2@@std@@PAVPlugInFactory@@@std@@UFactoryPtrComparator@@@std@@YA?AU?$pair@PAU?$pair@V?$basic_string@DU?$char_traits@D@std@@V?$allocator@D@2@@std@@PAVPlugInFactory@@@std@@PAU12@@0@PAU?$pair@V?$basic_string@DU?$char_traits@D@std@@V?$allocator@D@2@@std@@PAVPlugInFactory@@@0@0UFactoryPtrComparator@@@Z$8 1000f470 f   ModuleManager.obj
 0001:0000e478       __unwindfunclet$??$_Unguarded_partition@PAU?$pair@V?$basic_string@DU?$char_traits@D@std@@V?$allocator@D@2@@std@@PAVPlugInFactory@@@std@@UFactoryPtrComparator@@@std@@YA?AU?$pair@PAU?$pair@V?$basic_string@DU?$char_traits@D@std@@V?$allocator@D@2@@std@@PAVPlugInFactory@@@std@@PAU12@@0@PAU?$pair@V?$basic_string@DU?$char_traits@D@std@@V?$allocator@D@2@@std@@PAVPlugInFactory@@@0@0UFactoryPtrComparator@@@Z$10 1000f478 f   ModuleManager.obj
 0001:0000e480       __unwindfunclet$??$_Unguarded_partition@PAU?$pair@V?$basic_string@DU?$char_traits@D@std@@V?$allocator@D@2@@std@@PAVPlugInFactory@@@std@@UFactoryPtrComparator@@@std@@YA?AU?$pair@PAU?$pair@V?$basic_string@DU?$char_traits@D@std@@V?$allocator@D@2@@std@@PAVPlugInFactory@@@std@@PAU12@@0@PAU?$pair@V?$basic_string@DU?$char_traits@D@std@@V?$allocator@D@2@@std@@PAVPlugInFactory@@@0@0UFactoryPtrComparator@@@Z$12 1000f480 f   ModuleManager.obj
 0001:0000e488       __unwindfunclet$??$_Unguarded_partition@PAU?$pair@V?$basic_string@DU?$char_traits@D@std@@V?$allocator@D@2@@std@@PAVPlugInFactory@@@std@@UFactoryPtrComparator@@@std@@YA?AU?$pair@PAU?$pair@V?$basic_string@DU?$char_traits@D@std@@V?$allocator@D@2@@std@@PAVPlugInFactory@@@std@@PAU12@@0@PAU?$pair@V?$basic_string@DU?$char_traits@D@std@@V?$allocator@D@2@@std@@PAVPlugInFactory@@@0@0UFactoryPtrComparator@@@Z$14 1000f488 f   ModuleManager.obj
 0001:0000e490       __ehhandler$??$_Unguarded_partition@PAU?$pair@V?$basic_string@DU?$char_traits@D@std@@V?$allocator@D@2@@std@@PAVPlugInFactory@@@std@@UFactoryPtrComparator@@@std@@YA?AU?$pair@PAU?$pair@V?$basic_string@DU?$char_traits@D@std@@V?$allocator@D@2@@std@@PAVPlugInFactory@@@std@@PAU12@@0@PAU?$pair@V?$basic_string@DU?$char_traits@D@std@@V?$allocator@D@2@@std@@PAVPlugInFactory@@@0@0UFactoryPtrComparator@@@Z 1000f490 f   ModuleManager.obj
 0001:0000e4a0       __unwindfunclet$?_Insert_n@?$vector@U?$pair@V?$basic_string@DU?$char_traits@D@std@@V?$allocator@D@2@@std@@PAVPlugInFactory@@@std@@V?$allocator@U?$pair@V?$basic_string@DU?$char_traits@D@std@@V?$allocator@D@2@@std@@PAVPlugInFactory@@@std@@@2@@std@@IAEXV?$_Vector_iterator@U?$pair@V?$basic_string@DU?$char_traits@D@std@@V?$allocator@D@2@@std@@PAVPlugInFactory@@@std@@V?$allocator@U?$pair@V?$basic_string@DU?$char_traits@D@std@@V?$allocator@D@2@@std@@PAVPlugInFactory@@@std@@@2@@2@IABU?$pair@V?$basic_string@DU?$char_traits@D@std@@V?$allocator@D@2@@std@@PAVPlugInFactory@@@2@@Z$4 1000f4a0 f   ModuleManager.obj
 0001:0000e4a8       __ehhandler$?_Insert_n@?$vector@U?$pair@V?$basic_string@DU?$char_traits@D@std@@V?$allocator@D@2@@std@@PAVPlugInFactory@@@std@@V?$allocator@U?$pair@V?$basic_string@DU?$char_traits@D@std@@V?$allocator@D@2@@std@@PAVPlugInFactory@@@std@@@2@@std@@IAEXV?$_Vector_iterator@U?$pair@V?$basic_string@DU?$char_traits@D@std@@V?$allocator@D@2@@std@@PAVPlugInFactory@@@std@@V?$allocator@U?$pair@V?$basic_string@DU?$char_traits@D@std@@V?$allocator@D@2@@std@@PAVPlugInFactory@@@std@@@2@@2@IABU?$pair@V?$basic_string@DU?$char_traits@D@std@@V?$allocator@D@2@@std@@PAVPlugInFactory@@@2@@Z 1000f4a8 f   ModuleManager.obj
 0001:0000e4c0       __unwindfunclet$?factories@SpectralDataMerge@@YAAAV?$vector@U?$pair@V?$basic_string@DU?$char_traits@D@std@@V?$allocator@D@2@@std@@PAVPlugInFactory@@@std@@V?$allocator@U?$pair@V?$basic_string@DU?$char_traits@D@std@@V?$allocator@D@2@@std@@PAVPlugInFactory@@@std@@@2@@std@@XZ$0 1000f4c0 f   ModuleManager.obj
 0001:0000e4ce       __ehhandler$?factories@SpectralDataMerge@@YAAAV?$vector@U?$pair@V?$basic_string@DU?$char_traits@D@std@@V?$allocator@D@2@@std@@PAVPlugInFactory@@@std@@V?$allocator@U?$pair@V?$basic_string@DU?$char_traits@D@std@@V?$allocator@D@2@@std@@PAVPlugInFactory@@@std@@@2@@std@@XZ 1000f4ce f   ModuleManager.obj
 0001:0000e4e0       __unwindfunclet$?addFactory@SpectralDataMerge@@YAXPAVPlugInFactory@@@Z$0 1000f4e0 f   ModuleManager.obj
 0001:0000e4e8       __unwindfunclet$?addFactory@SpectralDataMerge@@YAXPAVPlugInFactory@@@Z$2 1000f4e8 f   ModuleManager.obj
 0001:0000e4f0       __unwindfunclet$?addFactory@SpectralDataMerge@@YAXPAVPlugInFactory@@@Z$3 1000f4f0 f   ModuleManager.obj
 0001:0000e4fe       __ehhandler$?addFactory@SpectralDataMerge@@YAXPAVPlugInFactory@@@Z 1000f4fe f   ModuleManager.obj
 0001:0000e510       __unwindfunclet$?_Xlen@?$vector@U?$pair@V?$basic_string@DU?$char_traits@D@std@@V?$allocator@D@2@@std@@VSlot@@@std@@V?$allocator@U?$pair@V?$basic_string@DU?$char_traits@D@std@@V?$allocator@D@2@@std@@VSlot@@@std@@@2@@std@@KAXXZ$0 1000f510 f   PlugInLib:ViewerShell.obj
 0001:0000e519       __unwindfunclet$?_Xlen@?$vector@U?$pair@V?$basic_string@DU?$char_traits@D@std@@V?$allocator@D@2@@std@@VSlot@@@std@@V?$allocator@U?$pair@V?$basic_string@DU?$char_traits@D@std@@V?$allocator@D@2@@std@@VSlot@@@std@@@2@@std@@KAXXZ$2 1000f519 f   PlugInLib:ViewerShell.obj
 0001:0000e522       __ehhandler$?_Xlen@?$vector@U?$pair@V?$basic_string@DU?$char_traits@D@std@@V?$allocator@D@2@@std@@VSlot@@@std@@V?$allocator@U?$pair@V?$basic_string@DU?$char_traits@D@std@@V?$allocator@D@2@@std@@VSlot@@@std@@@2@@std@@KAXXZ 1000f522 f   PlugInLib:ViewerShell.obj
 0001:0000e530       __unwindfunclet$?update@?$SlotValue@VViewerShell@@@Slot@@UBEXAAVSubject@@ABV?$basic_string@DU?$char_traits@D@std@@V?$allocator@D@2@@std@@ABVany@boost@@@Z$0 1000f530 f   PlugInLib:ViewerShell.obj
 0001:0000e539       __ehhandler$?update@?$SlotValue@VViewerShell@@@Slot@@UBEXAAVSubject@@ABV?$basic_string@DU?$char_traits@D@std@@V?$allocator@D@2@@std@@ABVany@boost@@@Z 1000f539 f   PlugInLib:ViewerShell.obj
 0001:0000e550       __unwindfunclet$?update@?$SlotValue@V?$SafePtr@VApplicationServices@@@@@Slot@@UBEXAAVSubject@@ABV?$basic_string@DU?$char_traits@D@std@@V?$allocator@D@2@@std@@ABVany@boost@@@Z$0 1000f550 f   PlugInLib:ViewerShell.obj
 0001:0000e559       __ehhandler$?update@?$SlotValue@V?$SafePtr@VApplicationServices@@@@@Slot@@UBEXAAVSubject@@ABV?$basic_string@DU?$char_traits@D@std@@V?$allocator@D@2@@std@@ABVany@boost@@@Z 1000f559 f   PlugInLib:ViewerShell.obj
 0001:0000e570       __unwindfunclet$?signalDeleted@Subject@@SAABV?$basic_string@DU?$char_traits@D@std@@V?$allocator@D@2@@std@@XZ$0 1000f570 f   PlugInLib:ViewerShell.obj
 0001:0000e57e       __ehhandler$?signalDeleted@Subject@@SAABV?$basic_string@DU?$char_traits@D@std@@V?$allocator@D@2@@std@@XZ 1000f57e f   PlugInLib:ViewerShell.obj
 0001:0000e590       __unwindfunclet$?signalSessionClosed@ApplicationServices@@SAABV?$basic_string@DU?$char_traits@D@std@@V?$allocator@D@2@@std@@XZ$0 1000f590 f   PlugInLib:ViewerShell.obj
 0001:0000e59e       __ehhandler$?signalSessionClosed@ApplicationServices@@SAABV?$basic_string@DU?$char_traits@D@std@@V?$allocator@D@2@@std@@XZ 1000f59e f   PlugInLib:ViewerShell.obj
 0001:0000e5b0       __unwindfunclet$?abort@ViewerShell@@UAE_NXZ$0 1000f5b0 f   PlugInLib:ViewerShell.obj
 0001:0000e5bb       __ehhandler$?abort@ViewerShell@@UAE_NXZ 1000f5bb f   PlugInLib:ViewerShell.obj
 0001:0000e5d0       __unwindfunclet$??0?$pair@V?$basic_string@DU?$char_traits@D@std@@V?$allocator@D@2@@std@@VSlot@@@std@@QAE@ABU01@@Z$0 1000f5d0 f   PlugInLib:ViewerShell.obj
 0001:0000e5d9       __ehhandler$??0?$pair@V?$basic_string@DU?$char_traits@D@std@@V?$allocator@D@2@@std@@VSlot@@@std@@QAE@ABU01@@Z 1000f5d9 f   PlugInLib:ViewerShell.obj
 0001:0000e5f0       __unwindfunclet$??0?$pair@V?$basic_string@DU?$char_traits@D@std@@V?$allocator@D@2@@std@@VSlot@@@std@@QAE@ABV?$basic_string@DU?$char_traits@D@std@@V?$allocator@D@2@@1@ABVSlot@@@Z$0 1000f5f0 f   PlugInLib:ViewerShell.obj
 0001:0000e5f9       __ehhandler$??0?$pair@V?$basic_string@DU?$char_traits@D@std@@V?$allocator@D@2@@std@@VSlot@@@std@@QAE@ABV?$basic_string@DU?$char_traits@D@std@@V?$allocator@D@2@@1@ABVSlot@@@Z 1000f5f9 f   PlugInLib:ViewerShell.obj
 0001:0000e610       __unwindfunclet$??$_Construct@U?$pair@V?$basic_string@DU?$char_traits@D@std@@V?$allocator@D@2@@std@@VSlot@@@std@@U12@@std@@YAXPAU?$pair@V?$basic_string@DU?$char_traits@D@std@@V?$allocator@D@2@@std@@VSlot@@@0@ABU10@@Z$0 1000f610 f   PlugInLib:ViewerShell.obj
 0001:0000e621       __ehhandler$??$_Construct@U?$pair@V?$basic_string@DU?$char_traits@D@std@@V?$allocator@D@2@@std@@VSlot@@@std@@U12@@std@@YAXPAU?$pair@V?$basic_string@DU?$char_traits@D@std@@V?$allocator@D@2@@std@@VSlot@@@0@ABU10@@Z 1000f621 f   PlugInLib:ViewerShell.obj
 0001:0000e630       __unwindfunclet$?detachFromDeleted@?$SafePtr@VApplicationServices@@@@AAEXXZ$0 1000f630 f   PlugInLib:ViewerShell.obj
 0001:0000e638       __ehhandler$?detachFromDeleted@?$SafePtr@VApplicationServices@@@@AAEXXZ 1000f638 f   PlugInLib:ViewerShell.obj
 0001:0000e650       __unwindfunclet$?attachToDeleted@?$SafePtr@VApplicationServices@@@@AAEXXZ$0 1000f650 f   PlugInLib:ViewerShell.obj
 0001:0000e658       __ehhandler$?attachToDeleted@?$SafePtr@VApplicationServices@@@@AAEXXZ 1000f658 f   PlugInLib:ViewerShell.obj
 0001:0000e670       __unwindfunclet$??$make_pair@V?$basic_string@DU?$char_traits@D@std@@V?$allocator@D@2@@std@@VSlot@@@std@@YA?AU?$pair@V?$basic_string@DU?$char_traits@D@std@@V?$allocator@D@2@@std@@VSlot@@@0@V?$basic_string@DU?$char_traits@D@std@@V?$allocator@D@2@@0@VSlot@@@Z$0 1000f670 f   PlugInLib:ViewerShell.obj
 0001:0000e678       __unwindfunclet$??$make_pair@V?$basic_string@DU?$char_traits@D@std@@V?$allocator@D@2@@std@@VSlot@@@std@@YA?AU?$pair@V?$basic_string@DU?$char_traits@D@std@@V?$allocator@D@2@@std@@VSlot@@@0@V?$basic_string@DU?$char_traits@D@std@@V?$allocator@D@2@@0@VSlot@@@Z$1 1000f678 f   PlugInLib:ViewerShell.obj
 0001:0000e681       __unwindfunclet$??$make_pair@V?$basic_string@DU?$char_traits@D@std@@V?$allocator@D@2@@std@@VSlot@@@std@@YA?AU?$pair@V?$basic_string@DU?$char_traits@D@std@@V?$allocator@D@2@@std@@VSlot@@@0@V?$basic_string@DU?$char_traits@D@std@@V?$allocator@D@2@@0@VSlot@@@Z$2 1000f681 f   PlugInLib:ViewerShell.obj
 0001:0000e69a       __ehhandler$??$make_pair@V?$basic_string@DU?$char_traits@D@std@@V?$allocator@D@2@@std@@VSlot@@@std@@YA?AU?$pair@V?$basic_string@DU?$char_traits@D@std@@V?$allocator@D@2@@std@@VSlot@@@0@V?$basic_string@DU?$char_traits@D@std@@V?$allocator@D@2@@0@VSlot@@@Z 1000f69a f   PlugInLib:ViewerShell.obj
 0001:0000e6b0       __unwindfunclet$?construct@?$allocator@U?$pair@V?$basic_string@DU?$char_traits@D@std@@V?$allocator@D@2@@std@@VSlot@@@std@@@std@@QAEXPAU?$pair@V?$basic_string@DU?$char_traits@D@std@@V?$allocator@D@2@@std@@VSlot@@@2@ABU32@@Z$0 1000f6b0 f   PlugInLib:ViewerShell.obj
 0001:0000e6c1       __ehhandler$?construct@?$allocator@U?$pair@V?$basic_string@DU?$char_traits@D@std@@V?$allocator@D@2@@std@@VSlot@@@std@@@std@@QAEXPAU?$pair@V?$basic_string@DU?$char_traits@D@std@@V?$allocator@D@2@@std@@VSlot@@@2@ABU32@@Z 1000f6c1 f   PlugInLib:ViewerShell.obj
 0001:0000e6d0       __unwindfunclet$??$_Uninit_copy@PAU?$pair@V?$basic_string@DU?$char_traits@D@std@@V?$allocator@D@2@@std@@VSlot@@@std@@PAU12@V?$allocator@U?$pair@V?$basic_string@DU?$char_traits@D@std@@V?$allocator@D@2@@std@@VSlot@@@std@@@2@@std@@YAPAU?$pair@V?$basic_string@DU?$char_traits@D@std@@V?$allocator@D@2@@std@@VSlot@@@0@PAU10@00AAV?$allocator@U?$pair@V?$basic_string@DU?$char_traits@D@std@@V?$allocator@D@2@@std@@VSlot@@@std@@@0@U_Nonscalar_ptr_iterator_tag@0@U_Range_checked_iterator_tag@0@@Z$2 1000f6d0 f   PlugInLib:ViewerShell.obj
 0001:0000e6e1       __unwindfunclet$??$_Uninit_copy@PAU?$pair@V?$basic_string@DU?$char_traits@D@std@@V?$allocator@D@2@@std@@VSlot@@@std@@PAU12@V?$allocator@U?$pair@V?$basic_string@DU?$char_traits@D@std@@V?$allocator@D@2@@std@@VSlot@@@std@@@2@@std@@YAPAU?$pair@V?$basic_string@DU?$char_traits@D@std@@V?$allocator@D@2@@std@@VSlot@@@0@PAU10@00AAV?$allocator@U?$pair@V?$basic_string@DU?$char_traits@D@std@@V?$allocator@D@2@@std@@VSlot@@@std@@@0@U_Nonscalar_ptr_iterator_tag@0@U_Range_checked_iterator_tag@0@@Z$3 1000f6e1 f   PlugInLib:ViewerShell.obj
 0001:0000e6ea       __ehhandler$??$_Uninit_copy@PAU?$pair@V?$basic_string@DU?$char_traits@D@std@@V?$allocator@D@2@@std@@VSlot@@@std@@PAU12@V?$allocator@U?$pair@V?$basic_string@DU?$char_traits@D@std@@V?$allocator@D@2@@std@@VSlot@@@std@@@2@@std@@YAPAU?$pair@V?$basic_string@DU?$char_traits@D@std@@V?$allocator@D@2@@std@@VSlot@@@0@PAU10@00AAV?$allocator@U?$pair@V?$basic_string@DU?$char_traits@D@std@@V?$allocator@D@2@@std@@VSlot@@@std@@@0@U_Nonscalar_ptr_iterator_tag@0@U_Range_checked_iterator_tag@0@@Z 1000f6ea f   PlugInLib:ViewerShell.obj
 0001:0000e700       __unwindfunclet$??$_Uninit_fill_n@PAU?$pair@V?$basic_string@DU?$char_traits@D@std@@V?$allocator@D@2@@std@@VSlot@@@std@@IU12@V?$allocator@U?$pair@V?$basic_string@DU?$char_traits@D@std@@V?$allocator@D@2@@std@@VSlot@@@std@@@2@@std@@YAXPAU?$pair@V?$basic_string@DU?$char_traits@D@std@@V?$allocator@D@2@@std@@VSlot@@@0@IABU10@AAV?$allocator@U?$pair@V?$basic_string@DU?$char_traits@D@std@@V?$allocator@D@2@@std@@VSlot@@@std@@@0@U_Nonscalar_ptr_iterator_tag@0@U_Range_checked_iterator_tag@0@@Z$2 1000f700 f   PlugInLib:ViewerShell.obj
 0001:0000e711       __unwindfunclet$??$_Uninit_fill_n@PAU?$pair@V?$basic_string@DU?$char_traits@D@std@@V?$allocator@D@2@@std@@VSlot@@@std@@IU12@V?$allocator@U?$pair@V?$basic_string@DU?$char_traits@D@std@@V?$allocator@D@2@@std@@VSlot@@@std@@@2@@std@@YAXPAU?$pair@V?$basic_string@DU?$char_traits@D@std@@V?$allocator@D@2@@std@@VSlot@@@0@IABU10@AAV?$allocator@U?$pair@V?$basic_string@DU?$char_traits@D@std@@V?$allocator@D@2@@std@@VSlot@@@std@@@0@U_Nonscalar_ptr_iterator_tag@0@U_Range_checked_iterator_tag@0@@Z$3 1000f711 f   PlugInLib:ViewerShell.obj
 0001:0000e71a       __ehhandler$??$_Uninit_fill_n@PAU?$pair@V?$basic_string@DU?$char_traits@D@std@@V?$allocator@D@2@@std@@VSlot@@@std@@IU12@V?$allocator@U?$pair@V?$basic_string@DU?$char_traits@D@std@@V?$allocator@D@2@@std@@VSlot@@@std@@@2@@std@@YAXPAU?$pair@V?$basic_string@DU?$char_traits@D@std@@V?$allocator@D@2@@std@@VSlot@@@0@IABU10@AAV?$allocator@U?$pair@V?$basic_string@DU?$char_traits@D@std@@V?$allocator@D@2@@std@@VSlot@@@std@@@0@U_Nonscalar_ptr_iterator_tag@0@U_Range_checked_iterator_tag@0@@Z 1000f71a f   PlugInLib:ViewerShell.obj
 0001:0000e730       __unwindfunclet$?_Insert_n@?$vector@U?$pair@V?$basic_string@DU?$char_traits@D@std@@V?$allocator@D@2@@std@@VSlot@@@std@@V?$allocator@U?$pair@V?$basic_string@DU?$char_traits@D@std@@V?$allocator@D@2@@std@@VSlot@@@std@@@2@@std@@IAEXV?$_Vector_iterator@U?$pair@V?$basic_string@DU?$char_traits@D@std@@V?$allocator@D@2@@std@@VSlot@@@std@@V?$allocator@U?$pair@V?$basic_string@DU?$char_traits@D@std@@V?$allocator@D@2@@std@@VSlot@@@std@@@2@@2@IABU?$pair@V?$basic_string@DU?$char_traits@D@std@@V?$allocator@D@2@@std@@VSlot@@@2@@Z$4 1000f730 f   PlugInLib:ViewerShell.obj
 0001:0000e738       __ehhandler$?_Insert_n@?$vector@U?$pair@V?$basic_string@DU?$char_traits@D@std@@V?$allocator@D@2@@std@@VSlot@@@std@@V?$allocator@U?$pair@V?$basic_string@DU?$char_traits@D@std@@V?$allocator@D@2@@std@@VSlot@@@std@@@2@@std@@IAEXV?$_Vector_iterator@U?$pair@V?$basic_string@DU?$char_traits@D@std@@V?$allocator@D@2@@std@@VSlot@@@std@@V?$allocator@U?$pair@V?$basic_string@DU?$char_traits@D@std@@V?$allocator@D@2@@std@@VSlot@@@std@@@2@@2@IABU?$pair@V?$basic_string@DU?$char_traits@D@std@@V?$allocator@D@2@@std@@VSlot@@@2@@Z 1000f738 f   PlugInLib:ViewerShell.obj
 0001:0000e750       __unwindfunclet$??0?$AttachmentPtr@VApplicationServices@@@@QAE@XZ$0 1000f750 f   PlugInLib:ViewerShell.obj
 0001:0000e758       __ehhandler$??0?$AttachmentPtr@VApplicationServices@@@@QAE@XZ 1000f758 f   PlugInLib:ViewerShell.obj
 0001:0000e770       __unwindfunclet$??1?$AttachmentPtr@VApplicationServices@@@@UAE@XZ$0 1000f770 f   PlugInLib:ViewerShell.obj
 0001:0000e778       __unwindfunclet$??1?$AttachmentPtr@VApplicationServices@@@@UAE@XZ$1 1000f778 f   PlugInLib:ViewerShell.obj
 0001:0000e783       __ehhandler$??1?$AttachmentPtr@VApplicationServices@@@@UAE@XZ 1000f783 f   PlugInLib:ViewerShell.obj
 0001:0000e790       __unwindfunclet$??1ViewerShell@@UAE@XZ$0 1000f790 f   PlugInLib:ViewerShell.obj
 0001:0000e798       __ehhandler$??1ViewerShell@@UAE@XZ 1000f798 f   PlugInLib:ViewerShell.obj
 0001:0000e7b0       __unwindfunclet$?addSignal@?$AttachmentPtr@VApplicationServices@@@@QAEXABV?$basic_string@DU?$char_traits@D@std@@V?$allocator@D@2@@std@@ABVSlot@@@Z$0 1000f7b0 f   PlugInLib:ViewerShell.obj
 0001:0000e7b8       __unwindfunclet$?addSignal@?$AttachmentPtr@VApplicationServices@@@@QAEXABV?$basic_string@DU?$char_traits@D@std@@V?$allocator@D@2@@std@@ABVSlot@@@Z$2 1000f7b8 f   PlugInLib:ViewerShell.obj
 0001:0000e7c0       __ehhandler$?addSignal@?$AttachmentPtr@VApplicationServices@@@@QAEXABV?$basic_string@DU?$char_traits@D@std@@V?$allocator@D@2@@std@@ABVSlot@@@Z 1000f7c0 f   PlugInLib:ViewerShell.obj
 0001:0000e7d0       __unwindfunclet$??0ViewerShell@@QAE@XZ$0 1000f7d0 f   PlugInLib:ViewerShell.obj
 0001:0000e7d8       __unwindfunclet$??0ViewerShell@@QAE@XZ$4 1000f7d8 f   PlugInLib:ViewerShell.obj
 0001:0000e7e0       __unwindfunclet$??0ViewerShell@@QAE@XZ$1 1000f7e0 f   PlugInLib:ViewerShell.obj
 0001:0000e7ee       __unwindfunclet$??0ViewerShell@@QAE@XZ$2 1000f7ee f   PlugInLib:ViewerShell.obj
 0001:0000e7f7       __unwindfunclet$??0ViewerShell@@QAE@XZ$3 1000f7f7 f   PlugInLib:ViewerShell.obj
 0001:0000e7ff       __ehhandler$??0ViewerShell@@QAE@XZ 1000f7ff f   PlugInLib:ViewerShell.obj
 0001:0000e810       __unwindfunclet$??0ExecutableShell@@QAE@XZ$0 1000f810 f   PlugInLib:ExecutableShell.obj
 0001:0000e818       __unwindfunclet$??0ExecutableShell@@QAE@XZ$1 1000f818 f   PlugInLib:ExecutableShell.obj
 0001:0000e823       __ehhandler$??0ExecutableShell@@QAE@XZ 1000f823 f   PlugInLib:ExecutableShell.obj
 0001:0000e830       __unwindfunclet$??1ExecutableShell@@UAE@XZ$0 1000f830 f   PlugInLib:ExecutableShell.obj
 0001:0000e838       __unwindfunclet$??1ExecutableShell@@UAE@XZ$1 1000f838 f   PlugInLib:ExecutableShell.obj
 0001:0000e85f       __ehhandler$??1ExecutableShell@@UAE@XZ 1000f85f f   PlugInLib:ExecutableShell.obj
 0001:0000e870       __unwindfunclet$??1?$pair@$$CBV?$basic_string@DU?$char_traits@D@std@@V?$allocator@D@2@@std@@V12@@std@@QAE@XZ$0 1000f870 f   PlugInLib:PlugInShell.obj
 0001:0000e879       __ehhandler$??1?$pair@$$CBV?$basic_string@DU?$char_traits@D@std@@V?$allocator@D@2@@std@@V12@@std@@QAE@XZ 1000f879 f   PlugInLib:PlugInShell.obj
 0001:0000e890       __unwindfunclet$??0?$pair@$$CBV?$basic_string@DU?$char_traits@D@std@@V?$allocator@D@2@@std@@V12@@std@@QAE@ABV?$basic_string@DU?$char_traits@D@std@@V?$allocator@D@2@@1@0@Z$0 1000f890 f   PlugInLib:PlugInShell.obj
 0001:0000e899       __ehhandler$??0?$pair@$$CBV?$basic_string@DU?$char_traits@D@std@@V?$allocator@D@2@@std@@V12@@std@@QAE@ABV?$basic_string@DU?$char_traits@D@std@@V?$allocator@D@2@@1@0@Z 1000f899 f   PlugInLib:PlugInShell.obj
 0001:0000e8b0       __unwindfunclet$??0?$pair@$$CBV?$basic_string@DU?$char_traits@D@std@@V?$allocator@D@2@@std@@V12@@std@@QAE@ABU01@@Z$0 1000f8b0 f   PlugInLib:PlugInShell.obj
 0001:0000e8b9       __ehhandler$??0?$pair@$$CBV?$basic_string@DU?$char_traits@D@std@@V?$allocator@D@2@@std@@V12@@std@@QAE@ABU01@@Z 1000f8b9 f   PlugInLib:PlugInShell.obj
 0001:0000e8d0       __unwindfunclet$??1ContextMenuAction@@QAE@XZ$0 1000f8d0 f   PlugInLib:PlugInShell.obj
 0001:0000e8dc       __ehhandler$??1ContextMenuAction@@QAE@XZ 1000f8dc f   PlugInLib:PlugInShell.obj
 0001:0000e8f0       __unwindfunclet$??0?$Resource@VSettableSessionItem@@VFactoryObject@@@@QAE@ABVArgs@FactoryAllocator@@@Z$0 1000f8f0 f   PlugInLib:PlugInShell.obj
 0001:0000e8fb       __ehhandler$??0?$Resource@VSettableSessionItem@@VFactoryObject@@@@QAE@ABVArgs@FactoryAllocator@@@Z 1000f8fb f   PlugInLib:PlugInShell.obj
 0001:0000e910       __unwindfunclet$??1?$Resource@VSettableSessionItem@@VFactoryObject@@@@UAE@XZ$0 1000f910 f   PlugInLib:PlugInShell.obj
 0001:0000e91b       __ehhandler$??1?$Resource@VSettableSessionItem@@VFactoryObject@@@@UAE@XZ 1000f91b f   PlugInLib:PlugInShell.obj
 0001:0000e930       __unwindfunclet$?_Buynode@?$_Tree@V?$_Tmap_traits@V?$basic_string@DU?$char_traits@D@std@@V?$allocator@D@2@@std@@V12@U?$less@V?$basic_string@DU?$char_traits@D@std@@V?$allocator@D@2@@std@@@2@V?$allocator@U?$pair@$$CBV?$basic_string@DU?$char_traits@D@std@@V?$allocator@D@2@@std@@V12@@std@@@2@$0A@@std@@@std@@IAEPAU_Node@?$_Tree_nod@V?$_Tmap_traits@V?$basic_string@DU?$char_traits@D@std@@V?$allocator@D@2@@std@@V12@U?$less@V?$basic_string@DU?$char_traits@D@std@@V?$allocator@D@2@@std@@@2@V?$allocator@U?$pair@$$CBV?$basic_string@DU?$char_traits@D@std@@V?$allocator@D@2@@std@@V12@@std@@@2@$0A@@std@@@2@PAU342@00ABU?$pair@$$CBV?$basic_string@DU?$char_traits@D@std@@V?$allocator@D@2@@std@@V12@@2@D@Z$2 1000f930 f   PlugInLib:PlugInShell.obj
 0001:0000e941       __ehhandler$?_Buynode@?$_Tree@V?$_Tmap_traits@V?$basic_string@DU?$char_traits@D@std@@V?$allocator@D@2@@std@@V12@U?$less@V?$basic_string@DU?$char_traits@D@std@@V?$allocator@D@2@@std@@@2@V?$allocator@U?$pair@$$CBV?$basic_string@DU?$char_traits@D@std@@V?$allocator@D@2@@std@@V12@@std@@@2@$0A@@std@@@std@@IAEPAU_Node@?$_Tree_nod@V?$_Tmap_traits@V?$basic_string@DU?$char_traits@D@std@@V?$allocator@D@2@@std@@V12@U?$less@V?$basic_string@DU?$char_traits@D@std@@V?$allocator@D@2@@std@@@2@V?$allocator@U?$pair@$$CBV?$basic_string@DU?$char_traits@D@std@@V?$allocator@D@2@@std@@V12@@std@@@2@$0A@@std@@@2@PAU342@00ABU?$pair@$$CBV?$basic_string@DU?$char_traits@D@std@@V?$allocator@D@2@@std@@V12@@2@D@Z 1000f941 f   PlugInLib:PlugInShell.obj
 0001:0000e950       __unwindfunclet$??0?$FactoryResource@VSettableSessionItem@@@@QAE@XZ$0 1000f950 f   PlugInLib:PlugInShell.obj
 0001:0000e958       __unwindfunclet$??0?$FactoryResource@VSettableSessionItem@@@@QAE@XZ$1 1000f958 f   PlugInLib:PlugInShell.obj
 0001:0000e960       __ehhandler$??0?$FactoryResource@VSettableSessionItem@@@@QAE@XZ 1000f960 f   PlugInLib:PlugInShell.obj
 0001:0000e970       __unwindfunclet$?_Insert@?$_Tree@V?$_Tmap_traits@V?$basic_string@DU?$char_traits@D@std@@V?$allocator@D@2@@std@@V12@U?$less@V?$basic_string@DU?$char_traits@D@std@@V?$allocator@D@2@@std@@@2@V?$allocator@U?$pair@$$CBV?$basic_string@DU?$char_traits@D@std@@V?$allocator@D@2@@std@@V12@@std@@@2@$0A@@std@@@std@@IAE?AViterator@12@_NPAU_Node@?$_Tree_nod@V?$_Tmap_traits@V?$basic_string@DU?$char_traits@D@std@@V?$allocator@D@2@@std@@V12@U?$less@V?$basic_string@DU?$char_traits@D@std@@V?$allocator@D@2@@std@@@2@V?$allocator@U?$pair@$$CBV?$basic_string@DU?$char_traits@D@std@@V?$allocator@D@2@@std@@V12@@std@@@2@$0A@@std@@@2@ABU?$pair@$$CBV?$basic_string@DU?$char_traits@D@std@@V?$allocator@D@2@@std@@V12@@2@@Z$0 1000f970 f   PlugInLib:PlugInShell.obj
 0001:0000e979       __unwindfunclet$?_Insert@?$_Tree@V?$_Tmap_traits@V?$basic_string@DU?$char_traits@D@std@@V?$allocator@D@2@@std@@V12@U?$less@V?$basic_string@DU?$char_traits@D@std@@V?$allocator@D@2@@std@@@2@V?$allocator@U?$pair@$$CBV?$basic_string@DU?$char_traits@D@std@@V?$allocator@D@2@@std@@V12@@std@@@2@$0A@@std@@@std@@IAE?AViterator@12@_NPAU_Node@?$_Tree_nod@V?$_Tmap_traits@V?$basic_string@DU?$char_traits@D@std@@V?$allocator@D@2@@std@@V12@U?$less@V?$basic_string@DU?$char_traits@D@std@@V?$allocator@D@2@@std@@@2@V?$allocator@U?$pair@$$CBV?$basic_string@DU?$char_traits@D@std@@V?$allocator@D@2@@std@@V12@@std@@@2@$0A@@std@@@2@ABU?$pair@$$CBV?$basic_string@DU?$char_traits@D@std@@V?$allocator@D@2@@std@@V12@@2@@Z$2 1000f979 f   PlugInLib:PlugInShell.obj
 0001:0000e982       __ehhandler$?_Insert@?$_Tree@V?$_Tmap_traits@V?$basic_string@DU?$char_traits@D@std@@V?$allocator@D@2@@std@@V12@U?$less@V?$basic_string@DU?$char_traits@D@std@@V?$allocator@D@2@@std@@@2@V?$allocator@U?$pair@$$CBV?$basic_string@DU?$char_traits@D@std@@V?$allocator@D@2@@std@@V12@@std@@@2@$0A@@std@@@std@@IAE?AViterator@12@_NPAU_Node@?$_Tree_nod@V?$_Tmap_traits@V?$basic_string@DU?$char_traits@D@std@@V?$allocator@D@2@@std@@V12@U?$less@V?$basic_string@DU?$char_traits@D@std@@V?$allocator@D@2@@std@@@2@V?$allocator@U?$pair@$$CBV?$basic_string@DU?$char_traits@D@std@@V?$allocator@D@2@@std@@V12@@std@@@2@$0A@@std@@@2@ABU?$pair@$$CBV?$basic_string@DU?$char_traits@D@std@@V?$allocator@D@2@@std@@V12@@2@@Z 1000f982 f   PlugInLib:PlugInShell.obj
 0001:0000e990       __unwindfunclet$?_Erase@?$_Tree@V?$_Tmap_traits@V?$basic_string@DU?$char_traits@D@std@@V?$allocator@D@2@@std@@V12@U?$less@V?$basic_string@DU?$char_traits@D@std@@V?$allocator@D@2@@std@@@2@V?$allocator@U?$pair@$$CBV?$basic_string@DU?$char_traits@D@std@@V?$allocator@D@2@@std@@V12@@std@@@2@$0A@@std@@@std@@IAEXPAU_Node@?$_Tree_nod@V?$_Tmap_traits@V?$basic_string@DU?$char_traits@D@std@@V?$allocator@D@2@@std@@V12@U?$less@V?$basic_string@DU?$char_traits@D@std@@V?$allocator@D@2@@std@@@2@V?$allocator@U?$pair@$$CBV?$basic_string@DU?$char_traits@D@std@@V?$allocator@D@2@@std@@V12@@std@@@2@$0A@@std@@@2@@Z$1 1000f990 f   PlugInLib:PlugInShell.obj
 0001:0000e999       __ehhandler$?_Erase@?$_Tree@V?$_Tmap_traits@V?$basic_string@DU?$char_traits@D@std@@V?$allocator@D@2@@std@@V12@U?$less@V?$basic_string@DU?$char_traits@D@std@@V?$allocator@D@2@@std@@@2@V?$allocator@U?$pair@$$CBV?$basic_string@DU?$char_traits@D@std@@V?$allocator@D@2@@std@@V12@@std@@@2@$0A@@std@@@std@@IAEXPAU_Node@?$_Tree_nod@V?$_Tmap_traits@V?$basic_string@DU?$char_traits@D@std@@V?$allocator@D@2@@std@@V12@U?$less@V?$basic_string@DU?$char_traits@D@std@@V?$allocator@D@2@@std@@@2@V?$allocator@U?$pair@$$CBV?$basic_string@DU?$char_traits@D@std@@V?$allocator@D@2@@std@@V12@@std@@@2@$0A@@std@@@2@@Z 1000f999 f   PlugInLib:PlugInShell.obj
 0001:0000e9b0       __unwindfunclet$?erase@?$_Tree@V?$_Tmap_traits@V?$basic_string@DU?$char_traits@D@std@@V?$allocator@D@2@@std@@V12@U?$less@V?$basic_string@DU?$char_traits@D@std@@V?$allocator@D@2@@std@@@2@V?$allocator@U?$pair@$$CBV?$basic_string@DU?$char_traits@D@std@@V?$allocator@D@2@@std@@V12@@std@@@2@$0A@@std@@@std@@QAE?AViterator@12@V312@@Z$0 1000f9b0 f   PlugInLib:PlugInShell.obj
 0001:0000e9b9       __unwindfunclet$?erase@?$_Tree@V?$_Tmap_traits@V?$basic_string@DU?$char_traits@D@std@@V?$allocator@D@2@@std@@V12@U?$less@V?$basic_string@DU?$char_traits@D@std@@V?$allocator@D@2@@std@@@2@V?$allocator@U?$pair@$$CBV?$basic_string@DU?$char_traits@D@std@@V?$allocator@D@2@@std@@V12@@std@@@2@$0A@@std@@@std@@QAE?AViterator@12@V312@@Z$2 1000f9b9 f   PlugInLib:PlugInShell.obj
 0001:0000e9c2       __unwindfunclet$?erase@?$_Tree@V?$_Tmap_traits@V?$basic_string@DU?$char_traits@D@std@@V?$allocator@D@2@@std@@V12@U?$less@V?$basic_string@DU?$char_traits@D@std@@V?$allocator@D@2@@std@@@2@V?$allocator@U?$pair@$$CBV?$basic_string@DU?$char_traits@D@std@@V?$allocator@D@2@@std@@V12@@std@@@2@$0A@@std@@@std@@QAE?AViterator@12@V312@@Z$5 1000f9c2 f   PlugInLib:PlugInShell.obj
 0001:0000e9cb       __ehhandler$?erase@?$_Tree@V?$_Tmap_traits@V?$basic_string@DU?$char_traits@D@std@@V?$allocator@D@2@@std@@V12@U?$less@V?$basic_string@DU?$char_traits@D@std@@V?$allocator@D@2@@std@@@2@V?$allocator@U?$pair@$$CBV?$basic_string@DU?$char_traits@D@std@@V?$allocator@D@2@@std@@V12@@std@@@2@$0A@@std@@@std@@QAE?AViterator@12@V312@@Z 1000f9cb f   PlugInLib:PlugInShell.obj
 0001:0000e9e0       __ehhandler$?_Copy@?$_Tree@V?$_Tmap_traits@V?$basic_string@DU?$char_traits@D@std@@V?$allocator@D@2@@std@@V12@U?$less@V?$basic_string@DU?$char_traits@D@std@@V?$allocator@D@2@@std@@@2@V?$allocator@U?$pair@$$CBV?$basic_string@DU?$char_traits@D@std@@V?$allocator@D@2@@std@@V12@@std@@@2@$0A@@std@@@std@@IAEPAU_Node@?$_Tree_nod@V?$_Tmap_traits@V?$basic_string@DU?$char_traits@D@std@@V?$allocator@D@2@@std@@V12@U?$less@V?$basic_string@DU?$char_traits@D@std@@V?$allocator@D@2@@std@@@2@V?$allocator@U?$pair@$$CBV?$basic_string@DU?$char_traits@D@std@@V?$allocator@D@2@@std@@V12@@std@@@2@$0A@@std@@@2@PAU342@0@Z 1000f9e0 f   PlugInLib:PlugInShell.obj
 0001:0000e9f0       __unwindfunclet$?clear@?$list@UContextMenuAction@@V?$allocator@UContextMenuAction@@@std@@@std@@QAEXXZ$1 1000f9f0 f   PlugInLib:PlugInShell.obj
 0001:0000e9fc       __ehhandler$?clear@?$list@UContextMenuAction@@V?$allocator@UContextMenuAction@@@std@@@std@@QAEXXZ 1000f9fc f   PlugInLib:PlugInShell.obj
 0001:0000ea10       __unwindfunclet$??A?$map@V?$basic_string@DU?$char_traits@D@std@@V?$allocator@D@2@@std@@V12@U?$less@V?$basic_string@DU?$char_traits@D@std@@V?$allocator@D@2@@std@@@2@V?$allocator@U?$pair@$$CBV?$basic_string@DU?$char_traits@D@std@@V?$allocator@D@2@@std@@V12@@std@@@2@@std@@QAEAAV?$basic_string@DU?$char_traits@D@std@@V?$allocator@D@2@@1@ABV21@@Z$0 1000fa10 f   PlugInLib:PlugInShell.obj
 0001:0000ea19       __unwindfunclet$??A?$map@V?$basic_string@DU?$char_traits@D@std@@V?$allocator@D@2@@std@@V12@U?$less@V?$basic_string@DU?$char_traits@D@std@@V?$allocator@D@2@@std@@@2@V?$allocator@U?$pair@$$CBV?$basic_string@DU?$char_traits@D@std@@V?$allocator@D@2@@std@@V12@@std@@@2@@std@@QAEAAV?$basic_string@DU?$char_traits@D@std@@V?$allocator@D@2@@1@ABV21@@Z$1 1000fa19 f   PlugInLib:PlugInShell.obj
 0001:0000ea21       __ehhandler$??A?$map@V?$basic_string@DU?$char_traits@D@std@@V?$allocator@D@2@@std@@V12@U?$less@V?$basic_string@DU?$char_traits@D@std@@V?$allocator@D@2@@std@@@2@V?$allocator@U?$pair@$$CBV?$basic_string@DU?$char_traits@D@std@@V?$allocator@D@2@@std@@V12@@std@@@2@@std@@QAEAAV?$basic_string@DU?$char_traits@D@std@@V?$allocator@D@2@@1@ABV21@@Z 1000fa21 f   PlugInLib:PlugInShell.obj
 0001:0000ea30       __ehhandler$??0?$_Tree@V?$_Tmap_traits@V?$basic_string@DU?$char_traits@D@std@@V?$allocator@D@2@@std@@V12@U?$less@V?$basic_string@DU?$char_traits@D@std@@V?$allocator@D@2@@std@@@2@V?$allocator@U?$pair@$$CBV?$basic_string@DU?$char_traits@D@std@@V?$allocator@D@2@@std@@V12@@std@@@2@$0A@@std@@@std@@QAE@ABV01@@Z 1000fa30 f   PlugInLib:PlugInShell.obj
 0001:0000ea40       __unwindfunclet$??1PlugInShell@@UAE@XZ$0 1000fa40 f   PlugInLib:PlugInShell.obj
 0001:0000ea48       __unwindfunclet$??1PlugInShell@@UAE@XZ$1 1000fa48 f   PlugInLib:PlugInShell.obj
 0001:0000ea6f       __unwindfunclet$??1PlugInShell@@UAE@XZ$2 1000fa6f f   PlugInLib:PlugInShell.obj
 0001:0000ea7a       __unwindfunclet$??1PlugInShell@@UAE@XZ$3 1000fa7a f   PlugInLib:PlugInShell.obj
 0001:0000ea86       __unwindfunclet$??1PlugInShell@@UAE@XZ$4 1000fa86 f   PlugInLib:PlugInShell.obj
 0001:0000ea92       __unwindfunclet$??1PlugInShell@@UAE@XZ$5 1000fa92 f   PlugInLib:PlugInShell.obj
 0001:0000ea9e       __unwindfunclet$??1PlugInShell@@UAE@XZ$6 1000fa9e f   PlugInLib:PlugInShell.obj
 0001:0000eaac       __unwindfunclet$??1PlugInShell@@UAE@XZ$7 1000faac f   PlugInLib:PlugInShell.obj
 0001:0000eabb       __unwindfunclet$??1PlugInShell@@UAE@XZ$8 1000fabb f   PlugInLib:PlugInShell.obj
 0001:0000eaca       __unwindfunclet$??1PlugInShell@@UAE@XZ$9 1000faca f   PlugInLib:PlugInShell.obj
 0001:0000ead9       __unwindfunclet$??1PlugInShell@@UAE@XZ$10 1000fad9 f   PlugInLib:PlugInShell.obj
 0001:0000eae8       __ehhandler$??1PlugInShell@@UAE@XZ 1000fae8 f   PlugInLib:PlugInShell.obj
 0001:0000eb00       __unwindfunclet$??0PlugInShell@@QAE@XZ$0 1000fb00 f   PlugInLib:PlugInShell.obj
 0001:0000eb08       __unwindfunclet$??0PlugInShell@@QAE@XZ$1 1000fb08 f   PlugInLib:PlugInShell.obj
 0001:0000eb13       __unwindfunclet$??0PlugInShell@@QAE@XZ$2 1000fb13 f   PlugInLib:PlugInShell.obj
 0001:0000eb1e       __unwindfunclet$??0PlugInShell@@QAE@XZ$3 1000fb1e f   PlugInLib:PlugInShell.obj
 0001:0000eb2a       __unwindfunclet$??0PlugInShell@@QAE@XZ$4 1000fb2a f   PlugInLib:PlugInShell.obj
 0001:0000eb36       __unwindfunclet$??0PlugInShell@@QAE@XZ$5 1000fb36 f   PlugInLib:PlugInShell.obj
 0001:0000eb42       __unwindfunclet$??0PlugInShell@@QAE@XZ$6 1000fb42 f   PlugInLib:PlugInShell.obj
 0001:0000eb50       __unwindfunclet$??0PlugInShell@@QAE@XZ$7 1000fb50 f   PlugInLib:PlugInShell.obj
 0001:0000eb5f       __unwindfunclet$??0PlugInShell@@QAE@XZ$8 1000fb5f f   PlugInLib:PlugInShell.obj
 0001:0000eb6e       __unwindfunclet$??0PlugInShell@@QAE@XZ$9 1000fb6e f   PlugInLib:PlugInShell.obj
 0001:0000eb7d       __unwindfunclet$??0PlugInShell@@QAE@XZ$10 1000fb7d f   PlugInLib:PlugInShell.obj
 0001:0000eb8c       __ehhandler$??0PlugInShell@@QAE@XZ 1000fb8c f   PlugInLib:PlugInShell.obj
 0001:0000eba0       __unwindfunclet$?get@?$Service@VSessionExplorer@@@@QBEPAVSessionExplorer@@XZ$0 1000fba0 f   PlugInUtilities:Service.obj
 0001:0000eba9       __unwindfunclet$?get@?$Service@VSessionExplorer@@@@QBEPAVSessionExplorer@@XZ$1 1000fba9 f   PlugInUtilities:Service.obj
 0001:0000ebb2       __ehhandler$?get@?$Service@VSessionExplorer@@@@QBEPAVSessionExplorer@@XZ 1000fbb2 f   PlugInUtilities:Service.obj
 0001:0000ebc0       __unwindfunclet$?LogVerificationErrorProc@@YAXPBD0I0@Z$0 1000fbc0 f   PlugInUtilities:AppVerify.obj
 0001:0000ebcc       __unwindfunclet$?LogVerificationErrorProc@@YAXPBD0I0@Z$1 1000fbcc f   PlugInUtilities:AppVerify.obj
 0001:0000ebd8       __unwindfunclet$?LogVerificationErrorProc@@YAXPBD0I0@Z$2 1000fbd8 f   PlugInUtilities:AppVerify.obj
 0001:0000ebe4       __unwindfunclet$?LogVerificationErrorProc@@YAXPBD0I0@Z$3 1000fbe4 f   PlugInUtilities:AppVerify.obj
 0001:0000ebf0       __unwindfunclet$?LogVerificationErrorProc@@YAXPBD0I0@Z$4 1000fbf0 f   PlugInUtilities:AppVerify.obj
 0001:0000ebfc       __unwindfunclet$?LogVerificationErrorProc@@YAXPBD0I0@Z$5 1000fbfc f   PlugInUtilities:AppVerify.obj
 0001:0000ec08       __unwindfunclet$?LogVerificationErrorProc@@YAXPBD0I0@Z$6 1000fc08 f   PlugInUtilities:AppVerify.obj
 0001:0000ec14       __unwindfunclet$?LogVerificationErrorProc@@YAXPBD0I0@Z$7 1000fc14 f   PlugInUtilities:AppVerify.obj
 0001:0000ec20       __unwindfunclet$?LogVerificationErrorProc@@YAXPBD0I0@Z$8 1000fc20 f   PlugInUtilities:AppVerify.obj
 0001:0000ec2c       __unwindfunclet$?LogVerificationErrorProc@@YAXPBD0I0@Z$9 1000fc2c f   PlugInUtilities:AppVerify.obj
 0001:0000ec38       __unwindfunclet$?LogVerificationErrorProc@@YAXPBD0I0@Z$10 1000fc38 f   PlugInUtilities:AppVerify.obj
 0001:0000ec44       __unwindfunclet$?LogVerificationErrorProc@@YAXPBD0I0@Z$11 1000fc44 f   PlugInUtilities:AppVerify.obj
 0001:0000ec50       __unwindfunclet$?LogVerificationErrorProc@@YAXPBD0I0@Z$12 1000fc50 f   PlugInUtilities:AppVerify.obj
 0001:0000ec5c       __unwindfunclet$?LogVerificationErrorProc@@YAXPBD0I0@Z$13 1000fc5c f   PlugInUtilities:AppVerify.obj
 0001:0000ec68       __unwindfunclet$?LogVerificationErrorProc@@YAXPBD0I0@Z$14 1000fc68 f   PlugInUtilities:AppVerify.obj
 0001:0000ec74       __unwindfunclet$?LogVerificationErrorProc@@YAXPBD0I0@Z$15 1000fc74 f   PlugInUtilities:AppVerify.obj
 0001:0000ec80       __ehhandler$?LogVerificationErrorProc@@YAXPBD0I0@Z 1000fc80 f   PlugInUtilities:AppVerify.obj
 0001:0000ec90       ??__EDataMergepluginFactory@SpectralDataMerge@@YAXXZ 1000fc90 f   DataMerge.obj
 0001:0000ed20       ??__E?staticMetaObject@DataMerge@@2UQMetaObject@@B@@YAXXZ 1000fd20 f   moc_DataMerge.obj
 0001:0000ed30       ??__FDataMergepluginFactory@SpectralDataMerge@@YAXXZ 1000fd30 f   DataMerge.obj
 0001:0000ed40       ??__FsFactories@?1??factories@SpectralDataMerge@@YAAAV?$vector@U?$pair@V?$basic_string@DU?$char_traits@D@std@@V?$allocator@D@2@@std@@PAVPlugInFactory@@@std@@V?$allocator@U?$pair@V?$basic_string@DU?$char_traits@D@std@@V?$allocator@D@2@@std@@PAVPlugInFactory@@@std@@@2@@std@@XZ@YAXXZ 1000fd40 f   ModuleManager.obj

 Exports

  ordinal    name

        1    _SpectralDataMergeInstantiatePlugIn
               exported name: SpectralDataMergeInstantiatePlugIn
        2    _opticks_get_module_descriptor
               exported name: opticks_get_module_descriptor
